HI-TECH Software C Compiler 

Linker command line:

\
  --edf=C:\Program Files (x86)\HI-TECH Software\PICC-18\PRO\9.66\dat\en_msgs.txt \
  -cs -h+dist/default/production\test.X.production.sym -z -Q18F2682 -ol.obj \
  -Mdist/default/production/test.X.production.map -E1 -ACODE=00h-013FFFh \
  -ACONST=00h-013FFFh -ASMALLCONST=0D00h-0DFFhx51 \
  -AMEDIUMCONST=0D00h-0FFFFh,010D00h-013FFFh -ARAM=00h-0FFhx12,0C00h-0C9Fh \
  -ABIGRAM=00h-0C9Fh -ACOMRAM=00h-05Fh -AABS1=00h-0C9Fh -ABANK0=00h-0FFh \
  -ABANK1=0100h-01FFh -ABANK2=0200h-02FFh -ABANK3=0300h-03FFh \
  -ABANK4=0400h-04FFh -ABANK5=0500h-05FFh -ABANK6=0600h-06FFh \
  -ABANK7=0700h-07FFh -ABANK8=0800h-08FFh -ABANK9=0900h-09FFh \
  -ABANK10=0A00h-0AFFh -ABANK11=0B00h-0BFFh -ABANK12=0C00h-0C9Fh \
  -ANVRAM=0C00h-0C9Fh \
  -preset_vec=00h,intcode=08h,intcodelo,powerup,init,end_init \
  -pramtop=0D00h -psmallconst=SMALLCONST -pmediumconst=MEDIUMCONST \
  -pconst=CONST -pparam1=BANK1 -AFARRAM=00h-00h -ACONFIG=0300000h-030000Dh \
  -pconfig=CONFIG -AIDLOC=0200000h-0200007h -pidloc=IDLOC \
  -AEEDATA=0F00000h-0F003FFh -peeprom_data=EEDATA \
  -prdata=COMRAM,nvrram=COMRAM,nvbit=COMRAM,rbss=COMRAM,rbit=COMRAM \
  -pfarbss=FARRAM,fardata=FARRAM \
  -pintsave_regs=BIGRAM,bigbss=BIGRAM,bigdata=BIGRAM -pbss=RAM \
  -pidata=CODE,irdata=CODE,ibigdata=CODE,ifardata=CODE \
  C:\Users\CCS\AppData\Local\Temp\s4rg.obj \
  dist/default/production\test.X.production.obj 

Object code version is 3.10

Machine type is 18F2682

Call graph: (short form)

*_main size 0,0 offset 0
     _init size 0,0 offset 0
*    _update_ports size 0,1 offset 0

Estimated maximum call depth: 1

*intlevel2 size 0,0 offset 1
*    _ISR size 0,18 offset 1

Estimated maximum call depth: 1


                Name          Link     Load   Length Selector Space Scale
C:\Users\CCS\AppData\Local\Temp\s4rg.obj
                end_init        24       24       12       4     0
                init            18       18        C       4     0
                reset_vec        0        0        4       0     0
dist/default/production\test.X.production.obj
                intcode          8        8       10       4     0
                smallcons      D00      D00       12     680     0
                text3          D12      D12       F2     689     0
                text0          E6C      E6C       24     689     0
                text2          E90      E90       20     689     0
                text1          E04      E04       68     689     0

COMMON          param1         100      100       13     100     1

TOTAL           Name          Link     Load   Length  Space
        CLASS   CODE           
                end_init        24       24       12     0
                init            18       18        C     0
                intcode          8        8       10     0
                reset_vec        0        0        4     0
                text3          D12      D12       F2     0
                text0          E6C      E6C       24     0
                text2          E90      E90       20     0
                text1          E04      E04       68     0

        CLASS   CONST          

        CLASS   SMALLCONST     
                smallcons      D00      D00       12     0

        CLASS   MEDIUMCONST    

        CLASS   RAM            

        CLASS   BIGRAM         

        CLASS   COMRAM         

        CLASS   ABS1           
                abs_s1           0        0        2     1

        CLASS   BANK0          

        CLASS   BANK1          
                param1         100      100       13     1

        CLASS   BANK2          

        CLASS   BANK3          

        CLASS   BANK4          

        CLASS   BANK5          

        CLASS   BANK6          

        CLASS   BANK7          

        CLASS   BANK8          

        CLASS   BANK9          

        CLASS   BANK10         

        CLASS   BANK11         

        CLASS   BANK12         

        CLASS   NVRAM          

        CLASS   FARRAM         

        CLASS   CONFIG         

        CLASS   IDLOC          

        CLASS   EEDATA         



SEGMENTS        Name           Load    Length   Top     Selector    Space Class

                reset_vec       000000  000004  000004         0       0  CODE    
                intcode         000008  00002E  000036         4       0  CODE    
                param1          000100  000013  000113       100       1  BANK1   
                smallconst      000D00  000012  000D12       680       0  SMALLCON
                idata           000D12  00019E  000EB0       689       0  CODE    


UNUSED ADDRESS RANGES

        BANK0            000002-0000FF
        BANK1            000113-0001FF
        BANK10           000A00-000AFF
        BANK11           000B00-000BFF
        BANK12           000C00-000C9F
        BANK2            000200-0002FF
        BANK3            000300-0003FF
        BANK4            000400-0004FF
        BANK5            000500-0005FF
        BANK6            000600-0006FF
        BANK7            000700-0007FF
        BANK8            000800-0008FF
        BANK9            000900-0009FF
        BIGRAM           000002-0000FF
                         000113-000C9F
        CODE             000004-000007
                         000036-000CFF
                         000EB0-013FFF
        COMRAM           000002-00005F
        CONFIG           300000-30000D
        CONST            000004-000007
                         000036-000CFF
                         000EB0-013FFF
        EEDATA           F00000-F003FF
        IDLOC            200000-200007
        MEDIUMCONST      000EB0-00FFFF
                         010D00-013FFF
        NVRAM            000C00-000C9F
        RAM              000002-0000FF
                         000113-000C9F
        SMALLCONST       000EB0-003FFF

                                  Symbol Table

??_ISR                param1       000101
??_init               param1       000100
??_main               param1       000100
??_update_ports       param1       000100
?_ISR                 param1       000101
?_init                param1       000100
?_main                param1       000100
?_update_ports        param1       000100
F10566                (abs)        000000
ISR@direction         param1       000101
_A                    (abs)        000001
_ADCON1               (abs)        000FC1
_GIE                  (abs)        007F97
_IPEN                 (abs)        007E87
_ISR                  text3        000D12
_LEDDISPLAY           smallconst   000D01
_PORTA                (abs)        000F80
_PORTB                (abs)        000F81
_PORTC                (abs)        000F82
_PORTE                (abs)        000F84
_RBIE                 (abs)        007F93
_RBIF                 (abs)        007F90
_RBPU                 (abs)        007F8F
_T1CON                (abs)        000FCD
_TMR1H                (abs)        000FCF
_TMR1IE               (abs)        007CE8
_TMR1IF               (abs)        007CF0
_TRISA                (abs)        000F92
_TRISB                (abs)        000F93
_TRISC                (abs)        000F94
__Bnvbit              nvbit        000002
__Brbit               rbit         000002
__HRAM                (abs)        000000
__Habsbss0            (abs)        000002
__Hbigbss             bigbss       000113
__Hbigdata            bigdata      000113
__Hbss                bss          000002
__Hclrtext            clrtext      000D12
__Hconfig             config       300000
__Hconst              const        000D12
__Hdata               data         000D12
__Heeprom_data        eeprom_data  F00000
__Hend_init           end_init     000036
__Hfarbss             farbss       000000
__Hfardata            fardata      000000
__Hibigdata           ibigdata     000D12
__Hidata              idata        000D12
__Hidloc              idloc        200000
__Hifardata           ifardata     000D12
__Hinit               init         000024
__Hintcode            intcode      000018
__Hintcodelo          intcodelo    000018
__Hintentry           intentry     000D12
__Hintret             intret       000D12
__Hintsave_regs       intsave_regs 000113
__Hirdata             irdata       000D12
__Hmediumconst        mediumconst  000D12
__Hnvbit              nvbit        000010
__Hnvram              nvram        000D12
__Hnvrram             nvrram       000002
__Hparam              param1       000113
__Hparam0             param0       000D12
__Hparam1             param1       000113
__Hparam10            param10      000D12
__Hparam11            param11      000D12
__Hparam12            param12      000D12
__Hparam2             param2       000D12
__Hparam3             param3       000D12
__Hparam4             param4       000D12
__Hparam5             param5       000D12
__Hparam6             param6       000D12
__Hparam7             param7       000D12
__Hparam8             param8       000D12
__Hparam9             param9       000D12
__Hpowerup            powerup      000018
__Hramtop             ramtop       000D00
__Hrbit               rbit         000010
__Hrbss               rbss         000002
__Hrdata              rdata        000002
__Hreset_vec          reset_vec    000004
__Hrparam             rparam       000D12
__Hsmallconst         smallconst   000D12
__Hstruct             struct       000002
__Htemp               temp         000002
__Htext               text         000D12
__Htext0              text0        000D12
__Htext1              text1        000D12
__Htext2              text2        000D12
__Htext3              text3        000D12
__LRAM                (abs)        000001
__Labsbss0            (abs)        000000
__Lbigbss             bigbss       000113
__Lbigdata            bigdata      000113
__Lbss                bss          000002
__Lclrtext            clrtext      000D12
__Lconfig             config       300000
__Lconst              const        000D12
__Ldata               (abs)        000000
__Leeprom_data        eeprom_data  F00000
__Lend_init           end_init     000024
__Lfarbss             farbss       000000
__Lfardata            fardata      000000
__Libigdata           ibigdata     000D12
__Lidata              idata        000D12
__Lidloc              idloc        200000
__Lifardata           ifardata     000D12
__Linit               init         000018
__Lintcode            intcode      000008
__Lintcodelo          intcodelo    000018
__Lintentry           intentry     000D12
__Lintret             intret       000D12
__Lintsave_regs       intsave_regs 000113
__Lirdata             irdata       000D12
__Lmediumconst        mediumconst  000D12
__Lnvbit              nvbit        000010
__Lnvram              nvram        000D12
__Lnvrram             nvrram       000002
__Lparam              param1       000100
__Lparam0             param0       000D12
__Lparam1             param1       000100
__Lparam10            param10      000D12
__Lparam11            param11      000D12
__Lparam12            param12      000D12
__Lparam2             param2       000D12
__Lparam3             param3       000D12
__Lparam4             param4       000D12
__Lparam5             param5       000D12
__Lparam6             param6       000D12
__Lparam7             param7       000D12
__Lparam8             param8       000D12
__Lparam9             param9       000D12
__Lpowerup            powerup      000018
__Lramtop             ramtop       000D00
__Lrbit               rbit         000010
__Lrbss               rbss         000002
__Lrdata              rdata        000002
__Lreset_vec          reset_vec    000000
__Lrparam             rparam       000D12
__Lsmallconst         smallconst   000D00
__Lstruct             struct       000002
__Ltemp               temp         000002
__Ltext               text         000D12
__Ltext0              text0        000D12
__Ltext1              text1        000D12
__Ltext2              text2        000D12
__Ltext3              text3        000D12
__S0                  (abs)        F00000
__S1                  (abs)        000C00
__accesstop           (abs)        000060
__activetblptr        (abs)        000003
__end_of_ISR          text3        000E04
__end_of_init         text2        000EB0
__end_of_main         text0        000E90
__end_of_update_ports text1        000E6C
__mediumconst         mediumconst  000D12
__ramtop              ramtop       000D00
__smallconst          smallconst   000D00
_exit                 init         000018
_init                 text2        000E90
_main                 text0        000E6C
_update_ports         text1        000E04
int_func              intcode      000008
intlevel0             text         000EB0
intlevel1             text         000EB0
intlevel2             text         000EB0
intlevel3             text         000EB0
start                 init         000018
