

HI-TECH Software LITE Macro Assembler (PIC18) V9.66 build 8870 
                                                       Tue May 01 16:35:52 2012

HI-TECH Software Omniscient Code Generator build 8870
     1  000000                     opt subtitle "HI-TECH Software Omniscient Code G
                                 enerator build 8870"
     2                           
     3                           	processor	18F2682
     4  000000                     porta	equ	0F80h
     5  000000                     portb	equ	0F81h
     6  000000                     portc	equ	0F82h
     7  000000                     portd	equ	0F83h
     8  000000                     porte	equ	0F84h
     9  000000                     lata	equ	0F89h
    10  000000                     latb	equ	0F8Ah
    11  000000                     latc	equ	0F8Bh
    12  000000                     latd	equ	0F8Ch
    13  000000                     late	equ	0F8Dh
    14  000000                     trisa	equ	0F92h
    15  000000                     trisb	equ	0F93h
    16  000000                     trisc	equ	0F94h
    17  000000                     trisd	equ	0F95h
    18  000000                     trise	equ	0F96h
    19  000000                     pie1	equ	0F9Dh
    20  000000                     pir1	equ	0F9Eh
    21  000000                     ipr1	equ	0F9Fh
    22  000000                     pie2	equ	0FA0h
    23  000000                     pir2	equ	0FA1h
    24  000000                     ipr2	equ	0FA2h
    25  000000                     t3con	equ	0FB1h
    26  000000                     tmr3l	equ	0FB2h
    27  000000                     tmr3h	equ	0FB3h
    28  000000                     ccp1con	equ	0FBDh
    29  000000                     ccpr1l	equ	0FBEh
    30  000000                     ccpr1h	equ	0FBFh
    31  000000                     adcon1	equ	0FC1h
    32  000000                     adcon0	equ	0FC2h
    33  000000                     adresl	equ	0FC3h
    34  000000                     adresh	equ	0FC4h
    35  000000                     sspcon2	equ	0FC5h
    36  000000                     sspcon1	equ	0FC6h
    37  000000                     sspstat	equ	0FC7h
    38  000000                     sspadd	equ	0FC8h
    39  000000                     sspbuf	equ	0FC9h
    40  000000                     t2con	equ	0FCAh
    41  000000                     pr2	equ	0FCBh
    42  000000                     tmr2	equ	0FCCh
    43  000000                     t1con	equ	0FCDh
    44  000000                     tmr1l	equ	0FCEh
    45  000000                     tmr1h	equ	0FCFh
    46  000000                     rcon	equ	0FD0h
    47  000000                     wdtcon	equ	0FD1h
    48  000000                     lvdcon	equ	0FD2h
    49  000000                     osccon	equ	0FD3h
    50  000000                     t0con	equ	0FD5h
    51  000000                     tmr0l	equ	0FD6h
    52  000000                     tmr0h	equ	0FD7h
    53  000000                     status	equ	0FD8h
    54  000000                     fsr2	equ	0FD9h
    55  000000                     fsr2l	equ	0FD9h
    56  000000                     fsr2h	equ	0FDAh
    57  000000                     plusw2	equ	0FDBh
    58  000000                     preinc2	equ	0FDCh
    59  000000                     postdec2	equ	0FDDh
    60  000000                     postinc2	equ	0FDEh
    61  000000                     indf2	equ	0FDFh
    62  000000                     bsr	equ	0FE0h
    63  000000                     fsr1	equ	0FE1h
    64  000000                     fsr1l	equ	0FE1h
    65  000000                     fsr1h	equ	0FE2h
    66  000000                     plusw1	equ	0FE3h
    67  000000                     preinc1	equ	0FE4h
    68  000000                     postdec1	equ	0FE5h
    69  000000                     postinc1	equ	0FE6h
    70  000000                     indf1	equ	0FE7h
    71  000000                     wreg	equ	0FE8h
    72  000000                     fsr0	equ	0FE9h
    73  000000                     fsr0l	equ	0FE9h
    74  000000                     fsr0h	equ	0FEAh
    75  000000                     plusw0	equ	0FEBh
    76  000000                     preinc0	equ	0FECh
    77  000000                     postdec0	equ	0FEDh
    78  000000                     postinc0	equ	0FEEh
    79  000000                     indf0	equ	0FEFh
    80  000000                     intcon3	equ	0FF0h
    81  000000                     intcon2	equ	0FF1h
    82  000000                     intcon	equ	0FF2h
    83  000000                     prod	equ	0FF3h
    84  000000                     prodl	equ	0FF3h
    85  000000                     prodh	equ	0FF4h
    86  000000                     tablat	equ	0FF5h
    87  000000                     tblptr	equ	0FF6h
    88  000000                     tblptrl	equ	0FF6h
    89  000000                     tblptrh	equ	0FF7h
    90  000000                     tblptru	equ	0FF8h
    91  000000                     pcl	equ	0FF9h
    92  000000                     pclat	equ	0FFAh
    93  000000                     pclath	equ	0FFAh
    94  000000                     pclatu	equ	0FFBh
    95  000000                     stkptr	equ	0FFCh
    96  000000                     tosl	equ	0FFDh
    97  000000                     tosh	equ	0FFEh
    98  000000                     tosu	equ	0FFFh
    99                           	global	__ramtop
   100                           	global	__accesstop
   101                           # 20 "../code/main.c"
   102                           	global __config1 ;#
   103                           # 20 "../code/main.c"
   104  000000                     	__config1 equ 0xF0FF ;#
   105                           # 21 "../code/main.c"
   106                           	global __config2 ;#
   107                           # 21 "../code/main.c"
   108  000000                     	__config2 equ 0xFEFF ;#
   109                           # 22 "../code/main.c"
   110                           	global __config3 ;#
   111                           # 22 "../code/main.c"
   112  000000                     	__config3 equ 0x7FFF ;#
   113                           # 23 "../code/main.c"
   114                           	global __config4 ;#
   115                           # 23 "../code/main.c"
   116  000000                     	__config4 equ 0xFFFB & 0xFFFF ;#
   117                           # 24 "../code/main.c"
   118                           	global __config5 ;#
   119                           # 24 "../code/main.c"
   120  000000                     	__config5 equ 0xFFFF ;#
   121                           # 25 "../code/main.c"
   122                           	global __config6 ;#
   123                           # 25 "../code/main.c"
   124  000000                     	__config6 equ 0xFFFF ;#
   125                           # 26 "../code/main.c"
   126                           	global __config7 ;#
   127                           # 26 "../code/main.c"
   128  000000                     	__config7 equ 0xFFFF ;#
   129                           	GLOBAL	__activetblptr
   130  000000                     __activetblptr	EQU	0
   131                           	GLOBAL	__smallconst,__Lsmallconst
   132  000000                     __smallconst	EQU	__Lsmallconst
   133                           	GLOBAL	__mediumconst,__Lmediumconst
   134  000000                     __mediumconst	EQU	__Lmediumconst
   135                           	GLOBAL	__Ldata
   136  000000                     __Ldata	EQU	0
   137  000000                     main@channel	equ	??_main+0
   138                           	global	main@channel
   139  000000                     main@result	equ	??_main+1
   140                           	global	main@result
   141  000000                     main@i	equ	??_main+3
   142                           	global	main@i
   143  000000                     main@argc	equ	?_main+0
   144                           	global	main@argc
   145  000000                     main@argv	equ	?_main+2
   146                           	global	main@argv
   147  000000                     testToggle@i	equ	??_testToggle+0
   148                           	global	testToggle@i
   149  000000                     testToggle@i_68	equ	??_testToggle+2
   150                           	global	testToggle@i_68
   151  000000                     testToggle@i_70	equ	??_testToggle+4
   152                           	global	testToggle@i_70
   153  000000                     testToggle@i_72	equ	??_testToggle+6
   154                           	global	testToggle@i_72
   155  000000                     testToggle@i_74	equ	??_testToggle+8
   156                           	global	testToggle@i_74
   157  000000                     testToggle@i_76	equ	??_testToggle+10
   158                           	global	testToggle@i_76
   159  000000                     testToggle@i_78	equ	??_testToggle+12
   160                           	global	testToggle@i_78
   161  000000                     testToggle@i_80	equ	??_testToggle+14
   162                           	global	testToggle@i_80
   163  000000                     testToggle@i_82	equ	??_testToggle+16
   164                           	global	testToggle@i_82
   165  000000                     testToggle@j	equ	??_testToggle+18
   166                           	global	testToggle@j
   167  000000                     testToggle@j_69	equ	??_testToggle+20
   168                           	global	testToggle@j_69
   169  000000                     testToggle@j_71	equ	??_testToggle+22
   170                           	global	testToggle@j_71
   171  000000                     testToggle@j_73	equ	??_testToggle+24
   172                           	global	testToggle@j_73
   173  000000                     testToggle@j_75	equ	??_testToggle+26
   174                           	global	testToggle@j_75
   175  000000                     testToggle@j_77	equ	??_testToggle+28
   176                           	global	testToggle@j_77
   177  000000                     testToggle@j_79	equ	??_testToggle+30
   178                           	global	testToggle@j_79
   179  000000                     testToggle@j_81	equ	??_testToggle+32
   180                           	global	testToggle@j_81
   181  000000                     testToggle@j_83	equ	??_testToggle+34
   182                           	global	testToggle@j_83
   183  000000                     DelayMs@i	equ	??_DelayMs+0
   184                           	global	DelayMs@i
   185  000000                     DelayMs@_dcnt	equ	??_DelayMs+1
   186                           	global	DelayMs@_dcnt
   187  000000                     DelayMs@cnt	equ	?_DelayMs+0
   188                           	global	DelayMs@cnt
   189                           ;Data sizes: Strings 0, constant 0, data 0, bss 
                                 0, persistent 0 stack 51
   190                           	global	_main
   191                           	global	??_main
   192                           	global	?_main
   193                           
   194                           ; *************** function _main ***************
                                 **
   195                           ; Defined at:
   196                           ;		line 164 in file "../code/main.c"
   197                           ; Parameters:
   198                           ;		argc           size:   2offs:   0	type: int 
   199                           ;		argv           size:   2offs:   2	type: PTR P
                                 TR unsigned char 
   200                           ; Auto variables:
   201                           ;		channel     	       	type: unsigned char 
   202                           ;		result      	       	type: int 
   203                           ;		i           	       	type: int 
   204                           ; Return value:
   205                           ;		type: int 
   206                           ;		size: 2
   207                           ; Registers used:
   208                           ;		wreg, fsr0l, fsr0h, status,2, status,0, cstac
                                 k
   209                           ; Tracked objects:
   210                           ;		On entry : 0/0
   211                           ;		On exit  : 0/0
   212                           ;		Unchanged: 0/0
   213                           ; Data sizes:
   214                           ;		Autos:    5
   215                           ;		Params:   4
   216                           ;		Temp:     1
   217                           ;		Total:   10
   218                           ; This function calls:
   219                           ;		_ToggleLeds
   220                           ;		_testToggle
   221                           ; This function is called by:
   222                           ;		Startup code after reset
   223                           ; This function uses a non-reentrant model
   224                           ; 
   225                                   psect   text0,class=CODE,space=0,reloc=2
   226                           
   227                           	opt lm
   228                           	file	"../code/main.c"
   229                           	line	164
   230  000000                     	__size_of_main	equ	__end_of_main-_main
   231                                   psect   text0
   232                           ;main.c: 20: asm("\tglobal __config" "1"); asm("
                                 \t__config" "1" " equ " "0xF0FF");
   233                           ;main.c: 21: asm("\tglobal __config" "2"); asm("
                                 \t__config" "2" " equ " "0xFEFF");
   234                           ;main.c: 22: asm("\tglobal __config" "3"); asm("
                                 \t__config" "3" " equ " "0x7FFF");
   235                           ;main.c: 23: asm("\tglobal __config" "4"); asm("
                                 \t__config" "4" " equ " "0xFFFB & 0xFFFF");
   236                           ;main.c: 24: asm("\tglobal __config" "5"); asm("
                                 \t__config" "5" " equ " "0xFFFF");
   237                           ;main.c: 25: asm("\tglobal __config" "6"); asm("
                                 \t__config" "6" " equ " "0xFFFF");
   238                           ;main.c: 26: asm("\tglobal __config" "7"); asm("
                                 \t__config" "7" " equ " "0xFFFF");
   239                           	
   240  012528                     _main:		; BSR set to: ?
   241                           
   242                           	opt stack 31
   243                           	line	167
   244                           ;main.c: 167: OSCCON |= 0b01110010;
   245  012528  0E72               	movlw	(072h)&0ffh
   246  01252A  12D3               	iorwf	((c:4051)),c	;volatile
   247                           	line	170
   248                           ;main.c: 170: ADCON0 = 0b00000000;
   249  01252C  0E00               	movlw	low(0)
   250  01252E  6EC2               	movwf	((c:4034)),c	;volatile
   251                           	line	171
   252                           ;main.c: 171: ADCON1 = 0b00000101;
   253  012530  0E05               	movlw	low(05h)
   254  012532  6EC1               	movwf	((c:4033)),c	;volatile
   255                           	line	172
   256                           ;main.c: 172: ADCON2 = 0b10000000;
   257  012534  0E80               	movlw	low(080h)
   258  012536  6EC0               	movwf	((c:4032)),c	;volatile
   259                           	line	173
   260                           ;main.c: 173: ADCON2 = 0b10100000;
   261  012538  0EA0               	movlw	low(0A0h)
   262  01253A  6EC0               	movwf	((c:4032)),c	;volatile
   263                           	line	174
   264                           ;main.c: 174: adc_num = 0;
   265  01253C  0E00               	movlw	low(0)
   266  01253E  6E2E               	movwf	((c:46)),c	;volatile
   267                           	line	177
   268                           ;main.c: 177: TRISA = 0b10101111;
   269  012540  0EAF               	movlw	low(0AFh)
   270  012542  6E92               	movwf	((c:3986)),c	;volatile
   271                           	line	178
   272                           ;main.c: 178: TRISB = 0b00010010;
   273  012544  0E12               	movlw	low(012h)
   274  012546  6E93               	movwf	((c:3987)),c	;volatile
   275                           	line	179
   276                           ;main.c: 179: TRISC = 0b10000000;
   277  012548  0E80               	movlw	low(080h)
   278  01254A  6E94               	movwf	((c:3988)),c	;volatile
   279                           	line	201
   280                           ;main.c: 201: SPBRGH = (((8000000L/19200UL)/16) 
                                 - 1) >> 8;
   281  01254C  0E00               	movlw	low(0)
   282  01254E  6EB0               	movwf	((c:4016)),c	;volatile
   283                           	line	202
   284                           ;main.c: 202: SPBRG = (((8000000L/19200UL)/16) -
                                  1);
   285  012550  0E19               	movlw	low(019h)
   286  012552  6EAF               	movwf	((c:4015)),c	;volatile
   287                           	line	203
   288                           ;main.c: 203: BAUDCON = 0b00001000;
   289  012554  0E08               	movlw	low(08h)
   290  012556  6EB8               	movwf	((c:4024)),c	;volatile
   291                           	line	204
   292                           ;main.c: 204: RCSTA = 0b10010000;
   293  012558  0E90               	movlw	low(090h)
   294  01255A  6EAB               	movwf	((c:4011)),c	;volatile
   295                           	line	205
   296                           ;main.c: 205: TXSTA = 0b00100000;
   297  01255C  0E20               	movlw	low(020h)
   298  01255E  6EAC               	movwf	((c:4012)),c	;volatile
   299                           	line	207
   300                           ;main.c: 207: LATB = 0b00000000;
   301  012560  0E00               	movlw	low(0)
   302  012562  6E8A               	movwf	((c:3978)),c	;volatile
   303                           	line	265
   304                           ;main.c: 265: while (0) {
   305  012564  EFD1  F092         	goto	l870
   306                           	line	270
   307                           	
   308  012568                     l872:		; BSR set to: ?
   309                           
   310                           	line	272
   311                           ;main.c: 272: continue;
   312  012568  EFB6  F092         	goto	l871
   313                           	line	273
   314                           	
   315  01256C                     l871:		; BSR set to: ?
   316                           
   317                           	line	270
   318  01256C  502F               	movf	((c:47)),c,w
   319  01256E  B4D8               	btfsc	status,2
   320  012570  EFBC  F092         	goto	u4461
   321  012574  EFBE  F092         	goto	u4460
   322  012578                     u4461:
   323  012578  EFB4  F092         	goto	l872
   324  01257C                     u4460:
   325                           	
   326  01257C                     l873:		; BSR set to: ?
   327                           
   328                           	line	274
   329                           ;main.c: 273: }
   330                           ;main.c: 274: int result = cur_inputs[index];
   331  01257C  90D8               	bcf	status,0
   332  01257E  3428               	rlcf	((c:40)),c,w
   333  012580  0101               	movlb	1	; () banked
   334  012582  6F09               	movwf	(??_main+5+0)&0ffh
   335  012584  0E1A               	movlw	low((c:26))
   336  012586  0101               	movlb	1	; () banked
   337  012588  2509               	addwf	(??_main+5+0)&0ffh,w
   338  01258A  6EE9               	movwf	c:fsr0l
   339  01258C  6AEA               	clrf	1+c:fsr0l
   340  01258E  0E00               	movlw	high((c:26))
   341  012590  22EA               	addwfc	1+c:fsr0l
   342  012592  0101               	movlb	1	; () banked
   343  012594  CFEE F105          	movff	postinc0,(main@result)
   344  012598  0101               	movlb	1	; () banked
   345  01259A  CFED F106          	movff	postdec0,(main@result+1)
   346                           	line	275
   347                           ;main.c: 275: char channel = index;
   348  01259E  C028 F104          	movff	(c:40),(main@channel)
   349                           	line	278
   350                           	
   351  0125A2                     l868:		; BSR set to: ?
   352                           
   353                           	line	265
   354                           	
   355  0125A2                     l870:		; BSR set to: ?
   356                           
   357                           	line	280
   358                           ;main.c: 278: }
   359                           ;main.c: 280: for (int i = 0; i < 13; i++) {
   360  0125A2  0E00               	movlw	low(0)
   361  0125A4  0101               	movlb	1	; () banked
   362  0125A6  0101               	movlb	1	; () banked
   363  0125A8  6F07               	movwf	((main@i))&0ffh
   364  0125AA  0E00               	movlw	high(0)
   365  0125AC  0101               	movlb	1	; () banked
   366  0125AE  6F08               	movwf	((main@i+1))&0ffh
   367  0125B0  0101               	movlb	1	; () banked
   368  0125B2  0101               	movlb	1	; () banked
   369  0125B4  5108               	movf	((main@i+1))&0ffh,w
   370  0125B6  0A80               	xorlw	80h
   371  0125B8  0F80               	addlw	-((0)^80h)
   372  0125BA  0E0D               	movlw	0Dh
   373  0125BC  B4D8               	btfsc	status,2
   374  0125BE  5D07               	subwf	((main@i))&0ffh,w
   375  0125C0  A0D8               	btfss	status,0
   376  0125C2  EFE5  F092         	goto	u4471
   377  0125C6  EFE7  F092         	goto	u4470
   378  0125CA                     u4471:
   379  0125CA  EFE9  F092         	goto	l874
   380  0125CE                     u4470:
   381  0125CE  EF0D  F093         	goto	l875
   382                           	
   383  0125D2                     l874:		; BSR set to: ?
   384                           
   385                           	line	281
   386                           ;main.c: 281: led_array[i] = 0;
   387  0125D2  0101               	movlb	1	; () banked
   388  0125D4  90D8               	bcf	status,0
   389  0125D6  0101               	movlb	1	; () banked
   390  0125D8  3507               	rlcf	((main@i))&0ffh,w
   391  0125DA  0101               	movlb	1	; () banked
   392  0125DC  6F09               	movwf	(??_main+5+0)&0ffh
   393  0125DE  0E00               	movlw	low((c:0))
   394  0125E0  0101               	movlb	1	; () banked
   395  0125E2  2509               	addwf	(??_main+5+0)&0ffh,w
   396  0125E4  6EE9               	movwf	c:fsr0l
   397  0125E6  6AEA               	clrf	1+c:fsr0l
   398  0125E8  0E00               	movlw	high((c:0))
   399  0125EA  22EA               	addwfc	1+c:fsr0l
   400  0125EC  0E00               	movlw	low(0)
   401  0125EE  6EEE               	movwf	postinc0
   402  0125F0  0E00               	movlw	high(0)
   403  0125F2  6EED               	movwf	postdec0
   404+                          	line	280
   405+ 0125F4  0101               	movlb	1	; () banked
   406+ 0125F6  0101               	movlb	1	; () banked
   407  0125F8  4B07               	infsnz	((main@i))&0ffh
   408  0125FA  2B08               	incf	((main@i+1))&0ffh
   409  0125FC  0101               	movlb	1	; () banked
   410  0125FE  0101               	movlb	1	; () banked
   411  012600  5108               	movf	((main@i+1))&0ffh,w
   412  012602  0A80               	xorlw	80h
   413  012604  0F80               	addlw	-((0)^80h)
   414  012606  0E0D               	movlw	0Dh
   415  012608  B4D8               	btfsc	status,2
   416  01260A  5D07               	subwf	((main@i))&0ffh,w
   417  01260C  A0D8               	btfss	status,0
   418  01260E  EF0B  F093         	goto	u4481
   419  012612  EF0D  F093         	goto	u4480
   420  012616                     u4481:
   421  012616  EFE9  F092         	goto	l874
   422  01261A                     u4480:
   423                           	
   424  01261A                     l875:		; BSR set to: ?
   425                           
   426                           	line	283
   427                           ;main.c: 282: }
   428                           ;main.c: 283: led_array[4] = 1;
   429  01261A  0E01               	movlw	low(01h)
   430  01261C  6E08               	movwf	(0+((c:0)+08h)),c
   431  01261E  0E00               	movlw	high(01h)
   432  012620  6E09               	movwf	(1+((c:0)+08h)),c
   433                           	line	284
   434                           ;main.c: 284: led_array[5] = 1;
   435  012622  0E01               	movlw	low(01h)
   436  012624  6E0A               	movwf	(0+((c:0)+0Ah)),c
   437  012626  0E00               	movlw	high(01h)
   438  012628  6E0B               	movwf	(1+((c:0)+0Ah)),c
   439                           	line	285
   440                           ;main.c: 285: led_array[6] = 1;
   441  01262A  0E01               	movlw	low(01h)
   442  01262C  6E0C               	movwf	(0+((c:0)+0Ch)),c
   443  01262E  0E00               	movlw	high(01h)
   444  012630  6E0D               	movwf	(1+((c:0)+0Ch)),c
   445                           	line	286
   446                           ;main.c: 286: ToggleLeds();
   447  012632  EC0B  F099         	call	_ToggleLeds	;wreg free
   448                           	line	288
   449                           ;main.c: 288: testToggle();
   450  012636  EC1F  F093         	call	_testToggle	;wreg free
   451                           	line	311
   452                           ;main.c: 311: }
   453  01263A                     l867:
   454                           			; BSR set to: ?
   455                           
   456                           	global	start
   457  01263A  EF00  F000         	goto	start
   458                           	opt stack 0
   459                           GLOBAL __end_of_main
   460  01263E                     	__end_of_main:
   461                           	FNSIZE	_main,6,4
   462                           ; =============== function _main ends ==========
                                 ==
   463                           
   464                           	signat	_main,8314
   465                           	global	_testToggle
   466                           	global	??_testToggle
   467                           	global	?_testToggle
   468                           
   469                           ; *************** function _testToggle *********
                                 ********
   470                           ; Defined at:
   471                           ;		line 885 in file "../code/main.c"
   472                           ; Parameters:
   473                           ;		None
   474                           ; Auto variables:
   475                           ;		i           	       	type: int 
   476                           ;		i           	       	type: int 
   477                           ;		i           	       	type: int 
   478                           ;		i           	       	type: int 
   479                           ;		i           	       	type: int 
   480                           ;		i           	       	type: int 
   481                           ;		i           	       	type: int 
   482                           ;		i           	       	type: int 
   483                           ;		i           	       	type: int 
   484                           ;		j           	       	type: int 
   485                           ;		j           	       	type: int 
   486                           ;		j           	       	type: int 
   487                           ;		j           	       	type: int 
   488                           ;		j           	       	type: int 
   489                           ;		j           	       	type: int 
   490                           ;		j           	       	type: int 
   491                           ;		j           	       	type: int 
   492                           ;		j           	       	type: int 
   493                           ; Return value:
   494                           ;		type: void 
   495                           ;		size: 0
   496                           ; Registers used:
   497                           ;		wreg, fsr0l, fsr0h, status,2, status,0, cstac
                                 k
   498                           ; Tracked objects:
   499                           ;		On entry : 0/0
   500                           ;		On exit  : 0/0
   501                           ;		Unchanged: 0/0
   502                           ; Data sizes:
   503                           ;		Autos:   36
   504                           ;		Params:   0
   505                           ;		Temp:     1
   506                           ;		Total:   37
   507                           ; This function calls:
   508                           ;		_ToggleLeds
   509                           ;		_DelayMs
   510                           ; This function is called by:
   511                           ;		_main
   512                           ; This function uses a non-reentrant model
   513                           ; 
   514                                   psect   text1,class=CODE,space=0,reloc=2
   515                           
   516                           	opt lm
   517                           	file	"../code/main.c"
   518                           	line	885
   519  000000                     	__size_of_testToggle	equ	__end_of_testToggle-_t
                                 estToggle
   520                           ;main.c: 885: void testToggle () {
   521                           	
   522  01263E                     _testToggle:		; BSR set to: ?
   523                           
   524                           	opt stack 30
   525                           	line	891
   526                           ;main.c: 891: for (int i = 0; i < 7; i++) {
   527  01263E  0E00               	movlw	low(0)
   528  012640  0101               	movlb	1	; () banked
   529  012642  0101               	movlb	1	; () banked
   530  012644  6F0A               	movwf	((testToggle@i))&0ffh
   531  012646  0E00               	movlw	high(0)
   532  012648  0101               	movlb	1	; () banked
   533  01264A  6F0B               	movwf	((testToggle@i+1))&0ffh
   534  01264C  0101               	movlb	1	; () banked
   535  01264E  0101               	movlb	1	; () banked
   536  012650  510B               	movf	((testToggle@i+1))&0ffh,w
   537  012652  0A80               	xorlw	80h
   538  012654  0F80               	addlw	-((0)^80h)
   539  012656  0E07               	movlw	07h
   540  012658  B4D8               	btfsc	status,2
   541  01265A  5D0A               	subwf	((testToggle@i))&0ffh,w
   542  01265C  A0D8               	btfss	status,0
   543  01265E  EF33  F093         	goto	u4491
   544  012662  EF35  F093         	goto	u4490
   545  012666                     u4491:
   546  012666  EF37  F093         	goto	l1004
   547  01266A                     u4490:
   548  01266A  EFCA  F093         	goto	l1005
   549                           	
   550  01266E                     l1004:		; BSR set to: ?
   551                           
   552                           	line	892
   553                           ;main.c: 892: for (int j = 0; j < sizeof(led_arr
                                 ay); j++) {
   554  01266E  0E00               	movlw	low(0)
   555  012670  0101               	movlb	1	; () banked
   556  012672  0101               	movlb	1	; () banked
   557  012674  6F1C               	movwf	((testToggle@j))&0ffh
   558  012676  0E00               	movlw	high(0)
   559  012678  0101               	movlb	1	; () banked
   560  01267A  6F1D               	movwf	((testToggle@j+1))&0ffh
   561  01267C  0E1A               	movlw	01Ah
   562  01267E  0101               	movlb	1	; () banked
   563  012680  0101               	movlb	1	; () banked
   564  012682  5D1C               	subwf	((testToggle@j))&0ffh,w
   565  012684  0E00               	movlw	0
   566  012686  0101               	movlb	1	; () banked
   567  012688  591D               	subwfb	((testToggle@j+1))&0ffh,w
   568  01268A  A0D8               	btfss	status,0
   569  01268C  EF4A  F093         	goto	u4501
   570  012690  EF4C  F093         	goto	u4500
   571  012694                     u4501:
   572  012694  EF4E  F093         	goto	l1007
   573  012698                     u4500:
   574  012698  EF71  F093         	goto	l1008
   575                           	
   576  01269C                     l1007:		; BSR set to: ?
   577                           
   578                           	line	893
   579                           ;main.c: 893: led_array[j] = 0;
   580  01269C  0101               	movlb	1	; () banked
   581  01269E  90D8               	bcf	status,0
   582  0126A0  0101               	movlb	1	; () banked
   583  0126A2  351C               	rlcf	((testToggle@j))&0ffh,w
   584  0126A4  0101               	movlb	1	; () banked
   585  0126A6  6F2E               	movwf	(??_testToggle+36+0)&0ffh
   586  0126A8  0E00               	movlw	low((c:0))
   587  0126AA  0101               	movlb	1	; () banked
   588  0126AC  252E               	addwf	(??_testToggle+36+0)&0ffh,w
   589  0126AE  6EE9               	movwf	c:fsr0l
   590  0126B0  6AEA               	clrf	1+c:fsr0l
   591  0126B2  0E00               	movlw	high((c:0))
   592  0126B4  22EA               	addwfc	1+c:fsr0l
   593  0126B6  0E00               	movlw	low(0)
   594  0126B8  6EEE               	movwf	postinc0
   595  0126BA  0E00               	movlw	high(0)
   596  0126BC  6EED               	movwf	postdec0
   597                           	line	892
   598  0126BE  0101               	movlb	1	; () banked
   599  0126C0  0101               	movlb	1	; () banked
   600  0126C2  4B1C               	infsnz	((testToggle@j))&0ffh
   601  0126C4  2B1D               	incf	((testToggle@j+1))&0ffh
   602  0126C6  0E1A               	movlw	01Ah
   603  0126C8  0101               	movlb	1	; () banked
   604  0126CA  0101               	movlb	1	; () banked
   605  0126CC  5D1C               	subwf	((testToggle@j))&0ffh,w
   606  0126CE  0E00               	movlw	0
   607  0126D0  0101               	movlb	1	; () banked
   608  0126D2  591D               	subwfb	((testToggle@j+1))&0ffh,w
   609  0126D4  A0D8               	btfss	status,0
   610  0126D6  EF6F  F093         	goto	u4511
   611  0126DA  EF71  F093         	goto	u4510
   612  0126DE                     u4511:
   613  0126DE  EF4E  F093         	goto	l1007
   614  0126E2                     u4510:
   615                           	
   616  0126E2                     l1008:		; BSR set to: ?
   617                           
   618                           	line	895
   619                           ;main.c: 894: }
   620                           ;main.c: 895: led_array[0] = 1;
   621  0126E2  0E01               	movlw	low(01h)
   622  0126E4  6E00               	movwf	((c:0)),c
   623  0126E6  0E00               	movlw	high(01h)
   624  0126E8  6E01               	movwf	((c:0+1)),c
   625                           	line	896
   626                           ;main.c: 896: led_array[1] = 1;
   627  0126EA  0E01               	movlw	low(01h)
   628  0126EC  6E02               	movwf	(0+((c:0)+02h)),c
   629  0126EE  0E00               	movlw	high(01h)
   630  0126F0  6E03               	movwf	(1+((c:0)+02h)),c
   631                           	line	897
   632                           ;main.c: 897: led_array[i+6] = 1;
   633  0126F2  0101               	movlb	1	; () banked
   634  0126F4  90D8               	bcf	status,0
   635  0126F6  0101               	movlb	1	; () banked
   636  0126F8  350A               	rlcf	((testToggle@i))&0ffh,w
   637  0126FA  0101               	movlb	1	; () banked
   638  0126FC  6F2E               	movwf	(??_testToggle+36+0)&0ffh
   639  0126FE  0E0C               	movlw	0Ch
   640  012700  0101               	movlb	1	; () banked
   641  012702  272E               	addwf	(??_testToggle+36+0)&0ffh
   642  012704  0E00               	movlw	low((c:0))
   643  012706  0101               	movlb	1	; () banked
   644  012708  252E               	addwf	(??_testToggle+36+0)&0ffh,w
   645  01270A  6EE9               	movwf	c:fsr0l
   646  01270C  6AEA               	clrf	1+c:fsr0l
   647  01270E  0E00               	movlw	high((c:0))
   648  012710  22EA               	addwfc	1+c:fsr0l
   649  012712  0E01               	movlw	low(01h)
   650  012714  6EEE               	movwf	postinc0
   651  012716  0E00               	movlw	high(01h)
   652  012718  6EED               	movwf	postdec0
   653                           	line	898
   654                           ;main.c: 898: ToggleLeds();
   655  01271A  EC0B  F099         	call	_ToggleLeds	;wreg free
   656                           	line	899
   657                           ;main.c: 899: DelayMs(5000);
   658  01271E  0101               	movlb	1	; () banked
   659  012720  6F2E               	movwf	(??_testToggle+36+0)&0ffh
   660  012722  0E88               	movlw	low(088h)
   661  012724  0101               	movlb	1	; () banked
   662  012726  0101               	movlb	1	; () banked
   663  012728  6F2F               	movwf	((?_DelayMs))&0ffh
   664  01272A  0101               	movlb	1	; () banked
   665  01272C  512E               	movf	(??_testToggle+36+0)&0ffh,w
   666  01272E  EC70  F092         	call	_DelayMs	;wreg free
   667                           	line	900
   668                           ;main.c: 900: DelayMs(5000);
   669  012732  0101               	movlb	1	; () banked
   670  012734  6F2E               	movwf	(??_testToggle+36+0)&0ffh
   671  012736  0E88               	movlw	low(088h)
   672  012738  0101               	movlb	1	; () banked
   673  01273A  0101               	movlb	1	; () banked
   674  01273C  6F2F               	movwf	((?_DelayMs))&0ffh
   675  01273E  0101               	movlb	1	; () banked
   676  012740  512E               	movf	(??_testToggle+36+0)&0ffh,w
   677  012742  EC70  F092         	call	_DelayMs	;wreg free
   678                           	line	901
   679                           ;main.c: 901: DelayMs(5000);
   680  012746  0101               	movlb	1	; () banked
   681  012748  6F2E               	movwf	(??_testToggle+36+0)&0ffh
   682  01274A  0E88               	movlw	low(088h)
   683  01274C  0101               	movlb	1	; () banked
   684  01274E  0101               	movlb	1	; () banked
   685  012750  6F2F               	movwf	((?_DelayMs))&0ffh
   686  012752  0101               	movlb	1	; () banked
   687  012754  512E               	movf	(??_testToggle+36+0)&0ffh,w
   688  012756  EC70  F092         	call	_DelayMs	;wreg free
   689                           	line	902
   690                           ;main.c: 902: DelayMs(5000);
   691  01275A  0101               	movlb	1	; () banked
   692  01275C  6F2E               	movwf	(??_testToggle+36+0)&0ffh
   693  01275E  0E88               	movlw	low(088h)
   694  012760  0101               	movlb	1	; () banked
   695  012762  0101               	movlb	1	; () banked
   696  012764  6F2F               	movwf	((?_DelayMs))&0ffh
   697  012766  0101               	movlb	1	; () banked
   698  012768  512E               	movf	(??_testToggle+36+0)&0ffh,w
   699  01276A  EC70  F092         	call	_DelayMs	;wreg free
   700                           	line	891
   701  01276E  0101               	movlb	1	; () banked
   702  012770  0101               	movlb	1	; () banked
   703  012772  4B0A               	infsnz	((testToggle@i))&0ffh
   704  012774  2B0B               	incf	((testToggle@i+1))&0ffh
   705  012776  0101               	movlb	1	; () banked
   706  012778  0101               	movlb	1	; () banked
   707  01277A  510B               	movf	((testToggle@i+1))&0ffh,w
   708  01277C  0A80               	xorlw	80h
   709  01277E  0F80               	addlw	-((0)^80h)
   710  012780  0E07               	movlw	07h
   711  012782  B4D8               	btfsc	status,2
   712  012784  5D0A               	subwf	((testToggle@i))&0ffh,w
   713  012786  A0D8               	btfss	status,0
   714  012788  EFC8  F093         	goto	u4521
   715  01278C  EFCA  F093         	goto	u4520
   716  012790                     u4521:
   717  012790  EF37  F093         	goto	l1004
   718  012794                     u4520:
   719                           	
   720  012794                     l1005:		; BSR set to: ?
   721                           
   722                           	line	904
   723                           ;main.c: 903: }
   724                           ;main.c: 904: for (int i = 0; i < 7; i++) {
   725  012794  0E00               	movlw	low(0)
   726  012796  0101               	movlb	1	; () banked
   727  012798  0101               	movlb	1	; () banked
   728  01279A  6F0C               	movwf	((testToggle@i_68))&0ffh
   729  01279C  0E00               	movlw	high(0)
   730  01279E  0101               	movlb	1	; () banked
   731  0127A0  6F0D               	movwf	((testToggle@i_68+1))&0ffh
   732  0127A2  0101               	movlb	1	; () banked
   733  0127A4  0101               	movlb	1	; () banked
   734  0127A6  510D               	movf	((testToggle@i_68+1))&0ffh,w
   735  0127A8  0A80               	xorlw	80h
   736  0127AA  0F80               	addlw	-((0)^80h)
   737  0127AC  0E07               	movlw	07h
   738  0127AE  B4D8               	btfsc	status,2
   739  0127B0  5D0C               	subwf	((testToggle@i_68))&0ffh,w
   740  0127B2  A0D8               	btfss	status,0
   741  0127B4  EFDE  F093         	goto	u4531
   742  0127B8  EFE0  F093         	goto	u4530
   743  0127BC                     u4531:
   744  0127BC  EFE2  F093         	goto	l1010
   745  0127C0                     u4530:
   746  0127C0  EF71  F094         	goto	l1011
   747                           	
   748  0127C4                     l1010:		; BSR set to: ?
   749                           
   750                           	line	905
   751                           ;main.c: 905: for (int j = 0; j < sizeof(led_arr
                                 ay); j++) {
   752  0127C4  0E00               	movlw	low(0)
   753  0127C6  0101               	movlb	1	; () banked
   754  0127C8  0101               	movlb	1	; () banked
   755  0127CA  6F1E               	movwf	((testToggle@j_69))&0ffh
   756  0127CC  0E00               	movlw	high(0)
   757  0127CE  0101               	movlb	1	; () banked
   758  0127D0  6F1F               	movwf	((testToggle@j_69+1))&0ffh
   759  0127D2  0E1A               	movlw	01Ah
   760  0127D4  0101               	movlb	1	; () banked
   761  0127D6  0101               	movlb	1	; () banked
   762  0127D8  5D1E               	subwf	((testToggle@j_69))&0ffh,w
   763  0127DA  0E00               	movlw	0
   764  0127DC  0101               	movlb	1	; () banked
   765  0127DE  591F               	subwfb	((testToggle@j_69+1))&0ffh,w
   766  0127E0  A0D8               	btfss	status,0
   767  0127E2  EFF5  F093         	goto	u4541
   768  0127E6  EFF7  F093         	goto	u4540
   769  0127EA                     u4541:
   770  0127EA  EFF9  F093         	goto	l1013
   771  0127EE                     u4540:
   772  0127EE  EF1C  F094         	goto	l1014
   773                           	
   774  0127F2                     l1013:		; BSR set to: ?
   775                           
   776                           	line	906
   777                           ;main.c: 906: led_array[j] = 0;
   778  0127F2  0101               	movlb	1	; () banked
   779  0127F4  90D8               	bcf	status,0
   780  0127F6  0101               	movlb	1	; () banked
   781  0127F8  351E               	rlcf	((testToggle@j_69))&0ffh,w
   782  0127FA  0101               	movlb	1	; () banked
   783  0127FC  6F2E               	movwf	(??_testToggle+36+0)&0ffh
   784  0127FE  0E00               	movlw	low((c:0))
   785  012800  0101               	movlb	1	; () banked
   786  012802  252E               	addwf	(??_testToggle+36+0)&0ffh,w
   787  012804  6EE9               	movwf	c:fsr0l
   788  012806  6AEA               	clrf	1+c:fsr0l
   789  012808  0E00               	movlw	high((c:0))
   790  01280A  22EA               	addwfc	1+c:fsr0l
   791  01280C  0E00               	movlw	low(0)
   792  01280E  6EEE               	movwf	postinc0
   793  012810  0E00               	movlw	high(0)
   794  012812  6EED               	movwf	postdec0
   795                           	line	905
   796  012814  0101               	movlb	1	; () banked
   797  012816  0101               	movlb	1	; () banked
   798  012818  4B1E               	infsnz	((testToggle@j_69))&0ffh
   799  01281A  2B1F               	incf	((testToggle@j_69+1))&0ffh
   800  01281C  0E1A               	movlw	01Ah
   801  01281E  0101               	movlb	1	; () banked
   802  012820  0101               	movlb	1	; () banked
   803  012822  5D1E               	subwf	((testToggle@j_69))&0ffh,w
   804  012824  0E00               	movlw	0
   805  012826  0101               	movlb	1	; () banked
   806  012828  591F               	subwfb	((testToggle@j_69+1))&0ffh,w
   807  01282A  A0D8               	btfss	status,0
   808  01282C  EF1A  F094         	goto	u4551
   809  012830  EF1C  F094         	goto	u4550
   810  012834                     u4551:
   811  012834  EFF9  F093         	goto	l1013
   812  012838                     u4550:
   813                           	
   814  012838                     l1014:		; BSR set to: ?
   815                           
   816                           	line	908
   817                           ;main.c: 907: }
   818                           ;main.c: 908: led_array[0] = 1;
   819  012838  0E01               	movlw	low(01h)
   820  01283A  6E00               	movwf	((c:0)),c
   821  01283C  0E00               	movlw	high(01h)
   822  01283E  6E01               	movwf	((c:0+1)),c
   823                           	line	909
   824                           ;main.c: 909: led_array[i+6] = 1;
   825  012840  0101               	movlb	1	; () banked
   826  012842  90D8               	bcf	status,0
   827  012844  0101               	movlb	1	; () banked
   828  012846  350C               	rlcf	((testToggle@i_68))&0ffh,w
   829  012848  0101               	movlb	1	; () banked
   830  01284A  6F2E               	movwf	(??_testToggle+36+0)&0ffh
   831  01284C  0E0C               	movlw	0Ch
   832  01284E  0101               	movlb	1	; () banked
   833  012850  272E               	addwf	(??_testToggle+36+0)&0ffh
   834  012852  0E00               	movlw	low((c:0))
   835  012854  0101               	movlb	1	; () banked
   836  012856  252E               	addwf	(??_testToggle+36+0)&0ffh,w
   837  012858  6EE9               	movwf	c:fsr0l
   838  01285A  6AEA               	clrf	1+c:fsr0l
   839  01285C  0E00               	movlw	high((c:0))
   840  01285E  22EA               	addwfc	1+c:fsr0l
   841  012860  0E01               	movlw	low(01h)
   842  012862  6EEE               	movwf	postinc0
   843  012864  0E00               	movlw	high(01h)
   844  012866  6EED               	movwf	postdec0
   845                           	line	910
   846                           ;main.c: 910: ToggleLeds();
   847  012868  EC0B  F099         	call	_ToggleLeds	;wreg free
   848                           	line	911
   849                           ;main.c: 911: DelayMs(5000);
   850  01286C  0101               	movlb	1	; () banked
   851  01286E  6F2E               	movwf	(??_testToggle+36+0)&0ffh
   852  012870  0E88               	movlw	low(088h)
   853  012872  0101               	movlb	1	; () banked
   854  012874  0101               	movlb	1	; () banked
   855  012876  6F2F               	movwf	((?_DelayMs))&0ffh
   856  012878  0101               	movlb	1	; () banked
   857  01287A  512E               	movf	(??_testToggle+36+0)&0ffh,w
   858  01287C  EC70  F092         	call	_DelayMs	;wreg free
   859                           	line	912
   860                           ;main.c: 912: DelayMs(5000);
   861  012880  0101               	movlb	1	; () banked
   862  012882  6F2E               	movwf	(??_testToggle+36+0)&0ffh
   863  012884  0E88               	movlw	low(088h)
   864  012886  0101               	movlb	1	; () banked
   865  012888  0101               	movlb	1	; () banked
   866  01288A  6F2F               	movwf	((?_DelayMs))&0ffh
   867  01288C  0101               	movlb	1	; () banked
   868  01288E  512E               	movf	(??_testToggle+36+0)&0ffh,w
   869  012890  EC70  F092         	call	_DelayMs	;wreg free
   870                           	line	913
   871                           ;main.c: 913: DelayMs(5000);
   872  012894  0101               	movlb	1	; () banked
   873  012896  6F2E               	movwf	(??_testToggle+36+0)&0ffh
   874  012898  0E88               	movlw	low(088h)
   875  01289A  0101               	movlb	1	; () banked
   876  01289C  0101               	movlb	1	; () banked
   877  01289E  6F2F               	movwf	((?_DelayMs))&0ffh
   878  0128A0  0101               	movlb	1	; () banked
   879  0128A2  512E               	movf	(??_testToggle+36+0)&0ffh,w
   880  0128A4  EC70  F092         	call	_DelayMs	;wreg free
   881                           	line	914
   882                           ;main.c: 914: DelayMs(5000);
   883  0128A8  0101               	movlb	1	; () banked
   884  0128AA  6F2E               	movwf	(??_testToggle+36+0)&0ffh
   885  0128AC  0E88               	movlw	low(088h)
   886  0128AE  0101               	movlb	1	; () banked
   887  0128B0  0101               	movlb	1	; () banked
   888  0128B2  6F2F               	movwf	((?_DelayMs))&0ffh
   889  0128B4  0101               	movlb	1	; () banked
   890  0128B6  512E               	movf	(??_testToggle+36+0)&0ffh,w
   891  0128B8  EC70  F092         	call	_DelayMs	;wreg free
   892                           	line	904
   893  0128BC  0101               	movlb	1	; () banked
   894  0128BE  0101               	movlb	1	; () banked
   895  0128C0  4B0C               	infsnz	((testToggle@i_68))&0ffh
   896  0128C2  2B0D               	incf	((testToggle@i_68+1))&0ffh
   897  0128C4  0101               	movlb	1	; () banked
   898  0128C6  0101               	movlb	1	; () banked
   899  0128C8  510D               	movf	((testToggle@i_68+1))&0ffh,w
   900  0128CA  0A80               	xorlw	80h
   901  0128CC  0F80               	addlw	-((0)^80h)
   902  0128CE  0E07               	movlw	07h
   903  0128D0  B4D8               	btfsc	status,2
   904  0128D2  5D0C               	subwf	((testToggle@i_68))&0ffh,w
   905  0128D4  A0D8               	btfss	status,0
   906  0128D6  EF6F  F094         	goto	u4561
   907  0128DA  EF71  F094         	goto	u4560
   908  0128DE                     u4561:
   909  0128DE  EFE2  F093         	goto	l1010
   910  0128E2                     u4560:
   911                           	
   912  0128E2                     l1011:		; BSR set to: ?
   913                           
   914                           	line	916
   915                           ;main.c: 915: }
   916                           ;main.c: 916: for (int i = 0; i < 7; i++) {
   917  0128E2  0E00               	movlw	low(0)
   918  0128E4  0101               	movlb	1	; () banked
   919  0128E6  0101               	movlb	1	; () banked
   920  0128E8  6F0E               	movwf	((testToggle@i_70))&0ffh
   921  0128EA  0E00               	movlw	high(0)
   922  0128EC  0101               	movlb	1	; () banked
   923  0128EE  6F0F               	movwf	((testToggle@i_70+1))&0ffh
   924  0128F0  0101               	movlb	1	; () banked
   925  0128F2  0101               	movlb	1	; () banked
   926  0128F4  510F               	movf	((testToggle@i_70+1))&0ffh,w
   927  0128F6  0A80               	xorlw	80h
   928  0128F8  0F80               	addlw	-((0)^80h)
   929  0128FA  0E07               	movlw	07h
   930  0128FC  B4D8               	btfsc	status,2
   931  0128FE  5D0E               	subwf	((testToggle@i_70))&0ffh,w
   932  012900  A0D8               	btfss	status,0
   933  012902  EF85  F094         	goto	u4571
   934  012906  EF87  F094         	goto	u4570
   935  01290A                     u4571:
   936  01290A  EF89  F094         	goto	l1016
   937  01290E                     u4570:
   938  01290E  EF18  F095         	goto	l1017
   939                           	
   940  012912                     l1016:		; BSR set to: ?
   941                           
   942                           	line	917
   943                           ;main.c: 917: for (int j = 0; j < sizeof(led_arr
                                 ay); j++) {
   944  012912  0E00               	movlw	low(0)
   945  012914  0101               	movlb	1	; () banked
   946  012916  0101               	movlb	1	; () banked
   947  012918  6F20               	movwf	((testToggle@j_71))&0ffh
   948  01291A  0E00               	movlw	high(0)
   949  01291C  0101               	movlb	1	; () banked
   950  01291E  6F21               	movwf	((testToggle@j_71+1))&0ffh
   951  012920  0E1A               	movlw	01Ah
   952  012922  0101               	movlb	1	; () banked
   953  012924  0101               	movlb	1	; () banked
   954  012926  5D20               	subwf	((testToggle@j_71))&0ffh,w
   955  012928  0E00               	movlw	0
   956  01292A  0101               	movlb	1	; () banked
   957  01292C  5921               	subwfb	((testToggle@j_71+1))&0ffh,w
   958  01292E  A0D8               	btfss	status,0
   959  012930  EF9C  F094         	goto	u4581
   960  012934  EF9E  F094         	goto	u4580
   961  012938                     u4581:
   962  012938  EFA0  F094         	goto	l1019
   963  01293C                     u4580:
   964  01293C  EFC3  F094         	goto	l1020
   965                           	
   966  012940                     l1019:		; BSR set to: ?
   967                           
   968                           	line	918
   969                           ;main.c: 918: led_array[j] = 0;
   970  012940  0101               	movlb	1	; () banked
   971  012942  90D8               	bcf	status,0
   972  012944  0101               	movlb	1	; () banked
   973  012946  3520               	rlcf	((testToggle@j_71))&0ffh,w
   974  012948  0101               	movlb	1	; () banked
   975  01294A  6F2E               	movwf	(??_testToggle+36+0)&0ffh
   976  01294C  0E00               	movlw	low((c:0))
   977  01294E  0101               	movlb	1	; () banked
   978  012950  252E               	addwf	(??_testToggle+36+0)&0ffh,w
   979  012952  6EE9               	movwf	c:fsr0l
   980  012954  6AEA               	clrf	1+c:fsr0l
   981  012956  0E00               	movlw	high((c:0))
   982  012958  22EA               	addwfc	1+c:fsr0l
   983  01295A  0E00               	movlw	low(0)
   984  01295C  6EEE               	movwf	postinc0
   985  01295E  0E00               	movlw	high(0)
   986  012960  6EED               	movwf	postdec0
   987                           	line	917
   988  012962  0101               	movlb	1	; () banked
   989  012964  0101               	movlb	1	; () banked
   990  012966  4B20               	infsnz	((testToggle@j_71))&0ffh
   991  012968  2B21               	incf	((testToggle@j_71+1))&0ffh
   992  01296A  0E1A               	movlw	01Ah
   993  01296C  0101               	movlb	1	; () banked
   994  01296E  0101               	movlb	1	; () banked
   995  012970  5D20               	subwf	((testToggle@j_71))&0ffh,w
   996  012972  0E00               	movlw	0
   997  012974  0101               	movlb	1	; () banked
   998  012976  5921               	subwfb	((testToggle@j_71+1))&0ffh,w
   999  012978  A0D8               	btfss	status,0
  1000  01297A  EFC1  F094         	goto	u4591
  1001  01297E  EFC3  F094         	goto	u4590
  1002  012982                     u4591:
  1003  012982  EFA0  F094         	goto	l1019
  1004  012986                     u4590:
  1005                           	
  1006  012986                     l1020:		; BSR set to: ?
  1007                           
  1008                           	line	920
  1009                           ;main.c: 919: }
  1010                           ;main.c: 920: led_array[1] = 1;
  1011  012986  0E01               	movlw	low(01h)
  1012  012988  6E02               	movwf	(0+((c:0)+02h)),c
  1013  01298A  0E00               	movlw	high(01h)
  1014  01298C  6E03               	movwf	(1+((c:0)+02h)),c
  1015                           	line	921
  1016                           ;main.c: 921: led_array[i+6] = 1;
  1017  01298E  0101               	movlb	1	; () banked
  1018  012990  90D8               	bcf	status,0
  1019  012992  0101               	movlb	1	; () banked
  1020  012994  350E               	rlcf	((testToggle@i_70))&0ffh,w
  1021  012996  0101               	movlb	1	; () banked
  1022  012998  6F2E               	movwf	(??_testToggle+36+0)&0ffh
  1023  01299A  0E0C               	movlw	0Ch
  1024  01299C  0101               	movlb	1	; () banked
  1025  01299E  272E               	addwf	(??_testToggle+36+0)&0ffh
  1026  0129A0  0E00               	movlw	low((c:0))
  1027  0129A2  0101               	movlb	1	; () banked
  1028  0129A4  252E               	addwf	(??_testToggle+36+0)&0ffh,w
  1029  0129A6  6EE9               	movwf	c:fsr0l
  1030  0129A8  6AEA               	clrf	1+c:fsr0l
  1031  0129AA  0E00               	movlw	high((c:0))
  1032  0129AC  22EA               	addwfc	1+c:fsr0l
  1033  0129AE  0E01               	movlw	low(01h)
  1034  0129B0  6EEE               	movwf	postinc0
  1035  0129B2  0E00               	movlw	high(01h)
  1036  0129B4  6EED               	movwf	postdec0
  1037                           	line	922
  1038                           ;main.c: 922: ToggleLeds();
  1039  0129B6  EC0B  F099         	call	_ToggleLeds	;wreg free
  1040                           	line	923
  1041                           ;main.c: 923: DelayMs(5000);
  1042  0129BA  0101               	movlb	1	; () banked
  1043  0129BC  6F2E               	movwf	(??_testToggle+36+0)&0ffh
  1044  0129BE  0E88               	movlw	low(088h)
  1045  0129C0  0101               	movlb	1	; () banked
  1046  0129C2  0101               	movlb	1	; () banked
  1047  0129C4  6F2F               	movwf	((?_DelayMs))&0ffh
  1048  0129C6  0101               	movlb	1	; () banked
  1049  0129C8  512E               	movf	(??_testToggle+36+0)&0ffh,w
  1050  0129CA  EC70  F092         	call	_DelayMs	;wreg free
  1051                           	line	924
  1052                           ;main.c: 924: DelayMs(5000);
  1053  0129CE  0101               	movlb	1	; () banked
  1054  0129D0  6F2E               	movwf	(??_testToggle+36+0)&0ffh
  1055  0129D2  0E88               	movlw	low(088h)
  1056  0129D4  0101               	movlb	1	; () banked
  1057  0129D6  0101               	movlb	1	; () banked
  1058  0129D8  6F2F               	movwf	((?_DelayMs))&0ffh
  1059  0129DA  0101               	movlb	1	; () banked
  1060  0129DC  512E               	movf	(??_testToggle+36+0)&0ffh,w
  1061  0129DE  EC70  F092         	call	_DelayMs	;wreg free
  1062                           	line	925
  1063                           ;main.c: 925: DelayMs(5000);
  1064  0129E2  0101               	movlb	1	; () banked
  1065  0129E4  6F2E               	movwf	(??_testToggle+36+0)&0ffh
  1066  0129E6  0E88               	movlw	low(088h)
  1067  0129E8  0101               	movlb	1	; () banked
  1068  0129EA  0101               	movlb	1	; () banked
  1069  0129EC  6F2F               	movwf	((?_DelayMs))&0ffh
  1070  0129EE  0101               	movlb	1	; () banked
  1071  0129F0  512E               	movf	(??_testToggle+36+0)&0ffh,w
  1072  0129F2  EC70  F092         	call	_DelayMs	;wreg free
  1073                           	line	926
  1074                           ;main.c: 926: DelayMs(5000);
  1075  0129F6  0101               	movlb	1	; () banked
  1076  0129F8  6F2E               	movwf	(??_testToggle+36+0)&0ffh
  1077  0129FA  0E88               	movlw	low(088h)
  1078  0129FC  0101               	movlb	1	; () banked
  1079  0129FE  0101               	movlb	1	; () banked
  1080  012A00  6F2F               	movwf	((?_DelayMs))&0ffh
  1081  012A02  0101               	movlb	1	; () banked
  1082  012A04  512E               	movf	(??_testToggle+36+0)&0ffh,w
  1083  012A06  EC70  F092         	call	_DelayMs	;wreg free
  1084                           	line	916
  1085  012A0A  0101               	movlb	1	; () banked
  1086  012A0C  0101               	movlb	1	; () banked
  1087  012A0E  4B0E               	infsnz	((testToggle@i_70))&0ffh
  1088  012A10  2B0F               	incf	((testToggle@i_70+1))&0ffh
  1089  012A12  0101               	movlb	1	; () banked
  1090  012A14  0101               	movlb	1	; () banked
  1091  012A16  510F               	movf	((testToggle@i_70+1))&0ffh,w
  1092  012A18  0A80               	xorlw	80h
  1093  012A1A  0F80               	addlw	-((0)^80h)
  1094  012A1C  0E07               	movlw	07h
  1095  012A1E  B4D8               	btfsc	status,2
  1096  012A20  5D0E               	subwf	((testToggle@i_70))&0ffh,w
  1097  012A22  A0D8               	btfss	status,0
  1098  012A24  EF16  F095         	goto	u4601
  1099  012A28  EF18  F095         	goto	u4600
  1100  012A2C                     u4601:
  1101  012A2C  EF89  F094         	goto	l1016
  1102  012A30                     u4600:
  1103                           	
  1104  012A30                     l1017:		; BSR set to: ?
  1105                           
  1106                           	line	930
  1107                           ;main.c: 927: }
  1108                           ;main.c: 930: for (int i = 0; i < 7; i++) {
  1109  012A30  0E00               	movlw	low(0)
  1110  012A32  0101               	movlb	1	; () banked
  1111  012A34  0101               	movlb	1	; () banked
  1112  012A36  6F10               	movwf	((testToggle@i_72))&0ffh
  1113  012A38  0E00               	movlw	high(0)
  1114  012A3A  0101               	movlb	1	; () banked
  1115  012A3C  6F11               	movwf	((testToggle@i_72+1))&0ffh
  1116  012A3E  0101               	movlb	1	; () banked
  1117  012A40  0101               	movlb	1	; () banked
  1118  012A42  5111               	movf	((testToggle@i_72+1))&0ffh,w
  1119  012A44  0A80               	xorlw	80h
  1120  012A46  0F80               	addlw	-((0)^80h)
  1121  012A48  0E07               	movlw	07h
  1122  012A4A  B4D8               	btfsc	status,2
  1123  012A4C  5D10               	subwf	((testToggle@i_72))&0ffh,w
  1124  012A4E  A0D8               	btfss	status,0
  1125  012A50  EF2C  F095         	goto	u4611
  1126  012A54  EF2E  F095         	goto	u4610
  1127  012A58                     u4611:
  1128  012A58  EF30  F095         	goto	l1022
  1129  012A5C                     u4610:
  1130  012A5C  EFC3  F095         	goto	l1023
  1131                           	
  1132  012A60                     l1022:		; BSR set to: ?
  1133                           
  1134                           	line	931
  1135                           ;main.c: 931: for (int j = 0; j < sizeof(led_arr
                                 ay); j++) {
  1136  012A60  0E00               	movlw	low(0)
  1137  012A62  0101               	movlb	1	; () banked
  1138  012A64  0101               	movlb	1	; () banked
  1139  012A66  6F22               	movwf	((testToggle@j_73))&0ffh
  1140  012A68  0E00               	movlw	high(0)
  1141  012A6A  0101               	movlb	1	; () banked
  1142  012A6C  6F23               	movwf	((testToggle@j_73+1))&0ffh
  1143  012A6E  0E1A               	movlw	01Ah
  1144  012A70  0101               	movlb	1	; () banked
  1145  012A72  0101               	movlb	1	; () banked
  1146  012A74  5D22               	subwf	((testToggle@j_73))&0ffh,w
  1147  012A76  0E00               	movlw	0
  1148  012A78  0101               	movlb	1	; () banked
  1149  012A7A  5923               	subwfb	((testToggle@j_73+1))&0ffh,w
  1150  012A7C  A0D8               	btfss	status,0
  1151  012A7E  EF43  F095         	goto	u4621
  1152  012A82  EF45  F095         	goto	u4620
  1153  012A86                     u4621:
  1154  012A86  EF47  F095         	goto	l1025
  1155  012A8A                     u4620:
  1156  012A8A  EF6A  F095         	goto	l1026
  1157                           	
  1158  012A8E                     l1025:		; BSR set to: ?
  1159                           
  1160                           	line	932
  1161                           ;main.c: 932: led_array[j] = 0;
  1162  012A8E  0101               	movlb	1	; () banked
  1163  012A90  90D8               	bcf	status,0
  1164  012A92  0101               	movlb	1	; () banked
  1165  012A94  3522               	rlcf	((testToggle@j_73))&0ffh,w
  1166  012A96  0101               	movlb	1	; () banked
  1167  012A98  6F2E               	movwf	(??_testToggle+36+0)&0ffh
  1168  012A9A  0E00               	movlw	low((c:0))
  1169  012A9C  0101               	movlb	1	; () banked
  1170  012A9E  252E               	addwf	(??_testToggle+36+0)&0ffh,w
  1171  012AA0  6EE9               	movwf	c:fsr0l
  1172  012AA2  6AEA               	clrf	1+c:fsr0l
  1173  012AA4  0E00               	movlw	high((c:0))
  1174  012AA6  22EA               	addwfc	1+c:fsr0l
  1175  012AA8  0E00               	movlw	low(0)
  1176  012AAA  6EEE               	movwf	postinc0
  1177  012AAC  0E00               	movlw	high(0)
  1178  012AAE  6EED               	movwf	postdec0
  1179                           	line	931
  1180  012AB0  0101               	movlb	1	; () banked
  1181  012AB2  0101               	movlb	1	; () banked
  1182  012AB4  4B22               	infsnz	((testToggle@j_73))&0ffh
  1183  012AB6  2B23               	incf	((testToggle@j_73+1))&0ffh
  1184  012AB8  0E1A               	movlw	01Ah
  1185  012ABA  0101               	movlb	1	; () banked
  1186  012ABC  0101               	movlb	1	; () banked
  1187  012ABE  5D22               	subwf	((testToggle@j_73))&0ffh,w
  1188  012AC0  0E00               	movlw	0
  1189  012AC2  0101               	movlb	1	; () banked
  1190  012AC4  5923               	subwfb	((testToggle@j_73+1))&0ffh,w
  1191  012AC6  A0D8               	btfss	status,0
  1192  012AC8  EF68  F095         	goto	u4631
  1193  012ACC  EF6A  F095         	goto	u4630
  1194  012AD0                     u4631:
  1195  012AD0  EF47  F095         	goto	l1025
  1196  012AD4                     u4630:
  1197                           	
  1198  012AD4                     l1026:		; BSR set to: ?
  1199                           
  1200                           	line	934
  1201                           ;main.c: 933: }
  1202                           ;main.c: 934: led_array[2] = 1;
  1203  012AD4  0E01               	movlw	low(01h)
  1204  012AD6  6E04               	movwf	(0+((c:0)+04h)),c
  1205  012AD8  0E00               	movlw	high(01h)
  1206  012ADA  6E05               	movwf	(1+((c:0)+04h)),c
  1207                           	line	935
  1208                           ;main.c: 935: led_array[3] = 1;
  1209  012ADC  0E01               	movlw	low(01h)
  1210  012ADE  6E06               	movwf	(0+((c:0)+06h)),c
  1211  012AE0  0E00               	movlw	high(01h)
  1212  012AE2  6E07               	movwf	(1+((c:0)+06h)),c
  1213                           	line	936
  1214                           ;main.c: 936: led_array[i+6] = 1;
  1215  012AE4  0101               	movlb	1	; () banked
  1216  012AE6  90D8               	bcf	status,0
  1217  012AE8  0101               	movlb	1	; () banked
  1218  012AEA  3510               	rlcf	((testToggle@i_72))&0ffh,w
  1219  012AEC  0101               	movlb	1	; () banked
  1220  012AEE  6F2E               	movwf	(??_testToggle+36+0)&0ffh
  1221  012AF0  0E0C               	movlw	0Ch
  1222  012AF2  0101               	movlb	1	; () banked
  1223  012AF4  272E               	addwf	(??_testToggle+36+0)&0ffh
  1224  012AF6  0E00               	movlw	low((c:0))
  1225  012AF8  0101               	movlb	1	; () banked
  1226  012AFA  252E               	addwf	(??_testToggle+36+0)&0ffh,w
  1227  012AFC  6EE9               	movwf	c:fsr0l
  1228  012AFE  6AEA               	clrf	1+c:fsr0l
  1229  012B00  0E00               	movlw	high((c:0))
  1230  012B02  22EA               	addwfc	1+c:fsr0l
  1231  012B04  0E01               	movlw	low(01h)
  1232  012B06  6EEE               	movwf	postinc0
  1233  012B08  0E00               	movlw	high(01h)
  1234  012B0A  6EED               	movwf	postdec0
  1235                           	line	937
  1236                           ;main.c: 937: ToggleLeds();
  1237  012B0C  EC0B  F099         	call	_ToggleLeds	;wreg free
  1238                           	line	938
  1239                           ;main.c: 938: DelayMs(5000);
  1240  012B10  0101               	movlb	1	; () banked
  1241  012B12  6F2E               	movwf	(??_testToggle+36+0)&0ffh
  1242  012B14  0E88               	movlw	low(088h)
  1243  012B16  0101               	movlb	1	; () banked
  1244  012B18  0101               	movlb	1	; () banked
  1245  012B1A  6F2F               	movwf	((?_DelayMs))&0ffh
  1246  012B1C  0101               	movlb	1	; () banked
  1247  012B1E  512E               	movf	(??_testToggle+36+0)&0ffh,w
  1248  012B20  EC70  F092         	call	_DelayMs	;wreg free
  1249                           	line	939
  1250                           ;main.c: 939: DelayMs(5000);
  1251  012B24  0101               	movlb	1	; () banked
  1252  012B26  6F2E               	movwf	(??_testToggle+36+0)&0ffh
  1253  012B28  0E88               	movlw	low(088h)
  1254  012B2A  0101               	movlb	1	; () banked
  1255  012B2C  0101               	movlb	1	; () banked
  1256  012B2E  6F2F               	movwf	((?_DelayMs))&0ffh
  1257  012B30  0101               	movlb	1	; () banked
  1258  012B32  512E               	movf	(??_testToggle+36+0)&0ffh,w
  1259  012B34  EC70  F092         	call	_DelayMs	;wreg free
  1260                           	line	940
  1261                           ;main.c: 940: DelayMs(5000);
  1262  012B38  0101               	movlb	1	; () banked
  1263  012B3A  6F2E               	movwf	(??_testToggle+36+0)&0ffh
  1264  012B3C  0E88               	movlw	low(088h)
  1265  012B3E  0101               	movlb	1	; () banked
  1266  012B40  0101               	movlb	1	; () banked
  1267  012B42  6F2F               	movwf	((?_DelayMs))&0ffh
  1268  012B44  0101               	movlb	1	; () banked
  1269  012B46  512E               	movf	(??_testToggle+36+0)&0ffh,w
  1270  012B48  EC70  F092         	call	_DelayMs	;wreg free
  1271                           	line	941
  1272                           ;main.c: 941: DelayMs(5000);
  1273  012B4C  0101               	movlb	1	; () banked
  1274  012B4E  6F2E               	movwf	(??_testToggle+36+0)&0ffh
  1275  012B50  0E88               	movlw	low(088h)
  1276  012B52  0101               	movlb	1	; () banked
  1277  012B54  0101               	movlb	1	; () banked
  1278  012B56  6F2F               	movwf	((?_DelayMs))&0ffh
  1279  012B58  0101               	movlb	1	; () banked
  1280  012B5A  512E               	movf	(??_testToggle+36+0)&0ffh,w
  1281  012B5C  EC70  F092         	call	_DelayMs	;wreg free
  1282                           	line	930
  1283  012B60  0101               	movlb	1	; () banked
  1284  012B62  0101               	movlb	1	; () banked
  1285  012B64  4B10               	infsnz	((testToggle@i_72))&0ffh
  1286  012B66  2B11               	incf	((testToggle@i_72+1))&0ffh
  1287  012B68  0101               	movlb	1	; () banked
  1288  012B6A  0101               	movlb	1	; () banked
  1289  012B6C  5111               	movf	((testToggle@i_72+1))&0ffh,w
  1290  012B6E  0A80               	xorlw	80h
  1291  012B70  0F80               	addlw	-((0)^80h)
  1292  012B72  0E07               	movlw	07h
  1293  012B74  B4D8               	btfsc	status,2
  1294  012B76  5D10               	subwf	((testToggle@i_72))&0ffh,w
  1295  012B78  A0D8               	btfss	status,0
  1296  012B7A  EFC1  F095         	goto	u4641
  1297  012B7E  EFC3  F095         	goto	u4640
  1298  012B82                     u4641:
  1299  012B82  EF30  F095         	goto	l1022
  1300  012B86                     u4640:
  1301                           	
  1302  012B86                     l1023:		; BSR set to: ?
  1303                           
  1304                           	line	943
  1305                           ;main.c: 942: }
  1306                           ;main.c: 943: for (int i = 0; i < 7; i++) {
  1307  012B86  0E00               	movlw	low(0)
  1308  012B88  0101               	movlb	1	; () banked
  1309  012B8A  0101               	movlb	1	; () banked
  1310  012B8C  6F12               	movwf	((testToggle@i_74))&0ffh
  1311  012B8E  0E00               	movlw	high(0)
  1312  012B90  0101               	movlb	1	; () banked
  1313  012B92  6F13               	movwf	((testToggle@i_74+1))&0ffh
  1314  012B94  0101               	movlb	1	; () banked
  1315  012B96  0101               	movlb	1	; () banked
  1316  012B98  5113               	movf	((testToggle@i_74+1))&0ffh,w
  1317  012B9A  0A80               	xorlw	80h
  1318  012B9C  0F80               	addlw	-((0)^80h)
  1319  012B9E  0E07               	movlw	07h
  1320  012BA0  B4D8               	btfsc	status,2
  1321  012BA2  5D12               	subwf	((testToggle@i_74))&0ffh,w
  1322  012BA4  A0D8               	btfss	status,0
  1323  012BA6  EFD7  F095         	goto	u4651
  1324  012BAA  EFD9  F095         	goto	u4650
  1325  012BAE                     u4651:
  1326  012BAE  EFDB  F095         	goto	l1028
  1327  012BB2                     u4650:
  1328  012BB2  EF6A  F096         	goto	l1029
  1329                           	
  1330  012BB6                     l1028:		; BSR set to: ?
  1331                           
  1332                           	line	944
  1333                           ;main.c: 944: for (int j = 0; j < sizeof(led_arr
                                 ay); j++) {
  1334  012BB6  0E00               	movlw	low(0)
  1335  012BB8  0101               	movlb	1	; () banked
  1336  012BBA  0101               	movlb	1	; () banked
  1337  012BBC  6F24               	movwf	((testToggle@j_75))&0ffh
  1338  012BBE  0E00               	movlw	high(0)
  1339  012BC0  0101               	movlb	1	; () banked
  1340  012BC2  6F25               	movwf	((testToggle@j_75+1))&0ffh
  1341  012BC4  0E1A               	movlw	01Ah
  1342  012BC6  0101               	movlb	1	; () banked
  1343  012BC8  0101               	movlb	1	; () banked
  1344  012BCA  5D24               	subwf	((testToggle@j_75))&0ffh,w
  1345  012BCC  0E00               	movlw	0
  1346  012BCE  0101               	movlb	1	; () banked
  1347  012BD0  5925               	subwfb	((testToggle@j_75+1))&0ffh,w
  1348  012BD2  A0D8               	btfss	status,0
  1349  012BD4  EFEE  F095         	goto	u4661
  1350  012BD8  EFF0  F095         	goto	u4660
  1351  012BDC                     u4661:
  1352  012BDC  EFF2  F095         	goto	l1031
  1353  012BE0                     u4660:
  1354  012BE0  EF15  F096         	goto	l1032
  1355                           	
  1356  012BE4                     l1031:		; BSR set to: ?
  1357                           
  1358                           	line	945
  1359                           ;main.c: 945: led_array[j] = 0;
  1360  012BE4  0101               	movlb	1	; () banked
  1361  012BE6  90D8               	bcf	status,0
  1362  012BE8  0101               	movlb	1	; () banked
  1363  012BEA  3524               	rlcf	((testToggle@j_75))&0ffh,w
  1364  012BEC  0101               	movlb	1	; () banked
  1365  012BEE  6F2E               	movwf	(??_testToggle+36+0)&0ffh
  1366  012BF0  0E00               	movlw	low((c:0))
  1367  012BF2  0101               	movlb	1	; () banked
  1368  012BF4  252E               	addwf	(??_testToggle+36+0)&0ffh,w
  1369  012BF6  6EE9               	movwf	c:fsr0l
  1370  012BF8  6AEA               	clrf	1+c:fsr0l
  1371  012BFA  0E00               	movlw	high((c:0))
  1372  012BFC  22EA               	addwfc	1+c:fsr0l
  1373  012BFE  0E00               	movlw	low(0)
  1374  012C00  6EEE               	movwf	postinc0
  1375  012C02  0E00               	movlw	high(0)
  1376  012C04  6EED               	movwf	postdec0
  1377                           	line	944
  1378  012C06  0101               	movlb	1	; () banked
  1379  012C08  0101               	movlb	1	; () banked
  1380  012C0A  4B24               	infsnz	((testToggle@j_75))&0ffh
  1381  012C0C  2B25               	incf	((testToggle@j_75+1))&0ffh
  1382  012C0E  0E1A               	movlw	01Ah
  1383  012C10  0101               	movlb	1	; () banked
  1384  012C12  0101               	movlb	1	; () banked
  1385  012C14  5D24               	subwf	((testToggle@j_75))&0ffh,w
  1386  012C16  0E00               	movlw	0
  1387  012C18  0101               	movlb	1	; () banked
  1388  012C1A  5925               	subwfb	((testToggle@j_75+1))&0ffh,w
  1389  012C1C  A0D8               	btfss	status,0
  1390  012C1E  EF13  F096         	goto	u4671
  1391  012C22  EF15  F096         	goto	u4670
  1392  012C26                     u4671:
  1393  012C26  EFF2  F095         	goto	l1031
  1394  012C2A                     u4670:
  1395                           	
  1396  012C2A                     l1032:		; BSR set to: ?
  1397                           
  1398                           	line	947
  1399                           ;main.c: 946: }
  1400                           ;main.c: 947: led_array[2] = 1;
  1401  012C2A  0E01               	movlw	low(01h)
  1402  012C2C  6E04               	movwf	(0+((c:0)+04h)),c
  1403  012C2E  0E00               	movlw	high(01h)
  1404  012C30  6E05               	movwf	(1+((c:0)+04h)),c
  1405                           	line	948
  1406                           ;main.c: 948: led_array[i+6] = 1;
  1407  012C32  0101               	movlb	1	; () banked
  1408  012C34  90D8               	bcf	status,0
  1409  012C36  0101               	movlb	1	; () banked
  1410  012C38  3512               	rlcf	((testToggle@i_74))&0ffh,w
  1411  012C3A  0101               	movlb	1	; () banked
  1412  012C3C  6F2E               	movwf	(??_testToggle+36+0)&0ffh
  1413  012C3E  0E0C               	movlw	0Ch
  1414  012C40  0101               	movlb	1	; () banked
  1415  012C42  272E               	addwf	(??_testToggle+36+0)&0ffh
  1416  012C44  0E00               	movlw	low((c:0))
  1417  012C46  0101               	movlb	1	; () banked
  1418  012C48  252E               	addwf	(??_testToggle+36+0)&0ffh,w
  1419  012C4A  6EE9               	movwf	c:fsr0l
  1420  012C4C  6AEA               	clrf	1+c:fsr0l
  1421  012C4E  0E00               	movlw	high((c:0))
  1422  012C50  22EA               	addwfc	1+c:fsr0l
  1423  012C52  0E01               	movlw	low(01h)
  1424  012C54  6EEE               	movwf	postinc0
  1425  012C56  0E00               	movlw	high(01h)
  1426  012C58  6EED               	movwf	postdec0
  1427                           	line	949
  1428                           ;main.c: 949: ToggleLeds();
  1429  012C5A  EC0B  F099         	call	_ToggleLeds	;wreg free
  1430                           	line	950
  1431                           ;main.c: 950: DelayMs(5000);
  1432  012C5E  0101               	movlb	1	; () banked
  1433  012C60  6F2E               	movwf	(??_testToggle+36+0)&0ffh
  1434  012C62  0E88               	movlw	low(088h)
  1435  012C64  0101               	movlb	1	; () banked
  1436  012C66  0101               	movlb	1	; () banked
  1437  012C68  6F2F               	movwf	((?_DelayMs))&0ffh
  1438  012C6A  0101               	movlb	1	; () banked
  1439  012C6C  512E               	movf	(??_testToggle+36+0)&0ffh,w
  1440  012C6E  EC70  F092         	call	_DelayMs	;wreg free
  1441                           	line	951
  1442                           ;main.c: 951: DelayMs(5000);
  1443  012C72  0101               	movlb	1	; () banked
  1444  012C74  6F2E               	movwf	(??_testToggle+36+0)&0ffh
  1445  012C76  0E88               	movlw	low(088h)
  1446  012C78  0101               	movlb	1	; () banked
  1447  012C7A  0101               	movlb	1	; () banked
  1448  012C7C  6F2F               	movwf	((?_DelayMs))&0ffh
  1449  012C7E  0101               	movlb	1	; () banked
  1450  012C80  512E               	movf	(??_testToggle+36+0)&0ffh,w
  1451  012C82  EC70  F092         	call	_DelayMs	;wreg free
  1452                           	line	952
  1453                           ;main.c: 952: DelayMs(5000);
  1454  012C86  0101               	movlb	1	; () banked
  1455  012C88  6F2E               	movwf	(??_testToggle+36+0)&0ffh
  1456  012C8A  0E88               	movlw	low(088h)
  1457  012C8C  0101               	movlb	1	; () banked
  1458  012C8E  0101               	movlb	1	; () banked
  1459  012C90  6F2F               	movwf	((?_DelayMs))&0ffh
  1460  012C92  0101               	movlb	1	; () banked
  1461  012C94  512E               	movf	(??_testToggle+36+0)&0ffh,w
  1462  012C96  EC70  F092         	call	_DelayMs	;wreg free
  1463                           	line	953
  1464                           ;main.c: 953: DelayMs(5000);
  1465  012C9A  0101               	movlb	1	; () banked
  1466  012C9C  6F2E               	movwf	(??_testToggle+36+0)&0ffh
  1467  012C9E  0E88               	movlw	low(088h)
  1468  012CA0  0101               	movlb	1	; () banked
  1469  012CA2  0101               	movlb	1	; () banked
  1470  012CA4  6F2F               	movwf	((?_DelayMs))&0ffh
  1471  012CA6  0101               	movlb	1	; () banked
  1472  012CA8  512E               	movf	(??_testToggle+36+0)&0ffh,w
  1473  012CAA  EC70  F092         	call	_DelayMs	;wreg free
  1474                           	line	943
  1475  012CAE  0101               	movlb	1	; () banked
  1476  012CB0  0101               	movlb	1	; () banked
  1477  012CB2  4B12               	infsnz	((testToggle@i_74))&0ffh
  1478  012CB4  2B13               	incf	((testToggle@i_74+1))&0ffh
  1479  012CB6  0101               	movlb	1	; () banked
  1480  012CB8  0101               	movlb	1	; () banked
  1481  012CBA  5113               	movf	((testToggle@i_74+1))&0ffh,w
  1482  012CBC  0A80               	xorlw	80h
  1483  012CBE  0F80               	addlw	-((0)^80h)
  1484  012CC0  0E07               	movlw	07h
  1485  012CC2  B4D8               	btfsc	status,2
  1486  012CC4  5D12               	subwf	((testToggle@i_74))&0ffh,w
  1487  012CC6  A0D8               	btfss	status,0
  1488  012CC8  EF68  F096         	goto	u4681
  1489  012CCC  EF6A  F096         	goto	u4680
  1490  012CD0                     u4681:
  1491  012CD0  EFDB  F095         	goto	l1028
  1492  012CD4                     u4680:
  1493                           	
  1494  012CD4                     l1029:		; BSR set to: ?
  1495                           
  1496                           	line	955
  1497                           ;main.c: 954: }
  1498                           ;main.c: 955: for (int i = 0; i < 7; i++) {
  1499  012CD4  0E00               	movlw	low(0)
  1500  012CD6  0101               	movlb	1	; () banked
  1501  012CD8  0101               	movlb	1	; () banked
  1502  012CDA  6F14               	movwf	((testToggle@i_76))&0ffh
  1503  012CDC  0E00               	movlw	high(0)
  1504  012CDE  0101               	movlb	1	; () banked
  1505  012CE0  6F15               	movwf	((testToggle@i_76+1))&0ffh
  1506  012CE2  0101               	movlb	1	; () banked
  1507  012CE4  0101               	movlb	1	; () banked
  1508  012CE6  5115               	movf	((testToggle@i_76+1))&0ffh,w
  1509  012CE8  0A80               	xorlw	80h
  1510  012CEA  0F80               	addlw	-((0)^80h)
  1511  012CEC  0E07               	movlw	07h
  1512  012CEE  B4D8               	btfsc	status,2
  1513  012CF0  5D14               	subwf	((testToggle@i_76))&0ffh,w
  1514  012CF2  A0D8               	btfss	status,0
  1515  012CF4  EF7E  F096         	goto	u4691
  1516  012CF8  EF80  F096         	goto	u4690
  1517  012CFC                     u4691:
  1518  012CFC  EF82  F096         	goto	l1034
  1519  012D00                     u4690:
  1520  012D00  EF11  F097         	goto	l1035
  1521                           	
  1522  012D04                     l1034:		; BSR set to: ?
  1523                           
  1524                           	line	956
  1525                           ;main.c: 956: for (int j = 0; j < sizeof(led_arr
                                 ay); j++) {
  1526  012D04  0E00               	movlw	low(0)
  1527  012D06  0101               	movlb	1	; () banked
  1528  012D08  0101               	movlb	1	; () banked
  1529  012D0A  6F26               	movwf	((testToggle@j_77))&0ffh
  1530  012D0C  0E00               	movlw	high(0)
  1531  012D0E  0101               	movlb	1	; () banked
  1532  012D10  6F27               	movwf	((testToggle@j_77+1))&0ffh
  1533  012D12  0E1A               	movlw	01Ah
  1534  012D14  0101               	movlb	1	; () banked
  1535  012D16  0101               	movlb	1	; () banked
  1536  012D18  5D26               	subwf	((testToggle@j_77))&0ffh,w
  1537  012D1A  0E00               	movlw	0
  1538  012D1C  0101               	movlb	1	; () banked
  1539  012D1E  5927               	subwfb	((testToggle@j_77+1))&0ffh,w
  1540  012D20  A0D8               	btfss	status,0
  1541  012D22  EF95  F096         	goto	u4701
  1542  012D26  EF97  F096         	goto	u4700
  1543  012D2A                     u4701:
  1544  012D2A  EF99  F096         	goto	l1037
  1545  012D2E                     u4700:
  1546  012D2E  EFBC  F096         	goto	l1038
  1547                           	
  1548  012D32                     l1037:		; BSR set to: ?
  1549                           
  1550                           	line	957
  1551                           ;main.c: 957: led_array[j] = 0;
  1552  012D32  0101               	movlb	1	; () banked
  1553  012D34  90D8               	bcf	status,0
  1554  012D36  0101               	movlb	1	; () banked
  1555  012D38  3526               	rlcf	((testToggle@j_77))&0ffh,w
  1556  012D3A  0101               	movlb	1	; () banked
  1557  012D3C  6F2E               	movwf	(??_testToggle+36+0)&0ffh
  1558  012D3E  0E00               	movlw	low((c:0))
  1559  012D40  0101               	movlb	1	; () banked
  1560  012D42  252E               	addwf	(??_testToggle+36+0)&0ffh,w
  1561  012D44  6EE9               	movwf	c:fsr0l
  1562  012D46  6AEA               	clrf	1+c:fsr0l
  1563  012D48  0E00               	movlw	high((c:0))
  1564  012D4A  22EA               	addwfc	1+c:fsr0l
  1565  012D4C  0E00               	movlw	low(0)
  1566  012D4E  6EEE               	movwf	postinc0
  1567  012D50  0E00               	movlw	high(0)
  1568  012D52  6EED               	movwf	postdec0
  1569                           	line	956
  1570  012D54  0101               	movlb	1	; () banked
  1571  012D56  0101               	movlb	1	; () banked
  1572  012D58  4B26               	infsnz	((testToggle@j_77))&0ffh
  1573  012D5A  2B27               	incf	((testToggle@j_77+1))&0ffh
  1574  012D5C  0E1A               	movlw	01Ah
  1575  012D5E  0101               	movlb	1	; () banked
  1576  012D60  0101               	movlb	1	; () banked
  1577  012D62  5D26               	subwf	((testToggle@j_77))&0ffh,w
  1578  012D64  0E00               	movlw	0
  1579  012D66  0101               	movlb	1	; () banked
  1580  012D68  5927               	subwfb	((testToggle@j_77+1))&0ffh,w
  1581  012D6A  A0D8               	btfss	status,0
  1582  012D6C  EFBA  F096         	goto	u4711
  1583  012D70  EFBC  F096         	goto	u4710
  1584  012D74                     u4711:
  1585  012D74  EF99  F096         	goto	l1037
  1586  012D78                     u4710:
  1587                           	
  1588  012D78                     l1038:		; BSR set to: ?
  1589                           
  1590                           	line	959
  1591                           ;main.c: 958: }
  1592                           ;main.c: 959: led_array[3] = 1;
  1593  012D78  0E01               	movlw	low(01h)
  1594  012D7A  6E06               	movwf	(0+((c:0)+06h)),c
  1595  012D7C  0E00               	movlw	high(01h)
  1596  012D7E  6E07               	movwf	(1+((c:0)+06h)),c
  1597                           	line	960
  1598                           ;main.c: 960: led_array[i+6] = 1;
  1599  012D80  0101               	movlb	1	; () banked
  1600  012D82  90D8               	bcf	status,0
  1601  012D84  0101               	movlb	1	; () banked
  1602  012D86  3514               	rlcf	((testToggle@i_76))&0ffh,w
  1603  012D88  0101               	movlb	1	; () banked
  1604  012D8A  6F2E               	movwf	(??_testToggle+36+0)&0ffh
  1605  012D8C  0E0C               	movlw	0Ch
  1606  012D8E  0101               	movlb	1	; () banked
  1607  012D90  272E               	addwf	(??_testToggle+36+0)&0ffh
  1608  012D92  0E00               	movlw	low((c:0))
  1609  012D94  0101               	movlb	1	; () banked
  1610  012D96  252E               	addwf	(??_testToggle+36+0)&0ffh,w
  1611  012D98  6EE9               	movwf	c:fsr0l
  1612  012D9A  6AEA               	clrf	1+c:fsr0l
  1613  012D9C  0E00               	movlw	high((c:0))
  1614  012D9E  22EA               	addwfc	1+c:fsr0l
  1615  012DA0  0E01               	movlw	low(01h)
  1616  012DA2  6EEE               	movwf	postinc0
  1617  012DA4  0E00               	movlw	high(01h)
  1618  012DA6  6EED               	movwf	postdec0
  1619                           	line	961
  1620                           ;main.c: 961: ToggleLeds();
  1621  012DA8  EC0B  F099         	call	_ToggleLeds	;wreg free
  1622                           	line	962
  1623                           ;main.c: 962: DelayMs(5000);
  1624  012DAC  0101               	movlb	1	; () banked
  1625  012DAE  6F2E               	movwf	(??_testToggle+36+0)&0ffh
  1626  012DB0  0E88               	movlw	low(088h)
  1627  012DB2  0101               	movlb	1	; () banked
  1628  012DB4  0101               	movlb	1	; () banked
  1629  012DB6  6F2F               	movwf	((?_DelayMs))&0ffh
  1630  012DB8  0101               	movlb	1	; () banked
  1631  012DBA  512E               	movf	(??_testToggle+36+0)&0ffh,w
  1632  012DBC  EC70  F092         	call	_DelayMs	;wreg free
  1633                           	line	963
  1634                           ;main.c: 963: DelayMs(5000);
  1635  012DC0  0101               	movlb	1	; () banked
  1636  012DC2  6F2E               	movwf	(??_testToggle+36+0)&0ffh
  1637  012DC4  0E88               	movlw	low(088h)
  1638  012DC6  0101               	movlb	1	; () banked
  1639  012DC8  0101               	movlb	1	; () banked
  1640  012DCA  6F2F               	movwf	((?_DelayMs))&0ffh
  1641  012DCC  0101               	movlb	1	; () banked
  1642  012DCE  512E               	movf	(??_testToggle+36+0)&0ffh,w
  1643  012DD0  EC70  F092         	call	_DelayMs	;wreg free
  1644                           	line	964
  1645                           ;main.c: 964: DelayMs(5000);
  1646  012DD4  0101               	movlb	1	; () banked
  1647  012DD6  6F2E               	movwf	(??_testToggle+36+0)&0ffh
  1648  012DD8  0E88               	movlw	low(088h)
  1649  012DDA  0101               	movlb	1	; () banked
  1650  012DDC  0101               	movlb	1	; () banked
  1651  012DDE  6F2F               	movwf	((?_DelayMs))&0ffh
  1652  012DE0  0101               	movlb	1	; () banked
  1653  012DE2  512E               	movf	(??_testToggle+36+0)&0ffh,w
  1654  012DE4  EC70  F092         	call	_DelayMs	;wreg free
  1655                           	line	965
  1656                           ;main.c: 965: DelayMs(5000);
  1657  012DE8  0101               	movlb	1	; () banked
  1658  012DEA  6F2E               	movwf	(??_testToggle+36+0)&0ffh
  1659  012DEC  0E88               	movlw	low(088h)
  1660  012DEE  0101               	movlb	1	; () banked
  1661  012DF0  0101               	movlb	1	; () banked
  1662  012DF2  6F2F               	movwf	((?_DelayMs))&0ffh
  1663  012DF4  0101               	movlb	1	; () banked
  1664  012DF6  512E               	movf	(??_testToggle+36+0)&0ffh,w
  1665  012DF8  EC70  F092         	call	_DelayMs	;wreg free
  1666                           	line	955
  1667  012DFC  0101               	movlb	1	; () banked
  1668  012DFE  0101               	movlb	1	; () banked
  1669  012E00  4B14               	infsnz	((testToggle@i_76))&0ffh
  1670  012E02  2B15               	incf	((testToggle@i_76+1))&0ffh
  1671  012E04  0101               	movlb	1	; () banked
  1672  012E06  0101               	movlb	1	; () banked
  1673  012E08  5115               	movf	((testToggle@i_76+1))&0ffh,w
  1674  012E0A  0A80               	xorlw	80h
  1675  012E0C  0F80               	addlw	-((0)^80h)
  1676  012E0E  0E07               	movlw	07h
  1677  012E10  B4D8               	btfsc	status,2
  1678  012E12  5D14               	subwf	((testToggle@i_76))&0ffh,w
  1679  012E14  A0D8               	btfss	status,0
  1680  012E16  EF0F  F097         	goto	u4721
  1681  012E1A  EF11  F097         	goto	u4720
  1682  012E1E                     u4721:
  1683  012E1E  EF82  F096         	goto	l1034
  1684  012E22                     u4720:
  1685                           	
  1686  012E22                     l1035:		; BSR set to: ?
  1687                           
  1688                           	line	969
  1689                           ;main.c: 966: }
  1690                           ;main.c: 969: for (int i = 0; i < 7; i++) {
  1691  012E22  0E00               	movlw	low(0)
  1692  012E24  0101               	movlb	1	; () banked
  1693  012E26  0101               	movlb	1	; () banked
  1694  012E28  6F16               	movwf	((testToggle@i_78))&0ffh
  1695  012E2A  0E00               	movlw	high(0)
  1696  012E2C  0101               	movlb	1	; () banked
  1697  012E2E  6F17               	movwf	((testToggle@i_78+1))&0ffh
  1698  012E30  0101               	movlb	1	; () banked
  1699  012E32  0101               	movlb	1	; () banked
  1700  012E34  5117               	movf	((testToggle@i_78+1))&0ffh,w
  1701  012E36  0A80               	xorlw	80h
  1702  012E38  0F80               	addlw	-((0)^80h)
  1703  012E3A  0E07               	movlw	07h
  1704  012E3C  B4D8               	btfsc	status,2
  1705  012E3E  5D16               	subwf	((testToggle@i_78))&0ffh,w
  1706  012E40  A0D8               	btfss	status,0
  1707  012E42  EF25  F097         	goto	u4731
  1708  012E46  EF27  F097         	goto	u4730
  1709  012E4A                     u4731:
  1710  012E4A  EF29  F097         	goto	l1040
  1711  012E4E                     u4730:
  1712  012E4E  EFBC  F097         	goto	l1041
  1713                           	
  1714  012E52                     l1040:		; BSR set to: ?
  1715                           
  1716                           	line	970
  1717                           ;main.c: 970: for (int j = 0; j < sizeof(led_arr
                                 ay); j++) {
  1718  012E52  0E00               	movlw	low(0)
  1719  012E54  0101               	movlb	1	; () banked
  1720  012E56  0101               	movlb	1	; () banked
  1721  012E58  6F28               	movwf	((testToggle@j_79))&0ffh
  1722  012E5A  0E00               	movlw	high(0)
  1723  012E5C  0101               	movlb	1	; () banked
  1724  012E5E  6F29               	movwf	((testToggle@j_79+1))&0ffh
  1725  012E60  0E1A               	movlw	01Ah
  1726  012E62  0101               	movlb	1	; () banked
  1727  012E64  0101               	movlb	1	; () banked
  1728  012E66  5D28               	subwf	((testToggle@j_79))&0ffh,w
  1729  012E68  0E00               	movlw	0
  1730  012E6A  0101               	movlb	1	; () banked
  1731  012E6C  5929               	subwfb	((testToggle@j_79+1))&0ffh,w
  1732  012E6E  A0D8               	btfss	status,0
  1733  012E70  EF3C  F097         	goto	u4741
  1734  012E74  EF3E  F097         	goto	u4740
  1735  012E78                     u4741:
  1736  012E78  EF40  F097         	goto	l1043
  1737  012E7C                     u4740:
  1738  012E7C  EF63  F097         	goto	l1044
  1739                           	
  1740  012E80                     l1043:		; BSR set to: ?
  1741                           
  1742                           	line	971
  1743                           ;main.c: 971: led_array[j] = 0;
  1744  012E80  0101               	movlb	1	; () banked
  1745  012E82  90D8               	bcf	status,0
  1746  012E84  0101               	movlb	1	; () banked
  1747  012E86  3528               	rlcf	((testToggle@j_79))&0ffh,w
  1748  012E88  0101               	movlb	1	; () banked
  1749  012E8A  6F2E               	movwf	(??_testToggle+36+0)&0ffh
  1750  012E8C  0E00               	movlw	low((c:0))
  1751  012E8E  0101               	movlb	1	; () banked
  1752  012E90  252E               	addwf	(??_testToggle+36+0)&0ffh,w
  1753  012E92  6EE9               	movwf	c:fsr0l
  1754  012E94  6AEA               	clrf	1+c:fsr0l
  1755  012E96  0E00               	movlw	high((c:0))
  1756  012E98  22EA               	addwfc	1+c:fsr0l
  1757  012E9A  0E00               	movlw	low(0)
  1758  012E9C  6EEE               	movwf	postinc0
  1759  012E9E  0E00               	movlw	high(0)
  1760  012EA0  6EED               	movwf	postdec0
  1761                           	line	970
  1762  012EA2  0101               	movlb	1	; () banked
  1763  012EA4  0101               	movlb	1	; () banked
  1764  012EA6  4B28               	infsnz	((testToggle@j_79))&0ffh
  1765  012EA8  2B29               	incf	((testToggle@j_79+1))&0ffh
  1766  012EAA  0E1A               	movlw	01Ah
  1767  012EAC  0101               	movlb	1	; () banked
  1768  012EAE  0101               	movlb	1	; () banked
  1769  012EB0  5D28               	subwf	((testToggle@j_79))&0ffh,w
  1770  012EB2  0E00               	movlw	0
  1771  012EB4  0101               	movlb	1	; () banked
  1772  012EB6  5929               	subwfb	((testToggle@j_79+1))&0ffh,w
  1773  012EB8  A0D8               	btfss	status,0
  1774  012EBA  EF61  F097         	goto	u4751
  1775  012EBE  EF63  F097         	goto	u4750
  1776  012EC2                     u4751:
  1777  012EC2  EF40  F097         	goto	l1043
  1778  012EC6                     u4750:
  1779                           	
  1780  012EC6                     l1044:		; BSR set to: ?
  1781                           
  1782                           	line	973
  1783                           ;main.c: 972: }
  1784                           ;main.c: 973: led_array[4] = 1;
  1785  012EC6  0E01               	movlw	low(01h)
  1786  012EC8  6E08               	movwf	(0+((c:0)+08h)),c
  1787  012ECA  0E00               	movlw	high(01h)
  1788  012ECC  6E09               	movwf	(1+((c:0)+08h)),c
  1789                           	line	974
  1790                           ;main.c: 974: led_array[5] = 1;
  1791  012ECE  0E01               	movlw	low(01h)
  1792  012ED0  6E0A               	movwf	(0+((c:0)+0Ah)),c
  1793  012ED2  0E00               	movlw	high(01h)
  1794  012ED4  6E0B               	movwf	(1+((c:0)+0Ah)),c
  1795                           	line	975
  1796                           ;main.c: 975: led_array[i+6] = 1;
  1797  012ED6  0101               	movlb	1	; () banked
  1798  012ED8  90D8               	bcf	status,0
  1799  012EDA  0101               	movlb	1	; () banked
  1800  012EDC  3516               	rlcf	((testToggle@i_78))&0ffh,w
  1801  012EDE  0101               	movlb	1	; () banked
  1802  012EE0  6F2E               	movwf	(??_testToggle+36+0)&0ffh
  1803  012EE2  0E0C               	movlw	0Ch
  1804  012EE4  0101               	movlb	1	; () banked
  1805  012EE6  272E               	addwf	(??_testToggle+36+0)&0ffh
  1806  012EE8  0E00               	movlw	low((c:0))
  1807  012EEA  0101               	movlb	1	; () banked
  1808  012EEC  252E               	addwf	(??_testToggle+36+0)&0ffh,w
  1809  012EEE  6EE9               	movwf	c:fsr0l
  1810  012EF0  6AEA               	clrf	1+c:fsr0l
  1811  012EF2  0E00               	movlw	high((c:0))
  1812  012EF4  22EA               	addwfc	1+c:fsr0l
  1813  012EF6  0E01               	movlw	low(01h)
  1814  012EF8  6EEE               	movwf	postinc0
  1815  012EFA  0E00               	movlw	high(01h)
  1816  012EFC  6EED               	movwf	postdec0
  1817                           	line	976
  1818                           ;main.c: 976: ToggleLeds();
  1819  012EFE  EC0B  F099         	call	_ToggleLeds	;wreg free
  1820                           	line	977
  1821                           ;main.c: 977: DelayMs(5000);
  1822  012F02  0101               	movlb	1	; () banked
  1823  012F04  6F2E               	movwf	(??_testToggle+36+0)&0ffh
  1824  012F06  0E88               	movlw	low(088h)
  1825  012F08  0101               	movlb	1	; () banked
  1826  012F0A  0101               	movlb	1	; () banked
  1827  012F0C  6F2F               	movwf	((?_DelayMs))&0ffh
  1828  012F0E  0101               	movlb	1	; () banked
  1829  012F10  512E               	movf	(??_testToggle+36+0)&0ffh,w
  1830  012F12  EC70  F092         	call	_DelayMs	;wreg free
  1831                           	line	978
  1832                           ;main.c: 978: DelayMs(5000);
  1833  012F16  0101               	movlb	1	; () banked
  1834  012F18  6F2E               	movwf	(??_testToggle+36+0)&0ffh
  1835  012F1A  0E88               	movlw	low(088h)
  1836  012F1C  0101               	movlb	1	; () banked
  1837  012F1E  0101               	movlb	1	; () banked
  1838  012F20  6F2F               	movwf	((?_DelayMs))&0ffh
  1839  012F22  0101               	movlb	1	; () banked
  1840  012F24  512E               	movf	(??_testToggle+36+0)&0ffh,w
  1841  012F26  EC70  F092         	call	_DelayMs	;wreg free
  1842                           	line	979
  1843                           ;main.c: 979: DelayMs(5000);
  1844  012F2A  0101               	movlb	1	; () banked
  1845  012F2C  6F2E               	movwf	(??_testToggle+36+0)&0ffh
  1846  012F2E  0E88               	movlw	low(088h)
  1847  012F30  0101               	movlb	1	; () banked
  1848  012F32  0101               	movlb	1	; () banked
  1849  012F34  6F2F               	movwf	((?_DelayMs))&0ffh
  1850  012F36  0101               	movlb	1	; () banked
  1851  012F38  512E               	movf	(??_testToggle+36+0)&0ffh,w
  1852  012F3A  EC70  F092         	call	_DelayMs	;wreg free
  1853                           	line	980
  1854                           ;main.c: 980: DelayMs(5000);
  1855  012F3E  0101               	movlb	1	; () banked
  1856  012F40  6F2E               	movwf	(??_testToggle+36+0)&0ffh
  1857  012F42  0E88               	movlw	low(088h)
  1858  012F44  0101               	movlb	1	; () banked
  1859  012F46  0101               	movlb	1	; () banked
  1860  012F48  6F2F               	movwf	((?_DelayMs))&0ffh
  1861  012F4A  0101               	movlb	1	; () banked
  1862  012F4C  512E               	movf	(??_testToggle+36+0)&0ffh,w
  1863  012F4E  EC70  F092         	call	_DelayMs	;wreg free
  1864                           	line	969
  1865  012F52  0101               	movlb	1	; () banked
  1866  012F54  0101               	movlb	1	; () banked
  1867  012F56  4B16               	infsnz	((testToggle@i_78))&0ffh
  1868  012F58  2B17               	incf	((testToggle@i_78+1))&0ffh
  1869  012F5A  0101               	movlb	1	; () banked
  1870  012F5C  0101               	movlb	1	; () banked
  1871  012F5E  5117               	movf	((testToggle@i_78+1))&0ffh,w
  1872  012F60  0A80               	xorlw	80h
  1873  012F62  0F80               	addlw	-((0)^80h)
  1874  012F64  0E07               	movlw	07h
  1875  012F66  B4D8               	btfsc	status,2
  1876  012F68  5D16               	subwf	((testToggle@i_78))&0ffh,w
  1877  012F6A  A0D8               	btfss	status,0
  1878  012F6C  EFBA  F097         	goto	u4761
  1879  012F70  EFBC  F097         	goto	u4760
  1880  012F74                     u4761:
  1881  012F74  EF29  F097         	goto	l1040
  1882  012F78                     u4760:
  1883                           	
  1884  012F78                     l1041:		; BSR set to: ?
  1885                           
  1886                           	line	983
  1887                           ;main.c: 981: }
  1888                           ;main.c: 983: for (int i = 0; i < 7; i++) {
  1889  012F78  0E00               	movlw	low(0)
  1890  012F7A  0101               	movlb	1	; () banked
  1891  012F7C  0101               	movlb	1	; () banked
  1892  012F7E  6F18               	movwf	((testToggle@i_80))&0ffh
  1893  012F80  0E00               	movlw	high(0)
  1894  012F82  0101               	movlb	1	; () banked
  1895  012F84  6F19               	movwf	((testToggle@i_80+1))&0ffh
  1896  012F86  0101               	movlb	1	; () banked
  1897  012F88  0101               	movlb	1	; () banked
  1898  012F8A  5119               	movf	((testToggle@i_80+1))&0ffh,w
  1899  012F8C  0A80               	xorlw	80h
  1900  012F8E  0F80               	addlw	-((0)^80h)
  1901  012F90  0E07               	movlw	07h
  1902  012F92  B4D8               	btfsc	status,2
  1903  012F94  5D18               	subwf	((testToggle@i_80))&0ffh,w
  1904  012F96  A0D8               	btfss	status,0
  1905  012F98  EFD0  F097         	goto	u4771
  1906  012F9C  EFD2  F097         	goto	u4770
  1907  012FA0                     u4771:
  1908  012FA0  EFD4  F097         	goto	l1046
  1909  012FA4                     u4770:
  1910  012FA4  EF63  F098         	goto	l1047
  1911                           	
  1912  012FA8                     l1046:		; BSR set to: ?
  1913                           
  1914                           	line	984
  1915                           ;main.c: 984: for (int j = 0; j < sizeof(led_arr
                                 ay); j++) {
  1916  012FA8  0E00               	movlw	low(0)
  1917  012FAA  0101               	movlb	1	; () banked
  1918  012FAC  0101               	movlb	1	; () banked
  1919  012FAE  6F2A               	movwf	((testToggle@j_81))&0ffh
  1920  012FB0  0E00               	movlw	high(0)
  1921  012FB2  0101               	movlb	1	; () banked
  1922  012FB4  6F2B               	movwf	((testToggle@j_81+1))&0ffh
  1923  012FB6  0E1A               	movlw	01Ah
  1924  012FB8  0101               	movlb	1	; () banked
  1925  012FBA  0101               	movlb	1	; () banked
  1926  012FBC  5D2A               	subwf	((testToggle@j_81))&0ffh,w
  1927  012FBE  0E00               	movlw	0
  1928  012FC0  0101               	movlb	1	; () banked
  1929  012FC2  592B               	subwfb	((testToggle@j_81+1))&0ffh,w
  1930  012FC4  A0D8               	btfss	status,0
  1931  012FC6  EFE7  F097         	goto	u4781
  1932  012FCA  EFE9  F097         	goto	u4780
  1933  012FCE                     u4781:
  1934  012FCE  EFEB  F097         	goto	l1049
  1935  012FD2                     u4780:
  1936  012FD2  EF0E  F098         	goto	l1050
  1937                           	
  1938  012FD6                     l1049:		; BSR set to: ?
  1939                           
  1940                           	line	985
  1941                           ;main.c: 985: led_array[j] = 0;
  1942  012FD6  0101               	movlb	1	; () banked
  1943  012FD8  90D8               	bcf	status,0
  1944  012FDA  0101               	movlb	1	; () banked
  1945  012FDC  352A               	rlcf	((testToggle@j_81))&0ffh,w
  1946  012FDE  0101               	movlb	1	; () banked
  1947  012FE0  6F2E               	movwf	(??_testToggle+36+0)&0ffh
  1948  012FE2  0E00               	movlw	low((c:0))
  1949  012FE4  0101               	movlb	1	; () banked
  1950  012FE6  252E               	addwf	(??_testToggle+36+0)&0ffh,w
  1951  012FE8  6EE9               	movwf	c:fsr0l
  1952  012FEA  6AEA               	clrf	1+c:fsr0l
  1953  012FEC  0E00               	movlw	high((c:0))
  1954  012FEE  22EA               	addwfc	1+c:fsr0l
  1955  012FF0  0E00               	movlw	low(0)
  1956  012FF2  6EEE               	movwf	postinc0
  1957  012FF4  0E00               	movlw	high(0)
  1958  012FF6  6EED               	movwf	postdec0
  1959                           	line	984
  1960  012FF8  0101               	movlb	1	; () banked
  1961  012FFA  0101               	movlb	1	; () banked
  1962  012FFC  4B2A               	infsnz	((testToggle@j_81))&0ffh
  1963  012FFE  2B2B               	incf	((testToggle@j_81+1))&0ffh
  1964  013000  0E1A               	movlw	01Ah
  1965  013002  0101               	movlb	1	; () banked
  1966  013004  0101               	movlb	1	; () banked
  1967  013006  5D2A               	subwf	((testToggle@j_81))&0ffh,w
  1968  013008  0E00               	movlw	0
  1969  01300A  0101               	movlb	1	; () banked
  1970  01300C  592B               	subwfb	((testToggle@j_81+1))&0ffh,w
  1971  01300E  A0D8               	btfss	status,0
  1972  013010  EF0C  F098         	goto	u4791
  1973  013014  EF0E  F098         	goto	u4790
  1974  013018                     u4791:
  1975  013018  EFEB  F097         	goto	l1049
  1976  01301C                     u4790:
  1977                           	
  1978  01301C                     l1050:		; BSR set to: ?
  1979                           
  1980                           	line	987
  1981                           ;main.c: 986: }
  1982                           ;main.c: 987: led_array[4] = 1;
  1983  01301C  0E01               	movlw	low(01h)
  1984  01301E  6E08               	movwf	(0+((c:0)+08h)),c
  1985  013020  0E00               	movlw	high(01h)
  1986  013022  6E09               	movwf	(1+((c:0)+08h)),c
  1987                           	line	988
  1988                           ;main.c: 988: led_array[i+6] = 1;
  1989  013024  0101               	movlb	1	; () banked
  1990  013026  90D8               	bcf	status,0
  1991  013028  0101               	movlb	1	; () banked
  1992  01302A  3518               	rlcf	((testToggle@i_80))&0ffh,w
  1993  01302C  0101               	movlb	1	; () banked
  1994  01302E  6F2E               	movwf	(??_testToggle+36+0)&0ffh
  1995  013030  0E0C               	movlw	0Ch
  1996  013032  0101               	movlb	1	; () banked
  1997  013034  272E               	addwf	(??_testToggle+36+0)&0ffh
  1998  013036  0E00               	movlw	low((c:0))
  1999  013038  0101               	movlb	1	; () banked
  2000  01303A  252E               	addwf	(??_testToggle+36+0)&0ffh,w
  2001  01303C  6EE9               	movwf	c:fsr0l
  2002  01303E  6AEA               	clrf	1+c:fsr0l
  2003  013040  0E00               	movlw	high((c:0))
  2004  013042  22EA               	addwfc	1+c:fsr0l
  2005  013044  0E01               	movlw	low(01h)
  2006  013046  6EEE               	movwf	postinc0
  2007  013048  0E00               	movlw	high(01h)
  2008  01304A  6EED               	movwf	postdec0
  2009                           	line	989
  2010                           ;main.c: 989: ToggleLeds();
  2011  01304C  EC0B  F099         	call	_ToggleLeds	;wreg free
  2012                           	line	990
  2013                           ;main.c: 990: DelayMs(5000);
  2014  013050  0101               	movlb	1	; () banked
  2015  013052  6F2E               	movwf	(??_testToggle+36+0)&0ffh
  2016  013054  0E88               	movlw	low(088h)
  2017  013056  0101               	movlb	1	; () banked
  2018  013058  0101               	movlb	1	; () banked
  2019  01305A  6F2F               	movwf	((?_DelayMs))&0ffh
  2020  01305C  0101               	movlb	1	; () banked
  2021  01305E  512E               	movf	(??_testToggle+36+0)&0ffh,w
  2022  013060  EC70  F092         	call	_DelayMs	;wreg free
  2023                           	line	991
  2024                           ;main.c: 991: DelayMs(5000);
  2025  013064  0101               	movlb	1	; () banked
  2026  013066  6F2E               	movwf	(??_testToggle+36+0)&0ffh
  2027  013068  0E88               	movlw	low(088h)
  2028  01306A  0101               	movlb	1	; () banked
  2029  01306C  0101               	movlb	1	; () banked
  2030  01306E  6F2F               	movwf	((?_DelayMs))&0ffh
  2031  013070  0101               	movlb	1	; () banked
  2032  013072  512E               	movf	(??_testToggle+36+0)&0ffh,w
  2033  013074  EC70  F092         	call	_DelayMs	;wreg free
  2034                           	line	992
  2035                           ;main.c: 992: DelayMs(5000);
  2036  013078  0101               	movlb	1	; () banked
  2037  01307A  6F2E               	movwf	(??_testToggle+36+0)&0ffh
  2038  01307C  0E88               	movlw	low(088h)
  2039  01307E  0101               	movlb	1	; () banked
  2040  013080  0101               	movlb	1	; () banked
  2041  013082  6F2F               	movwf	((?_DelayMs))&0ffh
  2042  013084  0101               	movlb	1	; () banked
  2043  013086  512E               	movf	(??_testToggle+36+0)&0ffh,w
  2044  013088  EC70  F092         	call	_DelayMs	;wreg free
  2045                           	line	993
  2046                           ;main.c: 993: DelayMs(5000);
  2047  01308C  0101               	movlb	1	; () banked
  2048  01308E  6F2E               	movwf	(??_testToggle+36+0)&0ffh
  2049  013090  0E88               	movlw	low(088h)
  2050  013092  0101               	movlb	1	; () banked
  2051  013094  0101               	movlb	1	; () banked
  2052  013096  6F2F               	movwf	((?_DelayMs))&0ffh
  2053  013098  0101               	movlb	1	; () banked
  2054  01309A  512E               	movf	(??_testToggle+36+0)&0ffh,w
  2055  01309C  EC70  F092         	call	_DelayMs	;wreg free
  2056                           	line	983
  2057  0130A0  0101               	movlb	1	; () banked
  2058  0130A2  0101               	movlb	1	; () banked
  2059  0130A4  4B18               	infsnz	((testToggle@i_80))&0ffh
  2060  0130A6  2B19               	incf	((testToggle@i_80+1))&0ffh
  2061  0130A8  0101               	movlb	1	; () banked
  2062  0130AA  0101               	movlb	1	; () banked
  2063  0130AC  5119               	movf	((testToggle@i_80+1))&0ffh,w
  2064  0130AE  0A80               	xorlw	80h
  2065  0130B0  0F80               	addlw	-((0)^80h)
  2066  0130B2  0E07               	movlw	07h
  2067  0130B4  B4D8               	btfsc	status,2
  2068  0130B6  5D18               	subwf	((testToggle@i_80))&0ffh,w
  2069  0130B8  A0D8               	btfss	status,0
  2070  0130BA  EF61  F098         	goto	u4801
  2071  0130BE  EF63  F098         	goto	u4800
  2072  0130C2                     u4801:
  2073  0130C2  EFD4  F097         	goto	l1046
  2074  0130C6                     u4800:
  2075                           	
  2076  0130C6                     l1047:		; BSR set to: ?
  2077                           
  2078                           	line	996
  2079                           ;main.c: 994: }
  2080                           ;main.c: 996: for (int i = 0; i < 7; i++) {
  2081  0130C6  0E00               	movlw	low(0)
  2082  0130C8  0101               	movlb	1	; () banked
  2083  0130CA  0101               	movlb	1	; () banked
  2084  0130CC  6F1A               	movwf	((testToggle@i_82))&0ffh
  2085  0130CE  0E00               	movlw	high(0)
  2086  0130D0  0101               	movlb	1	; () banked
  2087  0130D2  6F1B               	movwf	((testToggle@i_82+1))&0ffh
  2088  0130D4  0101               	movlb	1	; () banked
  2089  0130D6  0101               	movlb	1	; () banked
  2090  0130D8  511B               	movf	((testToggle@i_82+1))&0ffh,w
  2091  0130DA  0A80               	xorlw	80h
  2092  0130DC  0F80               	addlw	-((0)^80h)
  2093  0130DE  0E07               	movlw	07h
  2094  0130E0  B4D8               	btfsc	status,2
  2095  0130E2  5D1A               	subwf	((testToggle@i_82))&0ffh,w
  2096  0130E4  A0D8               	btfss	status,0
  2097  0130E6  EF77  F098         	goto	u4811
  2098  0130EA  EF79  F098         	goto	u4810
  2099  0130EE                     u4811:
  2100  0130EE  EF7B  F098         	goto	l1052
  2101  0130F2                     u4810:
  2102  0130F2  EF0A  F099         	goto	l1053
  2103                           	
  2104  0130F6                     l1052:		; BSR set to: ?
  2105                           
  2106                           	line	997
  2107                           ;main.c: 997: for (int j = 0; j < sizeof(led_arr
                                 ay); j++) {
  2108  0130F6  0E00               	movlw	low(0)
  2109  0130F8  0101               	movlb	1	; () banked
  2110  0130FA  0101               	movlb	1	; () banked
  2111  0130FC  6F2C               	movwf	((testToggle@j_83))&0ffh
  2112  0130FE  0E00               	movlw	high(0)
  2113  013100  0101               	movlb	1	; () banked
  2114  013102  6F2D               	movwf	((testToggle@j_83+1))&0ffh
  2115  013104  0E1A               	movlw	01Ah
  2116  013106  0101               	movlb	1	; () banked
  2117  013108  0101               	movlb	1	; () banked
  2118  01310A  5D2C               	subwf	((testToggle@j_83))&0ffh,w
  2119  01310C  0E00               	movlw	0
  2120  01310E  0101               	movlb	1	; () banked
  2121  013110  592D               	subwfb	((testToggle@j_83+1))&0ffh,w
  2122  013112  A0D8               	btfss	status,0
  2123  013114  EF8E  F098         	goto	u4821
  2124  013118  EF90  F098         	goto	u4820
  2125  01311C                     u4821:
  2126  01311C  EF92  F098         	goto	l1055
  2127  013120                     u4820:
  2128  013120  EFB5  F098         	goto	l1056
  2129                           	
  2130  013124                     l1055:		; BSR set to: ?
  2131                           
  2132                           	line	998
  2133                           ;main.c: 998: led_array[j] = 0;
  2134  013124  0101               	movlb	1	; () banked
  2135  013126  90D8               	bcf	status,0
  2136  013128  0101               	movlb	1	; () banked
  2137  01312A  352C               	rlcf	((testToggle@j_83))&0ffh,w
  2138  01312C  0101               	movlb	1	; () banked
  2139  01312E  6F2E               	movwf	(??_testToggle+36+0)&0ffh
  2140  013130  0E00               	movlw	low((c:0))
  2141  013132  0101               	movlb	1	; () banked
  2142  013134  252E               	addwf	(??_testToggle+36+0)&0ffh,w
  2143  013136  6EE9               	movwf	c:fsr0l
  2144  013138  6AEA               	clrf	1+c:fsr0l
  2145  01313A  0E00               	movlw	high((c:0))
  2146  01313C  22EA               	addwfc	1+c:fsr0l
  2147  01313E  0E00               	movlw	low(0)
  2148  013140  6EEE               	movwf	postinc0
  2149  013142  0E00               	movlw	high(0)
  2150  013144  6EED               	movwf	postdec0
  2151                           	line	997
  2152  013146  0101               	movlb	1	; () banked
  2153  013148  0101               	movlb	1	; () banked
  2154  01314A  4B2C               	infsnz	((testToggle@j_83))&0ffh
  2155  01314C  2B2D               	incf	((testToggle@j_83+1))&0ffh
  2156  01314E  0E1A               	movlw	01Ah
  2157  013150  0101               	movlb	1	; () banked
  2158  013152  0101               	movlb	1	; () banked
  2159  013154  5D2C               	subwf	((testToggle@j_83))&0ffh,w
  2160  013156  0E00               	movlw	0
  2161  013158  0101               	movlb	1	; () banked
  2162  01315A  592D               	subwfb	((testToggle@j_83+1))&0ffh,w
  2163  01315C  A0D8               	btfss	status,0
  2164  01315E  EFB3  F098         	goto	u4831
  2165  013162  EFB5  F098         	goto	u4830
  2166  013166                     u4831:
  2167  013166  EF92  F098         	goto	l1055
  2168  01316A                     u4830:
  2169                           	
  2170  01316A                     l1056:		; BSR set to: ?
  2171                           
  2172                           	line	1000
  2173                           ;main.c: 999: }
  2174                           ;main.c: 1000: led_array[5] = 1;
  2175  01316A  0E01               	movlw	low(01h)
  2176  01316C  6E0A               	movwf	(0+((c:0)+0Ah)),c
  2177  01316E  0E00               	movlw	high(01h)
  2178  013170  6E0B               	movwf	(1+((c:0)+0Ah)),c
  2179                           	line	1001
  2180                           ;main.c: 1001: led_array[i+6] = 1;
  2181  013172  0101               	movlb	1	; () banked
  2182  013174  90D8               	bcf	status,0
  2183  013176  0101               	movlb	1	; () banked
  2184  013178  351A               	rlcf	((testToggle@i_82))&0ffh,w
  2185  01317A  0101               	movlb	1	; () banked
  2186  01317C  6F2E               	movwf	(??_testToggle+36+0)&0ffh
  2187  01317E  0E0C               	movlw	0Ch
  2188  013180  0101               	movlb	1	; () banked
  2189  013182  272E               	addwf	(??_testToggle+36+0)&0ffh
  2190  013184  0E00               	movlw	low((c:0))
  2191  013186  0101               	movlb	1	; () banked
  2192  013188  252E               	addwf	(??_testToggle+36+0)&0ffh,w
  2193  01318A  6EE9               	movwf	c:fsr0l
  2194  01318C  6AEA               	clrf	1+c:fsr0l
  2195  01318E  0E00               	movlw	high((c:0))
  2196  013190  22EA               	addwfc	1+c:fsr0l
  2197  013192  0E01               	movlw	low(01h)
  2198  013194  6EEE               	movwf	postinc0
  2199  013196  0E00               	movlw	high(01h)
  2200  013198  6EED               	movwf	postdec0
  2201                           	line	1002
  2202                           ;main.c: 1002: ToggleLeds();
  2203  01319A  EC0B  F099         	call	_ToggleLeds	;wreg free
  2204                           	line	1003
  2205                           ;main.c: 1003: DelayMs(5000);
  2206  01319E  0101               	movlb	1	; () banked
  2207  0131A0  6F2E               	movwf	(??_testToggle+36+0)&0ffh
  2208  0131A2  0E88               	movlw	low(088h)
  2209  0131A4  0101               	movlb	1	; () banked
  2210  0131A6  0101               	movlb	1	; () banked
  2211  0131A8  6F2F               	movwf	((?_DelayMs))&0ffh
  2212  0131AA  0101               	movlb	1	; () banked
  2213  0131AC  512E               	movf	(??_testToggle+36+0)&0ffh,w
  2214  0131AE  EC70  F092         	call	_DelayMs	;wreg free
  2215                           	line	1004
  2216                           ;main.c: 1004: DelayMs(5000);
  2217  0131B2  0101               	movlb	1	; () banked
  2218  0131B4  6F2E               	movwf	(??_testToggle+36+0)&0ffh
  2219  0131B6  0E88               	movlw	low(088h)
  2220  0131B8  0101               	movlb	1	; () banked
  2221  0131BA  0101               	movlb	1	; () banked
  2222  0131BC  6F2F               	movwf	((?_DelayMs))&0ffh
  2223  0131BE  0101               	movlb	1	; () banked
  2224  0131C0  512E               	movf	(??_testToggle+36+0)&0ffh,w
  2225  0131C2  EC70  F092         	call	_DelayMs	;wreg free
  2226                           	line	1005
  2227                           ;main.c: 1005: DelayMs(5000);
  2228  0131C6  0101               	movlb	1	; () banked
  2229  0131C8  6F2E               	movwf	(??_testToggle+36+0)&0ffh
  2230  0131CA  0E88               	movlw	low(088h)
  2231  0131CC  0101               	movlb	1	; () banked
  2232  0131CE  0101               	movlb	1	; () banked
  2233  0131D0  6F2F               	movwf	((?_DelayMs))&0ffh
  2234  0131D2  0101               	movlb	1	; () banked
  2235  0131D4  512E               	movf	(??_testToggle+36+0)&0ffh,w
  2236  0131D6  EC70  F092         	call	_DelayMs	;wreg free
  2237                           	line	1006
  2238                           ;main.c: 1006: DelayMs(5000);
  2239  0131DA  0101               	movlb	1	; () banked
  2240  0131DC  6F2E               	movwf	(??_testToggle+36+0)&0ffh
  2241  0131DE  0E88               	movlw	low(088h)
  2242+ 0131E0  0101               	movlb	1	; () banked
  2243+ 0131E2  0101               	movlb	1	; () banked
  2244+ 0131E4  6F2F               	movwf	((?_DelayMs))&0ffh
  2245+ 0131E6  0101               	movlb	1	; () banked
  2246+ 0131E8  512E               	movf	(??_testToggle+36+0)&0ffh,w
  2247+ 0131EA  EC70  F092         	call	_DelayMs	;wreg free
  2248+                          	line	996
  2249+ 0131EE  0101               	movlb	1	; () banked
  2250+ 0131F0  0101               	movlb	1	; () banked
  2251+ 0131F2  4B1A               	infsnz	((testToggle@i_82))&0ffh
  2252+ 0131F4  2B1B               	incf	((testToggle@i_82+1))&0ffh
  2253+ 0131F6  0101               	movlb	1	; () banked
  2254+ 0131F8  0101               	movlb	1	; () banked
  2255+ 0131FA  511B               	movf	((testToggle@i_82+1))&0ffh,w
  2256+ 0131FC  0A80               	xorlw	80h
  2257+ 0131FE  0F80               	addlw	-((0)^80h)
  2258+ 013200  0E07               	movlw	07h
  2259+ 013202  B4D8               	btfsc	status,2
  2260+ 013204  5D1A               	subwf	((testToggle@i_82))&0ffh,w
  2261+ 013206  A0D8               	btfss	status,0
  2262+ 013208  EF08  F099         	goto	u4841
  2263+ 01320C  EF0A  F099         	goto	u4840
  2264+ 013210                     u4841:
  2265+ 013210  EF7B  F098         	goto	l1052
  2266+ 013214                     u4840:
  2267+                          	
  2268+ 013214                     l1053:		; BSR set to: ?
  2269+                          
  2270+                          	line	1008
  2271+                          ;main.c: 1007: }
  2272+                          ;main.c: 1008: }
  2273+ 013214                     l1003:
  2274+                          			; BSR set to: ?
  2275+                          
  2276+ 013214  0012               	return
  2277+                          	opt stack 0
  2278+                          GLOBAL __end_of_testToggle
  2279+ 013216                     	__end_of_testToggle:
  2280+                          	FNSIZE	_testToggle,37,0
  2281+                          ; =============== function _testToggle ends ====
      +                          ========
  2282+                          
  2283+                          	signat	_testToggle,88
  2284+                          	global	_DelayMs
  2285+                          	global	??_DelayMs
  2286+                          	global	?_DelayMs
  2287+                          
  2288+                          ; *************** function _DelayMs ************
      +                          *****
  2289+                          ; Defined at:
  2290+                          ;		line 12 in file "delay.c"
  2291+                          ; Parameters:
  2292+                          ;		cnt            size:   1offs:   0	type: unsig
      +                          ned char 
  2293+                          ; Auto variables:
  2294+                          ;		i           	       	type: unsigned char 
  2295+                          ;		_dcnt       	       	type: unsigned char 
  2296+                          ; Return value:
  2297+                          ;		type: void 
  2298+                          ;		size: 0
  2299+                          ; Registers used:
  2300+                          ;		status,2
  2301+                          ; Tracked objects:
  2302+                          ;		On entry : 0/0
  2303+                          ;		On exit  : 0/0
  2304+                          ;		Unchanged: 0/0
  2305+                          ; Data sizes:
  2306+                          ;		Autos:    2
  2307+                          ;		Params:   1
  2308+                          ;		Temp:     1
  2309+                          ;		Total:    4
  2310+                          ; This function calls:
  2311+                          ;		Nothing
  2312+                          ; This function is called by:
  2313+                          ;		_testToggle
  2314+                          ; This function uses a non-reentrant model
  2315+                          ; 
  2316+                                  psect   text2,class=CODE,space=0,reloc=2
  2317+                          
  2318+                          	opt lm
  2319+                          	file	"delay.c"
  2320+                          	line	12
  2321+ 000000                     	__size_of_DelayMs	equ	__end_of_DelayMs-_DelayMs
  2322+                          ;delay.c: 10: void
  2323+                          ;delay.c: 11: DelayMs(unsigned char cnt)
  2324+                          ;delay.c: 12: {
  2325+                          	
  2326+ 0124E0                     _DelayMs:		; BSR set to: ?
  2327+                          
  2328+                          	opt stack 29
  2329+                          	line	21
  2330+                          	
  2331+ 0124E0                     l1078:		; BSR set to: ?
  2332+                          
  2333+                          	line	22
  2334+                          ;delay.c: 22: i = 4;
  2335+ 0124E0  0101               	movlb	1	; () banked
  2336+ 0124E2  6F32               	movwf	(??_DelayMs+2+0)&0ffh
  2337+ 0124E4  0E04               	movlw	low(04h)
  2338+ 0124E6  0101               	movlb	1	; () banked
  2339+ 0124E8  0101               	movlb	1	; () banked
  2340+ 0124EA  6F30               	movwf	((DelayMs@i))&0ffh
  2341+ 0124EC  0101               	movlb	1	; () banked
  2342+ 0124EE  5132               	movf	(??_DelayMs+2+0)&0ffh,w
  2343+                          	line	23
  2344+                          ;delay.c: 23: do {
  2345+                          	
  2346+ 0124F0                     l1081:		; BSR set to: ?
  2347+                          
  2348+                          	line	24
  2349+                          ;delay.c: 24: { unsigned char _dcnt; _dcnt = (25
      +                          0)*((20*1000L)/(12*1000L)); while(--_dcnt != 0) 
      +                          continue; };
  2350+ 0124F0  0101               	movlb	1	; () banked
  2351+ 0124F2  6F32               	movwf	(??_DelayMs+2+0)&0ffh
  2352+ 0124F4  0EFA               	movlw	low(0FAh)
  2353+ 0124F6  0101               	movlb	1	; () banked
  2354+ 0124F8  0101               	movlb	1	; () banked
  2355+ 0124FA  6F31               	movwf	((DelayMs@_dcnt))&0ffh
  2356+ 0124FC  0101               	movlb	1	; () banked
  2357+ 0124FE  5132               	movf	(??_DelayMs+2+0)&0ffh,w
  2358+ 012500  EF84  F092         	goto	l1082
  2359+                          	
  2360+ 012504                     l1083:		; BSR set to: ?
  2361+                          
  2362+ 012504  EF84  F092         	goto	l1082
  2363+                          	
  2364+ 012508                     l1082:		; BSR set to: ?
  2365+                          
  2366+ 012508  0101               	movlb	1	; () banked
  2367+ 01250A  0101               	movlb	1	; () banked
  2368+ 01250C  2F31               	decfsz	((DelayMs@_dcnt))&0ffh
  2369+                          	
  2370+ 01250E  EF82  F092         	goto	l1083
  2371+                          	
  2372+ 012512                     l1084:		; BSR set to: ?
  2373+                          
  2374+                          	line	25
  2375+                          ;delay.c: 25: } while(--i);
  2376+ 012512  0101               	movlb	1	; () banked
  2377+ 012514  0101               	movlb	1	; () banked
  2378+ 012516  2F30               	decfsz	((DelayMs@i))&0ffh
  2379+                          	
  2380+ 012518  EF78  F092         	goto	l1081
  2381+                          	
  2382+ 01251C                     l1080:		; BSR set to: ?
  2383+                          
  2384+                          	line	26
  2385+                          ;delay.c: 26: } while(--cnt);
  2386+ 01251C  0101               	movlb	1	; () banked
  2387+ 01251E  0101               	movlb	1	; () banked
  2388+ 012520  2F2F               	decfsz	((DelayMs@cnt))&0ffh
  2389+                          	
  2390+ 012522  EF70  F092         	goto	l1078
  2391+                          	
  2392+ 012526                     l1077:		; BSR set to: ?
  2393+                          
  2394+                          	line	28
  2395+                          ;delay.c: 28: }
  2396+ 012526                     l1075:
  2397+                          			; BSR set to: ?
  2398+                          
  2399+ 012526  0012               	return
  2400+                          	opt stack 0
  2401+                          GLOBAL __end_of_DelayMs
  2402+ 012528                     	__end_of_DelayMs:
  2403+                          	FNSIZE	_DelayMs,3,1
  2404+                          ; =============== function _DelayMs ends =======
      +                          =====
  2405+                          
  2406+                          	signat	_DelayMs,4216
  2407+                          	global	_ToggleLeds
  2408+                          	global	??_ToggleLeds
  2409+                          	global	?_ToggleLeds
  2410+                          
  2411+                          ; *************** function _ToggleLeds *********
      +                          ********
  2412+                          ; Defined at:
  2413+                          ;		line 321 in file "../code/main.c"
  2414+                          ; Parameters:
  2415+                          ;		None
  2416+                          ; Auto variables:
  2417+                          ;		None
  2418+                          ; Return value:
  2419+                          ;		type: void 
  2420+                          ;		size: 0
  2421+                          ; Registers used:
  2422+                          ;		wreg, status,2, status,0
  2423+                          ; Tracked objects:
  2424+                          ;		On entry : 0/0
  2425+                          ;		On exit  : 0/0
  2426+                          ;		Unchanged: 0/0
  2427+                          ; Data sizes:
  2428+                          ;		Autos:    0
  2429+                          ;		Params:   0
  2430+                          ;		Temp:     0
  2431+                          ;		Total:    0
  2432+                          ; This function calls:
  2433+                          ;		Nothing
  2434+                          ; This function is called by:
  2435+                          ;		_main
  2436+                          ;		_testToggle
  2437+                          ; This function uses a non-reentrant model
  2438+                          ; 
  2439+                                  psect   text3,class=CODE,space=0,reloc=2
  2440+                          
  2441+                          	opt lm
  2442+                          	file	"../code/main.c"
  2443+                          	line	321
  2444+ 000000                     	__size_of_ToggleLeds	equ	__end_of_ToggleLeds-_T
      +                          oggleLeds
  2445+                          ;main.c: 321: void ToggleLeds () {
  2446+                          	
  2447+ 013216                     _ToggleLeds:		; BSR set to: ?
  2448+                          
  2449+                          	opt stack 29
  2450+                          	line	326
  2451+ 013216  0408               	decf	(0+((c:0)+08h)),c,w
  2452+ 013218  1009               	iorwf (1+((c:0)+08h)),c,w
  2453+                          
  2454+ 01321A  A4D8               	btfss	status,2
  2455+ 01321C  EF12  F099         	goto	u4851
  2456+ 013220  EF14  F099         	goto	u4850
  2457+ 013224                     u4851:
  2458+ 013224  EF2E  F099         	goto	l878
  2459+ 013228                     u4850:
  2460+ 013228  040A               	decf	(0+((c:0)+0Ah)),c,w
  2461+ 01322A  100B               	iorwf (1+((c:0)+0Ah)),c,w
  2462+                          
  2463+ 01322C  A4D8               	btfss	status,2
  2464+ 01322E  EF1B  F099         	goto	u4861
  2465+ 013232  EF1D  F099         	goto	u4860
  2466+ 013236                     u4861:
  2467+ 013236  EF2E  F099         	goto	l878
  2468+ 01323A                     u4860:
  2469+ 01323A  040C               	decf	(0+((c:0)+0Ch)),c,w
  2470+ 01323C  100D               	iorwf (1+((c:0)+0Ch)),c,w
  2471+                          
  2472+ 01323E  A4D8               	btfss	status,2
  2473+ 013240  EF24  F099         	goto	u4871
  2474+ 013244  EF26  F099         	goto	u4870
  2475+ 013248                     u4871:
  2476+ 013248  EF2E  F099         	goto	l878
  2477+ 01324C                     u4870:
  2478+                          	line	330
  2479+                          ;main.c: 330: LATA = 0b11101111;
  2480+ 01324C  0EEF               	movlw	low(0EFh)
  2481+ 01324E  6E89               	movwf	((c:3977)),c	;volatile
  2482+                          	line	332
  2483+                          ;main.c: 332: LATB = 0b11100000;
  2484+ 013250  0EE0               	movlw	low(0E0h)
  2485+ 013252  6E8A               	movwf	((c:3978)),c	;volatile
  2486+                          	line	334
  2487+                          ;main.c: 334: LATC = 0b00001111;
  2488+ 013254  0E0F               	movlw	low(0Fh)
  2489+ 013256  6E8B               	movwf	((c:3979)),c	;volatile
  2490+                          	line	335
  2491+                          ;main.c: 335: } else if (led_array[4] == 1 && le
      +                          d_array[5] == 1 && led_array[7] == 1) {
  2492+ 013258  EFFF  F09F         	goto	l879
  2493+                          	
  2494+ 01325C                     l878:		; BSR set to: ?
  2495+                          
  2496+ 01325C  0408               	decf	(0+((c:0)+08h)),c,w
  2497+ 01325E  1009               	iorwf (1+((c:0)+08h)),c,w
  2498+                          
  2499+ 013260  A4D8               	btfss	status,2
  2500+ 013262  EF35  F099         	goto	u4881
  2501+ 013266  EF37  F099         	goto	u4880
  2502+ 01326A                     u4881:
  2503+ 01326A  EF51  F099         	goto	l880
  2504+ 01326E                     u4880:
  2505+ 01326E  040A               	decf	(0+((c:0)+0Ah)),c,w
  2506+ 013270  100B               	iorwf (1+((c:0)+0Ah)),c,w
  2507+                          
  2508+ 013272  A4D8               	btfss	status,2
  2509+ 013274  EF3E  F099         	goto	u4891
  2510+ 013278  EF40  F099         	goto	u4890
  2511+ 01327C                     u4891:
  2512+ 01327C  EF51  F099         	goto	l880
  2513+ 013280                     u4890:
  2514+ 013280  040E               	decf	(0+((c:0)+0Eh)),c,w
  2515+ 013282  100F               	iorwf (1+((c:0)+0Eh)),c,w
  2516+                          
  2517+ 013284  A4D8               	btfss	status,2
  2518+ 013286  EF47  F099         	goto	u4901
  2519+ 01328A  EF49  F099         	goto	u4900
  2520+ 01328E                     u4901:
  2521+ 01328E  EF51  F099         	goto	l880
  2522+ 013292                     u4900:
  2523+                          	line	338
  2524+                          ;main.c: 338: LATA = 0b10111111;
  2525+ 013292  0EBF               	movlw	low(0BFh)
  2526+ 013294  6E89               	movwf	((c:3977)),c	;volatile
  2527+                          	line	340
  2528+                          ;main.c: 340: LATB = 0b11100000;
  2529+ 013296  0EE0               	movlw	low(0E0h)
  2530+ 013298  6E8A               	movwf	((c:3978)),c	;volatile
  2531+                          	line	342
  2532+                          ;main.c: 342: LATC = 0b00001111;
  2533+ 01329A  0E0F               	movlw	low(0Fh)
  2534+ 01329C  6E8B               	movwf	((c:3979)),c	;volatile
  2535+                          	line	343
  2536+                          ;main.c: 343: } else if (led_array[4] == 1 && le
      +                          d_array[5] == 1 && led_array[8] == 1) {
  2537+ 01329E  EFFF  F09F         	goto	l879
  2538+                          	
  2539+ 0132A2                     l880:		; BSR set to: ?
  2540+                          
  2541+ 0132A2  0408               	decf	(0+((c:0)+08h)),c,w
  2542+ 0132A4  1009               	iorwf (1+((c:0)+08h)),c,w
  2543+                          
  2544+ 0132A6  A4D8               	btfss	status,2
  2545+ 0132A8  EF58  F099         	goto	u4911
  2546+ 0132AC  EF5A  F099         	goto	u4910
  2547+ 0132B0                     u4911:
  2548+ 0132B0  EF73  F099         	goto	l882
  2549+ 0132B4                     u4910:
  2550+ 0132B4  040A               	decf	(0+((c:0)+0Ah)),c,w
  2551+ 0132B6  100B               	iorwf (1+((c:0)+0Ah)),c,w
  2552+                          
  2553+ 0132B8  A4D8               	btfss	status,2
  2554+ 0132BA  EF61  F099         	goto	u4921
  2555+ 0132BE  EF63  F099         	goto	u4920
  2556+ 0132C2                     u4921:
  2557+ 0132C2  EF73  F099         	goto	l882
  2558+ 0132C6                     u4920:
  2559+ 0132C6  0410               	decf	(0+((c:0)+010h)),c,w
  2560+ 0132C8  1011               	iorwf (1+((c:0)+010h)),c,w
  2561+                          
  2562+ 0132CA  A4D8               	btfss	status,2
  2563+ 0132CC  EF6A  F099         	goto	u4931
  2564+ 0132D0  EF6C  F099         	goto	u4930
  2565+ 0132D4                     u4931:
  2566+ 0132D4  EF73  F099         	goto	l882
  2567+ 0132D8                     u4930:
  2568+                          	line	346
  2569+                          ;main.c: 346: LATA = 0b11111111;
  2570+ 0132D8  6889               	setf	((c:3977)),c	;volatile
  2571+                          	line	348
  2572+                          ;main.c: 348: LATB = 0b11100000;
  2573+ 0132DA  0EE0               	movlw	low(0E0h)
  2574+ 0132DC  6E8A               	movwf	((c:3978)),c	;volatile
  2575+                          	line	350
  2576+                          ;main.c: 350: LATC = 0b00001110;
  2577+ 0132DE  0E0E               	movlw	low(0Eh)
  2578+ 0132E0  6E8B               	movwf	((c:3979)),c	;volatile
  2579+                          	line	351
  2580+                          ;main.c: 351: } else if (led_array[4] == 1 && le
      +                          d_array[5] == 1 && led_array[9] == 1) {
  2581+ 0132E2  EFFF  F09F         	goto	l879
  2582+                          	
  2583+ 0132E6                     l882:		; BSR set to: ?
  2584+                          
  2585+ 0132E6  0408               	decf	(0+((c:0)+08h)),c,w
  2586+ 0132E8  1009               	iorwf (1+((c:0)+08h)),c,w
  2587+                          
  2588+ 0132EA  A4D8               	btfss	status,2
  2589+ 0132EC  EF7A  F099         	goto	u4941
  2590+ 0132F0  EF7C  F099         	goto	u4940
  2591+ 0132F4                     u4941:
  2592+ 0132F4  EF95  F099         	goto	l884
  2593+ 0132F8                     u4940:
  2594+ 0132F8  040A               	decf	(0+((c:0)+0Ah)),c,w
  2595+ 0132FA  100B               	iorwf (1+((c:0)+0Ah)),c,w
  2596+                          
  2597+ 0132FC  A4D8               	btfss	status,2
  2598+ 0132FE  EF83  F099         	goto	u4951
  2599+ 013302  EF85  F099         	goto	u4950
  2600+ 013306                     u4951:
  2601+ 013306  EF95  F099         	goto	l884
  2602+ 01330A                     u4950:
  2603+ 01330A  0412               	decf	(0+((c:0)+012h)),c,w
  2604+ 01330C  1013               	iorwf (1+((c:0)+012h)),c,w
  2605+                          
  2606+ 01330E  A4D8               	btfss	status,2
  2607+ 013310  EF8C  F099         	goto	u4961
  2608+ 013314  EF8E  F099         	goto	u4960
  2609+ 013318                     u4961:
  2610+ 013318  EF95  F099         	goto	l884
  2611+ 01331C                     u4960:
  2612+                          	line	354
  2613+                          ;main.c: 354: LATA = 0b11111111;
  2614+ 01331C  6889               	setf	((c:3977)),c	;volatile
  2615+                          	line	356
  2616+                          ;main.c: 356: LATB = 0b11100000;
  2617+ 01331E  0EE0               	movlw	low(0E0h)
  2618+ 013320  6E8A               	movwf	((c:3978)),c	;volatile
  2619+                          	line	358
  2620+                          ;main.c: 358: LATC = 0b00001101;
  2621+ 013322  0E0D               	movlw	low(0Dh)
  2622+ 013324  6E8B               	movwf	((c:3979)),c	;volatile
  2623+                          	line	359
  2624+                          ;main.c: 359: } else if (led_array[4] == 1 && le
      +                          d_array[5] == 1 && led_array[10] == 1) {
  2625+ 013326  EFFF  F09F         	goto	l879
  2626+                          	
  2627+ 01332A                     l884:		; BSR set to: ?
  2628+                          
  2629+ 01332A  0408               	decf	(0+((c:0)+08h)),c,w
  2630+ 01332C  1009               	iorwf (1+((c:0)+08h)),c,w
  2631                           
  2632  01332E  A4D8               	btfss	status,2
  2633  013330  EF9C  F099         	goto	u4971
  2634  013334  EF9E  F099         	goto	u4970
  2635  013338                     u4971:
  2636  013338  EFB7  F099         	goto	l886
  2637  01333C                     u4970:
  2638  01333C  040A               	decf	(0+((c:0)+0Ah)),c,w
  2639  01333E  100B               	iorwf (1+((c:0)+0Ah)),c,w
  2640                           
  2641  013340  A4D8               	btfss	status,2
  2642  013342  EFA5  F099         	goto	u4981
  2643  013346  EFA7  F099         	goto	u4980
  2644  01334A                     u4981:
  2645  01334A  EFB7  F099         	goto	l886
  2646  01334E                     u4980:
  2647  01334E  0414               	decf	(0+((c:0)+014h)),c,w
  2648  013350  1015               	iorwf (1+((c:0)+014h)),c,w
  2649                           
  2650  013352  A4D8               	btfss	status,2
  2651  013354  EFAE  F099         	goto	u4991
  2652  013358  EFB0  F099         	goto	u4990
  2653  01335C                     u4991:
  2654  01335C  EFB7  F099         	goto	l886
  2655  013360                     u4990:
  2656                           	line	362
  2657                           ;main.c: 362: LATA = 0b11111111;
  2658  013360  6889               	setf	((c:3977)),c	;volatile
  2659                           	line	364
  2660                           ;main.c: 364: LATB = 0b01100000;
  2661  013362  0E60               	movlw	low(060h)
  2662  013364  6E8A               	movwf	((c:3978)),c	;volatile
  2663                           	line	366
  2664                           ;main.c: 366: LATC = 0b00001111;
  2665  013366  0E0F               	movlw	low(0Fh)
  2666  013368  6E8B               	movwf	((c:3979)),c	;volatile
  2667                           	line	367
  2668                           ;main.c: 367: } else if (led_array[4] == 1 && le
                                 d_array[5] == 1 && led_array[11] == 1) {
  2669  01336A  EFFF  F09F         	goto	l879
  2670                           	
  2671  01336E                     l886:		; BSR set to: ?
  2672                           
  2673  01336E  0408               	decf	(0+((c:0)+08h)),c,w
  2674  013370  1009               	iorwf (1+((c:0)+08h)),c,w
  2675                           
  2676  013372  A4D8               	btfss	status,2
  2677  013374  EFBE  F099         	goto	u5001
  2678  013378  EFC0  F099         	goto	u5000
  2679  01337C                     u5001:
  2680  01337C  EFD9  F099         	goto	l888
  2681  013380                     u5000:
  2682  013380  040A               	decf	(0+((c:0)+0Ah)),c,w
  2683  013382  100B               	iorwf (1+((c:0)+0Ah)),c,w
  2684                           
  2685  013384  A4D8               	btfss	status,2
  2686  013386  EFC7  F099         	goto	u5011
  2687  01338A  EFC9  F099         	goto	u5010
  2688  01338E                     u5011:
  2689  01338E  EFD9  F099         	goto	l888
  2690  013392                     u5010:
  2691  013392  0416               	decf	(0+((c:0)+016h)),c,w
  2692  013394  1017               	iorwf (1+((c:0)+016h)),c,w
  2693                           
  2694  013396  A4D8               	btfss	status,2
  2695  013398  EFD0  F099         	goto	u5021
  2696  01339C  EFD2  F099         	goto	u5020
  2697  0133A0                     u5021:
  2698  0133A0  EFD9  F099         	goto	l888
  2699  0133A4                     u5020:
  2700                           	line	370
  2701                           ;main.c: 370: LATA = 0b11111111;
  2702  0133A4  6889               	setf	((c:3977)),c	;volatile
  2703                           	line	372
  2704                           ;main.c: 372: LATB = 0b11100000;
  2705  0133A6  0EE0               	movlw	low(0E0h)
  2706  0133A8  6E8A               	movwf	((c:3978)),c	;volatile
  2707                           	line	374
  2708                           ;main.c: 374: LATC = 0b00001011;
  2709  0133AA  0E0B               	movlw	low(0Bh)
  2710  0133AC  6E8B               	movwf	((c:3979)),c	;volatile
  2711                           	line	375
  2712                           ;main.c: 375: } else if (led_array[4] == 1 && le
                                 d_array[5] == 1 && led_array[12] == 1) {
  2713  0133AE  EFFF  F09F         	goto	l879
  2714                           	
  2715  0133B2                     l888:		; BSR set to: ?
  2716                           
  2717  0133B2  0408               	decf	(0+((c:0)+08h)),c,w
  2718  0133B4  1009               	iorwf (1+((c:0)+08h)),c,w
  2719                           
  2720  0133B6  A4D8               	btfss	status,2
  2721  0133B8  EFE0  F099         	goto	u5031
  2722  0133BC  EFE2  F099         	goto	u5030
  2723  0133C0                     u5031:
  2724  0133C0  EFFB  F099         	goto	l890
  2725  0133C4                     u5030:
  2726  0133C4  040A               	decf	(0+((c:0)+0Ah)),c,w
  2727  0133C6  100B               	iorwf (1+((c:0)+0Ah)),c,w
  2728                           
  2729  0133C8  A4D8               	btfss	status,2
  2730  0133CA  EFE9  F099         	goto	u5041
  2731  0133CE  EFEB  F099         	goto	u5040
  2732  0133D2                     u5041:
  2733  0133D2  EFFB  F099         	goto	l890
  2734  0133D6                     u5040:
  2735  0133D6  0418               	decf	(0+((c:0)+018h)),c,w
  2736  0133D8  1019               	iorwf (1+((c:0)+018h)),c,w
  2737                           
  2738  0133DA  A4D8               	btfss	status,2
  2739  0133DC  EFF2  F099         	goto	u5051
  2740  0133E0  EFF4  F099         	goto	u5050
  2741  0133E4                     u5051:
  2742  0133E4  EFFB  F099         	goto	l890
  2743  0133E8                     u5050:
  2744                           	line	378
  2745                           ;main.c: 378: LATA = 0b11111111;
  2746  0133E8  6889               	setf	((c:3977)),c	;volatile
  2747                           	line	380
  2748                           ;main.c: 380: LATB = 0b11100000;
  2749  0133EA  0EE0               	movlw	low(0E0h)
  2750  0133EC  6E8A               	movwf	((c:3978)),c	;volatile
  2751                           	line	382
  2752                           ;main.c: 382: LATC = 0b00000111;
  2753  0133EE  0E07               	movlw	low(07h)
  2754  0133F0  6E8B               	movwf	((c:3979)),c	;volatile
  2755                           	line	384
  2756                           ;main.c: 384: } else if (led_array[4] == 1 && le
                                 d_array[6] == 1) {
  2757  0133F2  EFFF  F09F         	goto	l879
  2758+                          	
  2759+ 0133F6                     l890:		; BSR set to: ?
  2760                           
  2761  0133F6  0408               	decf	(0+((c:0)+08h)),c,w
  2762  0133F8  1009               	iorwf (1+((c:0)+08h)),c,w
  2763                           
  2764  0133FA  A4D8               	btfss	status,2
  2765  0133FC  EF02  F09A         	goto	u5061
  2766  013400  EF04  F09A         	goto	u5060
  2767  013404                     u5061:
  2768  013404  EF15  F09A         	goto	l892
  2769  013408                     u5060:
  2770  013408  040C               	decf	(0+((c:0)+0Ch)),c,w
  2771  01340A  100D               	iorwf (1+((c:0)+0Ch)),c,w
  2772                           
  2773  01340C  A4D8               	btfss	status,2
  2774  01340E  EF0B  F09A         	goto	u5071
  2775  013412  EF0D  F09A         	goto	u5070
  2776  013416                     u5071:
  2777  013416  EF15  F09A         	goto	l892
  2778  01341A                     u5070:
  2779                           	line	387
  2780                           ;main.c: 387: LATA = 0b11101111;
  2781  01341A  0EEF               	movlw	low(0EFh)
  2782  01341C  6E89               	movwf	((c:3977)),c	;volatile
  2783                           	line	389
  2784                           ;main.c: 389: LATB = 0b11000000;
  2785  01341E  0EC0               	movlw	low(0C0h)
  2786  013420  6E8A               	movwf	((c:3978)),c	;volatile
  2787                           	line	391
  2788                           ;main.c: 391: LATC = 0b00001111;
  2789  013422  0E0F               	movlw	low(0Fh)
  2790  013424  6E8B               	movwf	((c:3979)),c	;volatile
  2791                           	line	392
  2792                           ;main.c: 392: } else if (led_array[4] == 1 && le
                                 d_array[7] == 1) {
  2793  013426  EFFF  F09F         	goto	l879
  2794                           	
  2795  01342A                     l892:		; BSR set to: ?
  2796                           
  2797  01342A  0408               	decf	(0+((c:0)+08h)),c,w
  2798  01342C  1009               	iorwf (1+((c:0)+08h)),c,w
  2799                           
  2800  01342E  A4D8               	btfss	status,2
  2801  013430  EF1C  F09A         	goto	u5081
  2802  013434  EF1E  F09A         	goto	u5080
  2803  013438                     u5081:
  2804  013438  EF2F  F09A         	goto	l894
  2805  01343C                     u5080:
  2806  01343C  040E               	decf	(0+((c:0)+0Eh)),c,w
  2807  01343E  100F               	iorwf (1+((c:0)+0Eh)),c,w
  2808                           
  2809  013440  A4D8               	btfss	status,2
  2810  013442  EF25  F09A         	goto	u5091
  2811  013446  EF27  F09A         	goto	u5090
  2812  01344A                     u5091:
  2813  01344A  EF2F  F09A         	goto	l894
  2814  01344E                     u5090:
  2815                           	line	395
  2816                           ;main.c: 395: LATA = 0b10111111;
  2817  01344E  0EBF               	movlw	low(0BFh)
  2818  013450  6E89               	movwf	((c:3977)),c	;volatile
  2819                           	line	397
  2820                           ;main.c: 397: LATB = 0b11000000;
  2821  013452  0EC0               	movlw	low(0C0h)
  2822  013454  6E8A               	movwf	((c:3978)),c	;volatile
  2823                           	line	399
  2824                           ;main.c: 399: LATC = 0b00001111;
  2825  013456  0E0F               	movlw	low(0Fh)
  2826  013458  6E8B               	movwf	((c:3979)),c	;volatile
  2827                           	line	400
  2828                           ;main.c: 400: } else if (led_array[4] == 1 && le
                                 d_array[8] == 1) {
  2829  01345A  EFFF  F09F         	goto	l879
  2830                           	
  2831  01345E                     l894:		; BSR set to: ?
  2832                           
  2833  01345E  0408               	decf	(0+((c:0)+08h)),c,w
  2834  013460  1009               	iorwf (1+((c:0)+08h)),c,w
  2835                           
  2836  013462  A4D8               	btfss	status,2
  2837  013464  EF36  F09A         	goto	u5101
  2838  013468  EF38  F09A         	goto	u5100
  2839  01346C                     u5101:
  2840  01346C  EF48  F09A         	goto	l896
  2841  013470                     u5100:
  2842  013470  0410               	decf	(0+((c:0)+010h)),c,w
  2843  013472  1011               	iorwf (1+((c:0)+010h)),c,w
  2844                           
  2845  013474  A4D8               	btfss	status,2
  2846  013476  EF3F  F09A         	goto	u5111
  2847  01347A  EF41  F09A         	goto	u5110
  2848  01347E                     u5111:
  2849  01347E  EF48  F09A         	goto	l896
  2850  013482                     u5110:
  2851                           	line	403
  2852                           ;main.c: 403: LATA = 0b11111111;
  2853  013482  6889               	setf	((c:3977)),c	;volatile
  2854                           	line	405
  2855                           ;main.c: 405: LATB = 0b11000000;
  2856  013484  0EC0               	movlw	low(0C0h)
  2857  013486  6E8A               	movwf	((c:3978)),c	;volatile
  2858                           	line	407
  2859                           ;main.c: 407: LATC = 0b00001110;
  2860  013488  0E0E               	movlw	low(0Eh)
  2861  01348A  6E8B               	movwf	((c:3979)),c	;volatile
  2862                           	line	408
  2863                           ;main.c: 408: } else if (led_array[4] == 1 && le
                                 d_array[9] == 1) {
  2864  01348C  EFFF  F09F         	goto	l879
  2865                           	
  2866  013490                     l896:		; BSR set to: ?
  2867                           
  2868  013490  0408               	decf	(0+((c:0)+08h)),c,w
  2869  013492  1009               	iorwf (1+((c:0)+08h)),c,w
  2870                           
  2871  013494  A4D8               	btfss	status,2
  2872  013496  EF4F  F09A         	goto	u5121
  2873  01349A  EF51  F09A         	goto	u5120
  2874  01349E                     u5121:
  2875  01349E  EF61  F09A         	goto	l898
  2876  0134A2                     u5120:
  2877  0134A2  0412               	decf	(0+((c:0)+012h)),c,w
  2878  0134A4  1013               	iorwf (1+((c:0)+012h)),c,w
  2879                           
  2880  0134A6  A4D8               	btfss	status,2
  2881  0134A8  EF58  F09A         	goto	u5131
  2882  0134AC  EF5A  F09A         	goto	u5130
  2883  0134B0                     u5131:
  2884  0134B0  EF61  F09A         	goto	l898
  2885  0134B4                     u5130:
  2886                           	line	411
  2887                           ;main.c: 411: LATA = 0b11111111;
  2888  0134B4  6889               	setf	((c:3977)),c	;volatile
  2889                           	line	413
  2890                           ;main.c: 413: LATB = 0b11000000;
  2891  0134B6  0EC0               	movlw	low(0C0h)
  2892  0134B8  6E8A               	movwf	((c:3978)),c	;volatile
  2893                           	line	415
  2894                           ;main.c: 415: LATC = 0b00001101;
  2895  0134BA  0E0D               	movlw	low(0Dh)
  2896  0134BC  6E8B               	movwf	((c:3979)),c	;volatile
  2897                           	line	417
  2898                           ;main.c: 417: } else if (led_array[4] == 1 && le
                                 d_array[10] == 1) {
  2899  0134BE  EFFF  F09F         	goto	l879
  2900                           	
  2901  0134C2                     l898:		; BSR set to: ?
  2902                           
  2903  0134C2  0408               	decf	(0+((c:0)+08h)),c,w
  2904  0134C4  1009               	iorwf (1+((c:0)+08h)),c,w
  2905                           
  2906  0134C6  A4D8               	btfss	status,2
  2907  0134C8  EF68  F09A         	goto	u5141
  2908  0134CC  EF6A  F09A         	goto	u5140
  2909  0134D0                     u5141:
  2910  0134D0  EF7A  F09A         	goto	l900
  2911  0134D4                     u5140:
  2912  0134D4  0414               	decf	(0+((c:0)+014h)),c,w
  2913  0134D6  1015               	iorwf (1+((c:0)+014h)),c,w
  2914                           
  2915  0134D8  A4D8               	btfss	status,2
  2916  0134DA  EF71  F09A         	goto	u5151
  2917  0134DE  EF73  F09A         	goto	u5150
  2918  0134E2                     u5151:
  2919  0134E2  EF7A  F09A         	goto	l900
  2920  0134E6                     u5150:
  2921                           	line	420
  2922                           ;main.c: 420: LATA = 0b11111111;
  2923  0134E6  6889               	setf	((c:3977)),c	;volatile
  2924                           	line	422
  2925                           ;main.c: 422: LATB = 0b01000000;
  2926  0134E8  0E40               	movlw	low(040h)
  2927  0134EA  6E8A               	movwf	((c:3978)),c	;volatile
  2928                           	line	424
  2929                           ;main.c: 424: LATC = 0b00001111;
  2930  0134EC  0E0F               	movlw	low(0Fh)
  2931  0134EE  6E8B               	movwf	((c:3979)),c	;volatile
  2932                           	line	426
  2933                           ;main.c: 426: } else if (led_array[4] == 1 && le
                                 d_array[11] == 1) {
  2934  0134F0  EFFF  F09F         	goto	l879
  2935                           	
  2936  0134F4                     l900:		; BSR set to: ?
  2937                           
  2938  0134F4  0408               	decf	(0+((c:0)+08h)),c,w
  2939  0134F6  1009               	iorwf (1+((c:0)+08h)),c,w
  2940                           
  2941  0134F8  A4D8               	btfss	status,2
  2942  0134FA  EF81  F09A         	goto	u5161
  2943  0134FE  EF83  F09A         	goto	u5160
  2944  013502                     u5161:
  2945  013502  EF93  F09A         	goto	l902
  2946  013506                     u5160:
  2947  013506  0416               	decf	(0+((c:0)+016h)),c,w
  2948  013508  1017               	iorwf (1+((c:0)+016h)),c,w
  2949                           
  2950  01350A  A4D8               	btfss	status,2
  2951  01350C  EF8A  F09A         	goto	u5171
  2952  013510  EF8C  F09A         	goto	u5170
  2953  013514                     u5171:
  2954  013514  EF93  F09A         	goto	l902
  2955  013518                     u5170:
  2956                           	line	429
  2957                           ;main.c: 429: LATA = 0b11111111;
  2958  013518  6889               	setf	((c:3977)),c	;volatile
  2959                           	line	431
  2960                           ;main.c: 431: LATB = 0b11000000;
  2961  01351A  0EC0               	movlw	low(0C0h)
  2962  01351C  6E8A               	movwf	((c:3978)),c	;volatile
  2963                           	line	433
  2964                           ;main.c: 433: LATC = 0b00001011;
  2965  01351E  0E0B               	movlw	low(0Bh)
  2966  013520  6E8B               	movwf	((c:3979)),c	;volatile
  2967                           	line	435
  2968                           ;main.c: 435: } else if (led_array[4] == 1 && le
                                 d_array[12] == 1) {
  2969  013522  EFFF  F09F         	goto	l879
  2970                           	
  2971  013526                     l902:		; BSR set to: ?
  2972                           
  2973  013526  0408               	decf	(0+((c:0)+08h)),c,w
  2974  013528  1009               	iorwf (1+((c:0)+08h)),c,w
  2975                           
  2976  01352A  A4D8               	btfss	status,2
  2977  01352C  EF9A  F09A         	goto	u5181
  2978  013530  EF9C  F09A         	goto	u5180
  2979  013534                     u5181:
  2980  013534  EFAC  F09A         	goto	l904
  2981  013538                     u5180:
  2982  013538  0418               	decf	(0+((c:0)+018h)),c,w
  2983  01353A  1019               	iorwf (1+((c:0)+018h)),c,w
  2984                           
  2985  01353C  A4D8               	btfss	status,2
  2986  01353E  EFA3  F09A         	goto	u5191
  2987  013542  EFA5  F09A         	goto	u5190
  2988  013546                     u5191:
  2989  013546  EFAC  F09A         	goto	l904
  2990  01354A                     u5190:
  2991                           	line	438
  2992                           ;main.c: 438: LATA = 0b11111111;
  2993  01354A  6889               	setf	((c:3977)),c	;volatile
  2994                           	line	440
  2995                           ;main.c: 440: LATB = 0b11000000;
  2996  01354C  0EC0               	movlw	low(0C0h)
  2997  01354E  6E8A               	movwf	((c:3978)),c	;volatile
  2998                           	line	442
  2999                           ;main.c: 442: LATC = 0b00000111;
  3000  013550  0E07               	movlw	low(07h)
  3001  013552  6E8B               	movwf	((c:3979)),c	;volatile
  3002                           	line	444
  3003                           ;main.c: 444: } else if (led_array[5] == 1 && le
                                 d_array[6] == 1) {
  3004  013554  EFFF  F09F         	goto	l879
  3005                           	
  3006  013558                     l904:		; BSR set to: ?
  3007                           
  3008  013558  040A               	decf	(0+((c:0)+0Ah)),c,w
  3009  01355A  100B               	iorwf (1+((c:0)+0Ah)),c,w
  3010                           
  3011  01355C  A4D8               	btfss	status,2
  3012  01355E  EFB3  F09A         	goto	u5201
  3013  013562  EFB5  F09A         	goto	u5200
  3014  013566                     u5201:
  3015  013566  EFC6  F09A         	goto	l906
  3016  01356A                     u5200:
  3017  01356A  040C               	decf	(0+((c:0)+0Ch)),c,w
  3018  01356C  100D               	iorwf (1+((c:0)+0Ch)),c,w
  3019                           
  3020  01356E  A4D8               	btfss	status,2
  3021  013570  EFBC  F09A         	goto	u5211
  3022  013574  EFBE  F09A         	goto	u5210
  3023  013578                     u5211:
  3024  013578  EFC6  F09A         	goto	l906
  3025  01357C                     u5210:
  3026                           	line	447
  3027                           ;main.c: 447: LATA = 0b11101111;
  3028  01357C  0EEF               	movlw	low(0EFh)
  3029  01357E  6E89               	movwf	((c:3977)),c	;volatile
  3030                           	line	449
  3031                           ;main.c: 449: LATB = 0b10100000;
  3032  013580  0EA0               	movlw	low(0A0h)
  3033  013582  6E8A               	movwf	((c:3978)),c	;volatile
  3034                           	line	451
  3035                           ;main.c: 451: LATC = 0b00001111;
  3036  013584  0E0F               	movlw	low(0Fh)
  3037  013586  6E8B               	movwf	((c:3979)),c	;volatile
  3038                           	line	453
  3039                           ;main.c: 453: } else if (led_array[5] == 1 && le
                                 d_array[7] == 1) {
  3040  013588  EFFF  F09F         	goto	l879
  3041                           	
  3042  01358C                     l906:		; BSR set to: ?
  3043                           
  3044  01358C  040A               	decf	(0+((c:0)+0Ah)),c,w
  3045  01358E  100B               	iorwf (1+((c:0)+0Ah)),c,w
  3046                           
  3047  013590  A4D8               	btfss	status,2
  3048  013592  EFCD  F09A         	goto	u5221
  3049  013596  EFCF  F09A         	goto	u5220
  3050  01359A                     u5221:
  3051  01359A  EFE0  F09A         	goto	l908
  3052  01359E                     u5220:
  3053  01359E  040E               	decf	(0+((c:0)+0Eh)),c,w
  3054  0135A0  100F               	iorwf (1+((c:0)+0Eh)),c,w
  3055                           
  3056  0135A2  A4D8               	btfss	status,2
  3057  0135A4  EFD6  F09A         	goto	u5231
  3058  0135A8  EFD8  F09A         	goto	u5230
  3059  0135AC                     u5231:
  3060  0135AC  EFE0  F09A         	goto	l908
  3061  0135B0                     u5230:
  3062                           	line	456
  3063                           ;main.c: 456: LATA = 0b10111111;
  3064  0135B0  0EBF               	movlw	low(0BFh)
  3065  0135B2  6E89               	movwf	((c:3977)),c	;volatile
  3066                           	line	458
  3067                           ;main.c: 458: LATB = 0b10100000;
  3068  0135B4  0EA0               	movlw	low(0A0h)
  3069  0135B6  6E8A               	movwf	((c:3978)),c	;volatile
  3070                           	line	460
  3071                           ;main.c: 460: LATC = 0b00001111;
  3072  0135B8  0E0F               	movlw	low(0Fh)
  3073  0135BA  6E8B               	movwf	((c:3979)),c	;volatile
  3074                           	line	462
  3075                           ;main.c: 462: } else if (led_array[5] == 1 && le
                                 d_array[8] == 1) {
  3076  0135BC  EFFF  F09F         	goto	l879
  3077                           	
  3078  0135C0                     l908:		; BSR set to: ?
  3079                           
  3080  0135C0  040A               	decf	(0+((c:0)+0Ah)),c,w
  3081  0135C2  100B               	iorwf (1+((c:0)+0Ah)),c,w
  3082                           
  3083  0135C4  A4D8               	btfss	status,2
  3084  0135C6  EFE7  F09A         	goto	u5241
  3085  0135CA  EFE9  F09A         	goto	u5240
  3086  0135CE                     u5241:
  3087  0135CE  EFF9  F09A         	goto	l910
  3088  0135D2                     u5240:
  3089  0135D2  0410               	decf	(0+((c:0)+010h)),c,w
  3090  0135D4  1011               	iorwf (1+((c:0)+010h)),c,w
  3091                           
  3092  0135D6  A4D8               	btfss	status,2
  3093  0135D8  EFF0  F09A         	goto	u5251
  3094  0135DC  EFF2  F09A         	goto	u5250
  3095  0135E0                     u5251:
  3096  0135E0  EFF9  F09A         	goto	l910
  3097  0135E4                     u5250:
  3098                           	line	465
  3099                           ;main.c: 465: LATA = 0b11111111;
  3100  0135E4  6889               	setf	((c:3977)),c	;volatile
  3101                           	line	467
  3102                           ;main.c: 467: LATB = 0b10100000;
  3103  0135E6  0EA0               	movlw	low(0A0h)
  3104  0135E8  6E8A               	movwf	((c:3978)),c	;volatile
  3105                           	line	469
  3106                           ;main.c: 469: LATC = 0b00001110;
  3107  0135EA  0E0E               	movlw	low(0Eh)
  3108  0135EC  6E8B               	movwf	((c:3979)),c	;volatile
  3109                           	line	471
  3110                           ;main.c: 471: } else if (led_array[5] == 1 && le
                                 d_array[9] == 1) {
  3111  0135EE  EFFF  F09F         	goto	l879
  3112                           	
  3113  0135F2                     l910:		; BSR set to: ?
  3114                           
  3115  0135F2  040A               	decf	(0+((c:0)+0Ah)),c,w
  3116  0135F4  100B               	iorwf (1+((c:0)+0Ah)),c,w
  3117                           
  3118  0135F6  A4D8               	btfss	status,2
  3119  0135F8  EF00  F09B         	goto	u5261
  3120  0135FC  EF02  F09B         	goto	u5260
  3121  013600                     u5261:
  3122  013600  EF12  F09B         	goto	l912
  3123  013604                     u5260:
  3124  013604  0412               	decf	(0+((c:0)+012h)),c,w
  3125  013606  1013               	iorwf (1+((c:0)+012h)),c,w
  3126                           
  3127  013608  A4D8               	btfss	status,2
  3128  01360A  EF09  F09B         	goto	u5271
  3129  01360E  EF0B  F09B         	goto	u5270
  3130  013612                     u5271:
  3131  013612  EF12  F09B         	goto	l912
  3132  013616                     u5270:
  3133                           	line	474
  3134                           ;main.c: 474: LATA = 0b11111111;
  3135  013616  6889               	setf	((c:3977)),c	;volatile
  3136                           	line	476
  3137                           ;main.c: 476: LATB = 0b10100000;
  3138  013618  0EA0               	movlw	low(0A0h)
  3139  01361A  6E8A               	movwf	((c:3978)),c	;volatile
  3140                           	line	478
  3141                           ;main.c: 478: LATC = 0b00001101;
  3142  01361C  0E0D               	movlw	low(0Dh)
  3143  01361E  6E8B               	movwf	((c:3979)),c	;volatile
  3144                           	line	480
  3145                           ;main.c: 480: } else if (led_array[5] == 1 && le
                                 d_array[10] == 1) {
  3146  013620  EFFF  F09F         	goto	l879
  3147                           	
  3148  013624                     l912:		; BSR set to: ?
  3149                           
  3150  013624  040A               	decf	(0+((c:0)+0Ah)),c,w
  3151  013626  100B               	iorwf (1+((c:0)+0Ah)),c,w
  3152                           
  3153  013628  A4D8               	btfss	status,2
  3154  01362A  EF19  F09B         	goto	u5281
  3155  01362E  EF1B  F09B         	goto	u5280
  3156  013632                     u5281:
  3157  013632  EF2B  F09B         	goto	l914
  3158  013636                     u5280:
  3159  013636  0414               	decf	(0+((c:0)+014h)),c,w
  3160  013638  1015               	iorwf (1+((c:0)+014h)),c,w
  3161                           
  3162  01363A  A4D8               	btfss	status,2
  3163  01363C  EF22  F09B         	goto	u5291
  3164  013640  EF24  F09B         	goto	u5290
  3165  013644                     u5291:
  3166  013644  EF2B  F09B         	goto	l914
  3167  013648                     u5290:
  3168                           	line	483
  3169                           ;main.c: 483: LATA = 0b11111111;
  3170  013648  6889               	setf	((c:3977)),c	;volatile
  3171                           	line	485
  3172                           ;main.c: 485: LATB = 0b00100000;
  3173  01364A  0E20               	movlw	low(020h)
  3174  01364C  6E8A               	movwf	((c:3978)),c	;volatile
  3175                           	line	487
  3176                           ;main.c: 487: LATC = 0b00001111;
  3177  01364E  0E0F               	movlw	low(0Fh)
  3178  013650  6E8B               	movwf	((c:3979)),c	;volatile
  3179                           	line	489
  3180                           ;main.c: 489: } else if (led_array[5] == 1 && le
                                 d_array[11] == 1) {
  3181  013652  EFFF  F09F         	goto	l879
  3182                           	
  3183  013656                     l914:		; BSR set to: ?
  3184                           
  3185  013656  040A               	decf	(0+((c:0)+0Ah)),c,w
  3186  013658  100B               	iorwf (1+((c:0)+0Ah)),c,w
  3187                           
  3188  01365A  A4D8               	btfss	status,2
  3189  01365C  EF32  F09B         	goto	u5301
  3190  013660  EF34  F09B         	goto	u5300
  3191  013664                     u5301:
  3192  013664  EF44  F09B         	goto	l916
  3193  013668                     u5300:
  3194  013668  0416               	decf	(0+((c:0)+016h)),c,w
  3195  01366A  1017               	iorwf (1+((c:0)+016h)),c,w
  3196                           
  3197  01366C  A4D8               	btfss	status,2
  3198  01366E  EF3B  F09B         	goto	u5311
  3199  013672  EF3D  F09B         	goto	u5310
  3200  013676                     u5311:
  3201  013676  EF44  F09B         	goto	l916
  3202  01367A                     u5310:
  3203                           	line	492
  3204                           ;main.c: 492: LATA = 0b11111111;
  3205  01367A  6889               	setf	((c:3977)),c	;volatile
  3206                           	line	494
  3207                           ;main.c: 494: LATB = 0b10100000;
  3208  01367C  0EA0               	movlw	low(0A0h)
  3209  01367E  6E8A               	movwf	((c:3978)),c	;volatile
  3210                           	line	496
  3211                           ;main.c: 496: LATC = 0b00001011;
  3212  013680  0E0B               	movlw	low(0Bh)
  3213  013682  6E8B               	movwf	((c:3979)),c	;volatile
  3214                           	line	498
  3215                           ;main.c: 498: } else if (led_array[5] == 1 && le
                                 d_array[12] == 1) {
  3216  013684  EFFF  F09F         	goto	l879
  3217                           	
  3218  013688                     l916:		; BSR set to: ?
  3219                           
  3220  013688  040A               	decf	(0+((c:0)+0Ah)),c,w
  3221  01368A  100B               	iorwf (1+((c:0)+0Ah)),c,w
  3222                           
  3223  01368C  A4D8               	btfss	status,2
  3224  01368E  EF4B  F09B         	goto	u5321
  3225  013692  EF4D  F09B         	goto	u5320
  3226  013696                     u5321:
  3227  013696  EF5D  F09B         	goto	l918
  3228  01369A                     u5320:
  3229  01369A  0418               	decf	(0+((c:0)+018h)),c,w
  3230  01369C  1019               	iorwf (1+((c:0)+018h)),c,w
  3231                           
  3232  01369E  A4D8               	btfss	status,2
  3233  0136A0  EF54  F09B         	goto	u5331
  3234  0136A4  EF56  F09B         	goto	u5330
  3235  0136A8                     u5331:
  3236  0136A8  EF5D  F09B         	goto	l918
  3237  0136AC                     u5330:
  3238                           	line	501
  3239                           ;main.c: 501: LATA = 0b11111111;
  3240  0136AC  6889               	setf	((c:3977)),c	;volatile
  3241                           	line	503
  3242                           ;main.c: 503: LATB = 0b10100000;
  3243  0136AE  0EA0               	movlw	low(0A0h)
  3244  0136B0  6E8A               	movwf	((c:3978)),c	;volatile
  3245                           	line	505
  3246                           ;main.c: 505: LATC = 0b00000111;
  3247  0136B2  0E07               	movlw	low(07h)
  3248  0136B4  6E8B               	movwf	((c:3979)),c	;volatile
  3249                           	line	506
  3250                           ;main.c: 506: }
  3251  0136B6  EFFF  F09F         	goto	l879
  3252                           	line	509
  3253                           	
  3254  0136BA                     l918:		; BSR set to: ?
  3255                           
  3256                           ;main.c: 509: else if (led_array[2] == 1 && led_
                                 array[3] == 1 && led_array[6] == 1) {
  3257  0136BA  0404               	decf	(0+((c:0)+04h)),c,w
  3258  0136BC  1005               	iorwf (1+((c:0)+04h)),c,w
  3259                           
  3260  0136BE  A4D8               	btfss	status,2
  3261  0136C0  EF64  F09B         	goto	u5341
  3262  0136C4  EF66  F09B         	goto	u5340
  3263  0136C8                     u5341:
  3264  0136C8  EF80  F09B         	goto	l920
  3265  0136CC                     u5340:
  3266  0136CC  0406               	decf	(0+((c:0)+06h)),c,w
  3267  0136CE  1007               	iorwf (1+((c:0)+06h)),c,w
  3268                           
  3269  0136D0  A4D8               	btfss	status,2
  3270  0136D2  EF6D  F09B         	goto	u5351
  3271  0136D6  EF6F  F09B         	goto	u5350
  3272  0136DA                     u5351:
  3273  0136DA  EF80  F09B         	goto	l920
  3274  0136DE                     u5350:
  3275  0136DE  040C               	decf	(0+((c:0)+0Ch)),c,w
  3276  0136E0  100D               	iorwf (1+((c:0)+0Ch)),c,w
  3277                           
  3278  0136E2  A4D8               	btfss	status,2
  3279  0136E4  EF76  F09B         	goto	u5361
  3280  0136E8  EF78  F09B         	goto	u5360
  3281  0136EC                     u5361:
  3282  0136EC  EF80  F09B         	goto	l920
  3283  0136F0                     u5360:
  3284                           	line	512
  3285                           ;main.c: 512: LATA = 0b11101111;
  3286  0136F0  0EEF               	movlw	low(0EFh)
  3287  0136F2  6E89               	movwf	((c:3977)),c	;volatile
  3288                           	line	514
  3289                           ;main.c: 514: LATB = 0b10001100;
  3290  0136F4  0E8C               	movlw	low(08Ch)
  3291  0136F6  6E8A               	movwf	((c:3978)),c	;volatile
  3292                           	line	516
  3293                           ;main.c: 516: LATC = 0b00001111;
  3294  0136F8  0E0F               	movlw	low(0Fh)
  3295  0136FA  6E8B               	movwf	((c:3979)),c	;volatile
  3296                           	line	518
  3297                           ;main.c: 518: } else if (led_array[2] == 1 && le
                                 d_array[3] == 1 && led_array[7] == 1) {
  3298  0136FC  EFFF  F09F         	goto	l879
  3299                           	
  3300  013700                     l920:		; BSR set to: ?
  3301                           
  3302  013700  0404               	decf	(0+((c:0)+04h)),c,w
  3303  013702  1005               	iorwf (1+((c:0)+04h)),c,w
  3304                           
  3305  013704  A4D8               	btfss	status,2
  3306  013706  EF87  F09B         	goto	u5371
  3307  01370A  EF89  F09B         	goto	u5370
  3308  01370E                     u5371:
  3309  01370E  EFA3  F09B         	goto	l922
  3310  013712                     u5370:
  3311  013712  0406               	decf	(0+((c:0)+06h)),c,w
  3312  013714  1007               	iorwf (1+((c:0)+06h)),c,w
  3313                           
  3314  013716  A4D8               	btfss	status,2
  3315  013718  EF90  F09B         	goto	u5381
  3316  01371C  EF92  F09B         	goto	u5380
  3317  013720                     u5381:
  3318  013720  EFA3  F09B         	goto	l922
  3319  013724                     u5380:
  3320  013724  040E               	decf	(0+((c:0)+0Eh)),c,w
  3321  013726  100F               	iorwf (1+((c:0)+0Eh)),c,w
  3322                           
  3323  013728  A4D8               	btfss	status,2
  3324  01372A  EF99  F09B         	goto	u5391
  3325  01372E  EF9B  F09B         	goto	u5390
  3326  013732                     u5391:
  3327  013732  EFA3  F09B         	goto	l922
  3328  013736                     u5390:
  3329                           	line	521
  3330                           ;main.c: 521: LATA = 0b10111111;
  3331  013736  0EBF               	movlw	low(0BFh)
  3332  013738  6E89               	movwf	((c:3977)),c	;volatile
  3333                           	line	523
  3334                           ;main.c: 523: LATB = 0b10001100;
  3335  01373A  0E8C               	movlw	low(08Ch)
  3336  01373C  6E8A               	movwf	((c:3978)),c	;volatile
  3337                           	line	525
  3338                           ;main.c: 525: LATC = 0b00001111;
  3339  01373E  0E0F               	movlw	low(0Fh)
  3340  013740  6E8B               	movwf	((c:3979)),c	;volatile
  3341                           	line	527
  3342                           ;main.c: 527: } else if (led_array[2] == 1 && le
                                 d_array[3] == 1 && led_array[8] == 1) {
  3343  013742  EFFF  F09F         	goto	l879
  3344                           	
  3345  013746                     l922:		; BSR set to: ?
  3346                           
  3347  013746  0404               	decf	(0+((c:0)+04h)),c,w
  3348  013748  1005               	iorwf (1+((c:0)+04h)),c,w
  3349                           
  3350  01374A  A4D8               	btfss	status,2
  3351  01374C  EFAA  F09B         	goto	u5401
  3352  013750  EFAC  F09B         	goto	u5400
  3353  013754                     u5401:
  3354  013754  EFC5  F09B         	goto	l924
  3355  013758                     u5400:
  3356  013758  0406               	decf	(0+((c:0)+06h)),c,w
  3357  01375A  1007               	iorwf (1+((c:0)+06h)),c,w
  3358                           
  3359  01375C  A4D8               	btfss	status,2
  3360  01375E  EFB3  F09B         	goto	u5411
  3361  013762  EFB5  F09B         	goto	u5410
  3362  013766                     u5411:
  3363  013766  EFC5  F09B         	goto	l924
  3364  01376A                     u5410:
  3365  01376A  0410               	decf	(0+((c:0)+010h)),c,w
  3366  01376C  1011               	iorwf (1+((c:0)+010h)),c,w
  3367                           
  3368  01376E  A4D8               	btfss	status,2
  3369  013770  EFBC  F09B         	goto	u5421
  3370  013774  EFBE  F09B         	goto	u5420
  3371  013778                     u5421:
  3372  013778  EFC5  F09B         	goto	l924
  3373  01377C                     u5420:
  3374                           	line	530
  3375                           ;main.c: 530: LATA = 0b11111111;
  3376  01377C  6889               	setf	((c:3977)),c	;volatile
  3377                           	line	532
  3378                           ;main.c: 532: LATB = 0b10001100;
  3379  01377E  0E8C               	movlw	low(08Ch)
  3380  013780  6E8A               	movwf	((c:3978)),c	;volatile
  3381                           	line	534
  3382                           ;main.c: 534: LATC = 0b00001110;
  3383  013782  0E0E               	movlw	low(0Eh)
  3384  013784  6E8B               	movwf	((c:3979)),c	;volatile
  3385                           	line	536
  3386                           ;main.c: 536: } else if (led_array[2] == 1 && le
                                 d_array[3] == 1 && led_array[9] == 1) {
  3387  013786  EFFF  F09F         	goto	l879
  3388                           	
  3389  01378A                     l924:		; BSR set to: ?
  3390                           
  3391  01378A  0404               	decf	(0+((c:0)+04h)),c,w
  3392  01378C  1005               	iorwf (1+((c:0)+04h)),c,w
  3393                           
  3394  01378E  A4D8               	btfss	status,2
  3395  013790  EFCC  F09B         	goto	u5431
  3396  013794  EFCE  F09B         	goto	u5430
  3397  013798                     u5431:
  3398  013798  EFE7  F09B         	goto	l926
  3399  01379C                     u5430:
  3400  01379C  0406               	decf	(0+((c:0)+06h)),c,w
  3401  01379E  1007               	iorwf (1+((c:0)+06h)),c,w
  3402                           
  3403  0137A0  A4D8               	btfss	status,2
  3404  0137A2  EFD5  F09B         	goto	u5441
  3405  0137A6  EFD7  F09B         	goto	u5440
  3406  0137AA                     u5441:
  3407  0137AA  EFE7  F09B         	goto	l926
  3408  0137AE                     u5440:
  3409  0137AE  0412               	decf	(0+((c:0)+012h)),c,w
  3410  0137B0  1013               	iorwf (1+((c:0)+012h)),c,w
  3411                           
  3412  0137B2  A4D8               	btfss	status,2
  3413  0137B4  EFDE  F09B         	goto	u5451
  3414  0137B8  EFE0  F09B         	goto	u5450
  3415  0137BC                     u5451:
  3416  0137BC  EFE7  F09B         	goto	l926
  3417  0137C0                     u5450:
  3418                           	line	539
  3419                           ;main.c: 539: LATA = 0b11111111;
  3420  0137C0  6889               	setf	((c:3977)),c	;volatile
  3421                           	line	541
  3422                           ;main.c: 541: LATB = 0b10001100;
  3423  0137C2  0E8C               	movlw	low(08Ch)
  3424  0137C4  6E8A               	movwf	((c:3978)),c	;volatile
  3425                           	line	543
  3426                           ;main.c: 543: LATC = 0b00001101;
  3427  0137C6  0E0D               	movlw	low(0Dh)
  3428  0137C8  6E8B               	movwf	((c:3979)),c	;volatile
  3429                           	line	544
  3430                           ;main.c: 544: } else if (led_array[2] == 1 && le
                                 d_array[3] == 1 && led_array[10] == 1) {
  3431  0137CA  EFFF  F09F         	goto	l879
  3432                           	
  3433  0137CE                     l926:		; BSR set to: ?
  3434                           
  3435  0137CE  0404               	decf	(0+((c:0)+04h)),c,w
  3436  0137D0  1005               	iorwf (1+((c:0)+04h)),c,w
  3437                           
  3438  0137D2  A4D8               	btfss	status,2
  3439  0137D4  EFEE  F09B         	goto	u5461
  3440  0137D8  EFF0  F09B         	goto	u5460
  3441  0137DC                     u5461:
  3442  0137DC  EF09  F09C         	goto	l928
  3443  0137E0                     u5460:
  3444  0137E0  0406               	decf	(0+((c:0)+06h)),c,w
  3445  0137E2  1007               	iorwf (1+((c:0)+06h)),c,w
  3446                           
  3447  0137E4  A4D8               	btfss	status,2
  3448  0137E6  EFF7  F09B         	goto	u5471
  3449  0137EA  EFF9  F09B         	goto	u5470
  3450  0137EE                     u5471:
  3451  0137EE  EF09  F09C         	goto	l928
  3452  0137F2                     u5470:
  3453  0137F2  0414               	decf	(0+((c:0)+014h)),c,w
  3454  0137F4  1015               	iorwf (1+((c:0)+014h)),c,w
  3455                           
  3456  0137F6  A4D8               	btfss	status,2
  3457  0137F8  EF00  F09C         	goto	u5481
  3458  0137FC  EF02  F09C         	goto	u5480
  3459  013800                     u5481:
  3460  013800  EF09  F09C         	goto	l928
  3461  013804                     u5480:
  3462                           	line	547
  3463                           ;main.c: 547: LATA = 0b11111111;
  3464  013804  6889               	setf	((c:3977)),c	;volatile
  3465                           	line	549
  3466                           ;main.c: 549: LATB = 0b00001100;
  3467  013806  0E0C               	movlw	low(0Ch)
  3468  013808  6E8A               	movwf	((c:3978)),c	;volatile
  3469                           	line	551
  3470                           ;main.c: 551: LATC = 0b00001111;
  3471  01380A  0E0F               	movlw	low(0Fh)
  3472  01380C  6E8B               	movwf	((c:3979)),c	;volatile
  3473                           	line	552
  3474                           ;main.c: 552: } else if (led_array[2] == 1 && le
                                 d_array[3] == 1 && led_array[11] == 1) {
  3475  01380E  EFFF  F09F         	goto	l879
  3476                           	
  3477  013812                     l928:		; BSR set to: ?
  3478                           
  3479  013812  0404               	decf	(0+((c:0)+04h)),c,w
  3480  013814  1005               	iorwf (1+((c:0)+04h)),c,w
  3481                           
  3482  013816  A4D8               	btfss	status,2
  3483  013818  EF10  F09C         	goto	u5491
  3484  01381C  EF12  F09C         	goto	u5490
  3485  013820                     u5491:
  3486  013820  EF2B  F09C         	goto	l930
  3487  013824                     u5490:
  3488  013824  0406               	decf	(0+((c:0)+06h)),c,w
  3489  013826  1007               	iorwf (1+((c:0)+06h)),c,w
  3490                           
  3491  013828  A4D8               	btfss	status,2
  3492  01382A  EF19  F09C         	goto	u5501
  3493  01382E  EF1B  F09C         	goto	u5500
  3494  013832                     u5501:
  3495  013832  EF2B  F09C         	goto	l930
  3496  013836                     u5500:
  3497  013836  0416               	decf	(0+((c:0)+016h)),c,w
  3498  013838  1017               	iorwf (1+((c:0)+016h)),c,w
  3499                           
  3500  01383A  A4D8               	btfss	status,2
  3501  01383C  EF22  F09C         	goto	u5511
  3502  013840  EF24  F09C         	goto	u5510
  3503  013844                     u5511:
  3504  013844  EF2B  F09C         	goto	l930
  3505  013848                     u5510:
  3506                           	line	555
  3507                           ;main.c: 555: LATA = 0b11111111;
  3508  013848  6889               	setf	((c:3977)),c	;volatile
  3509                           	line	557
  3510                           ;main.c: 557: LATB = 0b10001100;
  3511  01384A  0E8C               	movlw	low(08Ch)
  3512  01384C  6E8A               	movwf	((c:3978)),c	;volatile
  3513                           	line	559
  3514                           ;main.c: 559: LATC = 0b00001011;
  3515  01384E  0E0B               	movlw	low(0Bh)
  3516  013850  6E8B               	movwf	((c:3979)),c	;volatile
  3517                           	line	560
  3518                           ;main.c: 560: } else if (led_array[2] == 1 && le
                                 d_array[3] == 1 && led_array[12] == 1) {
  3519  013852  EFFF  F09F         	goto	l879
  3520                           	
  3521  013856                     l930:		; BSR set to: ?
  3522                           
  3523  013856  0404               	decf	(0+((c:0)+04h)),c,w
  3524  013858  1005               	iorwf (1+((c:0)+04h)),c,w
  3525                           
  3526  01385A  A4D8               	btfss	status,2
  3527  01385C  EF32  F09C         	goto	u5521
  3528  013860  EF34  F09C         	goto	u5520
  3529  013864                     u5521:
  3530  013864  EF4D  F09C         	goto	l932
  3531  013868                     u5520:
  3532  013868  0406               	decf	(0+((c:0)+06h)),c,w
  3533  01386A  1007               	iorwf (1+((c:0)+06h)),c,w
  3534                           
  3535  01386C  A4D8               	btfss	status,2
  3536  01386E  EF3B  F09C         	goto	u5531
  3537  013872  EF3D  F09C         	goto	u5530
  3538  013876                     u5531:
  3539  013876  EF4D  F09C         	goto	l932
  3540  01387A                     u5530:
  3541  01387A  0418               	decf	(0+((c:0)+018h)),c,w
  3542  01387C  1019               	iorwf (1+((c:0)+018h)),c,w
  3543                           
  3544  01387E  A4D8               	btfss	status,2
  3545  013880  EF44  F09C         	goto	u5541
  3546  013884  EF46  F09C         	goto	u5540
  3547  013888                     u5541:
  3548  013888  EF4D  F09C         	goto	l932
  3549  01388C                     u5540:
  3550                           	line	563
  3551                           ;main.c: 563: LATA = 0b11111111;
  3552  01388C  6889               	setf	((c:3977)),c	;volatile
  3553                           	line	565
  3554                           ;main.c: 565: LATB = 0b10001100;
  3555  01388E  0E8C               	movlw	low(08Ch)
  3556  013890  6E8A               	movwf	((c:3978)),c	;volatile
  3557                           	line	567
  3558                           ;main.c: 567: LATC = 0b00000111;
  3559  013892  0E07               	movlw	low(07h)
  3560  013894  6E8B               	movwf	((c:3979)),c	;volatile
  3561                           	line	568
  3562                           ;main.c: 568: } else if (led_array[2] == 1 && le
                                 d_array[6] == 1) {
  3563  013896  EFFF  F09F         	goto	l879
  3564                           	
  3565  01389A                     l932:		; BSR set to: ?
  3566                           
  3567  01389A  0404               	decf	(0+((c:0)+04h)),c,w
  3568  01389C  1005               	iorwf (1+((c:0)+04h)),c,w
  3569                           
  3570  01389E  A4D8               	btfss	status,2
  3571  0138A0  EF54  F09C         	goto	u5551
  3572  0138A4  EF56  F09C         	goto	u5550
  3573  0138A8                     u5551:
  3574  0138A8  EF67  F09C         	goto	l934
  3575  0138AC                     u5550:
  3576  0138AC  040C               	decf	(0+((c:0)+0Ch)),c,w
  3577  0138AE  100D               	iorwf (1+((c:0)+0Ch)),c,w
  3578                           
  3579  0138B0  A4D8               	btfss	status,2
  3580  0138B2  EF5D  F09C         	goto	u5561
  3581  0138B6  EF5F  F09C         	goto	u5560
  3582  0138BA                     u5561:
  3583  0138BA  EF67  F09C         	goto	l934
  3584  0138BE                     u5560:
  3585                           	line	571
  3586                           ;main.c: 571: LATA = 0b11101111;
  3587  0138BE  0EEF               	movlw	low(0EFh)
  3588  0138C0  6E89               	movwf	((c:3977)),c	;volatile
  3589                           	line	573
  3590                           ;main.c: 573: LATB = 0b10000100;
  3591  0138C2  0E84               	movlw	low(084h)
  3592  0138C4  6E8A               	movwf	((c:3978)),c	;volatile
  3593                           	line	575
  3594                           ;main.c: 575: LATC = 0b00001111;
  3595  0138C6  0E0F               	movlw	low(0Fh)
  3596  0138C8  6E8B               	movwf	((c:3979)),c	;volatile
  3597                           	line	577
  3598                           ;main.c: 577: } else if (led_array[2] == 1 && le
                                 d_array[7] == 1) {
  3599  0138CA  EFFF  F09F         	goto	l879
  3600                           	
  3601  0138CE                     l934:		; BSR set to: ?
  3602                           
  3603  0138CE  0404               	decf	(0+((c:0)+04h)),c,w
  3604  0138D0  1005               	iorwf (1+((c:0)+04h)),c,w
  3605                           
  3606  0138D2  A4D8               	btfss	status,2
  3607  0138D4  EF6E  F09C         	goto	u5571
  3608  0138D8  EF70  F09C         	goto	u5570
  3609  0138DC                     u5571:
  3610  0138DC  EF81  F09C         	goto	l936
  3611  0138E0                     u5570:
  3612  0138E0  040E               	decf	(0+((c:0)+0Eh)),c,w
  3613  0138E2  100F               	iorwf (1+((c:0)+0Eh)),c,w
  3614                           
  3615  0138E4  A4D8               	btfss	status,2
  3616  0138E6  EF77  F09C         	goto	u5581
  3617  0138EA  EF79  F09C         	goto	u5580
  3618  0138EE                     u5581:
  3619  0138EE  EF81  F09C         	goto	l936
  3620  0138F2                     u5580:
  3621                           	line	580
  3622                           ;main.c: 580: LATA = 0b10111111;
  3623  0138F2  0EBF               	movlw	low(0BFh)
  3624  0138F4  6E89               	movwf	((c:3977)),c	;volatile
  3625                           	line	582
  3626                           ;main.c: 582: LATB = 0b10000100;
  3627  0138F6  0E84               	movlw	low(084h)
  3628  0138F8  6E8A               	movwf	((c:3978)),c	;volatile
  3629                           	line	584
  3630                           ;main.c: 584: LATC = 0b00001111;
  3631  0138FA  0E0F               	movlw	low(0Fh)
  3632  0138FC  6E8B               	movwf	((c:3979)),c	;volatile
  3633                           	line	586
  3634                           ;main.c: 586: } else if (led_array[2] == 1 && le
                                 d_array[8] == 1) {
  3635  0138FE  EFFF  F09F         	goto	l879
  3636                           	
  3637  013902                     l936:		; BSR set to: ?
  3638                           
  3639  013902  0404               	decf	(0+((c:0)+04h)),c,w
  3640  013904  1005               	iorwf (1+((c:0)+04h)),c,w
  3641                           
  3642  013906  A4D8               	btfss	status,2
  3643  013908  EF88  F09C         	goto	u5591
  3644  01390C  EF8A  F09C         	goto	u5590
  3645  013910                     u5591:
  3646  013910  EF9A  F09C         	goto	l938
  3647  013914                     u5590:
  3648  013914  0410               	decf	(0+((c:0)+010h)),c,w
  3649  013916  1011               	iorwf (1+((c:0)+010h)),c,w
  3650                           
  3651  013918  A4D8               	btfss	status,2
  3652  01391A  EF91  F09C         	goto	u5601
  3653  01391E  EF93  F09C         	goto	u5600
  3654  013922                     u5601:
  3655  013922  EF9A  F09C         	goto	l938
  3656  013926                     u5600:
  3657+                          	line	589
  3658+                          ;main.c: 589: LATA = 0b11111111;
  3659+ 013926  6889               	setf	((c:3977)),c	;volatile
  3660+                          	line	591
  3661+                          ;main.c: 591: LATB = 0b10000100;
  3662+ 013928  0E84               	movlw	low(084h)
  3663+ 01392A  6E8A               	movwf	((c:3978)),c	;volatile
  3664+                          	line	593
  3665+                          ;main.c: 593: LATC = 0b00001110;
  3666+ 01392C  0E0E               	movlw	low(0Eh)
  3667+ 01392E  6E8B               	movwf	((c:3979)),c	;volatile
  3668+                          	line	595
  3669+                          ;main.c: 595: } else if (led_array[2] == 1 && le
      +                          d_array[9] == 1) {
  3670+ 013930  EFFF  F09F         	goto	l879
  3671+                          	
  3672+ 013934                     l938:		; BSR set to: ?
  3673+                          
  3674+ 013934  0404               	decf	(0+((c:0)+04h)),c,w
  3675+ 013936  1005               	iorwf (1+((c:0)+04h)),c,w
  3676+                          
  3677+ 013938  A4D8               	btfss	status,2
  3678+ 01393A  EFA1  F09C         	goto	u5611
  3679+ 01393E  EFA3  F09C         	goto	u5610
  3680+ 013942                     u5611:
  3681+ 013942  EFB3  F09C         	goto	l940
  3682+ 013946                     u5610:
  3683+ 013946  0412               	decf	(0+((c:0)+012h)),c,w
  3684+ 013948  1013               	iorwf (1+((c:0)+012h)),c,w
  3685+                          
  3686+ 01394A  A4D8               	btfss	status,2
  3687+ 01394C  EFAA  F09C         	goto	u5621
  3688+ 013950  EFAC  F09C         	goto	u5620
  3689+ 013954                     u5621:
  3690+ 013954  EFB3  F09C         	goto	l940
  3691+ 013958                     u5620:
  3692+                          	line	598
  3693+                          ;main.c: 598: LATA = 0b11111111;
  3694+ 013958  6889               	setf	((c:3977)),c	;volatile
  3695+                          	line	600
  3696+                          ;main.c: 600: LATB = 0b10000100;
  3697+ 01395A  0E84               	movlw	low(084h)
  3698+ 01395C  6E8A               	movwf	((c:3978)),c	;volatile
  3699+                          	line	602
  3700+                          ;main.c: 602: LATC = 0b00001101;
  3701+ 01395E  0E0D               	movlw	low(0Dh)
  3702+ 013960  6E8B               	movwf	((c:3979)),c	;volatile
  3703+                          	line	604
  3704+                          ;main.c: 604: } else if (led_array[2] == 1 && le
      +                          d_array[10] == 1) {
  3705+ 013962  EFFF  F09F         	goto	l879
  3706+                          	
  3707+ 013966                     l940:		; BSR set to: ?
  3708+                          
  3709+ 013966  0404               	decf	(0+((c:0)+04h)),c,w
  3710+ 013968  1005               	iorwf (1+((c:0)+04h)),c,w
  3711+                          
  3712+ 01396A  A4D8               	btfss	status,2
  3713+ 01396C  EFBA  F09C         	goto	u5631
  3714+ 013970  EFBC  F09C         	goto	u5630
  3715+ 013974                     u5631:
  3716+ 013974  EFCC  F09C         	goto	l942
  3717+ 013978                     u5630:
  3718+ 013978  0414               	decf	(0+((c:0)+014h)),c,w
  3719+ 01397A  1015               	iorwf (1+((c:0)+014h)),c,w
  3720+                          
  3721+ 01397C  A4D8               	btfss	status,2
  3722+ 01397E  EFC3  F09C         	goto	u5641
  3723+ 013982  EFC5  F09C         	goto	u5640
  3724+ 013986                     u5641:
  3725+ 013986  EFCC  F09C         	goto	l942
  3726+ 01398A                     u5640:
  3727+                          	line	607
  3728+                          ;main.c: 607: LATA = 0b11111111;
  3729+ 01398A  6889               	setf	((c:3977)),c	;volatile
  3730+                          	line	609
  3731+                          ;main.c: 609: LATB = 0b00000100;
  3732+ 01398C  0E04               	movlw	low(04h)
  3733+ 01398E  6E8A               	movwf	((c:3978)),c	;volatile
  3734+                          	line	611
  3735+                          ;main.c: 611: LATC = 0b00001111;
  3736+ 013990  0E0F               	movlw	low(0Fh)
  3737+ 013992  6E8B               	movwf	((c:3979)),c	;volatile
  3738+                          	line	613
  3739+                          ;main.c: 613: } else if (led_array[2] == 1 && le
      +                          d_array[11] == 1) {
  3740+ 013994  EFFF  F09F         	goto	l879
  3741+                          	
  3742+ 013998                     l942:		; BSR set to: ?
  3743+                          
  3744+ 013998  0404               	decf	(0+((c:0)+04h)),c,w
  3745+ 01399A  1005               	iorwf (1+((c:0)+04h)),c,w
  3746+                          
  3747+ 01399C  A4D8               	btfss	status,2
  3748+ 01399E  EFD3  F09C         	goto	u5651
  3749+ 0139A2  EFD5  F09C         	goto	u5650
  3750+ 0139A6                     u5651:
  3751+ 0139A6  EFE5  F09C         	goto	l944
  3752+ 0139AA                     u5650:
  3753+ 0139AA  0416               	decf	(0+((c:0)+016h)),c,w
  3754+ 0139AC  1017               	iorwf (1+((c:0)+016h)),c,w
  3755+                          
  3756+ 0139AE  A4D8               	btfss	status,2
  3757+ 0139B0  EFDC  F09C         	goto	u5661
  3758+ 0139B4  EFDE  F09C         	goto	u5660
  3759+ 0139B8                     u5661:
  3760+ 0139B8  EFE5  F09C         	goto	l944
  3761+ 0139BC                     u5660:
  3762+                          	line	616
  3763+                          ;main.c: 616: LATA = 0b11111111;
  3764+ 0139BC  6889               	setf	((c:3977)),c	;volatile
  3765+                          	line	618
  3766+                          ;main.c: 618: LATB = 0b10000100;
  3767+ 0139BE  0E84               	movlw	low(084h)
  3768+ 0139C0  6E8A               	movwf	((c:3978)),c	;volatile
  3769+                          	line	620
  3770+                          ;main.c: 620: LATC = 0b00001011;
  3771+ 0139C2  0E0B               	movlw	low(0Bh)
  3772+ 0139C4  6E8B               	movwf	((c:3979)),c	;volatile
  3773+                          	line	622
  3774+                          ;main.c: 622: } else if (led_array[2] == 1 && le
      +                          d_array[12] == 1) {
  3775+ 0139C6  EFFF  F09F         	goto	l879
  3776+                          	
  3777+ 0139CA                     l944:		; BSR set to: ?
  3778+                          
  3779+ 0139CA  0404               	decf	(0+((c:0)+04h)),c,w
  3780+ 0139CC  1005               	iorwf (1+((c:0)+04h)),c,w
  3781+                          
  3782+ 0139CE  A4D8               	btfss	status,2
  3783+ 0139D0  EFEC  F09C         	goto	u5671
  3784+ 0139D4  EFEE  F09C         	goto	u5670
  3785+ 0139D8                     u5671:
  3786+ 0139D8  EFFE  F09C         	goto	l946
  3787+ 0139DC                     u5670:
  3788+ 0139DC  0418               	decf	(0+((c:0)+018h)),c,w
  3789+ 0139DE  1019               	iorwf (1+((c:0)+018h)),c,w
  3790+                          
  3791+ 0139E0  A4D8               	btfss	status,2
  3792+ 0139E2  EFF5  F09C         	goto	u5681
  3793+ 0139E6  EFF7  F09C         	goto	u5680
  3794+ 0139EA                     u5681:
  3795+ 0139EA  EFFE  F09C         	goto	l946
  3796+ 0139EE                     u5680:
  3797+                          	line	625
  3798+                          ;main.c: 625: LATA = 0b11111111;
  3799+ 0139EE  6889               	setf	((c:3977)),c	;volatile
  3800+                          	line	627
  3801+                          ;main.c: 627: LATB = 0b10000100;
  3802+ 0139F0  0E84               	movlw	low(084h)
  3803+ 0139F2  6E8A               	movwf	((c:3978)),c	;volatile
  3804+                          	line	629
  3805+                          ;main.c: 629: LATC = 0b00000111;
  3806+ 0139F4  0E07               	movlw	low(07h)
  3807+ 0139F6  6E8B               	movwf	((c:3979)),c	;volatile
  3808+                          	line	631
  3809+                          ;main.c: 631: } else if (led_array[3] == 1 && le
      +                          d_array[6] == 1) {
  3810+ 0139F8  EFFF  F09F         	goto	l879
  3811+                          	
  3812+ 0139FC                     l946:		; BSR set to: ?
  3813+                          
  3814+ 0139FC  0406               	decf	(0+((c:0)+06h)),c,w
  3815  0139FE  1007               	iorwf (1+((c:0)+06h)),c,w
  3816                           
  3817  013A00  A4D8               	btfss	status,2
  3818  013A02  EF05  F09D         	goto	u5691
  3819  013A06  EF07  F09D         	goto	u5690
  3820  013A0A                     u5691:
  3821  013A0A  EF18  F09D         	goto	l948
  3822  013A0E                     u5690:
  3823  013A0E  040C               	decf	(0+((c:0)+0Ch)),c,w
  3824  013A10  100D               	iorwf (1+((c:0)+0Ch)),c,w
  3825                           
  3826  013A12  A4D8               	btfss	status,2
  3827  013A14  EF0E  F09D         	goto	u5701
  3828  013A18  EF10  F09D         	goto	u5700
  3829  013A1C                     u5701:
  3830  013A1C  EF18  F09D         	goto	l948
  3831  013A20                     u5700:
  3832                           	line	634
  3833                           ;main.c: 634: LATA = 0b11101111;
  3834  013A20  0EEF               	movlw	low(0EFh)
  3835  013A22  6E89               	movwf	((c:3977)),c	;volatile
  3836                           	line	636
  3837                           ;main.c: 636: LATB = 0b10001000;
  3838  013A24  0E88               	movlw	low(088h)
  3839  013A26  6E8A               	movwf	((c:3978)),c	;volatile
  3840                           	line	638
  3841                           ;main.c: 638: LATC = 0b00001111;
  3842  013A28  0E0F               	movlw	low(0Fh)
  3843  013A2A  6E8B               	movwf	((c:3979)),c	;volatile
  3844                           	line	640
  3845                           ;main.c: 640: } else if (led_array[3] == 1 && le
                                 d_array[7] == 1) {
  3846  013A2C  EFFF  F09F         	goto	l879
  3847                           	
  3848  013A30                     l948:		; BSR set to: ?
  3849                           
  3850  013A30  0406               	decf	(0+((c:0)+06h)),c,w
  3851  013A32  1007               	iorwf (1+((c:0)+06h)),c,w
  3852                           
  3853  013A34  A4D8               	btfss	status,2
  3854  013A36  EF1F  F09D         	goto	u5711
  3855  013A3A  EF21  F09D         	goto	u5710
  3856  013A3E                     u5711:
  3857  013A3E  EF32  F09D         	goto	l950
  3858  013A42                     u5710:
  3859  013A42  040E               	decf	(0+((c:0)+0Eh)),c,w
  3860  013A44  100F               	iorwf (1+((c:0)+0Eh)),c,w
  3861                           
  3862  013A46  A4D8               	btfss	status,2
  3863  013A48  EF28  F09D         	goto	u5721
  3864  013A4C  EF2A  F09D         	goto	u5720
  3865  013A50                     u5721:
  3866  013A50  EF32  F09D         	goto	l950
  3867  013A54                     u5720:
  3868                           	line	643
  3869                           ;main.c: 643: LATA = 0b10111111;
  3870  013A54  0EBF               	movlw	low(0BFh)
  3871  013A56  6E89               	movwf	((c:3977)),c	;volatile
  3872                           	line	645
  3873                           ;main.c: 645: LATB = 0b10001000;
  3874  013A58  0E88               	movlw	low(088h)
  3875  013A5A  6E8A               	movwf	((c:3978)),c	;volatile
  3876                           	line	647
  3877                           ;main.c: 647: LATC = 0b00001111;
  3878  013A5C  0E0F               	movlw	low(0Fh)
  3879  013A5E  6E8B               	movwf	((c:3979)),c	;volatile
  3880                           	line	649
  3881                           ;main.c: 649: } else if (led_array[3] == 1 && le
                                 d_array[8] == 1) {
  3882  013A60  EFFF  F09F         	goto	l879
  3883                           	
  3884  013A64                     l950:		; BSR set to: ?
  3885                           
  3886  013A64  0406               	decf	(0+((c:0)+06h)),c,w
  3887  013A66  1007               	iorwf (1+((c:0)+06h)),c,w
  3888                           
  3889  013A68  A4D8               	btfss	status,2
  3890  013A6A  EF39  F09D         	goto	u5731
  3891  013A6E  EF3B  F09D         	goto	u5730
  3892  013A72                     u5731:
  3893  013A72  EF4B  F09D         	goto	l952
  3894  013A76                     u5730:
  3895  013A76  0410               	decf	(0+((c:0)+010h)),c,w
  3896  013A78  1011               	iorwf (1+((c:0)+010h)),c,w
  3897                           
  3898  013A7A  A4D8               	btfss	status,2
  3899  013A7C  EF42  F09D         	goto	u5741
  3900  013A80  EF44  F09D         	goto	u5740
  3901  013A84                     u5741:
  3902  013A84  EF4B  F09D         	goto	l952
  3903  013A88                     u5740:
  3904                           	line	652
  3905                           ;main.c: 652: LATA = 0b11111111;
  3906  013A88  6889               	setf	((c:3977)),c	;volatile
  3907                           	line	654
  3908                           ;main.c: 654: LATB = 0b10001000;
  3909  013A8A  0E88               	movlw	low(088h)
  3910  013A8C  6E8A               	movwf	((c:3978)),c	;volatile
  3911                           	line	656
  3912                           ;main.c: 656: LATC = 0b00001110;
  3913  013A8E  0E0E               	movlw	low(0Eh)
  3914  013A90  6E8B               	movwf	((c:3979)),c	;volatile
  3915                           	line	658
  3916                           ;main.c: 658: } else if (led_array[3] == 1 && le
                                 d_array[9] == 1) {
  3917  013A92  EFFF  F09F         	goto	l879
  3918                           	
  3919  013A96                     l952:		; BSR set to: ?
  3920                           
  3921  013A96  0406               	decf	(0+((c:0)+06h)),c,w
  3922  013A98  1007               	iorwf (1+((c:0)+06h)),c,w
  3923                           
  3924  013A9A  A4D8               	btfss	status,2
  3925  013A9C  EF52  F09D         	goto	u5751
  3926  013AA0  EF54  F09D         	goto	u5750
  3927  013AA4                     u5751:
  3928  013AA4  EF64  F09D         	goto	l954
  3929  013AA8                     u5750:
  3930  013AA8  0412               	decf	(0+((c:0)+012h)),c,w
  3931  013AAA  1013               	iorwf (1+((c:0)+012h)),c,w
  3932                           
  3933  013AAC  A4D8               	btfss	status,2
  3934  013AAE  EF5B  F09D         	goto	u5761
  3935  013AB2  EF5D  F09D         	goto	u5760
  3936  013AB6                     u5761:
  3937  013AB6  EF64  F09D         	goto	l954
  3938  013ABA                     u5760:
  3939                           	line	661
  3940                           ;main.c: 661: LATA = 0b11111111;
  3941  013ABA  6889               	setf	((c:3977)),c	;volatile
  3942                           	line	663
  3943                           ;main.c: 663: LATB = 0b10001000;
  3944  013ABC  0E88               	movlw	low(088h)
  3945  013ABE  6E8A               	movwf	((c:3978)),c	;volatile
  3946                           	line	665
  3947                           ;main.c: 665: LATC = 0b00001101;
  3948  013AC0  0E0D               	movlw	low(0Dh)
  3949  013AC2  6E8B               	movwf	((c:3979)),c	;volatile
  3950                           	line	667
  3951                           ;main.c: 667: } else if (led_array[3] == 1 && le
                                 d_array[10] == 1) {
  3952  013AC4  EFFF  F09F         	goto	l879
  3953                           	
  3954  013AC8                     l954:		; BSR set to: ?
  3955                           
  3956  013AC8  0406               	decf	(0+((c:0)+06h)),c,w
  3957  013ACA  1007               	iorwf (1+((c:0)+06h)),c,w
  3958                           
  3959  013ACC  A4D8               	btfss	status,2
  3960  013ACE  EF6B  F09D         	goto	u5771
  3961  013AD2  EF6D  F09D         	goto	u5770
  3962  013AD6                     u5771:
  3963  013AD6  EF7D  F09D         	goto	l956
  3964  013ADA                     u5770:
  3965  013ADA  0414               	decf	(0+((c:0)+014h)),c,w
  3966  013ADC  1015               	iorwf (1+((c:0)+014h)),c,w
  3967                           
  3968  013ADE  A4D8               	btfss	status,2
  3969  013AE0  EF74  F09D         	goto	u5781
  3970  013AE4  EF76  F09D         	goto	u5780
  3971  013AE8                     u5781:
  3972  013AE8  EF7D  F09D         	goto	l956
  3973  013AEC                     u5780:
  3974                           	line	670
  3975                           ;main.c: 670: LATA = 0b11111111;
  3976  013AEC  6889               	setf	((c:3977)),c	;volatile
  3977                           	line	672
  3978                           ;main.c: 672: LATB = 0b00001000;
  3979  013AEE  0E08               	movlw	low(08h)
  3980  013AF0  6E8A               	movwf	((c:3978)),c	;volatile
  3981                           	line	674
  3982                           ;main.c: 674: LATC = 0b00001111;
  3983  013AF2  0E0F               	movlw	low(0Fh)
  3984  013AF4  6E8B               	movwf	((c:3979)),c	;volatile
  3985                           	line	676
  3986                           ;main.c: 676: } else if (led_array[3] == 1 && le
                                 d_array[11] == 1) {
  3987  013AF6  EFFF  F09F         	goto	l879
  3988                           	
  3989  013AFA                     l956:		; BSR set to: ?
  3990                           
  3991  013AFA  0406               	decf	(0+((c:0)+06h)),c,w
  3992  013AFC  1007               	iorwf (1+((c:0)+06h)),c,w
  3993                           
  3994  013AFE  A4D8               	btfss	status,2
  3995  013B00  EF84  F09D         	goto	u5791
  3996  013B04  EF86  F09D         	goto	u5790
  3997  013B08                     u5791:
  3998  013B08  EF96  F09D         	goto	l958
  3999  013B0C                     u5790:
  4000  013B0C  0416               	decf	(0+((c:0)+016h)),c,w
  4001  013B0E  1017               	iorwf (1+((c:0)+016h)),c,w
  4002                           
  4003  013B10  A4D8               	btfss	status,2
  4004  013B12  EF8D  F09D         	goto	u5801
  4005  013B16  EF8F  F09D         	goto	u5800
  4006  013B1A                     u5801:
  4007  013B1A  EF96  F09D         	goto	l958
  4008  013B1E                     u5800:
  4009                           	line	679
  4010                           ;main.c: 679: LATA = 0b11111111;
  4011  013B1E  6889               	setf	((c:3977)),c	;volatile
  4012                           	line	681
  4013                           ;main.c: 681: LATB = 0b10001000;
  4014  013B20  0E88               	movlw	low(088h)
  4015  013B22  6E8A               	movwf	((c:3978)),c	;volatile
  4016                           	line	683
  4017                           ;main.c: 683: LATC = 0b00001011;
  4018  013B24  0E0B               	movlw	low(0Bh)
  4019  013B26  6E8B               	movwf	((c:3979)),c	;volatile
  4020                           	line	685
  4021                           ;main.c: 685: } else if (led_array[3] == 1 && le
                                 d_array[12] == 1) {
  4022  013B28  EFFF  F09F         	goto	l879
  4023                           	
  4024  013B2C                     l958:		; BSR set to: ?
  4025                           
  4026  013B2C  0406               	decf	(0+((c:0)+06h)),c,w
  4027  013B2E  1007               	iorwf (1+((c:0)+06h)),c,w
  4028                           
  4029  013B30  A4D8               	btfss	status,2
  4030  013B32  EF9D  F09D         	goto	u5811
  4031  013B36  EF9F  F09D         	goto	u5810
  4032  013B3A                     u5811:
  4033  013B3A  EFAF  F09D         	goto	l960
  4034  013B3E                     u5810:
  4035  013B3E  0418               	decf	(0+((c:0)+018h)),c,w
  4036  013B40  1019               	iorwf (1+((c:0)+018h)),c,w
  4037                           
  4038  013B42  A4D8               	btfss	status,2
  4039  013B44  EFA6  F09D         	goto	u5821
  4040  013B48  EFA8  F09D         	goto	u5820
  4041  013B4C                     u5821:
  4042  013B4C  EFAF  F09D         	goto	l960
  4043  013B50                     u5820:
  4044                           	line	688
  4045                           ;main.c: 688: LATA = 0b11111111;
  4046  013B50  6889               	setf	((c:3977)),c	;volatile
  4047                           	line	690
  4048                           ;main.c: 690: LATB = 0b10001000;
  4049  013B52  0E88               	movlw	low(088h)
  4050  013B54  6E8A               	movwf	((c:3978)),c	;volatile
  4051                           	line	692
  4052                           ;main.c: 692: LATC = 0b00000111;
  4053  013B56  0E07               	movlw	low(07h)
  4054  013B58  6E8B               	movwf	((c:3979)),c	;volatile
  4055                           	line	693
  4056                           ;main.c: 693: }
  4057  013B5A  EFFF  F09F         	goto	l879
  4058                           	line	696
  4059                           	
  4060  013B5E                     l960:		; BSR set to: ?
  4061                           
  4062                           ;main.c: 696: else if (led_array[0] == 1 && led_
                                 array[1] == 1 && led_array[6] == 1) {
  4063  013B5E  0400               	decf	((c:0)),c,w
  4064  013B60  1001               	iorwf ((c:0+1)),c,w
  4065                           
  4066  013B62  A4D8               	btfss	status,2
  4067  013B64  EFB6  F09D         	goto	u5831
  4068  013B68  EFB8  F09D         	goto	u5830
  4069  013B6C                     u5831:
  4070  013B6C  EFD2  F09D         	goto	l962
  4071  013B70                     u5830:
  4072  013B70  0402               	decf	(0+((c:0)+02h)),c,w
  4073  013B72  1003               	iorwf (1+((c:0)+02h)),c,w
  4074                           
  4075  013B74  A4D8               	btfss	status,2
  4076  013B76  EFBF  F09D         	goto	u5841
  4077  013B7A  EFC1  F09D         	goto	u5840
  4078  013B7E                     u5841:
  4079  013B7E  EFD2  F09D         	goto	l962
  4080  013B82                     u5840:
  4081  013B82  040C               	decf	(0+((c:0)+0Ch)),c,w
  4082  013B84  100D               	iorwf (1+((c:0)+0Ch)),c,w
  4083                           
  4084  013B86  A4D8               	btfss	status,2
  4085  013B88  EFC8  F09D         	goto	u5851
  4086  013B8C  EFCA  F09D         	goto	u5850
  4087  013B90                     u5851:
  4088  013B90  EFD2  F09D         	goto	l962
  4089  013B94                     u5850:
  4090                           	line	699
  4091                           ;main.c: 699: LATA = 0b11101111;
  4092  013B94  0EEF               	movlw	low(0EFh)
  4093  013B96  6E89               	movwf	((c:3977)),c	;volatile
  4094                           	line	701
  4095                           ;main.c: 701: LATB = 0b10000000;
  4096  013B98  0E80               	movlw	low(080h)
  4097  013B9A  6E8A               	movwf	((c:3978)),c	;volatile
  4098                           	line	703
  4099                           ;main.c: 703: LATC = 0b00111111;
  4100  013B9C  0E3F               	movlw	low(03Fh)
  4101  013B9E  6E8B               	movwf	((c:3979)),c	;volatile
  4102                           	line	705
  4103                           ;main.c: 705: } else if (led_array[0] == 1 && le
                                 d_array[1] == 1 && led_array[7] == 1) {
  4104  013BA0  EFFF  F09F         	goto	l879
  4105                           	
  4106  013BA4                     l962:		; BSR set to: ?
  4107                           
  4108  013BA4  0400               	decf	((c:0)),c,w
  4109  013BA6  1001               	iorwf ((c:0+1)),c,w
  4110                           
  4111  013BA8  A4D8               	btfss	status,2
  4112  013BAA  EFD9  F09D         	goto	u5861
  4113  013BAE  EFDB  F09D         	goto	u5860
  4114  013BB2                     u5861:
  4115  013BB2  EFF5  F09D         	goto	l964
  4116  013BB6                     u5860:
  4117  013BB6  0402               	decf	(0+((c:0)+02h)),c,w
  4118  013BB8  1003               	iorwf (1+((c:0)+02h)),c,w
  4119                           
  4120  013BBA  A4D8               	btfss	status,2
  4121  013BBC  EFE2  F09D         	goto	u5871
  4122  013BC0  EFE4  F09D         	goto	u5870
  4123  013BC4                     u5871:
  4124  013BC4  EFF5  F09D         	goto	l964
  4125  013BC8                     u5870:
  4126  013BC8  040E               	decf	(0+((c:0)+0Eh)),c,w
  4127  013BCA  100F               	iorwf (1+((c:0)+0Eh)),c,w
  4128                           
  4129  013BCC  A4D8               	btfss	status,2
  4130  013BCE  EFEB  F09D         	goto	u5881
  4131  013BD2  EFED  F09D         	goto	u5880
  4132  013BD6                     u5881:
  4133  013BD6  EFF5  F09D         	goto	l964
  4134  013BDA                     u5880:
  4135                           	line	708
  4136                           ;main.c: 708: LATA = 0b10111111;
  4137  013BDA  0EBF               	movlw	low(0BFh)
  4138  013BDC  6E89               	movwf	((c:3977)),c	;volatile
  4139                           	line	710
  4140                           ;main.c: 710: LATB = 0b10000000;
  4141  013BDE  0E80               	movlw	low(080h)
  4142  013BE0  6E8A               	movwf	((c:3978)),c	;volatile
  4143                           	line	712
  4144                           ;main.c: 712: LATC = 0b00111111;
  4145  013BE2  0E3F               	movlw	low(03Fh)
  4146  013BE4  6E8B               	movwf	((c:3979)),c	;volatile
  4147                           	line	714
  4148                           ;main.c: 714: } else if (led_array[0] == 1 && le
                                 d_array[1] == 1 && led_array[8] == 1) {
  4149  013BE6  EFFF  F09F         	goto	l879
  4150                           	
  4151  013BEA                     l964:		; BSR set to: ?
  4152                           
  4153  013BEA  0400               	decf	((c:0)),c,w
  4154  013BEC  1001               	iorwf ((c:0+1)),c,w
  4155                           
  4156  013BEE  A4D8               	btfss	status,2
  4157  013BF0  EFFC  F09D         	goto	u5891
  4158  013BF4  EFFE  F09D         	goto	u5890
  4159  013BF8                     u5891:
  4160  013BF8  EF17  F09E         	goto	l966
  4161  013BFC                     u5890:
  4162  013BFC  0402               	decf	(0+((c:0)+02h)),c,w
  4163  013BFE  1003               	iorwf (1+((c:0)+02h)),c,w
  4164                           
  4165  013C00  A4D8               	btfss	status,2
  4166  013C02  EF05  F09E         	goto	u5901
  4167  013C06  EF07  F09E         	goto	u5900
  4168  013C0A                     u5901:
  4169  013C0A  EF17  F09E         	goto	l966
  4170  013C0E                     u5900:
  4171  013C0E  0410               	decf	(0+((c:0)+010h)),c,w
  4172  013C10  1011               	iorwf (1+((c:0)+010h)),c,w
  4173                           
  4174  013C12  A4D8               	btfss	status,2
  4175  013C14  EF0E  F09E         	goto	u5911
  4176  013C18  EF10  F09E         	goto	u5910
  4177  013C1C                     u5911:
  4178  013C1C  EF17  F09E         	goto	l966
  4179  013C20                     u5910:
  4180                           	line	717
  4181                           ;main.c: 717: LATA = 0b11111111;
  4182  013C20  6889               	setf	((c:3977)),c	;volatile
  4183                           	line	719
  4184                           ;main.c: 719: LATB = 0b10000000;
  4185  013C22  0E80               	movlw	low(080h)
  4186  013C24  6E8A               	movwf	((c:3978)),c	;volatile
  4187                           	line	721
  4188                           ;main.c: 721: LATC = 0b00111110;
  4189  013C26  0E3E               	movlw	low(03Eh)
  4190  013C28  6E8B               	movwf	((c:3979)),c	;volatile
  4191                           	line	723
  4192                           ;main.c: 723: } else if (led_array[0] == 1 && le
                                 d_array[1] == 1 && led_array[9] == 1) {
  4193  013C2A  EFFF  F09F         	goto	l879
  4194                           	
  4195  013C2E                     l966:		; BSR set to: ?
  4196                           
  4197  013C2E  0400               	decf	((c:0)),c,w
  4198  013C30  1001               	iorwf ((c:0+1)),c,w
  4199                           
  4200  013C32  A4D8               	btfss	status,2
  4201  013C34  EF1E  F09E         	goto	u5921
  4202  013C38  EF20  F09E         	goto	u5920
  4203  013C3C                     u5921:
  4204  013C3C  EF39  F09E         	goto	l968
  4205  013C40                     u5920:
  4206  013C40  0402               	decf	(0+((c:0)+02h)),c,w
  4207  013C42  1003               	iorwf (1+((c:0)+02h)),c,w
  4208                           
  4209  013C44  A4D8               	btfss	status,2
  4210  013C46  EF27  F09E         	goto	u5931
  4211  013C4A  EF29  F09E         	goto	u5930
  4212  013C4E                     u5931:
  4213  013C4E  EF39  F09E         	goto	l968
  4214  013C52                     u5930:
  4215  013C52  0412               	decf	(0+((c:0)+012h)),c,w
  4216  013C54  1013               	iorwf (1+((c:0)+012h)),c,w
  4217                           
  4218  013C56  A4D8               	btfss	status,2
  4219  013C58  EF30  F09E         	goto	u5941
  4220  013C5C  EF32  F09E         	goto	u5940
  4221  013C60                     u5941:
  4222  013C60  EF39  F09E         	goto	l968
  4223  013C64                     u5940:
  4224                           	line	726
  4225                           ;main.c: 726: LATA = 0b11111111;
  4226  013C64  6889               	setf	((c:3977)),c	;volatile
  4227                           	line	728
  4228                           ;main.c: 728: LATB = 0b10000000;
  4229  013C66  0E80               	movlw	low(080h)
  4230  013C68  6E8A               	movwf	((c:3978)),c	;volatile
  4231                           	line	730
  4232                           ;main.c: 730: LATC = 0b00111101;
  4233  013C6A  0E3D               	movlw	low(03Dh)
  4234  013C6C  6E8B               	movwf	((c:3979)),c	;volatile
  4235                           	line	731
  4236                           ;main.c: 731: } else if (led_array[0] == 1 && le
                                 d_array[1] == 1 && led_array[10] == 1) {
  4237  013C6E  EFFF  F09F         	goto	l879
  4238                           	
  4239  013C72                     l968:		; BSR set to: ?
  4240                           
  4241  013C72  0400               	decf	((c:0)),c,w
  4242  013C74  1001               	iorwf ((c:0+1)),c,w
  4243                           
  4244  013C76  A4D8               	btfss	status,2
  4245  013C78  EF40  F09E         	goto	u5951
  4246  013C7C  EF42  F09E         	goto	u5950
  4247  013C80                     u5951:
  4248  013C80  EF5B  F09E         	goto	l970
  4249  013C84                     u5950:
  4250  013C84  0402               	decf	(0+((c:0)+02h)),c,w
  4251  013C86  1003               	iorwf (1+((c:0)+02h)),c,w
  4252                           
  4253  013C88  A4D8               	btfss	status,2
  4254  013C8A  EF49  F09E         	goto	u5961
  4255  013C8E  EF4B  F09E         	goto	u5960
  4256  013C92                     u5961:
  4257  013C92  EF5B  F09E         	goto	l970
  4258  013C96                     u5960:
  4259  013C96  0414               	decf	(0+((c:0)+014h)),c,w
  4260  013C98  1015               	iorwf (1+((c:0)+014h)),c,w
  4261                           
  4262  013C9A  A4D8               	btfss	status,2
  4263  013C9C  EF52  F09E         	goto	u5971
  4264  013CA0  EF54  F09E         	goto	u5970
  4265  013CA4                     u5971:
  4266  013CA4  EF5B  F09E         	goto	l970
  4267  013CA8                     u5970:
  4268                           	line	734
  4269                           ;main.c: 734: LATA = 0b11111111;
  4270  013CA8  6889               	setf	((c:3977)),c	;volatile
  4271                           	line	736
  4272                           ;main.c: 736: LATB = 0b00000000;
  4273  013CAA  0E00               	movlw	low(0)
  4274  013CAC  6E8A               	movwf	((c:3978)),c	;volatile
  4275                           	line	738
  4276                           ;main.c: 738: LATC = 0b00111111;
  4277  013CAE  0E3F               	movlw	low(03Fh)
  4278  013CB0  6E8B               	movwf	((c:3979)),c	;volatile
  4279                           	line	739
  4280                           ;main.c: 739: } else if (led_array[0] == 1 && le
                                 d_array[1] == 1 && led_array[11] == 1) {
  4281  013CB2  EFFF  F09F         	goto	l879
  4282                           	
  4283  013CB6                     l970:		; BSR set to: ?
  4284                           
  4285  013CB6  0400               	decf	((c:0)),c,w
  4286  013CB8  1001               	iorwf ((c:0+1)),c,w
  4287                           
  4288  013CBA  A4D8               	btfss	status,2
  4289  013CBC  EF62  F09E         	goto	u5981
  4290  013CC0  EF64  F09E         	goto	u5980
  4291  013CC4                     u5981:
  4292  013CC4  EF7D  F09E         	goto	l972
  4293  013CC8                     u5980:
  4294  013CC8  0402               	decf	(0+((c:0)+02h)),c,w
  4295  013CCA  1003               	iorwf (1+((c:0)+02h)),c,w
  4296                           
  4297  013CCC  A4D8               	btfss	status,2
  4298  013CCE  EF6B  F09E         	goto	u5991
  4299  013CD2  EF6D  F09E         	goto	u5990
  4300  013CD6                     u5991:
  4301  013CD6  EF7D  F09E         	goto	l972
  4302  013CDA                     u5990:
  4303  013CDA  0416               	decf	(0+((c:0)+016h)),c,w
  4304  013CDC  1017               	iorwf (1+((c:0)+016h)),c,w
  4305                           
  4306  013CDE  A4D8               	btfss	status,2
  4307  013CE0  EF74  F09E         	goto	u6001
  4308  013CE4  EF76  F09E         	goto	u6000
  4309  013CE8                     u6001:
  4310  013CE8  EF7D  F09E         	goto	l972
  4311  013CEC                     u6000:
  4312                           	line	742
  4313                           ;main.c: 742: LATA = 0b11111111;
  4314  013CEC  6889               	setf	((c:3977)),c	;volatile
  4315                           	line	744
  4316                           ;main.c: 744: LATB = 0b10000000;
  4317  013CEE  0E80               	movlw	low(080h)
  4318  013CF0  6E8A               	movwf	((c:3978)),c	;volatile
  4319                           	line	746
  4320                           ;main.c: 746: LATC = 0b00111011;
  4321  013CF2  0E3B               	movlw	low(03Bh)
  4322  013CF4  6E8B               	movwf	((c:3979)),c	;volatile
  4323                           	line	747
  4324                           ;main.c: 747: } else if (led_array[0] == 1 && le
                                 d_array[1] == 1 && led_array[12] == 1) {
  4325  013CF6  EFFF  F09F         	goto	l879
  4326                           	
  4327  013CFA                     l972:		; BSR set to: ?
  4328                           
  4329  013CFA  0400               	decf	((c:0)),c,w
  4330  013CFC  1001               	iorwf ((c:0+1)),c,w
  4331                           
  4332  013CFE  A4D8               	btfss	status,2
  4333  013D00  EF84  F09E         	goto	u6011
  4334  013D04  EF86  F09E         	goto	u6010
  4335  013D08                     u6011:
  4336  013D08  EF9F  F09E         	goto	l974
  4337  013D0C                     u6010:
  4338  013D0C  0402               	decf	(0+((c:0)+02h)),c,w
  4339  013D0E  1003               	iorwf (1+((c:0)+02h)),c,w
  4340                           
  4341  013D10  A4D8               	btfss	status,2
  4342  013D12  EF8D  F09E         	goto	u6021
  4343  013D16  EF8F  F09E         	goto	u6020
  4344  013D1A                     u6021:
  4345  013D1A  EF9F  F09E         	goto	l974
  4346  013D1E                     u6020:
  4347  013D1E  0418               	decf	(0+((c:0)+018h)),c,w
  4348  013D20  1019               	iorwf (1+((c:0)+018h)),c,w
  4349                           
  4350  013D22  A4D8               	btfss	status,2
  4351  013D24  EF96  F09E         	goto	u6031
  4352  013D28  EF98  F09E         	goto	u6030
  4353  013D2C                     u6031:
  4354  013D2C  EF9F  F09E         	goto	l974
  4355  013D30                     u6030:
  4356                           	line	750
  4357                           ;main.c: 750: LATA = 0b11111111;
  4358  013D30  6889               	setf	((c:3977)),c	;volatile
  4359                           	line	752
  4360                           ;main.c: 752: LATB = 0b10000000;
  4361  013D32  0E80               	movlw	low(080h)
  4362  013D34  6E8A               	movwf	((c:3978)),c	;volatile
  4363                           	line	754
  4364                           ;main.c: 754: LATC = 0b00110111;
  4365  013D36  0E37               	movlw	low(037h)
  4366  013D38  6E8B               	movwf	((c:3979)),c	;volatile
  4367                           	line	756
  4368                           ;main.c: 756: } else if (led_array[0] == 1 && le
                                 d_array[6] == 1) {
  4369  013D3A  EFFF  F09F         	goto	l879
  4370                           	
  4371  013D3E                     l974:		; BSR set to: ?
  4372                           
  4373  013D3E  0400               	decf	((c:0)),c,w
  4374  013D40  1001               	iorwf ((c:0+1)),c,w
  4375                           
  4376  013D42  A4D8               	btfss	status,2
  4377  013D44  EFA6  F09E         	goto	u6041
  4378  013D48  EFA8  F09E         	goto	u6040
  4379  013D4C                     u6041:
  4380  013D4C  EFB9  F09E         	goto	l976
  4381  013D50                     u6040:
  4382  013D50  040C               	decf	(0+((c:0)+0Ch)),c,w
  4383  013D52  100D               	iorwf (1+((c:0)+0Ch)),c,w
  4384                           
  4385  013D54  A4D8               	btfss	status,2
  4386  013D56  EFAF  F09E         	goto	u6051
  4387  013D5A  EFB1  F09E         	goto	u6050
  4388  013D5E                     u6051:
  4389  013D5E  EFB9  F09E         	goto	l976
  4390  013D62                     u6050:
  4391                           	line	759
  4392                           ;main.c: 759: LATA = 0b11101111;
  4393  013D62  0EEF               	movlw	low(0EFh)
  4394  013D64  6E89               	movwf	((c:3977)),c	;volatile
  4395                           	line	761
  4396                           ;main.c: 761: LATB = 0b10000000;
  4397  013D66  0E80               	movlw	low(080h)
  4398  013D68  6E8A               	movwf	((c:3978)),c	;volatile
  4399                           	line	763
  4400                           ;main.c: 763: LATC = 0b00011111;
  4401  013D6A  0E1F               	movlw	low(01Fh)
  4402  013D6C  6E8B               	movwf	((c:3979)),c	;volatile
  4403                           	line	765
  4404                           ;main.c: 765: } else if (led_array[0] == 1 && le
                                 d_array[7] == 1) {
  4405  013D6E  EFFF  F09F         	goto	l879
  4406                           	
  4407  013D72                     l976:		; BSR set to: ?
  4408                           
  4409  013D72  0400               	decf	((c:0)),c,w
  4410  013D74  1001               	iorwf ((c:0+1)),c,w
  4411                           
  4412  013D76  A4D8               	btfss	status,2
  4413  013D78  EFC0  F09E         	goto	u6061
  4414  013D7C  EFC2  F09E         	goto	u6060
  4415  013D80                     u6061:
  4416  013D80  EFD3  F09E         	goto	l978
  4417  013D84                     u6060:
  4418  013D84  040E               	decf	(0+((c:0)+0Eh)),c,w
  4419  013D86  100F               	iorwf (1+((c:0)+0Eh)),c,w
  4420                           
  4421  013D88  A4D8               	btfss	status,2
  4422  013D8A  EFC9  F09E         	goto	u6071
  4423  013D8E  EFCB  F09E         	goto	u6070
  4424  013D92                     u6071:
  4425  013D92  EFD3  F09E         	goto	l978
  4426  013D96                     u6070:
  4427                           	line	768
  4428                           ;main.c: 768: LATA = 0b10111111;
  4429  013D96  0EBF               	movlw	low(0BFh)
  4430  013D98  6E89               	movwf	((c:3977)),c	;volatile
  4431                           	line	770
  4432                           ;main.c: 770: LATB = 0b10000000;
  4433  013D9A  0E80               	movlw	low(080h)
  4434  013D9C  6E8A               	movwf	((c:3978)),c	;volatile
  4435                           	line	772
  4436                           ;main.c: 772: LATC = 0b00011111;
  4437  013D9E  0E1F               	movlw	low(01Fh)
  4438  013DA0  6E8B               	movwf	((c:3979)),c	;volatile
  4439                           	line	774
  4440                           ;main.c: 774: } else if (led_array[0] == 1 && le
                                 d_array[8] == 1) {
  4441  013DA2  EFFF  F09F         	goto	l879
  4442                           	
  4443  013DA6                     l978:		; BSR set to: ?
  4444                           
  4445  013DA6  0400               	decf	((c:0)),c,w
  4446  013DA8  1001               	iorwf ((c:0+1)),c,w
  4447                           
  4448  013DAA  A4D8               	btfss	status,2
  4449  013DAC  EFDA  F09E         	goto	u6081
  4450  013DB0  EFDC  F09E         	goto	u6080
  4451  013DB4                     u6081:
  4452  013DB4  EFEC  F09E         	goto	l980
  4453  013DB8                     u6080:
  4454  013DB8  0410               	decf	(0+((c:0)+010h)),c,w
  4455  013DBA  1011               	iorwf (1+((c:0)+010h)),c,w
  4456                           
  4457  013DBC  A4D8               	btfss	status,2
  4458  013DBE  EFE3  F09E         	goto	u6091
  4459  013DC2  EFE5  F09E         	goto	u6090
  4460  013DC6                     u6091:
  4461  013DC6  EFEC  F09E         	goto	l980
  4462  013DCA                     u6090:
  4463                           	line	777
  4464                           ;main.c: 777: LATA = 0b11111111;
  4465  013DCA  6889               	setf	((c:3977)),c	;volatile
  4466                           	line	779
  4467                           ;main.c: 779: LATB = 0b10000000;
  4468  013DCC  0E80               	movlw	low(080h)
  4469  013DCE  6E8A               	movwf	((c:3978)),c	;volatile
  4470                           	line	781
  4471                           ;main.c: 781: LATC = 0b00011110;
  4472  013DD0  0E1E               	movlw	low(01Eh)
  4473  013DD2  6E8B               	movwf	((c:3979)),c	;volatile
  4474                           	line	783
  4475                           ;main.c: 783: } else if (led_array[0] == 1 && le
                                 d_array[9] == 1) {
  4476  013DD4  EFFF  F09F         	goto	l879
  4477                           	
  4478  013DD8                     l980:		; BSR set to: ?
  4479                           
  4480  013DD8  0400               	decf	((c:0)),c,w
  4481  013DDA  1001               	iorwf ((c:0+1)),c,w
  4482                           
  4483  013DDC  A4D8               	btfss	status,2
  4484  013DDE  EFF3  F09E         	goto	u6101
  4485  013DE2  EFF5  F09E         	goto	u6100
  4486  013DE6                     u6101:
  4487  013DE6  EF05  F09F         	goto	l982
  4488  013DEA                     u6100:
  4489  013DEA  0412               	decf	(0+((c:0)+012h)),c,w
  4490  013DEC  1013               	iorwf (1+((c:0)+012h)),c,w
  4491                           
  4492  013DEE  A4D8               	btfss	status,2
  4493  013DF0  EFFC  F09E         	goto	u6111
  4494  013DF4  EFFE  F09E         	goto	u6110
  4495  013DF8                     u6111:
  4496  013DF8  EF05  F09F         	goto	l982
  4497  013DFC                     u6110:
  4498                           	line	786
  4499                           ;main.c: 786: LATA = 0b11111111;
  4500  013DFC  6889               	setf	((c:3977)),c	;volatile
  4501                           	line	788
  4502                           ;main.c: 788: LATB = 0b10000000;
  4503  013DFE  0E80               	movlw	low(080h)
  4504  013E00  6E8A               	movwf	((c:3978)),c	;volatile
  4505                           	line	790
  4506                           ;main.c: 790: LATC = 0b00011101;
  4507  013E02  0E1D               	movlw	low(01Dh)
  4508  013E04  6E8B               	movwf	((c:3979)),c	;volatile
  4509                           	line	792
  4510                           ;main.c: 792: } else if (led_array[0] == 1 && le
                                 d_array[10] == 1) {
  4511  013E06  EFFF  F09F         	goto	l879
  4512                           	
  4513  013E0A                     l982:		; BSR set to: ?
  4514                           
  4515  013E0A  0400               	decf	((c:0)),c,w
  4516  013E0C  1001               	iorwf ((c:0+1)),c,w
  4517                           
  4518  013E0E  A4D8               	btfss	status,2
  4519  013E10  EF0C  F09F         	goto	u6121
  4520  013E14  EF0E  F09F         	goto	u6120
  4521  013E18                     u6121:
  4522  013E18  EF1E  F09F         	goto	l984
  4523  013E1C                     u6120:
  4524  013E1C  0414               	decf	(0+((c:0)+014h)),c,w
  4525  013E1E  1015               	iorwf (1+((c:0)+014h)),c,w
  4526                           
  4527  013E20  A4D8               	btfss	status,2
  4528  013E22  EF15  F09F         	goto	u6131
  4529  013E26  EF17  F09F         	goto	u6130
  4530  013E2A                     u6131:
  4531  013E2A  EF1E  F09F         	goto	l984
  4532  013E2E                     u6130:
  4533                           	line	795
  4534                           ;main.c: 795: LATA = 0b11111111;
  4535  013E2E  6889               	setf	((c:3977)),c	;volatile
  4536                           	line	797
  4537                           ;main.c: 797: LATB = 0b00000000;
  4538  013E30  0E00               	movlw	low(0)
  4539  013E32  6E8A               	movwf	((c:3978)),c	;volatile
  4540                           	line	799
  4541                           ;main.c: 799: LATC = 0b00011111;
  4542  013E34  0E1F               	movlw	low(01Fh)
  4543  013E36  6E8B               	movwf	((c:3979)),c	;volatile
  4544                           	line	801
  4545                           ;main.c: 801: } else if (led_array[0] == 1 && le
                                 d_array[11] == 1) {
  4546  013E38  EFFF  F09F         	goto	l879
  4547                           	
  4548  013E3C                     l984:		; BSR set to: ?
  4549                           
  4550  013E3C  0400               	decf	((c:0)),c,w
  4551  013E3E  1001               	iorwf ((c:0+1)),c,w
  4552                           
  4553  013E40  A4D8               	btfss	status,2
  4554  013E42  EF25  F09F         	goto	u6141
  4555  013E46  EF27  F09F         	goto	u6140
  4556  013E4A                     u6141:
  4557  013E4A  EF37  F09F         	goto	l986
  4558  013E4E                     u6140:
  4559  013E4E  0416               	decf	(0+((c:0)+016h)),c,w
  4560  013E50  1017               	iorwf (1+((c:0)+016h)),c,w
  4561                           
  4562  013E52  A4D8               	btfss	status,2
  4563  013E54  EF2E  F09F         	goto	u6151
  4564  013E58  EF30  F09F         	goto	u6150
  4565  013E5C                     u6151:
  4566  013E5C  EF37  F09F         	goto	l986
  4567  013E60                     u6150:
  4568                           	line	804
  4569                           ;main.c: 804: LATA = 0b11111111;
  4570  013E60  6889               	setf	((c:3977)),c	;volatile
  4571                           	line	806
  4572                           ;main.c: 806: LATB = 0b10000000;
  4573  013E62  0E80               	movlw	low(080h)
  4574  013E64  6E8A               	movwf	((c:3978)),c	;volatile
  4575                           	line	808
  4576                           ;main.c: 808: LATC = 0b00011011;
  4577  013E66  0E1B               	movlw	low(01Bh)
  4578  013E68  6E8B               	movwf	((c:3979)),c	;volatile
  4579                           	line	810
  4580                           ;main.c: 810: } else if (led_array[0] == 1 && le
                                 d_array[12] == 1) {
  4581  013E6A  EFFF  F09F         	goto	l879
  4582                           	
  4583  013E6E                     l986:		; BSR set to: ?
  4584                           
  4585  013E6E  0400               	decf	((c:0)),c,w
  4586  013E70  1001               	iorwf ((c:0+1)),c,w
  4587                           
  4588  013E72  A4D8               	btfss	status,2
  4589  013E74  EF3E  F09F         	goto	u6161
  4590  013E78  EF40  F09F         	goto	u6160
  4591  013E7C                     u6161:
  4592  013E7C  EF50  F09F         	goto	l988
  4593  013E80                     u6160:
  4594  013E80  0418               	decf	(0+((c:0)+018h)),c,w
  4595  013E82  1019               	iorwf (1+((c:0)+018h)),c,w
  4596                           
  4597  013E84  A4D8               	btfss	status,2
  4598  013E86  EF47  F09F         	goto	u6171
  4599  013E8A  EF49  F09F         	goto	u6170
  4600  013E8E                     u6171:
  4601  013E8E  EF50  F09F         	goto	l988
  4602  013E92                     u6170:
  4603                           	line	813
  4604                           ;main.c: 813: LATA = 0b11111111;
  4605  013E92  6889               	setf	((c:3977)),c	;volatile
  4606                           	line	815
  4607                           ;main.c: 815: LATB = 0b10000000;
  4608  013E94  0E80               	movlw	low(080h)
  4609  013E96  6E8A               	movwf	((c:3978)),c	;volatile
  4610                           	line	817
  4611                           ;main.c: 817: LATC = 0b00010111;
  4612  013E98  0E17               	movlw	low(017h)
  4613  013E9A  6E8B               	movwf	((c:3979)),c	;volatile
  4614                           	line	819
  4615                           ;main.c: 819: } else if (led_array[1] == 1 && le
                                 d_array[6] == 1) {
  4616  013E9C  EFFF  F09F         	goto	l879
  4617                           	
  4618  013EA0                     l988:		; BSR set to: ?
  4619                           
  4620  013EA0  0402               	decf	(0+((c:0)+02h)),c,w
  4621  013EA2  1003               	iorwf (1+((c:0)+02h)),c,w
  4622                           
  4623  013EA4  A4D8               	btfss	status,2
  4624  013EA6  EF57  F09F         	goto	u6181
  4625  013EAA  EF59  F09F         	goto	u6180
  4626  013EAE                     u6181:
  4627  013EAE  EF6A  F09F         	goto	l990
  4628  013EB2                     u6180:
  4629  013EB2  040C               	decf	(0+((c:0)+0Ch)),c,w
  4630  013EB4  100D               	iorwf (1+((c:0)+0Ch)),c,w
  4631                           
  4632  013EB6  A4D8               	btfss	status,2
  4633  013EB8  EF60  F09F         	goto	u6191
  4634  013EBC  EF62  F09F         	goto	u6190
  4635  013EC0                     u6191:
  4636  013EC0  EF6A  F09F         	goto	l990
  4637  013EC4                     u6190:
  4638                           	line	822
  4639                           ;main.c: 822: LATA = 0b11101111;
  4640  013EC4  0EEF               	movlw	low(0EFh)
  4641  013EC6  6E89               	movwf	((c:3977)),c	;volatile
  4642                           	line	824
  4643                           ;main.c: 824: LATB = 0b10000000;
  4644  013EC8  0E80               	movlw	low(080h)
  4645  013ECA  6E8A               	movwf	((c:3978)),c	;volatile
  4646                           	line	826
  4647                           ;main.c: 826: LATC = 0b00101111;
  4648  013ECC  0E2F               	movlw	low(02Fh)
  4649  013ECE  6E8B               	movwf	((c:3979)),c	;volatile
  4650                           	line	828
  4651                           ;main.c: 828: } else if (led_array[1] == 1 && le
                                 d_array[7] == 1) {
  4652  013ED0  EFFF  F09F         	goto	l879
  4653                           	
  4654  013ED4                     l990:		; BSR set to: ?
  4655                           
  4656  013ED4  0402               	decf	(0+((c:0)+02h)),c,w
  4657  013ED6  1003               	iorwf (1+((c:0)+02h)),c,w
  4658                           
  4659  013ED8  A4D8               	btfss	status,2
  4660  013EDA  EF71  F09F         	goto	u6201
  4661  013EDE  EF73  F09F         	goto	u6200
  4662  013EE2                     u6201:
  4663  013EE2  EF84  F09F         	goto	l992
  4664  013EE6                     u6200:
  4665  013EE6  040E               	decf	(0+((c:0)+0Eh)),c,w
  4666  013EE8  100F               	iorwf (1+((c:0)+0Eh)),c,w
  4667                           
  4668  013EEA  A4D8               	btfss	status,2
  4669  013EEC  EF7A  F09F         	goto	u6211
  4670  013EF0  EF7C  F09F         	goto	u6210
  4671  013EF4                     u6211:
  4672  013EF4  EF84  F09F         	goto	l992
  4673  013EF8                     u6210:
  4674                           	line	831
  4675                           ;main.c: 831: LATA = 0b10111111;
  4676  013EF8  0EBF               	movlw	low(0BFh)
  4677  013EFA  6E89               	movwf	((c:3977)),c	;volatile
  4678                           	line	833
  4679                           ;main.c: 833: LATB = 0b10000000;
  4680  013EFC  0E80               	movlw	low(080h)
  4681  013EFE  6E8A               	movwf	((c:3978)),c	;volatile
  4682                           	line	835
  4683                           ;main.c: 835: LATC = 0b00101111;
  4684  013F00  0E2F               	movlw	low(02Fh)
  4685  013F02  6E8B               	movwf	((c:3979)),c	;volatile
  4686                           	line	837
  4687                           ;main.c: 837: } else if (led_array[1] == 1 && le
                                 d_array[8] == 1) {
  4688  013F04  EFFF  F09F         	goto	l879
  4689                           	
  4690  013F08                     l992:		; BSR set to: ?
  4691                           
  4692  013F08  0402               	decf	(0+((c:0)+02h)),c,w
  4693  013F0A  1003               	iorwf (1+((c:0)+02h)),c,w
  4694                           
  4695  013F0C  A4D8               	btfss	status,2
  4696  013F0E  EF8B  F09F         	goto	u6221
  4697  013F12  EF8D  F09F         	goto	u6220
  4698  013F16                     u6221:
  4699  013F16  EF9D  F09F         	goto	l994
  4700  013F1A                     u6220:
  4701  013F1A  0410               	decf	(0+((c:0)+010h)),c,w
  4702  013F1C  1011               	iorwf (1+((c:0)+010h)),c,w
  4703                           
  4704  013F1E  A4D8               	btfss	status,2
  4705  013F20  EF94  F09F         	goto	u6231
  4706  013F24  EF96  F09F         	goto	u6230
  4707  013F28                     u6231:
  4708  013F28  EF9D  F09F         	goto	l994
  4709  013F2C                     u6230:
  4710                           	line	840
  4711                           ;main.c: 840: LATA = 0b11111111;
  4712  013F2C  6889               	setf	((c:3977)),c	;volatile
  4713                           	line	842
  4714                           ;main.c: 842: LATB = 0b10000000;
  4715  013F2E  0E80               	movlw	low(080h)
  4716  013F30  6E8A               	movwf	((c:3978)),c	;volatile
  4717                           	line	844
  4718                           ;main.c: 844: LATC = 0b00101110;
  4719  013F32  0E2E               	movlw	low(02Eh)
  4720  013F34  6E8B               	movwf	((c:3979)),c	;volatile
  4721                           	line	846
  4722                           ;main.c: 846: } else if (led_array[1] == 1 && le
                                 d_array[9] == 1) {
  4723  013F36  EFFF  F09F         	goto	l879
  4724                           	
  4725  013F3A                     l994:		; BSR set to: ?
  4726                           
  4727  013F3A  0402               	decf	(0+((c:0)+02h)),c,w
  4728  013F3C  1003               	iorwf (1+((c:0)+02h)),c,w
  4729                           
  4730  013F3E  A4D8               	btfss	status,2
  4731  013F40  EFA4  F09F         	goto	u6241
  4732  013F44  EFA6  F09F         	goto	u6240
  4733  013F48                     u6241:
  4734  013F48  EFB6  F09F         	goto	l996
  4735  013F4C                     u6240:
  4736  013F4C  0412               	decf	(0+((c:0)+012h)),c,w
  4737  013F4E  1013               	iorwf (1+((c:0)+012h)),c,w
  4738                           
  4739  013F50  A4D8               	btfss	status,2
  4740  013F52  EFAD  F09F         	goto	u6251
  4741  013F56  EFAF  F09F         	goto	u6250
  4742  013F5A                     u6251:
  4743  013F5A  EFB6  F09F         	goto	l996
  4744  013F5E                     u6250:
  4745                           	line	849
  4746                           ;main.c: 849: LATA = 0b11111111;
  4747  013F5E  6889               	setf	((c:3977)),c	;volatile
  4748                           	line	851
  4749                           ;main.c: 851: LATB = 0b10000000;
  4750  013F60  0E80               	movlw	low(080h)
  4751  013F62  6E8A               	movwf	((c:3978)),c	;volatile
  4752                           	line	853
  4753                           ;main.c: 853: LATC = 0b00101101;
  4754  013F64  0E2D               	movlw	low(02Dh)
  4755  013F66  6E8B               	movwf	((c:3979)),c	;volatile
  4756                           	line	855
  4757                           ;main.c: 855: } else if (led_array[1] == 1 && le
                                 d_array[10] == 1) {
  4758  013F68  EFFF  F09F         	goto	l879
  4759                           	
  4760  013F6C                     l996:		; BSR set to: ?
  4761                           
  4762  013F6C  0402               	decf	(0+((c:0)+02h)),c,w
  4763  013F6E  1003               	iorwf (1+((c:0)+02h)),c,w
  4764                           
  4765  013F70  A4D8               	btfss	status,2
  4766  013F72  EFBD  F09F         	goto	u6261
  4767  013F76  EFBF  F09F         	goto	u6260
  4768  013F7A                     u6261:
  4769  013F7A  EFCF  F09F         	goto	l998
  4770  013F7E                     u6260:
  4771  013F7E  0414               	decf	(0+((c:0)+014h)),c,w
  4772  013F80  1015               	iorwf (1+((c:0)+014h)),c,w
  4773                           
  4774  013F82  A4D8               	btfss	status,2
  4775  013F84  EFC6  F09F         	goto	u6271
  4776  013F88  EFC8  F09F         	goto	u6270
  4777  013F8C                     u6271:
  4778  013F8C  EFCF  F09F         	goto	l998
  4779  013F90                     u6270:
  4780                           	line	858
  4781                           ;main.c: 858: LATA = 0b11111111;
  4782  013F90  6889               	setf	((c:3977)),c	;volatile
  4783                           	line	860
  4784                           ;main.c: 860: LATB = 0b00000000;
  4785  013F92  0E00               	movlw	low(0)
  4786  013F94  6E8A               	movwf	((c:3978)),c	;volatile
  4787                           	line	862
  4788                           ;main.c: 862: LATC = 0b00101111;
  4789  013F96  0E2F               	movlw	low(02Fh)
  4790  013F98  6E8B               	movwf	((c:3979)),c	;volatile
  4791                           	line	864
  4792                           ;main.c: 864: } else if (led_array[1] == 1 && le
                                 d_array[11] == 1) {
  4793  013F9A  EFFF  F09F         	goto	l879
  4794                           	
  4795  013F9E                     l998:		; BSR set to: ?
  4796                           
  4797  013F9E  0402               	decf	(0+((c:0)+02h)),c,w
  4798  013FA0  1003               	iorwf (1+((c:0)+02h)),c,w
  4799                           
  4800  013FA2  A4D8               	btfss	status,2
  4801  013FA4  EFD6  F09F         	goto	u6281
  4802  013FA8  EFD8  F09F         	goto	u6280
  4803  013FAC                     u6281:
  4804  013FAC  EFE8  F09F         	goto	l1000
  4805  013FB0                     u6280:
  4806  013FB0  0416               	decf	(0+((c:0)+016h)),c,w
  4807  013FB2  1017               	iorwf (1+((c:0)+016h)),c,w
  4808                           
  4809  013FB4  A4D8               	btfss	status,2
  4810  013FB6  EFDF  F09F         	goto	u6291
  4811  013FBA  EFE1  F09F         	goto	u6290
  4812  013FBE                     u6291:
  4813  013FBE  EFE8  F09F         	goto	l1000
  4814  013FC2                     u6290:
  4815                           	line	867
  4816                           ;main.c: 867: LATA = 0b11111111;
  4817  013FC2  6889               	setf	((c:3977)),c	;volatile
  4818                           	line	869
  4819                           ;main.c: 869: LATB = 0b10000000;
  4820  013FC4  0E80               	movlw	low(080h)
  4821  013FC6  6E8A               	movwf	((c:3978)),c	;volatile
  4822                           	line	871
  4823                           ;main.c: 871: LATC = 0b00101011;
  4824  013FC8  0E2B               	movlw	low(02Bh)
  4825  013FCA  6E8B               	movwf	((c:3979)),c	;volatile
  4826                           	line	873
  4827                           ;main.c: 873: } else if (led_array[1] == 1 && le
                                 d_array[12] == 1) {
  4828  013FCC  EFFF  F09F         	goto	l879
  4829                           	
  4830  013FD0                     l1000:		; BSR set to: ?
  4831                           
  4832  013FD0  0402               	decf	(0+((c:0)+02h)),c,w
  4833  013FD2  1003               	iorwf (1+((c:0)+02h)),c,w
  4834                           
  4835  013FD4  A4D8               	btfss	status,2
  4836  013FD6  EFEF  F09F         	goto	u6301
  4837  013FDA  EFF1  F09F         	goto	u6300
  4838  013FDE                     u6301:
  4839  013FDE  EFFF  F09F         	goto	l879
  4840  013FE2                     u6300:
  4841  013FE2  0418               	decf	(0+((c:0)+018h)),c,w
  4842  013FE4  1019               	iorwf (1+((c:0)+018h)),c,w
  4843                           
  4844  013FE6  A4D8               	btfss	status,2
  4845  013FE8  EFF8  F09F         	goto	u6311
  4846  013FEC  EFFA  F09F         	goto	u6310
  4847  013FF0                     u6311:
  4848  013FF0  EFFF  F09F         	goto	l879
  4849  013FF4                     u6310:
  4850                           	line	876
  4851                           ;main.c: 876: LATA = 0b11111111;
  4852  013FF4  6889               	setf	((c:3977)),c	;volatile
  4853                           	line	878
  4854                           ;main.c: 878: LATB = 0b10000000;
  4855  013FF6  0E80               	movlw	low(080h)
  4856  013FF8  6E8A               	movwf	((c:3978)),c	;volatile
  4857                           	line	880
  4858                           ;main.c: 880: LATC = 0b00100111;
  4859  013FFA  0E27               	movlw	low(027h)
  4860  013FFC  6E8B               	movwf	((c:3979)),c	;volatile
  4861                           	line	881
  4862                           	
  4863  013FFE                     l1002:		; BSR set to: ?
  4864                           
  4865                           	line	882
  4866                           	
  4867  013FFE                     l1001:		; BSR set to: ?
  4868                           
  4869                           	
  4870  013FFE                     l999:		; BSR set to: ?
  4871                           
  4872                           	
  4873  013FFE                     l997:		; BSR set to: ?
  4874                           
  4875                           	
  4876  013FFE                     l995:		; BSR set to: ?
  4877                           
  4878                           	
  4879  013FFE                     l993:		; BSR set to: ?
  4880                           
  4881                           	
  4882  013FFE                     l991:		; BSR set to: ?
  4883                           
  4884                           	
  4885  013FFE                     l989:		; BSR set to: ?
  4886                           
  4887                           	
  4888  013FFE                     l987:		; BSR set to: ?
  4889                           
  4890                           	
  4891  013FFE                     l985:		; BSR set to: ?
  4892                           
  4893                           	
  4894  013FFE                     l983:		; BSR set to: ?
  4895                           
  4896                           	
  4897  013FFE                     l981:		; BSR set to: ?
  4898                           
  4899                           	
  4900  013FFE                     l979:		; BSR set to: ?
  4901                           
  4902                           	
  4903  013FFE                     l977:		; BSR set to: ?
  4904                           
  4905                           	
  4906  013FFE                     l975:		; BSR set to: ?
  4907                           
  4908                           	
  4909  013FFE                     l973:		; BSR set to: ?
  4910                           
  4911                           	
  4912  013FFE                     l971:		; BSR set to: ?
  4913                           
  4914                           	
  4915  013FFE                     l969:		; BSR set to: ?
  4916                           
  4917                           	
  4918  013FFE                     l967:		; BSR set to: ?
  4919                           
  4920                           	
  4921  013FFE                     l965:		; BSR set to: ?
  4922                           
  4923                           	
  4924  013FFE                     l963:		; BSR set to: ?
  4925                           
  4926                           	
  4927  013FFE                     l961:		; BSR set to: ?
  4928                           
  4929                           	
  4930  013FFE                     l959:		; BSR set to: ?
  4931                           
  4932                           	
  4933  013FFE                     l957:		; BSR set to: ?
  4934                           
  4935                           	
  4936  013FFE                     l955:		; BSR set to: ?
  4937                           
  4938                           	
  4939  013FFE                     l953:		; BSR set to: ?
  4940                           
  4941                           	
  4942  013FFE                     l951:		; BSR set to: ?
  4943                           
  4944                           	
  4945  013FFE                     l949:		; BSR set to: ?
  4946                           
  4947                           	
  4948  013FFE                     l947:		; BSR set to: ?
  4949                           
  4950                           	
  4951  013FFE                     l945:		; BSR set to: ?
  4952                           
  4953                           	
  4954  013FFE                     l943:		; BSR set to: ?
  4955                           
  4956                           	
  4957  013FFE                     l941:		; BSR set to: ?
  4958                           
  4959                           	
  4960  013FFE                     l939:		; BSR set to: ?
  4961                           
  4962                           	
  4963  013FFE                     l937:		; BSR set to: ?
  4964                           
  4965                           	
  4966  013FFE                     l935:		; BSR set to: ?
  4967                           
  4968                           	
  4969  013FFE                     l933:		; BSR set to: ?
  4970                           
  4971                           	
  4972  013FFE                     l931:		; BSR set to: ?
  4973                           
  4974                           	
  4975  013FFE                     l929:		; BSR set to: ?
  4976                           
  4977                           	
  4978  013FFE                     l927:		; BSR set to: ?
  4979                           
  4980                           	
  4981  013FFE                     l925:		; BSR set to: ?
  4982                           
  4983                           	
  4984  013FFE                     l923:		; BSR set to: ?
  4985                           
  4986                           	
  4987  013FFE                     l921:		; BSR set to: ?
  4988                           
  4989                           	
  4990  013FFE                     l919:		; BSR set to: ?
  4991                           
  4992                           	
  4993  013FFE                     l917:		; BSR set to: ?
  4994                           
  4995                           	
  4996  013FFE                     l915:		; BSR set to: ?
  4997                           
  4998                           	
  4999  013FFE                     l913:		; BSR set to: ?
  5000                           
  5001                           	
  5002  013FFE                     l911:		; BSR set to: ?
  5003                           
  5004                           	
  5005  013FFE                     l909:		; BSR set to: ?
  5006                           
  5007                           	
  5008  013FFE                     l907:		; BSR set to: ?
  5009                           
  5010                           	
  5011  013FFE                     l905:		; BSR set to: ?
  5012                           
  5013                           	
  5014  013FFE                     l903:		; BSR set to: ?
  5015                           
  5016                           	
  5017  013FFE                     l901:		; BSR set to: ?
  5018                           
  5019                           	
  5020  013FFE                     l899:		; BSR set to: ?
  5021                           
  5022                           	
  5023  013FFE                     l897:		; BSR set to: ?
  5024                           
  5025                           	
  5026  013FFE                     l895:		; BSR set to: ?
  5027                           
  5028                           	
  5029  013FFE                     l893:		; BSR set to: ?
  5030                           
  5031                           	
  5032  013FFE                     l891:		; BSR set to: ?
  5033                           
  5034                           	
  5035  013FFE                     l889:		; BSR set to: ?
  5036                           
  5037                           	
  5038  013FFE                     l887:		; BSR set to: ?
  5039                           
  5040                           	
  5041  013FFE                     l885:		; BSR set to: ?
  5042                           
  5043                           	
  5044  013FFE                     l883:		; BSR set to: ?
  5045                           
  5046                           	
  5047  013FFE                     l881:		; BSR set to: ?
  5048                           
  5049                           	
  5050  013FFE                     l879:		; BSR set to: ?
  5051                           
  5052                           ;main.c: 881: }
  5053                           ;main.c: 882: }
  5054  013FFE                     l877:
  5055                           			; BSR set to: ?
  5056                           
  5057  013FFE  0012               	return
  5058                           	opt stack 0
  5059                           GLOBAL __end_of_ToggleLeds
  5060  014000                     	__end_of_ToggleLeds:
  5061                           	FNSIZE	_ToggleLeds,0,0
  5062                           ; =============== function _ToggleLeds ends ====
                                 ========
  5063                           
  5064                           	signat	_ToggleLeds,88
  5065                           	FNCALL	_main,_ToggleLeds
  5066                           	FNCALL	_main,_testToggle
  5067                           	FNCALL	_testToggle,_ToggleLeds
  5068                           	FNCALL	_testToggle,_DelayMs
  5069                           	FNROOT	_main
  5070                                   psect   const,class=CODE,space=0,reloc=2
  5071                           	global	_led_array
  5072                           	global	_led_array
  5073  000000                     _led_array  equ     0
  5074                           
  5075                           	DABS	1,0,26	;_led_array
  5076                           	global	_cur_inputs
  5077                           	global	_cur_inputs
  5078  000000                     _cur_inputs  equ     26
  5079                           
  5080                           	DABS	1,26,14	;_cur_inputs
  5081                           	global	_prev_inputs
  5082                           	global	_prev_inputs
  5083  000000                     _prev_inputs  equ     51
  5084                           
  5085                           	DABS	1,51,14	;_prev_inputs
  5086                           	global	_conv_result
  5087                           	global	_conv_result
  5088  000000                     _conv_result  equ     42
  5089                           
  5090                           	DABS	1,42,4	;_conv_result
  5091                           	global	_index
  5092                           	global	_index
  5093  000000                     _index  equ     40
  5094                           
  5095                           	DABS	1,40,2	;_index
  5096                           	global	_USART_Status
  5097                           	global	_USART_Status
  5098  000000                     _USART_Status  equ     48
  5099                           
  5100                           	DABS	1,48,1	;_USART_Status
  5101                           	global	_adc_num
  5102                           	global	_adc_num
  5103  000000                     _adc_num  equ     46
  5104                           
  5105                           	DABS	1,46,1	;_adc_num
  5106                           	global	_change_val
  5107                           	global	_change_val
  5108  000000                     _change_val  equ     47
  5109                           
  5110                           	DABS	1,47,1	;_change_val
  5111                           	global	_uart_in
  5112                           	global	_uart_in
  5113  000000                     _uart_in  equ     50
  5114                           
  5115                           	DABS	1,50,1	;_uart_in
  5116                           	global	_uart_out
  5117                           	global	_uart_out
  5118  000000                     _uart_out  equ     49
  5119                           
  5120                           	DABS	1,49,1	;_uart_out
  5121                           	global	_ADRES
  5122  000000                     _ADRES	equ	0xFC3
  5123                           	global	_ADCON0
  5124  000000                     _ADCON0	equ	0xFC2
  5125                           	global	_ADCON1
  5126  000000                     _ADCON1	equ	0xFC1
  5127                           	global	_ADCON2
  5128  000000                     _ADCON2	equ	0xFC0
  5129                           	global	_ADRESH
  5130  000000                     _ADRESH	equ	0xFC4
  5131                           	global	_ADRESL
  5132  000000                     _ADRESL	equ	0xFC3
  5133                           	global	_BAUDCON
  5134  000000                     _BAUDCON	equ	0xFB8
  5135                           	global	_LATA
  5136  000000                     _LATA	equ	0xF89
  5137                           	global	_LATB
  5138  000000                     _LATB	equ	0xF8A
  5139                           	global	_LATC
  5140  000000                     _LATC	equ	0xF8B
  5141                           	global	_OSCCON
  5142  000000                     _OSCCON	equ	0xFD3
  5143                           	global	_RCREG
  5144  000000                     _RCREG	equ	0xFAE
  5145                           	global	_RCSTA
  5146  000000                     _RCSTA	equ	0xFAB
  5147                           	global	_SPBRG
  5148  000000                     _SPBRG	equ	0xFAF
  5149                           	global	_SPBRGH
  5150  000000                     _SPBRGH	equ	0xFB0
  5151                           	global	_TRISA
  5152  000000                     _TRISA	equ	0xF92
  5153                           	global	_TRISB
  5154  000000                     _TRISB	equ	0xF93
  5155                           	global	_TRISC
  5156  000000                     _TRISC	equ	0xF94
  5157                           	global	_TXREG
  5158  000000                     _TXREG	equ	0xFAD
  5159                           	global	_TXSTA
  5160  000000                     _TXSTA	equ	0xFAC
  5161                           	global	_ADON
  5162  000000                     _ADON	equ	0x7E10
  5163                           	global	_BRGH_x
  5164  000000                     _BRGH_x	equ	0x7D62
  5165                           	global	_CREN_x
  5166  000000                     _CREN_x	equ	0x7D5C
  5167                           	global	_CSRC_x
  5168  000000                     _CSRC_x	equ	0x7D67
  5169                           	global	_FERR
  5170  000000                     _FERR	equ	0x7D5A
  5171                           	global	_GODONE
  5172  000000                     _GODONE	equ	0x7E11
  5173                           	global	_OERR
  5174  000000                     _OERR	equ	0x7D59
  5175                           	global	_RCIE_x
  5176  000000                     _RCIE_x	equ	0x7CED
  5177                           	global	_RCIF
  5178  000000                     _RCIF	equ	0x7CF5
  5179                           	global	_RX9D
  5180  000000                     _RX9D	equ	0x7D58
  5181                           	global	_RX9_x
  5182  000000                     _RX9_x	equ	0x7D5E
  5183                           	global	_SENDB_x
  5184  000000                     _SENDB_x	equ	0x7D63
  5185                           	global	_SPEN_x
  5186  000000                     _SPEN_x	equ	0x7D5F
  5187                           	global	_SREN_x
  5188  000000                     _SREN_x	equ	0x7D5D
  5189                           	global	_SYNC_x
  5190  000000                     _SYNC_x	equ	0x7D64
  5191                           	global	_TRISC6
  5192  000000                     _TRISC6	equ	0x7CA6
  5193                           	global	_TRISC7
  5194  000000                     _TRISC7	equ	0x7CA7
  5195                           	global	_TRMT_x
  5196  000000                     _TRMT_x	equ	0x7D61
  5197                           	global	_TX9D
  5198  000000                     _TX9D	equ	0x7D60
  5199                           	global	_TX9_x
  5200  000000                     _TX9_x	equ	0x7D66
  5201                           	global	_TXEN_x
  5202  000000                     _TXEN_x	equ	0x7D65
  5203                           	global	_TXIE_x
  5204  000000                     _TXIE_x	equ	0x7CEC
  5205                           	global	_TXIF
  5206  000000                     _TXIF	equ	0x7CF4
  5207                           	psect	intsave_regs,class=BIGRAM,space=1
  5208                           	PSECT	param1,class=BANK1,space=1
  5209                           	GLOBAL	__Lparam1
  5210                           	FNCONF	param1,??,?
  5211                           	GLOBAL	__Labsbss0
  5212  000000                     __Labsbss0	EQU	0
  5213                           	GLOBAL	__Habsbss0
  5214  000000                     __Habsbss0	EQU	65
  5215                           GLOBAL	__Lparam, __Hparam
  5216                           GLOBAL	__Lparam1, __Hparam1
  5217  000000                     __Lparam	EQU	__Lparam1
  5218  000000                     __Hparam	EQU	__Hparam1


HI-TECH Software PICC-18 Macro Assembler V9.66 build 8870 
Symbol Table                                           Tue May 01 16:35:52 2012

                l900 34F4                  l901 3FFE  
                l910 35F2                  l902 3526  
                l903 3FFE                  l911 3FFE  
                l920 3700                  l912 3624  
                l904 3558                  l905 3FFE  
                l913 3FFE                  l921 3FFE  
                l930 3856                  l922 3746  
                l914 3656                  l906 358C  
                l907 3FFE                  l915 3FFE  
                l923 3FFE                  l931 3FFE  
                l940 3966                  l932 389A  
                l924 378A                  l916 3688  
                l908 35C0                  l909 3FFE  
                l917 3FFE                  l925 3FFE  
                l933 3FFE                  l941 3FFE  
                l950 3A64                  l942 3998  
                l934 38CE                  l926 37CE  
                l918 36BA                  l870 25A2  
                l919 3FFE                  l927 3FFE  
                l935 3FFE                  l943 3FFE  
                l951 3FFE                  l871 256C  
                l960 3B5E                  l952 3A96  
                l944 39CA                  l936 3902  
                l928 3812                  l880 32A2  
                l872 2568                  l881 3FFE  
                l929 3FFE                  l937 3FFE  
                l945 3FFE                  l953 3FFE  
                l961 3FFE                  l873 257C  
                l970 3CB6                  l962 3BA4  
                l954 3AC8                  l946 39FC  
                l938 3934                  l890 33F6  
                l882 32E6                  l874 25D2  
                l883 3FFE                  l891 3FFE  
                l939 3FFE                  l947 3FFE  
                l955 3FFE                  l963 3FFE  
                l971 3FFE                  l867 263A  
                l875 261A                  l980 3DD8  
                l972 3CFA                  l964 3BEA  
                l956 3AFA                  l948 3A30  
                l892 342A                  l884 332A  
                l868 25A2                  l877 3FFE  
                l885 3FFE                  l893 3FFE  
                l949 3FFE                  l957 3FFE  
                l965 3FFE                  l973 3FFE  
                l981 3FFE                  l990 3ED4  
                l982 3E0A                  l974 3D3E  
                l966 3C2E                  l958 3B2C  
                l894 345E                  l886 336E  
                l878 325C                  l887 3FFE  
                l895 3FFE                  l959 3FFE  
                l967 3FFE                  l975 3FFE  
                l983 3FFE                  l991 3FFE  
                l879 3FFE                  l992 3F08  
                l984 3E3C                  l976 3D72  
                l968 3C72                  l896 3490  
                l888 33B2                  l889 3FFE  
                l897 3FFE                  l969 3FFE  
                l977 3FFE                  l985 3FFE  
                l993 3FFE                  l994 3F3A  
                l986 3E6E                  l978 3DA6  
                l898 34C2                  l899 3FFE  
                l979 3FFE                  l987 3FFE  
                l995 3FFE                  l996 3F6C  
                l988 3EA0                  l989 3FFE  
                l997 3FFE                  l998 3F9E  
                l999 3FFE       testToggle@i_70 010E  
     testToggle@i_80 0118       testToggle@i_72 0110  
     testToggle@i_82 011A       testToggle@i_74 0112  
     testToggle@i_76 0114       testToggle@i_68 010C  
     testToggle@i_78 0116       testToggle@j_71 0120  
     testToggle@j_81 012A       testToggle@j_73 0122  
     testToggle@j_83 012C       testToggle@j_75 0124  
     testToggle@j_77 0126       testToggle@j_69 011E  
     testToggle@j_79 0128          main@channel 0104  
               l1000 3FD0                 l1001 3FFE  
               l1002 3FFE                 l1010 27C4  
               l1003 3214                 l1011 28E2  
               l1020 2986                 l1004 266E  
               l1013 27F2                 l1005 2794  
               l1022 2A60                 l1014 2838  
               l1031 2BE4                 l1023 2B86  
               l1007 269C                 l1040 2E52  
               l1032 2C2A                 l1016 2912  
               l1008 26E2                 l1041 2F78  
               l1025 2A8E                 l1017 2A30  
               l1050 301C                 l1034 2D04  
               l1026 2AD4                 l1043 2E80  
               l1035 2E22                 l1019 2940  
               l1052 30F6                 l1044 2EC6  
               l1028 2BB6                 l1053 3214  
               l1037 2D32                 l1029 2CD4  
               l1046 2FA8                 l1038 2D78  
               l1055 3124                 l1047 30C6  
               l1080 251C                 l1056 316A  
               l1081 24F0                 l1049 2FD6  
               l1082 2508                 l1075 2526  
               l1083 2504                 l1084 2512  
               l1077 2526                 l1078 24E0  
               _ADON 007E10                 _FERR 007D5A  
               _LATA 000F89                 _LATB 000F8A  
               _LATC 000F8B                 u5000 3380  
               u5001 337C                 u5010 3392  
               u5011 338E                 u5100 3470  
               u5020 33A4                 u5101 346C  
               u5021 33A0                 u5110 3482  
               u5030 33C4                 u5111 347E  
               u5031 33C0                 u6000 3CEC  
               u5200 356A                 u5120 34A2  
               u5040 33D6                 u6001 3CE8  
               u5201 3566                 u5121 349E  
               u5041 33D2                 u6010 3D0C  
               u5210 357C                 u5130 34B4  
               u5050 33E8                 u6011 3D08  
               u5211 3578                 u5131 34B0  
               u5051 33E4                 u6100 3DEA  
               u6020 3D1E                 u5300 3668  
               u5220 359E                 u5140 34D4  
               u5060 3408                 u4500 2698  
               u6101 3DE6                 u6021 3D1A  
               u5301 3664                 u5221 359A  
               u5141 34D0                 u5061 3404  
               u4501 2694                 u6110 3DFC  
               u6030 3D30                 u5310 367A  
               u5230 35B0                 u5150 34E6  
               u5070 341A                 u4510 26E2  
               u6111 3DF8                 u6031 3D2C  
               u5311 3676                 u5231 35AC  
               u5151 34E2                 u5071 3416  
               u4511 26DE                 u6200 3EE6  
               u6120 3E1C                 u6040 3D50  
               u5400 3758                 u5320 369A  
               u5240 35D2                 u5160 3506  
               u5080 343C                 u4600 2A30  
               u4520 2794                 u6201 3EE2  
               u6121 3E18                 u6041 3D4C  
               u5401 3754                 u5321 3696  
               u5241 35CE                 u5161 3502  
               u5081 3438                 u4601 2A2C  
               u4521 2790                 u6210 3EF8  
               u6130 3E2E                 u6050 3D62  
               u5410 376A                 u5330 36AC  
               u5250 35E4                 u5170 3518  
               u5090 344E                 u4610 2A5C  
               u4530 27C0                 u6211 3EF4  
               u6131 3E2A                 u6051 3D5E  
               u5411 3766                 u5331 36A8  
               u5251 35E0                 u5171 3514  
               u5091 344A                 u4611 2A58  
               u4531 27BC                 u6300 3FE2  
               u6220 3F1A                 u6140 3E4E  
               u6060 3D84                 u5500 3836  
               u5420 377C                 u5340 36CC  
               u5260 3604                 u5180 3538  
               u4700 2D2E                 u4620 2A8A  
               u4540 27EE                 u4460 257C  
               u6301 3FDE                 u6221 3F16  
               u6141 3E4A                 u6061 3D80  
               u5501 3832                 u5421 3778  
               u5341 36C8                 u5261 3600  
               u5181 3534                 u4701 2D2A  
               u4621 2A86                 u4541 27EA  
               u4461 2578                 u6310 3FF4  
               u6230 3F2C                 u6150 3E60  
               u6070 3D96                 u5510 3848  
               u5430 379C                 u5350 36DE  
               u5270 3616                 u5190 354A  
               u4710 2D78                 u4630 2AD4  
               u4550 2838                 u4470 25CE  
               u6311 3FF0                 u6231 3F28  
               u6151 3E5C                 u6071 3D92  
               u5511 3844                 u5431 3798  
               u5351 36DA                 u5271 3612  
               u5191 3546                 u4711 2D74  
               u4631 2AD0                 u4551 2834  
               u4471 25CA                 u6240 3F4C  
               u6160 3E80                 u6080 3DB8  
               u5600 3926                 u5520 3868  
               u5440 37AE                 u5360 36F0  
               u5280 3636                 u4800 30C6  
               u4720 2E22                 u4640 2B86  
               u4560 28E2                 u4480 261A  
               u6241 3F48                 u6161 3E7C  
               u6081 3DB4                 u5601 3922  
               u5521 3864                 u5441 37AA  
               u5361 36EC                 u5281 3632  
               u4801 30C2                 u4721 2E1E  
               u4641 2B82                 u4561 28DE  
               u4481 2616                 u6250 3F5E  
               u6170 3E92                 u6090 3DCA  
               u5610 3946                 u5530 387A  
               u5450 37C0                 u5370 3712  
               u5290 3648                 u4810 30F2  
               u4730 2E4E                 u4650 2BB2  
               u4570 290E                 u4490 266A  
               u6251 3F5A                 u6171 3E8E  
               u6091 3DC6                 u5611 3942  
               u5531 3876                 u5451 37BC  
               u5371 370E                 u5291 3644  
               u4811 30EE                 u4731 2E4A  
               u4651 2BAE                 u4571 290A  
               u4491 2666                 _RCIF 007CF5  
               u6260 3F7E                 u6180 3EB2  
               u5700 3A20                 u5620 3958  
               u5540 388C                 u5460 37E0  
               u5380 3724                 u4900 3292  
               u4820 3120                 u4740 2E7C  
               u4660 2BE0                 u4580 293C  
               u6261 3F7A                 u6181 3EAE  
               u5701 3A1C                 u5621 3954  
               u5541 3888                 u5461 37DC  
               u5381 3720                 u4901 328E  
               u4821 311C                 u4741 2E78  
               u4661 2BDC                 u4581 2938  
               u6270 3F90                 u6190 3EC4  
               u5710 3A42                 u5630 3978  
               u5550 38AC                 u5470 37F2  
               u5390 3736                 u4910 32B4  
               u4830 316A                 u4750 2EC6  
               u4670 2C2A                 u4590 2986  
               u6271 3F8C                 u6191 3EC0  
               u5711 3A3E                 u5631 3974  
               u5551 38A8                 u5471 37EE  
               u5391 3732                 u4911 32B0  
               u4831 3166                 u4751 2EC2  
               u4671 2C26                 u4591 2982  
               u6280 3FB0                 u5800 3B1E  
               u5720 3A54                 u5640 398A  
               u5560 38BE                 u5480 3804  
               u4920 32C6                 u4840 3214  
               u4760 2F78                 u4680 2CD4  
               u6281 3FAC                 u5801 3B1A  
               u5721 3A50                 u5641 3986  
               u5561 38BA                 u5481 3800  
               u4921 32C2                 u4841 3210  
               u4761 2F74                 u4681 2CD0  
               u6290 3FC2                 u5810 3B3E  
               u5730 3A76                 u5650 39AA  
               u5570 38E0                 u5490 3824  
               u4930 32D8                 u4850 3228  
               u4770 2FA4                 u4690 2D00  
               u6291 3FBE                 u5811 3B3A  
               u5731 3A72                 u5651 39A6  
               u5571 38DC                 u5491 3820  
               u4931 32D4                 u4851 3224  
               u4771 2FA0                 u4691 2CFC  
               u5900 3C0E                 u5820 3B50  
               u5740 3A88                 u5660 39BC  
               u5580 38F2                 u4940 32F8  
               u4860 323A                 u4780 2FD2  
               u5901 3C0A                 u5821 3B4C  
               u5741 3A84                 u5661 39B8  
               u5581 38EE                 u4941 32F4  
               u4861 3236                 u4781 2FCE  
               u5910 3C20                 u5830 3B70  
               u5750 3AA8                 u5670 39DC  
               u5590 3914                 u4950 330A  
               u4870 324C                 u4790 301C  
               u5911 3C1C                 u5831 3B6C  
               u5751 3AA4                 u5671 39D8  
               u5591 3910                 u4951 3306  
               u4871 3248                 u4791 3018  
               u5920 3C40                 u5840 3B82  
               u5760 3ABA                 u5680 39EE  
               u4960 331C                 u4880 326E  
               u5921 3C3C                 u5841 3B7E  
               u5761 3AB6                 u5681 39EA  
               u4961 3318                 u4881 326A  
               _OERR 007D59                 u5930 3C52  
               u5850 3B94                 u5770 3ADA  
               u5690 3A0E                 u4970 333C  
               u4890 3280                 u5931 3C4E  
               u5851 3B90                 u5771 3AD6  
               u5691 3A0A                 u4971 3338  
               u4891 327C                 u5940 3C64  
               u5860 3BB6                 u5780 3AEC  
               u4980 334E                 u5941 3C60  
               u5861 3BB2                 u5781 3AE8  
               u4981 334A                 u5950 3C84  
               u5870 3BC8                 u5790 3B0C  
               u4990 3360                 u5951 3C80  
               u5871 3BC4                 u5791 3B08  
               u4991 335C                 u5960 3C96  
               u5880 3BDA                 u5961 3C92  
               u5881 3BD6                 u5970 3CA8  
               u5890 3BFC                 u5971 3CA4  
               u5891 3BF8                 u5980 3CC8  
               u5981 3CC4                 u5990 3CDA  
               u5991 3CD6                 _RX9D 007D58  
               _TX9D 007D60                 _TXIF 007CF4  
               _main 2528                 fsr0l 000FE9  
               start 0000      __end_of_DelayMs 2528  
              ?_main 0100                _ADRES 000FC3  
              _RCREG 000FAE                _RCSTA 000FAB  
              _SPBRG 000FAF                _TRISA 000F92  
              _TRISB 000F93                _TRISC 000F94  
              _RX9_x 007D5E                _TXREG 000FAD  
              _TX9_x 007D66                _TXSTA 000FAC  
              _index 000028                main@i 0107  
              status 000FD8         __end_of_main 263E  
             ??_main 0104        __activetblptr 000000  
             _ADCON0 000FC2               _ADCON1 000FC1  
             _ADCON2 000FC0               _ADRESH 000FC4  
             _ADRESL 000FC3               _BRGH_x 007D62  
             _GODONE 007E11               _CREN_x 007D5C  
             _CSRC_x 007D67            ??_DelayMs 0130  
             _RCIE_x 007CED               _OSCCON 000FD3  
             _SPBRGH 000FB0               _TRISC6 007CA6  
             _TRISC7 007CA7               _SPEN_x 007D5F  
             _SREN_x 007D5D               _TRMT_x 007D61  
             _TXIE_x 007CEC               _TXEN_x 007D65  
             _SYNC_x 007D64               __Ldata 000000  
         _ToggleLeds 3216         __mediumconst 0D00  
         __accesstop 0060           _change_val 00002F  
            _BAUDCON 000FB8          ?_ToggleLeds 012F  
            _SENDB_x 007D63              _DelayMs 24E0  
            __Hparam 0133           _cur_inputs 00001A  
            __Lparam 0100              _adc_num 00002E  
            __ramtop 0D00              _uart_in 000032  
      __Lmediumconst 0D00              postdec0 000FED  
            postinc0 000FEE           _testToggle 263E  
        testToggle@i 010A          testToggle@j 011C  
         main@result 0105         DelayMs@_dcnt 0131  
          __Habsbss0 000041            __Labsbss0 000000  
        ?_testToggle 010A         ??_ToggleLeds 012F  
           ?_DelayMs 012F   __end_of_ToggleLeds 4000  
          _led_array 000000          __smallconst 0D00  
           DelayMs@i 0130          _conv_result 00002A  
           __Hparam1 0133             __Lparam1 0100  
       __Lsmallconst 0D00             __config1 00F0FF  
           __config2 00FEFF             __config3 007FFF  
           __config4 00FFFB             __config5 00FFFF  
           __config6 00FFFF             __config7 00FFFF  
           _uart_out 000031             main@argc 0100  
           main@argv 0102         ??_testToggle 010A  
         DelayMs@cnt 012F   __end_of_testToggle 3216  
        _prev_inputs 000033         _USART_Status 000030  
