

HI-TECH Software LITE Macro Assembler (PIC18) V9.66 build 8870 
                                                       Tue May 01 17:55:59 2012

HI-TECH Software Omniscient Code Generator build 8870
     1  000000                     opt subtitle "HI-TECH Software Omniscient Code G
                                 enerator build 8870"
     2                           
     3                           	processor	18F2682
     4  000000                     porta	equ	0F80h
     5  000000                     portb	equ	0F81h
     6  000000                     portc	equ	0F82h
     7  000000                     portd	equ	0F83h
     8  000000                     porte	equ	0F84h
     9  000000                     lata	equ	0F89h
    10  000000                     latb	equ	0F8Ah
    11  000000                     latc	equ	0F8Bh
    12  000000                     latd	equ	0F8Ch
    13  000000                     late	equ	0F8Dh
    14  000000                     trisa	equ	0F92h
    15  000000                     trisb	equ	0F93h
    16  000000                     trisc	equ	0F94h
    17  000000                     trisd	equ	0F95h
    18  000000                     trise	equ	0F96h
    19  000000                     pie1	equ	0F9Dh
    20  000000                     pir1	equ	0F9Eh
    21  000000                     ipr1	equ	0F9Fh
    22  000000                     pie2	equ	0FA0h
    23  000000                     pir2	equ	0FA1h
    24  000000                     ipr2	equ	0FA2h
    25  000000                     t3con	equ	0FB1h
    26  000000                     tmr3l	equ	0FB2h
    27  000000                     tmr3h	equ	0FB3h
    28  000000                     ccp1con	equ	0FBDh
    29  000000                     ccpr1l	equ	0FBEh
    30  000000                     ccpr1h	equ	0FBFh
    31  000000                     adcon1	equ	0FC1h
    32  000000                     adcon0	equ	0FC2h
    33  000000                     adresl	equ	0FC3h
    34  000000                     adresh	equ	0FC4h
    35  000000                     sspcon2	equ	0FC5h
    36  000000                     sspcon1	equ	0FC6h
    37  000000                     sspstat	equ	0FC7h
    38  000000                     sspadd	equ	0FC8h
    39  000000                     sspbuf	equ	0FC9h
    40  000000                     t2con	equ	0FCAh
    41  000000                     pr2	equ	0FCBh
    42  000000                     tmr2	equ	0FCCh
    43  000000                     t1con	equ	0FCDh
    44  000000                     tmr1l	equ	0FCEh
    45  000000                     tmr1h	equ	0FCFh
    46  000000                     rcon	equ	0FD0h
    47  000000                     wdtcon	equ	0FD1h
    48  000000                     lvdcon	equ	0FD2h
    49  000000                     osccon	equ	0FD3h
    50  000000                     t0con	equ	0FD5h
    51  000000                     tmr0l	equ	0FD6h
    52  000000                     tmr0h	equ	0FD7h
    53  000000                     status	equ	0FD8h
    54  000000                     fsr2	equ	0FD9h
    55  000000                     fsr2l	equ	0FD9h
    56  000000                     fsr2h	equ	0FDAh
    57  000000                     plusw2	equ	0FDBh
    58  000000                     preinc2	equ	0FDCh
    59  000000                     postdec2	equ	0FDDh
    60  000000                     postinc2	equ	0FDEh
    61  000000                     indf2	equ	0FDFh
    62  000000                     bsr	equ	0FE0h
    63  000000                     fsr1	equ	0FE1h
    64  000000                     fsr1l	equ	0FE1h
    65  000000                     fsr1h	equ	0FE2h
    66  000000                     plusw1	equ	0FE3h
    67  000000                     preinc1	equ	0FE4h
    68  000000                     postdec1	equ	0FE5h
    69  000000                     postinc1	equ	0FE6h
    70  000000                     indf1	equ	0FE7h
    71  000000                     wreg	equ	0FE8h
    72  000000                     fsr0	equ	0FE9h
    73  000000                     fsr0l	equ	0FE9h
    74  000000                     fsr0h	equ	0FEAh
    75  000000                     plusw0	equ	0FEBh
    76  000000                     preinc0	equ	0FECh
    77  000000                     postdec0	equ	0FEDh
    78  000000                     postinc0	equ	0FEEh
    79  000000                     indf0	equ	0FEFh
    80  000000                     intcon3	equ	0FF0h
    81  000000                     intcon2	equ	0FF1h
    82  000000                     intcon	equ	0FF2h
    83  000000                     prod	equ	0FF3h
    84  000000                     prodl	equ	0FF3h
    85  000000                     prodh	equ	0FF4h
    86  000000                     tablat	equ	0FF5h
    87  000000                     tblptr	equ	0FF6h
    88  000000                     tblptrl	equ	0FF6h
    89  000000                     tblptrh	equ	0FF7h
    90  000000                     tblptru	equ	0FF8h
    91  000000                     pcl	equ	0FF9h
    92  000000                     pclat	equ	0FFAh
    93  000000                     pclath	equ	0FFAh
    94  000000                     pclatu	equ	0FFBh
    95  000000                     stkptr	equ	0FFCh
    96  000000                     tosl	equ	0FFDh
    97  000000                     tosh	equ	0FFEh
    98  000000                     tosu	equ	0FFFh
    99                           	global	__ramtop
   100                           	global	__accesstop
   101                           # 20 "../code/main.c"
   102                           	global __config1 ;#
   103                           # 20 "../code/main.c"
   104  000000                     	__config1 equ 0xF0FF ;#
   105                           # 21 "../code/main.c"
   106                           	global __config2 ;#
   107                           # 21 "../code/main.c"
   108  000000                     	__config2 equ 0xFEFF ;#
   109                           # 22 "../code/main.c"
   110                           	global __config3 ;#
   111                           # 22 "../code/main.c"
   112  000000                     	__config3 equ 0x7FFF ;#
   113                           # 23 "../code/main.c"
   114                           	global __config4 ;#
   115                           # 23 "../code/main.c"
   116  000000                     	__config4 equ 0xFFFB & 0xFFFF ;#
   117                           # 24 "../code/main.c"
   118                           	global __config5 ;#
   119                           # 24 "../code/main.c"
   120  000000                     	__config5 equ 0xFFFF ;#
   121                           # 25 "../code/main.c"
   122                           	global __config6 ;#
   123                           # 25 "../code/main.c"
   124  000000                     	__config6 equ 0xFFFF ;#
   125                           # 26 "../code/main.c"
   126                           	global __config7 ;#
   127                           # 26 "../code/main.c"
   128  000000                     	__config7 equ 0xFFFF ;#
   129                           	GLOBAL	__activetblptr
   130  000000                     __activetblptr	EQU	0
   131                           	GLOBAL	__smallconst,__Lsmallconst
   132  000000                     __smallconst	EQU	__Lsmallconst
   133                           	GLOBAL	__mediumconst,__Lmediumconst
   134  000000                     __mediumconst	EQU	__Lmediumconst
   135                           	GLOBAL	__Ldata
   136  000000                     __Ldata	EQU	0
   137  000000                     main@channel	equ	??_main+0
   138                           	global	main@channel
   139  000000                     main@result	equ	??_main+1
   140                           	global	main@result
   141  000000                     main@argc	equ	?_main+0
   142                           	global	main@argc
   143  000000                     main@argv	equ	?_main+2
   144                           	global	main@argv
   145                           ;Data sizes: Strings 0, constant 0, data 0, bss 
                                 0, persistent 0 stack 8
   146                           	global	_main
   147                           	global	??_main
   148                           	global	?_main
   149                           
   150                           ; *************** function _main ***************
                                 **
   151                           ; Defined at:
   152                           ;		line 164 in file "../code/main.c"
   153                           ; Parameters:
   154                           ;		argc           size:   2offs:   0	type: int 
   155                           ;		argv           size:   2offs:   2	type: PTR P
                                 TR unsigned char 
   156                           ; Auto variables:
   157                           ;		channel     	       	type: unsigned char 
   158                           ;		result      	       	type: int 
   159                           ; Return value:
   160                           ;		type: int 
   161                           ;		size: 2
   162                           ; Registers used:
   163                           ;		wreg, fsr0l, fsr0h, status,2, status,0
   164                           ; Tracked objects:
   165                           ;		On entry : 0/0
   166                           ;		On exit  : 0/0
   167                           ;		Unchanged: 0/0
   168                           ; Data sizes:
   169                           ;		Autos:    3
   170                           ;		Params:   4
   171                           ;		Temp:     1
   172                           ;		Total:    8
   173                           ; This function calls:
   174                           ;		_ToggleLeds
   175                           ; This function is called by:
   176                           ;		Startup code after reset
   177                           ; This function uses a non-reentrant model
   178                           ; 
   179                                   psect   text0,class=CODE,space=0,reloc=2
   180                           
   181                           	opt lm
   182                           	file	"../code/main.c"
   183                           	line	164
   184  000000                     	__size_of_main	equ	__end_of_main-_main
   185                                   psect   text0
   186                           ;main.c: 20: asm("\tglobal __config" "1"); asm("
                                 \t__config" "1" " equ " "0xF0FF");
   187                           ;main.c: 21: asm("\tglobal __config" "2"); asm("
                                 \t__config" "2" " equ " "0xFEFF");
   188                           ;main.c: 22: asm("\tglobal __config" "3"); asm("
                                 \t__config" "3" " equ " "0x7FFF");
   189                           ;main.c: 23: asm("\tglobal __config" "4"); asm("
                                 \t__config" "4" " equ " "0xFFFB & 0xFFFF");
   190                           ;main.c: 24: asm("\tglobal __config" "5"); asm("
                                 \t__config" "5" " equ " "0xFFFF");
   191                           ;main.c: 25: asm("\tglobal __config" "6"); asm("
                                 \t__config" "6" " equ " "0xFFFF");
   192                           ;main.c: 26: asm("\tglobal __config" "7"); asm("
                                 \t__config" "7" " equ " "0xFFFF");
   193                           	
   194  013186                     _main:		; BSR set to: ?
   195                           
   196                           	opt stack 31
   197                           	line	167
   198                           ;main.c: 167: OSCCON |= 0b01110010;
   199  013186  0E72               	movlw	(072h)&0ffh
   200  013188  12D3               	iorwf	((c:4051)),c	;volatile
   201                           	line	170
   202                           ;main.c: 170: ADCON0 = 0b00000000;
   203  01318A  0E00               	movlw	low(0)
   204  01318C  6EC2               	movwf	((c:4034)),c	;volatile
   205                           	line	171
   206                           ;main.c: 171: ADCON1 = 0b00000101;
   207  01318E  0E05               	movlw	low(05h)
   208  013190  6EC1               	movwf	((c:4033)),c	;volatile
   209                           	line	172
   210                           ;main.c: 172: ADCON2 = 0b10000000;
   211  013192  0E80               	movlw	low(080h)
   212  013194  6EC0               	movwf	((c:4032)),c	;volatile
   213                           	line	173
   214                           ;main.c: 173: ADCON2 = 0b10100000;
   215  013196  0EA0               	movlw	low(0A0h)
   216  013198  6EC0               	movwf	((c:4032)),c	;volatile
   217                           	line	174
   218                           ;main.c: 174: adc_num = 0;
   219  01319A  0E00               	movlw	low(0)
   220  01319C  6E2E               	movwf	((c:46)),c	;volatile
   221                           	line	177
   222                           ;main.c: 177: TRISA = 0b10101111;
   223  01319E  0EAF               	movlw	low(0AFh)
   224  0131A0  6E92               	movwf	((c:3986)),c	;volatile
   225                           	line	178
   226                           ;main.c: 178: TRISB = 0b00010010;
   227  0131A2  0E12               	movlw	low(012h)
   228  0131A4  6E93               	movwf	((c:3987)),c	;volatile
   229                           	line	179
   230                           ;main.c: 179: TRISC = 0b10000000;
   231  0131A6  0E80               	movlw	low(080h)
   232  0131A8  6E94               	movwf	((c:3988)),c	;volatile
   233                           	line	201
   234                           ;main.c: 201: SPBRGH = (((8000000L/19200UL)/16) 
                                 - 1) >> 8;
   235  0131AA  0E00               	movlw	low(0)
   236  0131AC  6EB0               	movwf	((c:4016)),c	;volatile
   237                           	line	202
   238                           ;main.c: 202: SPBRG = (((8000000L/19200UL)/16) -
                                  1);
   239  0131AE  0E19               	movlw	low(019h)
   240  0131B0  6EAF               	movwf	((c:4015)),c	;volatile
   241                           	line	203
   242                           ;main.c: 203: BAUDCON = 0b00001000;
   243  0131B2  0E08               	movlw	low(08h)
   244  0131B4  6EB8               	movwf	((c:4024)),c	;volatile
   245                           	line	204
   246                           ;main.c: 204: RCSTA = 0b10010000;
   247  0131B6  0E90               	movlw	low(090h)
   248  0131B8  6EAB               	movwf	((c:4011)),c	;volatile
   249                           	line	205
   250                           ;main.c: 205: TXSTA = 0b00100000;
   251  0131BA  0E20               	movlw	low(020h)
   252  0131BC  6EAC               	movwf	((c:4012)),c	;volatile
   253                           	line	208
   254                           ;main.c: 208: while (1) {
   255                           	
   256  0131BE                     l869:		; BSR set to: ?
   257                           
   258                           	line	209
   259                           ;main.c: 209: TXREG = 'a';
   260  0131BE  0E61               	movlw	low(061h)
   261  0131C0  6EAD               	movwf	((c:4013)),c	;volatile
   262                           	line	210
   263                           ;main.c: 210: while ((PIR1 & 0b00010000) ==0);
   264  0131C2  EFE3  F098         	goto	l871
   265                           	
   266  0131C6                     l871:		; BSR set to: ?
   267                           
   268                           	
   269  0131C6  A89E               	btfss	((c:3998)),c,(4)&7	;volatile
   270  0131C8  EFE8  F098         	goto	u5191
   271  0131CC  EFEA  F098         	goto	u5190
   272  0131D0                     u5191:
   273  0131D0  EFE3  F098         	goto	l871
   274  0131D4                     u5190:
   275                           	
   276  0131D4                     l873:		; BSR set to: ?
   277                           
   278                           	line	211
   279                           	
   280  0131D4                     l868:		; BSR set to: ?
   281                           
   282                           	line	208
   283  0131D4  EFDF  F098         	goto	l869
   284                           	line	219
   285                           	
   286  0131D8                     l878:		; BSR set to: ?
   287                           
   288                           	line	221
   289                           ;main.c: 221: continue;
   290  0131D8  EFEE  F098         	goto	l877
   291                           	line	222
   292                           	
   293  0131DC                     l877:		; BSR set to: ?
   294                           
   295                           	line	219
   296  0131DC  502F               	movf	((c:47)),c,w
   297  0131DE  B4D8               	btfsc	status,2
   298  0131E0  EFF4  F098         	goto	u5201
   299  0131E4  EFF6  F098         	goto	u5200
   300  0131E8                     u5201:
   301  0131E8  EFEC  F098         	goto	l878
   302  0131EC                     u5200:
   303                           	
   304  0131EC                     l879:		; BSR set to: ?
   305                           
   306                           	line	223
   307                           ;main.c: 222: }
   308                           ;main.c: 223: int result = cur_inputs[index];
   309  0131EC  90D8               	bcf	status,0
   310  0131EE  3428               	rlcf	((c:40)),c,w
   311  0131F0  0101               	movlb	1	; () banked
   312  0131F2  6F07               	movwf	(??_main+3+0)&0ffh
   313  0131F4  0E1A               	movlw	low((c:26))
   314  0131F6  0101               	movlb	1	; () banked
   315  0131F8  2507               	addwf	(??_main+3+0)&0ffh,w
   316  0131FA  6EE9               	movwf	c:fsr0l
   317  0131FC  6AEA               	clrf	1+c:fsr0l
   318  0131FE  0E00               	movlw	high((c:26))
   319  013200  22EA               	addwfc	1+c:fsr0l
   320  013202  0101               	movlb	1	; () banked
   321  013204  CFEE F105          	movff	postinc0,(main@result)
   322  013208  0101               	movlb	1	; () banked
   323  01320A  CFED F106          	movff	postdec0,(main@result+1)
   324                           	line	224
   325                           ;main.c: 224: char channel = index;
   326  01320E  C028 F104          	movff	(c:40),(main@channel)
   327                           	line	227
   328                           	
   329  013212                     l874:		; BSR set to: ?
   330                           
   331                           	line	214
   332                           	
   333  013212                     l876:		; BSR set to: ?
   334                           
   335                           	line	235
   336                           ;main.c: 227: }
   337                           ;main.c: 235: }
   338  013212                     l867:
   339                           			; BSR set to: ?
   340                           
   341                           	global	start
   342  013212  EF00  F000         	goto	start
   343                           	opt stack 0
   344                           GLOBAL __end_of_main
   345  013216                     	__end_of_main:
   346                           	FNSIZE	_main,4,4
   347                           ; =============== function _main ends ==========
                                 ==
   348                           
   349                           	signat	_main,8314
   350                           	global	_ToggleLeds
   351                           	global	??_ToggleLeds
   352                           	global	?_ToggleLeds
   353                           
   354                           ; *************** function _ToggleLeds *********
                                 ********
   355                           ; Defined at:
   356                           ;		line 245 in file "../code/main.c"
   357                           ; Parameters:
   358                           ;		None
   359                           ; Auto variables:
   360                           ;		None
   361                           ; Return value:
   362                           ;		type: void 
   363                           ;		size: 0
   364                           ; Registers used:
   365                           ;		wreg, status,2, status,0
   366                           ; Tracked objects:
   367                           ;		On entry : 0/0
   368                           ;		On exit  : 0/0
   369                           ;		Unchanged: 0/0
   370                           ; Data sizes:
   371                           ;		Autos:    0
   372                           ;		Params:   0
   373                           ;		Temp:     0
   374                           ;		Total:    0
   375                           ; This function calls:
   376                           ;		Nothing
   377                           ; This function is called by:
   378                           ;		_main
   379                           ; This function uses a non-reentrant model
   380                           ; 
   381                                   psect   text1,class=CODE,space=0,reloc=2
   382                           
   383                           	opt lm
   384                           	file	"../code/main.c"
   385                           	line	245
   386  000000                     	__size_of_ToggleLeds	equ	__end_of_ToggleLeds-_T
                                 oggleLeds
   387                           ;main.c: 245: void ToggleLeds () {
   388                           	
   389  013216                     _ToggleLeds:		; BSR set to: ?
   390                           
   391                           	opt stack 30
   392                           	line	250
   393  013216  0408               	decf	(0+((c:0)+08h)),c,w
   394  013218  1009               	iorwf (1+((c:0)+08h)),c,w
   395                           
   396  01321A  A4D8               	btfss	status,2
   397  01321C  EF12  F099         	goto	u3721
   398  013220  EF14  F099         	goto	u3720
   399  013224                     u3721:
   400  013224  EF2E  F099         	goto	l881
   401  013228                     u3720:
   402  013228  040A               	decf	(0+((c:0)+0Ah)),c,w
   403  01322A  100B               	iorwf (1+((c:0)+0Ah)),c,w
   404                           
   405  01322C  A4D8               	btfss	status,2
   406  01322E  EF1B  F099         	goto	u3731
   407  013232  EF1D  F099         	goto	u3730
   408  013236                     u3731:
   409  013236  EF2E  F099         	goto	l881
   410  01323A                     u3730:
   411+ 01323A  040C               	decf	(0+((c:0)+0Ch)),c,w
   412+ 01323C  100D               	iorwf (1+((c:0)+0Ch)),c,w
   413                           
   414  01323E  A4D8               	btfss	status,2
   415  013240  EF24  F099         	goto	u3741
   416  013244  EF26  F099         	goto	u3740
   417  013248                     u3741:
   418  013248  EF2E  F099         	goto	l881
   419  01324C                     u3740:
   420                           	line	253
   421                           ;main.c: 253: LATA = 0b11101111;
   422  01324C  0EEF               	movlw	low(0EFh)
   423  01324E  6E89               	movwf	((c:3977)),c	;volatile
   424                           	line	255
   425                           ;main.c: 255: LATB = 0b11100000;
   426  013250  0EE0               	movlw	low(0E0h)
   427  013252  6E8A               	movwf	((c:3978)),c	;volatile
   428                           	line	257
   429                           ;main.c: 257: LATC = 0b00001111;
   430  013254  0E0F               	movlw	low(0Fh)
   431  013256  6E8B               	movwf	((c:3979)),c	;volatile
   432                           	line	258
   433                           ;main.c: 258: } else if (led_array[4] == 1 && le
                                 d_array[5] == 1 && led_array[7] == 1) {
   434  013258  EFFF  F09F         	goto	l882
   435                           	
   436  01325C                     l881:		; BSR set to: ?
   437                           
   438  01325C  0408               	decf	(0+((c:0)+08h)),c,w
   439  01325E  1009               	iorwf (1+((c:0)+08h)),c,w
   440                           
   441  013260  A4D8               	btfss	status,2
   442  013262  EF35  F099         	goto	u3751
   443  013266  EF37  F099         	goto	u3750
   444  01326A                     u3751:
   445  01326A  EF51  F099         	goto	l883
   446  01326E                     u3750:
   447  01326E  040A               	decf	(0+((c:0)+0Ah)),c,w
   448  013270  100B               	iorwf (1+((c:0)+0Ah)),c,w
   449                           
   450  013272  A4D8               	btfss	status,2
   451  013274  EF3E  F099         	goto	u3761
   452  013278  EF40  F099         	goto	u3760
   453  01327C                     u3761:
   454  01327C  EF51  F099         	goto	l883
   455  013280                     u3760:
   456  013280  040E               	decf	(0+((c:0)+0Eh)),c,w
   457  013282  100F               	iorwf (1+((c:0)+0Eh)),c,w
   458                           
   459  013284  A4D8               	btfss	status,2
   460  013286  EF47  F099         	goto	u3771
   461  01328A  EF49  F099         	goto	u3770
   462  01328E                     u3771:
   463  01328E  EF51  F099         	goto	l883
   464  013292                     u3770:
   465                           	line	261
   466                           ;main.c: 261: LATA = 0b10111111;
   467  013292  0EBF               	movlw	low(0BFh)
   468  013294  6E89               	movwf	((c:3977)),c	;volatile
   469                           	line	263
   470                           ;main.c: 263: LATB = 0b11100000;
   471  013296  0EE0               	movlw	low(0E0h)
   472  013298  6E8A               	movwf	((c:3978)),c	;volatile
   473                           	line	265
   474                           ;main.c: 265: LATC = 0b00001111;
   475  01329A  0E0F               	movlw	low(0Fh)
   476  01329C  6E8B               	movwf	((c:3979)),c	;volatile
   477                           	line	266
   478                           ;main.c: 266: } else if (led_array[4] == 1 && le
                                 d_array[5] == 1 && led_array[8] == 1) {
   479  01329E  EFFF  F09F         	goto	l882
   480                           	
   481  0132A2                     l883:		; BSR set to: ?
   482                           
   483  0132A2  0408               	decf	(0+((c:0)+08h)),c,w
   484  0132A4  1009               	iorwf (1+((c:0)+08h)),c,w
   485                           
   486  0132A6  A4D8               	btfss	status,2
   487  0132A8  EF58  F099         	goto	u3781
   488  0132AC  EF5A  F099         	goto	u3780
   489  0132B0                     u3781:
   490  0132B0  EF73  F099         	goto	l885
   491  0132B4                     u3780:
   492  0132B4  040A               	decf	(0+((c:0)+0Ah)),c,w
   493  0132B6  100B               	iorwf (1+((c:0)+0Ah)),c,w
   494                           
   495  0132B8  A4D8               	btfss	status,2
   496  0132BA  EF61  F099         	goto	u3791
   497  0132BE  EF63  F099         	goto	u3790
   498  0132C2                     u3791:
   499  0132C2  EF73  F099         	goto	l885
   500  0132C6                     u3790:
   501  0132C6  0410               	decf	(0+((c:0)+010h)),c,w
   502  0132C8  1011               	iorwf (1+((c:0)+010h)),c,w
   503                           
   504  0132CA  A4D8               	btfss	status,2
   505  0132CC  EF6A  F099         	goto	u3801
   506  0132D0  EF6C  F099         	goto	u3800
   507  0132D4                     u3801:
   508  0132D4  EF73  F099         	goto	l885
   509  0132D8                     u3800:
   510                           	line	269
   511                           ;main.c: 269: LATA = 0b11111111;
   512  0132D8  6889               	setf	((c:3977)),c	;volatile
   513                           	line	271
   514                           ;main.c: 271: LATB = 0b11100000;
   515  0132DA  0EE0               	movlw	low(0E0h)
   516  0132DC  6E8A               	movwf	((c:3978)),c	;volatile
   517                           	line	273
   518                           ;main.c: 273: LATC = 0b00001110;
   519  0132DE  0E0E               	movlw	low(0Eh)
   520  0132E0  6E8B               	movwf	((c:3979)),c	;volatile
   521                           	line	274
   522                           ;main.c: 274: } else if (led_array[4] == 1 && le
                                 d_array[5] == 1 && led_array[9] == 1) {
   523  0132E2  EFFF  F09F         	goto	l882
   524                           	
   525  0132E6                     l885:		; BSR set to: ?
   526                           
   527  0132E6  0408               	decf	(0+((c:0)+08h)),c,w
   528  0132E8  1009               	iorwf (1+((c:0)+08h)),c,w
   529                           
   530  0132EA  A4D8               	btfss	status,2
   531  0132EC  EF7A  F099         	goto	u3811
   532  0132F0  EF7C  F099         	goto	u3810
   533  0132F4                     u3811:
   534  0132F4  EF95  F099         	goto	l887
   535  0132F8                     u3810:
   536  0132F8  040A               	decf	(0+((c:0)+0Ah)),c,w
   537  0132FA  100B               	iorwf (1+((c:0)+0Ah)),c,w
   538                           
   539  0132FC  A4D8               	btfss	status,2
   540  0132FE  EF83  F099         	goto	u3821
   541  013302  EF85  F099         	goto	u3820
   542  013306                     u3821:
   543  013306  EF95  F099         	goto	l887
   544  01330A                     u3820:
   545  01330A  0412               	decf	(0+((c:0)+012h)),c,w
   546  01330C  1013               	iorwf (1+((c:0)+012h)),c,w
   547                           
   548  01330E  A4D8               	btfss	status,2
   549  013310  EF8C  F099         	goto	u3831
   550  013314  EF8E  F099         	goto	u3830
   551  013318                     u3831:
   552  013318  EF95  F099         	goto	l887
   553  01331C                     u3830:
   554                           	line	277
   555                           ;main.c: 277: LATA = 0b11111111;
   556  01331C  6889               	setf	((c:3977)),c	;volatile
   557                           	line	279
   558                           ;main.c: 279: LATB = 0b11100000;
   559  01331E  0EE0               	movlw	low(0E0h)
   560  013320  6E8A               	movwf	((c:3978)),c	;volatile
   561                           	line	281
   562                           ;main.c: 281: LATC = 0b00001101;
   563  013322  0E0D               	movlw	low(0Dh)
   564  013324  6E8B               	movwf	((c:3979)),c	;volatile
   565                           	line	282
   566                           ;main.c: 282: } else if (led_array[4] == 1 && le
                                 d_array[5] == 1 && led_array[10] == 1) {
   567  013326  EFFF  F09F         	goto	l882
   568                           	
   569  01332A                     l887:		; BSR set to: ?
   570                           
   571  01332A  0408               	decf	(0+((c:0)+08h)),c,w
   572  01332C  1009               	iorwf (1+((c:0)+08h)),c,w
   573                           
   574  01332E  A4D8               	btfss	status,2
   575  013330  EF9C  F099         	goto	u3841
   576  013334  EF9E  F099         	goto	u3840
   577  013338                     u3841:
   578  013338  EFB7  F099         	goto	l889
   579  01333C                     u3840:
   580  01333C  040A               	decf	(0+((c:0)+0Ah)),c,w
   581  01333E  100B               	iorwf (1+((c:0)+0Ah)),c,w
   582                           
   583  013340  A4D8               	btfss	status,2
   584  013342  EFA5  F099         	goto	u3851
   585  013346  EFA7  F099         	goto	u3850
   586  01334A                     u3851:
   587  01334A  EFB7  F099         	goto	l889
   588  01334E                     u3850:
   589  01334E  0414               	decf	(0+((c:0)+014h)),c,w
   590  013350  1015               	iorwf (1+((c:0)+014h)),c,w
   591                           
   592  013352  A4D8               	btfss	status,2
   593  013354  EFAE  F099         	goto	u3861
   594  013358  EFB0  F099         	goto	u3860
   595  01335C                     u3861:
   596  01335C  EFB7  F099         	goto	l889
   597  013360                     u3860:
   598                           	line	285
   599                           ;main.c: 285: LATA = 0b11111111;
   600  013360  6889               	setf	((c:3977)),c	;volatile
   601                           	line	287
   602                           ;main.c: 287: LATB = 0b01100000;
   603  013362  0E60               	movlw	low(060h)
   604  013364  6E8A               	movwf	((c:3978)),c	;volatile
   605                           	line	289
   606                           ;main.c: 289: LATC = 0b00001111;
   607  013366  0E0F               	movlw	low(0Fh)
   608  013368  6E8B               	movwf	((c:3979)),c	;volatile
   609                           	line	290
   610                           ;main.c: 290: } else if (led_array[4] == 1 && le
                                 d_array[5] == 1 && led_array[11] == 1) {
   611  01336A  EFFF  F09F         	goto	l882
   612                           	
   613  01336E                     l889:		; BSR set to: ?
   614                           
   615  01336E  0408               	decf	(0+((c:0)+08h)),c,w
   616  013370  1009               	iorwf (1+((c:0)+08h)),c,w
   617                           
   618  013372  A4D8               	btfss	status,2
   619  013374  EFBE  F099         	goto	u3871
   620  013378  EFC0  F099         	goto	u3870
   621  01337C                     u3871:
   622  01337C  EFD9  F099         	goto	l891
   623  013380                     u3870:
   624  013380  040A               	decf	(0+((c:0)+0Ah)),c,w
   625  013382  100B               	iorwf (1+((c:0)+0Ah)),c,w
   626                           
   627  013384  A4D8               	btfss	status,2
   628  013386  EFC7  F099         	goto	u3881
   629  01338A  EFC9  F099         	goto	u3880
   630  01338E                     u3881:
   631  01338E  EFD9  F099         	goto	l891
   632  013392                     u3880:
   633  013392  0416               	decf	(0+((c:0)+016h)),c,w
   634  013394  1017               	iorwf (1+((c:0)+016h)),c,w
   635                           
   636  013396  A4D8               	btfss	status,2
   637  013398  EFD0  F099         	goto	u3891
   638  01339C  EFD2  F099         	goto	u3890
   639  0133A0                     u3891:
   640  0133A0  EFD9  F099         	goto	l891
   641  0133A4                     u3890:
   642                           	line	293
   643                           ;main.c: 293: LATA = 0b11111111;
   644  0133A4  6889               	setf	((c:3977)),c	;volatile
   645                           	line	295
   646                           ;main.c: 295: LATB = 0b11100000;
   647  0133A6  0EE0               	movlw	low(0E0h)
   648  0133A8  6E8A               	movwf	((c:3978)),c	;volatile
   649                           	line	297
   650                           ;main.c: 297: LATC = 0b00001011;
   651  0133AA  0E0B               	movlw	low(0Bh)
   652  0133AC  6E8B               	movwf	((c:3979)),c	;volatile
   653                           	line	298
   654                           ;main.c: 298: } else if (led_array[4] == 1 && le
                                 d_array[5] == 1 && led_array[12] == 1) {
   655  0133AE  EFFF  F09F         	goto	l882
   656                           	
   657  0133B2                     l891:		; BSR set to: ?
   658                           
   659  0133B2  0408               	decf	(0+((c:0)+08h)),c,w
   660  0133B4  1009               	iorwf (1+((c:0)+08h)),c,w
   661                           
   662  0133B6  A4D8               	btfss	status,2
   663  0133B8  EFE0  F099         	goto	u3901
   664  0133BC  EFE2  F099         	goto	u3900
   665  0133C0                     u3901:
   666  0133C0  EFFB  F099         	goto	l893
   667  0133C4                     u3900:
   668  0133C4  040A               	decf	(0+((c:0)+0Ah)),c,w
   669  0133C6  100B               	iorwf (1+((c:0)+0Ah)),c,w
   670                           
   671  0133C8  A4D8               	btfss	status,2
   672  0133CA  EFE9  F099         	goto	u3911
   673  0133CE  EFEB  F099         	goto	u3910
   674  0133D2                     u3911:
   675  0133D2  EFFB  F099         	goto	l893
   676  0133D6                     u3910:
   677  0133D6  0418               	decf	(0+((c:0)+018h)),c,w
   678  0133D8  1019               	iorwf (1+((c:0)+018h)),c,w
   679                           
   680  0133DA  A4D8               	btfss	status,2
   681  0133DC  EFF2  F099         	goto	u3921
   682  0133E0  EFF4  F099         	goto	u3920
   683  0133E4                     u3921:
   684  0133E4  EFFB  F099         	goto	l893
   685  0133E8                     u3920:
   686                           	line	301
   687                           ;main.c: 301: LATA = 0b11111111;
   688  0133E8  6889               	setf	((c:3977)),c	;volatile
   689                           	line	303
   690                           ;main.c: 303: LATB = 0b11100000;
   691  0133EA  0EE0               	movlw	low(0E0h)
   692  0133EC  6E8A               	movwf	((c:3978)),c	;volatile
   693                           	line	305
   694                           ;main.c: 305: LATC = 0b00000111;
   695  0133EE  0E07               	movlw	low(07h)
   696  0133F0  6E8B               	movwf	((c:3979)),c	;volatile
   697                           	line	307
   698                           ;main.c: 307: } else if (led_array[4] == 1 && le
                                 d_array[6] == 1) {
   699  0133F2  EFFF  F09F         	goto	l882
   700                           	
   701  0133F6                     l893:		; BSR set to: ?
   702                           
   703  0133F6  0408               	decf	(0+((c:0)+08h)),c,w
   704  0133F8  1009               	iorwf (1+((c:0)+08h)),c,w
   705                           
   706  0133FA  A4D8               	btfss	status,2
   707  0133FC  EF02  F09A         	goto	u3931
   708  013400  EF04  F09A         	goto	u3930
   709  013404                     u3931:
   710  013404  EF15  F09A         	goto	l895
   711  013408                     u3930:
   712  013408  040C               	decf	(0+((c:0)+0Ch)),c,w
   713  01340A  100D               	iorwf (1+((c:0)+0Ch)),c,w
   714                           
   715  01340C  A4D8               	btfss	status,2
   716  01340E  EF0B  F09A         	goto	u3941
   717  013412  EF0D  F09A         	goto	u3940
   718  013416                     u3941:
   719  013416  EF15  F09A         	goto	l895
   720  01341A                     u3940:
   721                           	line	310
   722                           ;main.c: 310: LATA = 0b11101111;
   723  01341A  0EEF               	movlw	low(0EFh)
   724  01341C  6E89               	movwf	((c:3977)),c	;volatile
   725                           	line	312
   726                           ;main.c: 312: LATB = 0b11000000;
   727  01341E  0EC0               	movlw	low(0C0h)
   728  013420  6E8A               	movwf	((c:3978)),c	;volatile
   729                           	line	314
   730                           ;main.c: 314: LATC = 0b00001111;
   731  013422  0E0F               	movlw	low(0Fh)
   732  013424  6E8B               	movwf	((c:3979)),c	;volatile
   733                           	line	315
   734                           ;main.c: 315: } else if (led_array[4] == 1 && le
                                 d_array[7] == 1) {
   735  013426  EFFF  F09F         	goto	l882
   736                           	
   737  01342A                     l895:		; BSR set to: ?
   738                           
   739  01342A  0408               	decf	(0+((c:0)+08h)),c,w
   740  01342C  1009               	iorwf (1+((c:0)+08h)),c,w
   741                           
   742  01342E  A4D8               	btfss	status,2
   743  013430  EF1C  F09A         	goto	u3951
   744  013434  EF1E  F09A         	goto	u3950
   745  013438                     u3951:
   746  013438  EF2F  F09A         	goto	l897
   747  01343C                     u3950:
   748  01343C  040E               	decf	(0+((c:0)+0Eh)),c,w
   749  01343E  100F               	iorwf (1+((c:0)+0Eh)),c,w
   750                           
   751  013440  A4D8               	btfss	status,2
   752  013442  EF25  F09A         	goto	u3961
   753  013446  EF27  F09A         	goto	u3960
   754  01344A                     u3961:
   755  01344A  EF2F  F09A         	goto	l897
   756  01344E                     u3960:
   757                           	line	318
   758                           ;main.c: 318: LATA = 0b10111111;
   759  01344E  0EBF               	movlw	low(0BFh)
   760  013450  6E89               	movwf	((c:3977)),c	;volatile
   761                           	line	320
   762                           ;main.c: 320: LATB = 0b11000000;
   763  013452  0EC0               	movlw	low(0C0h)
   764  013454  6E8A               	movwf	((c:3978)),c	;volatile
   765                           	line	322
   766                           ;main.c: 322: LATC = 0b00001111;
   767  013456  0E0F               	movlw	low(0Fh)
   768  013458  6E8B               	movwf	((c:3979)),c	;volatile
   769                           	line	323
   770                           ;main.c: 323: } else if (led_array[4] == 1 && le
                                 d_array[8] == 1) {
   771  01345A  EFFF  F09F         	goto	l882
   772                           	
   773  01345E                     l897:		; BSR set to: ?
   774                           
   775  01345E  0408               	decf	(0+((c:0)+08h)),c,w
   776  013460  1009               	iorwf (1+((c:0)+08h)),c,w
   777                           
   778  013462  A4D8               	btfss	status,2
   779  013464  EF36  F09A         	goto	u3971
   780  013468  EF38  F09A         	goto	u3970
   781  01346C                     u3971:
   782  01346C  EF48  F09A         	goto	l899
   783  013470                     u3970:
   784  013470  0410               	decf	(0+((c:0)+010h)),c,w
   785  013472  1011               	iorwf (1+((c:0)+010h)),c,w
   786                           
   787  013474  A4D8               	btfss	status,2
   788  013476  EF3F  F09A         	goto	u3981
   789  01347A  EF41  F09A         	goto	u3980
   790  01347E                     u3981:
   791  01347E  EF48  F09A         	goto	l899
   792  013482                     u3980:
   793                           	line	326
   794                           ;main.c: 326: LATA = 0b11111111;
   795  013482  6889               	setf	((c:3977)),c	;volatile
   796                           	line	328
   797                           ;main.c: 328: LATB = 0b11000000;
   798  013484  0EC0               	movlw	low(0C0h)
   799  013486  6E8A               	movwf	((c:3978)),c	;volatile
   800                           	line	330
   801                           ;main.c: 330: LATC = 0b00001110;
   802  013488  0E0E               	movlw	low(0Eh)
   803  01348A  6E8B               	movwf	((c:3979)),c	;volatile
   804                           	line	331
   805                           ;main.c: 331: } else if (led_array[4] == 1 && le
                                 d_array[9] == 1) {
   806  01348C  EFFF  F09F         	goto	l882
   807                           	
   808  013490                     l899:		; BSR set to: ?
   809                           
   810  013490  0408               	decf	(0+((c:0)+08h)),c,w
   811  013492  1009               	iorwf (1+((c:0)+08h)),c,w
   812                           
   813  013494  A4D8               	btfss	status,2
   814  013496  EF4F  F09A         	goto	u3991
   815  01349A  EF51  F09A         	goto	u3990
   816  01349E                     u3991:
   817  01349E  EF61  F09A         	goto	l901
   818  0134A2                     u3990:
   819  0134A2  0412               	decf	(0+((c:0)+012h)),c,w
   820  0134A4  1013               	iorwf (1+((c:0)+012h)),c,w
   821                           
   822  0134A6  A4D8               	btfss	status,2
   823  0134A8  EF58  F09A         	goto	u4001
   824  0134AC  EF5A  F09A         	goto	u4000
   825  0134B0                     u4001:
   826  0134B0  EF61  F09A         	goto	l901
   827  0134B4                     u4000:
   828                           	line	334
   829                           ;main.c: 334: LATA = 0b11111111;
   830  0134B4  6889               	setf	((c:3977)),c	;volatile
   831                           	line	336
   832                           ;main.c: 336: LATB = 0b11000000;
   833  0134B6  0EC0               	movlw	low(0C0h)
   834  0134B8  6E8A               	movwf	((c:3978)),c	;volatile
   835                           	line	338
   836                           ;main.c: 338: LATC = 0b00001101;
   837  0134BA  0E0D               	movlw	low(0Dh)
   838  0134BC  6E8B               	movwf	((c:3979)),c	;volatile
   839                           	line	340
   840                           ;main.c: 340: } else if (led_array[4] == 1 && le
                                 d_array[10] == 1) {
   841  0134BE  EFFF  F09F         	goto	l882
   842                           	
   843  0134C2                     l901:		; BSR set to: ?
   844                           
   845  0134C2  0408               	decf	(0+((c:0)+08h)),c,w
   846  0134C4  1009               	iorwf (1+((c:0)+08h)),c,w
   847                           
   848  0134C6  A4D8               	btfss	status,2
   849  0134C8  EF68  F09A         	goto	u4011
   850  0134CC  EF6A  F09A         	goto	u4010
   851  0134D0                     u4011:
   852  0134D0  EF7A  F09A         	goto	l903
   853  0134D4                     u4010:
   854  0134D4  0414               	decf	(0+((c:0)+014h)),c,w
   855  0134D6  1015               	iorwf (1+((c:0)+014h)),c,w
   856                           
   857  0134D8  A4D8               	btfss	status,2
   858  0134DA  EF71  F09A         	goto	u4021
   859  0134DE  EF73  F09A         	goto	u4020
   860  0134E2                     u4021:
   861  0134E2  EF7A  F09A         	goto	l903
   862  0134E6                     u4020:
   863                           	line	343
   864                           ;main.c: 343: LATA = 0b11111111;
   865  0134E6  6889               	setf	((c:3977)),c	;volatile
   866                           	line	345
   867                           ;main.c: 345: LATB = 0b01000000;
   868  0134E8  0E40               	movlw	low(040h)
   869  0134EA  6E8A               	movwf	((c:3978)),c	;volatile
   870                           	line	347
   871                           ;main.c: 347: LATC = 0b00001111;
   872  0134EC  0E0F               	movlw	low(0Fh)
   873  0134EE  6E8B               	movwf	((c:3979)),c	;volatile
   874                           	line	349
   875                           ;main.c: 349: } else if (led_array[4] == 1 && le
                                 d_array[11] == 1) {
   876  0134F0  EFFF  F09F         	goto	l882
   877                           	
   878  0134F4                     l903:		; BSR set to: ?
   879                           
   880  0134F4  0408               	decf	(0+((c:0)+08h)),c,w
   881  0134F6  1009               	iorwf (1+((c:0)+08h)),c,w
   882                           
   883  0134F8  A4D8               	btfss	status,2
   884  0134FA  EF81  F09A         	goto	u4031
   885  0134FE  EF83  F09A         	goto	u4030
   886  013502                     u4031:
   887  013502  EF93  F09A         	goto	l905
   888  013506                     u4030:
   889  013506  0416               	decf	(0+((c:0)+016h)),c,w
   890  013508  1017               	iorwf (1+((c:0)+016h)),c,w
   891                           
   892  01350A  A4D8               	btfss	status,2
   893  01350C  EF8A  F09A         	goto	u4041
   894  013510  EF8C  F09A         	goto	u4040
   895+ 013514                     u4041:
   896+ 013514  EF93  F09A         	goto	l905
   897  013518                     u4040:
   898                           	line	352
   899                           ;main.c: 352: LATA = 0b11111111;
   900  013518  6889               	setf	((c:3977)),c	;volatile
   901                           	line	354
   902                           ;main.c: 354: LATB = 0b11000000;
   903  01351A  0EC0               	movlw	low(0C0h)
   904  01351C  6E8A               	movwf	((c:3978)),c	;volatile
   905                           	line	356
   906                           ;main.c: 356: LATC = 0b00001011;
   907  01351E  0E0B               	movlw	low(0Bh)
   908  013520  6E8B               	movwf	((c:3979)),c	;volatile
   909                           	line	358
   910                           ;main.c: 358: } else if (led_array[4] == 1 && le
                                 d_array[12] == 1) {
   911  013522  EFFF  F09F         	goto	l882
   912                           	
   913  013526                     l905:		; BSR set to: ?
   914                           
   915  013526  0408               	decf	(0+((c:0)+08h)),c,w
   916  013528  1009               	iorwf (1+((c:0)+08h)),c,w
   917                           
   918  01352A  A4D8               	btfss	status,2
   919  01352C  EF9A  F09A         	goto	u4051
   920  013530  EF9C  F09A         	goto	u4050
   921  013534                     u4051:
   922  013534  EFAC  F09A         	goto	l907
   923  013538                     u4050:
   924  013538  0418               	decf	(0+((c:0)+018h)),c,w
   925  01353A  1019               	iorwf (1+((c:0)+018h)),c,w
   926                           
   927  01353C  A4D8               	btfss	status,2
   928  01353E  EFA3  F09A         	goto	u4061
   929  013542  EFA5  F09A         	goto	u4060
   930  013546                     u4061:
   931  013546  EFAC  F09A         	goto	l907
   932  01354A                     u4060:
   933                           	line	361
   934                           ;main.c: 361: LATA = 0b11111111;
   935  01354A  6889               	setf	((c:3977)),c	;volatile
   936                           	line	363
   937                           ;main.c: 363: LATB = 0b11000000;
   938  01354C  0EC0               	movlw	low(0C0h)
   939  01354E  6E8A               	movwf	((c:3978)),c	;volatile
   940                           	line	365
   941                           ;main.c: 365: LATC = 0b00000111;
   942  013550  0E07               	movlw	low(07h)
   943  013552  6E8B               	movwf	((c:3979)),c	;volatile
   944                           	line	367
   945                           ;main.c: 367: } else if (led_array[5] == 1 && le
                                 d_array[6] == 1) {
   946  013554  EFFF  F09F         	goto	l882
   947                           	
   948  013558                     l907:		; BSR set to: ?
   949                           
   950  013558  040A               	decf	(0+((c:0)+0Ah)),c,w
   951  01355A  100B               	iorwf (1+((c:0)+0Ah)),c,w
   952                           
   953  01355C  A4D8               	btfss	status,2
   954  01355E  EFB3  F09A         	goto	u4071
   955  013562  EFB5  F09A         	goto	u4070
   956  013566                     u4071:
   957  013566  EFC6  F09A         	goto	l909
   958  01356A                     u4070:
   959  01356A  040C               	decf	(0+((c:0)+0Ch)),c,w
   960  01356C  100D               	iorwf (1+((c:0)+0Ch)),c,w
   961                           
   962  01356E  A4D8               	btfss	status,2
   963  013570  EFBC  F09A         	goto	u4081
   964  013574  EFBE  F09A         	goto	u4080
   965  013578                     u4081:
   966  013578  EFC6  F09A         	goto	l909
   967  01357C                     u4080:
   968                           	line	370
   969                           ;main.c: 370: LATA = 0b11101111;
   970  01357C  0EEF               	movlw	low(0EFh)
   971  01357E  6E89               	movwf	((c:3977)),c	;volatile
   972                           	line	372
   973                           ;main.c: 372: LATB = 0b10100000;
   974  013580  0EA0               	movlw	low(0A0h)
   975  013582  6E8A               	movwf	((c:3978)),c	;volatile
   976                           	line	374
   977                           ;main.c: 374: LATC = 0b00001111;
   978  013584  0E0F               	movlw	low(0Fh)
   979  013586  6E8B               	movwf	((c:3979)),c	;volatile
   980                           	line	376
   981                           ;main.c: 376: } else if (led_array[5] == 1 && le
                                 d_array[7] == 1) {
   982  013588  EFFF  F09F         	goto	l882
   983                           	
   984  01358C                     l909:		; BSR set to: ?
   985                           
   986  01358C  040A               	decf	(0+((c:0)+0Ah)),c,w
   987  01358E  100B               	iorwf (1+((c:0)+0Ah)),c,w
   988                           
   989  013590  A4D8               	btfss	status,2
   990  013592  EFCD  F09A         	goto	u4091
   991  013596  EFCF  F09A         	goto	u4090
   992  01359A                     u4091:
   993  01359A  EFE0  F09A         	goto	l911
   994  01359E                     u4090:
   995  01359E  040E               	decf	(0+((c:0)+0Eh)),c,w
   996  0135A0  100F               	iorwf (1+((c:0)+0Eh)),c,w
   997                           
   998  0135A2  A4D8               	btfss	status,2
   999  0135A4  EFD6  F09A         	goto	u4101
  1000  0135A8  EFD8  F09A         	goto	u4100
  1001  0135AC                     u4101:
  1002  0135AC  EFE0  F09A         	goto	l911
  1003  0135B0                     u4100:
  1004                           	line	379
  1005                           ;main.c: 379: LATA = 0b10111111;
  1006  0135B0  0EBF               	movlw	low(0BFh)
  1007  0135B2  6E89               	movwf	((c:3977)),c	;volatile
  1008                           	line	381
  1009                           ;main.c: 381: LATB = 0b10100000;
  1010  0135B4  0EA0               	movlw	low(0A0h)
  1011  0135B6  6E8A               	movwf	((c:3978)),c	;volatile
  1012                           	line	383
  1013                           ;main.c: 383: LATC = 0b00001111;
  1014  0135B8  0E0F               	movlw	low(0Fh)
  1015  0135BA  6E8B               	movwf	((c:3979)),c	;volatile
  1016                           	line	385
  1017                           ;main.c: 385: } else if (led_array[5] == 1 && le
                                 d_array[8] == 1) {
  1018  0135BC  EFFF  F09F         	goto	l882
  1019                           	
  1020  0135C0                     l911:		; BSR set to: ?
  1021                           
  1022  0135C0  040A               	decf	(0+((c:0)+0Ah)),c,w
  1023  0135C2  100B               	iorwf (1+((c:0)+0Ah)),c,w
  1024                           
  1025  0135C4  A4D8               	btfss	status,2
  1026  0135C6  EFE7  F09A         	goto	u4111
  1027  0135CA  EFE9  F09A         	goto	u4110
  1028  0135CE                     u4111:
  1029  0135CE  EFF9  F09A         	goto	l913
  1030  0135D2                     u4110:
  1031  0135D2  0410               	decf	(0+((c:0)+010h)),c,w
  1032  0135D4  1011               	iorwf (1+((c:0)+010h)),c,w
  1033                           
  1034  0135D6  A4D8               	btfss	status,2
  1035  0135D8  EFF0  F09A         	goto	u4121
  1036  0135DC  EFF2  F09A         	goto	u4120
  1037  0135E0                     u4121:
  1038  0135E0  EFF9  F09A         	goto	l913
  1039  0135E4                     u4120:
  1040                           	line	388
  1041                           ;main.c: 388: LATA = 0b11111111;
  1042  0135E4  6889               	setf	((c:3977)),c	;volatile
  1043                           	line	390
  1044                           ;main.c: 390: LATB = 0b10100000;
  1045  0135E6  0EA0               	movlw	low(0A0h)
  1046  0135E8  6E8A               	movwf	((c:3978)),c	;volatile
  1047                           	line	392
  1048                           ;main.c: 392: LATC = 0b00001110;
  1049  0135EA  0E0E               	movlw	low(0Eh)
  1050  0135EC  6E8B               	movwf	((c:3979)),c	;volatile
  1051                           	line	394
  1052                           ;main.c: 394: } else if (led_array[5] == 1 && le
                                 d_array[9] == 1) {
  1053  0135EE  EFFF  F09F         	goto	l882
  1054                           	
  1055  0135F2                     l913:		; BSR set to: ?
  1056                           
  1057  0135F2  040A               	decf	(0+((c:0)+0Ah)),c,w
  1058  0135F4  100B               	iorwf (1+((c:0)+0Ah)),c,w
  1059                           
  1060  0135F6  A4D8               	btfss	status,2
  1061  0135F8  EF00  F09B         	goto	u4131
  1062  0135FC  EF02  F09B         	goto	u4130
  1063  013600                     u4131:
  1064  013600  EF12  F09B         	goto	l915
  1065  013604                     u4130:
  1066  013604  0412               	decf	(0+((c:0)+012h)),c,w
  1067  013606  1013               	iorwf (1+((c:0)+012h)),c,w
  1068                           
  1069  013608  A4D8               	btfss	status,2
  1070  01360A  EF09  F09B         	goto	u4141
  1071  01360E  EF0B  F09B         	goto	u4140
  1072  013612                     u4141:
  1073  013612  EF12  F09B         	goto	l915
  1074  013616                     u4140:
  1075                           	line	397
  1076                           ;main.c: 397: LATA = 0b11111111;
  1077  013616  6889               	setf	((c:3977)),c	;volatile
  1078                           	line	399
  1079                           ;main.c: 399: LATB = 0b10100000;
  1080  013618  0EA0               	movlw	low(0A0h)
  1081  01361A  6E8A               	movwf	((c:3978)),c	;volatile
  1082                           	line	401
  1083                           ;main.c: 401: LATC = 0b00001101;
  1084  01361C  0E0D               	movlw	low(0Dh)
  1085  01361E  6E8B               	movwf	((c:3979)),c	;volatile
  1086                           	line	403
  1087                           ;main.c: 403: } else if (led_array[5] == 1 && le
                                 d_array[10] == 1) {
  1088  013620  EFFF  F09F         	goto	l882
  1089                           	
  1090  013624                     l915:		; BSR set to: ?
  1091                           
  1092  013624  040A               	decf	(0+((c:0)+0Ah)),c,w
  1093  013626  100B               	iorwf (1+((c:0)+0Ah)),c,w
  1094                           
  1095  013628  A4D8               	btfss	status,2
  1096  01362A  EF19  F09B         	goto	u4151
  1097  01362E  EF1B  F09B         	goto	u4150
  1098  013632                     u4151:
  1099  013632  EF2B  F09B         	goto	l917
  1100  013636                     u4150:
  1101  013636  0414               	decf	(0+((c:0)+014h)),c,w
  1102  013638  1015               	iorwf (1+((c:0)+014h)),c,w
  1103                           
  1104  01363A  A4D8               	btfss	status,2
  1105  01363C  EF22  F09B         	goto	u4161
  1106  013640  EF24  F09B         	goto	u4160
  1107  013644                     u4161:
  1108  013644  EF2B  F09B         	goto	l917
  1109  013648                     u4160:
  1110                           	line	406
  1111                           ;main.c: 406: LATA = 0b11111111;
  1112  013648  6889               	setf	((c:3977)),c	;volatile
  1113                           	line	408
  1114                           ;main.c: 408: LATB = 0b00100000;
  1115  01364A  0E20               	movlw	low(020h)
  1116  01364C  6E8A               	movwf	((c:3978)),c	;volatile
  1117                           	line	410
  1118                           ;main.c: 410: LATC = 0b00001111;
  1119  01364E  0E0F               	movlw	low(0Fh)
  1120  013650  6E8B               	movwf	((c:3979)),c	;volatile
  1121                           	line	412
  1122                           ;main.c: 412: } else if (led_array[5] == 1 && le
                                 d_array[11] == 1) {
  1123  013652  EFFF  F09F         	goto	l882
  1124                           	
  1125  013656                     l917:		; BSR set to: ?
  1126                           
  1127  013656  040A               	decf	(0+((c:0)+0Ah)),c,w
  1128  013658  100B               	iorwf (1+((c:0)+0Ah)),c,w
  1129                           
  1130  01365A  A4D8               	btfss	status,2
  1131  01365C  EF32  F09B         	goto	u4171
  1132  013660  EF34  F09B         	goto	u4170
  1133  013664                     u4171:
  1134  013664  EF44  F09B         	goto	l919
  1135  013668                     u4170:
  1136  013668  0416               	decf	(0+((c:0)+016h)),c,w
  1137  01366A  1017               	iorwf (1+((c:0)+016h)),c,w
  1138                           
  1139  01366C  A4D8               	btfss	status,2
  1140  01366E  EF3B  F09B         	goto	u4181
  1141  013672  EF3D  F09B         	goto	u4180
  1142  013676                     u4181:
  1143  013676  EF44  F09B         	goto	l919
  1144  01367A                     u4180:
  1145                           	line	415
  1146                           ;main.c: 415: LATA = 0b11111111;
  1147  01367A  6889               	setf	((c:3977)),c	;volatile
  1148                           	line	417
  1149                           ;main.c: 417: LATB = 0b10100000;
  1150  01367C  0EA0               	movlw	low(0A0h)
  1151  01367E  6E8A               	movwf	((c:3978)),c	;volatile
  1152                           	line	419
  1153                           ;main.c: 419: LATC = 0b00001011;
  1154  013680  0E0B               	movlw	low(0Bh)
  1155  013682  6E8B               	movwf	((c:3979)),c	;volatile
  1156                           	line	421
  1157                           ;main.c: 421: } else if (led_array[5] == 1 && le
                                 d_array[12] == 1) {
  1158  013684  EFFF  F09F         	goto	l882
  1159                           	
  1160  013688                     l919:		; BSR set to: ?
  1161                           
  1162  013688  040A               	decf	(0+((c:0)+0Ah)),c,w
  1163  01368A  100B               	iorwf (1+((c:0)+0Ah)),c,w
  1164                           
  1165  01368C  A4D8               	btfss	status,2
  1166  01368E  EF4B  F09B         	goto	u4191
  1167  013692  EF4D  F09B         	goto	u4190
  1168  013696                     u4191:
  1169  013696  EF5D  F09B         	goto	l921
  1170  01369A                     u4190:
  1171  01369A  0418               	decf	(0+((c:0)+018h)),c,w
  1172  01369C  1019               	iorwf (1+((c:0)+018h)),c,w
  1173                           
  1174  01369E  A4D8               	btfss	status,2
  1175  0136A0  EF54  F09B         	goto	u4201
  1176  0136A4  EF56  F09B         	goto	u4200
  1177  0136A8                     u4201:
  1178  0136A8  EF5D  F09B         	goto	l921
  1179  0136AC                     u4200:
  1180                           	line	424
  1181                           ;main.c: 424: LATA = 0b11111111;
  1182  0136AC  6889               	setf	((c:3977)),c	;volatile
  1183                           	line	426
  1184                           ;main.c: 426: LATB = 0b10100000;
  1185  0136AE  0EA0               	movlw	low(0A0h)
  1186  0136B0  6E8A               	movwf	((c:3978)),c	;volatile
  1187                           	line	428
  1188                           ;main.c: 428: LATC = 0b00000111;
  1189  0136B2  0E07               	movlw	low(07h)
  1190  0136B4  6E8B               	movwf	((c:3979)),c	;volatile
  1191                           	line	429
  1192                           ;main.c: 429: }
  1193  0136B6  EFFF  F09F         	goto	l882
  1194                           	line	432
  1195                           	
  1196  0136BA                     l921:		; BSR set to: ?
  1197                           
  1198                           ;main.c: 432: else if (led_array[2] == 1 && led_
                                 array[3] == 1 && led_array[6] == 1) {
  1199  0136BA  0404               	decf	(0+((c:0)+04h)),c,w
  1200  0136BC  1005               	iorwf (1+((c:0)+04h)),c,w
  1201                           
  1202  0136BE  A4D8               	btfss	status,2
  1203  0136C0  EF64  F09B         	goto	u4211
  1204  0136C4  EF66  F09B         	goto	u4210
  1205  0136C8                     u4211:
  1206  0136C8  EF80  F09B         	goto	l923
  1207  0136CC                     u4210:
  1208  0136CC  0406               	decf	(0+((c:0)+06h)),c,w
  1209  0136CE  1007               	iorwf (1+((c:0)+06h)),c,w
  1210                           
  1211  0136D0  A4D8               	btfss	status,2
  1212  0136D2  EF6D  F09B         	goto	u4221
  1213  0136D6  EF6F  F09B         	goto	u4220
  1214  0136DA                     u4221:
  1215  0136DA  EF80  F09B         	goto	l923
  1216  0136DE                     u4220:
  1217  0136DE  040C               	decf	(0+((c:0)+0Ch)),c,w
  1218  0136E0  100D               	iorwf (1+((c:0)+0Ch)),c,w
  1219                           
  1220  0136E2  A4D8               	btfss	status,2
  1221  0136E4  EF76  F09B         	goto	u4231
  1222  0136E8  EF78  F09B         	goto	u4230
  1223  0136EC                     u4231:
  1224  0136EC  EF80  F09B         	goto	l923
  1225  0136F0                     u4230:
  1226                           	line	435
  1227                           ;main.c: 435: LATA = 0b11101111;
  1228  0136F0  0EEF               	movlw	low(0EFh)
  1229  0136F2  6E89               	movwf	((c:3977)),c	;volatile
  1230                           	line	437
  1231                           ;main.c: 437: LATB = 0b10001100;
  1232  0136F4  0E8C               	movlw	low(08Ch)
  1233  0136F6  6E8A               	movwf	((c:3978)),c	;volatile
  1234                           	line	439
  1235                           ;main.c: 439: LATC = 0b00001111;
  1236  0136F8  0E0F               	movlw	low(0Fh)
  1237  0136FA  6E8B               	movwf	((c:3979)),c	;volatile
  1238                           	line	441
  1239                           ;main.c: 441: } else if (led_array[2] == 1 && le
                                 d_array[3] == 1 && led_array[7] == 1) {
  1240  0136FC  EFFF  F09F         	goto	l882
  1241                           	
  1242  013700                     l923:		; BSR set to: ?
  1243                           
  1244  013700  0404               	decf	(0+((c:0)+04h)),c,w
  1245  013702  1005               	iorwf (1+((c:0)+04h)),c,w
  1246                           
  1247  013704  A4D8               	btfss	status,2
  1248  013706  EF87  F09B         	goto	u4241
  1249  01370A  EF89  F09B         	goto	u4240
  1250  01370E                     u4241:
  1251  01370E  EFA3  F09B         	goto	l925
  1252  013712                     u4240:
  1253  013712  0406               	decf	(0+((c:0)+06h)),c,w
  1254  013714  1007               	iorwf (1+((c:0)+06h)),c,w
  1255                           
  1256  013716  A4D8               	btfss	status,2
  1257  013718  EF90  F09B         	goto	u4251
  1258  01371C  EF92  F09B         	goto	u4250
  1259  013720                     u4251:
  1260  013720  EFA3  F09B         	goto	l925
  1261  013724                     u4250:
  1262  013724  040E               	decf	(0+((c:0)+0Eh)),c,w
  1263  013726  100F               	iorwf (1+((c:0)+0Eh)),c,w
  1264                           
  1265  013728  A4D8               	btfss	status,2
  1266  01372A  EF99  F09B         	goto	u4261
  1267  01372E  EF9B  F09B         	goto	u4260
  1268  013732                     u4261:
  1269  013732  EFA3  F09B         	goto	l925
  1270  013736                     u4260:
  1271                           	line	444
  1272                           ;main.c: 444: LATA = 0b10111111;
  1273  013736  0EBF               	movlw	low(0BFh)
  1274  013738  6E89               	movwf	((c:3977)),c	;volatile
  1275                           	line	446
  1276                           ;main.c: 446: LATB = 0b10001100;
  1277  01373A  0E8C               	movlw	low(08Ch)
  1278  01373C  6E8A               	movwf	((c:3978)),c	;volatile
  1279                           	line	448
  1280                           ;main.c: 448: LATC = 0b00001111;
  1281  01373E  0E0F               	movlw	low(0Fh)
  1282  013740  6E8B               	movwf	((c:3979)),c	;volatile
  1283                           	line	450
  1284                           ;main.c: 450: } else if (led_array[2] == 1 && le
                                 d_array[3] == 1 && led_array[8] == 1) {
  1285  013742  EFFF  F09F         	goto	l882
  1286                           	
  1287  013746                     l925:		; BSR set to: ?
  1288                           
  1289  013746  0404               	decf	(0+((c:0)+04h)),c,w
  1290  013748  1005               	iorwf (1+((c:0)+04h)),c,w
  1291                           
  1292  01374A  A4D8               	btfss	status,2
  1293  01374C  EFAA  F09B         	goto	u4271
  1294  013750  EFAC  F09B         	goto	u4270
  1295  013754                     u4271:
  1296  013754  EFC5  F09B         	goto	l927
  1297  013758                     u4270:
  1298  013758  0406               	decf	(0+((c:0)+06h)),c,w
  1299  01375A  1007               	iorwf (1+((c:0)+06h)),c,w
  1300                           
  1301  01375C  A4D8               	btfss	status,2
  1302  01375E  EFB3  F09B         	goto	u4281
  1303  013762  EFB5  F09B         	goto	u4280
  1304  013766                     u4281:
  1305  013766  EFC5  F09B         	goto	l927
  1306  01376A                     u4280:
  1307  01376A  0410               	decf	(0+((c:0)+010h)),c,w
  1308  01376C  1011               	iorwf (1+((c:0)+010h)),c,w
  1309                           
  1310  01376E  A4D8               	btfss	status,2
  1311  013770  EFBC  F09B         	goto	u4291
  1312  013774  EFBE  F09B         	goto	u4290
  1313  013778                     u4291:
  1314  013778  EFC5  F09B         	goto	l927
  1315  01377C                     u4290:
  1316                           	line	453
  1317                           ;main.c: 453: LATA = 0b11111111;
  1318  01377C  6889               	setf	((c:3977)),c	;volatile
  1319                           	line	455
  1320                           ;main.c: 455: LATB = 0b10001100;
  1321  01377E  0E8C               	movlw	low(08Ch)
  1322  013780  6E8A               	movwf	((c:3978)),c	;volatile
  1323                           	line	457
  1324                           ;main.c: 457: LATC = 0b00001110;
  1325  013782  0E0E               	movlw	low(0Eh)
  1326  013784  6E8B               	movwf	((c:3979)),c	;volatile
  1327                           	line	459
  1328                           ;main.c: 459: } else if (led_array[2] == 1 && le
                                 d_array[3] == 1 && led_array[9] == 1) {
  1329  013786  EFFF  F09F         	goto	l882
  1330                           	
  1331  01378A                     l927:		; BSR set to: ?
  1332                           
  1333  01378A  0404               	decf	(0+((c:0)+04h)),c,w
  1334  01378C  1005               	iorwf (1+((c:0)+04h)),c,w
  1335                           
  1336  01378E  A4D8               	btfss	status,2
  1337  013790  EFCC  F09B         	goto	u4301
  1338  013794  EFCE  F09B         	goto	u4300
  1339  013798                     u4301:
  1340  013798  EFE7  F09B         	goto	l929
  1341  01379C                     u4300:
  1342  01379C  0406               	decf	(0+((c:0)+06h)),c,w
  1343  01379E  1007               	iorwf (1+((c:0)+06h)),c,w
  1344                           
  1345  0137A0  A4D8               	btfss	status,2
  1346  0137A2  EFD5  F09B         	goto	u4311
  1347  0137A6  EFD7  F09B         	goto	u4310
  1348  0137AA                     u4311:
  1349  0137AA  EFE7  F09B         	goto	l929
  1350  0137AE                     u4310:
  1351  0137AE  0412               	decf	(0+((c:0)+012h)),c,w
  1352  0137B0  1013               	iorwf (1+((c:0)+012h)),c,w
  1353                           
  1354  0137B2  A4D8               	btfss	status,2
  1355  0137B4  EFDE  F09B         	goto	u4321
  1356  0137B8  EFE0  F09B         	goto	u4320
  1357  0137BC                     u4321:
  1358  0137BC  EFE7  F09B         	goto	l929
  1359  0137C0                     u4320:
  1360                           	line	462
  1361                           ;main.c: 462: LATA = 0b11111111;
  1362  0137C0  6889               	setf	((c:3977)),c	;volatile
  1363                           	line	464
  1364                           ;main.c: 464: LATB = 0b10001100;
  1365  0137C2  0E8C               	movlw	low(08Ch)
  1366  0137C4  6E8A               	movwf	((c:3978)),c	;volatile
  1367                           	line	466
  1368                           ;main.c: 466: LATC = 0b00001101;
  1369  0137C6  0E0D               	movlw	low(0Dh)
  1370  0137C8  6E8B               	movwf	((c:3979)),c	;volatile
  1371                           	line	467
  1372                           ;main.c: 467: } else if (led_array[2] == 1 && le
                                 d_array[3] == 1 && led_array[10] == 1) {
  1373  0137CA  EFFF  F09F         	goto	l882
  1374                           	
  1375  0137CE                     l929:		; BSR set to: ?
  1376                           
  1377  0137CE  0404               	decf	(0+((c:0)+04h)),c,w
  1378  0137D0  1005               	iorwf (1+((c:0)+04h)),c,w
  1379                           
  1380  0137D2  A4D8               	btfss	status,2
  1381  0137D4  EFEE  F09B         	goto	u4331
  1382  0137D8  EFF0  F09B         	goto	u4330
  1383  0137DC                     u4331:
  1384  0137DC  EF09  F09C         	goto	l931
  1385  0137E0                     u4330:
  1386  0137E0  0406               	decf	(0+((c:0)+06h)),c,w
  1387  0137E2  1007               	iorwf (1+((c:0)+06h)),c,w
  1388                           
  1389  0137E4  A4D8               	btfss	status,2
  1390  0137E6  EFF7  F09B         	goto	u4341
  1391  0137EA  EFF9  F09B         	goto	u4340
  1392  0137EE                     u4341:
  1393  0137EE  EF09  F09C         	goto	l931
  1394  0137F2                     u4340:
  1395  0137F2  0414               	decf	(0+((c:0)+014h)),c,w
  1396  0137F4  1015               	iorwf (1+((c:0)+014h)),c,w
  1397                           
  1398  0137F6  A4D8               	btfss	status,2
  1399  0137F8  EF00  F09C         	goto	u4351
  1400  0137FC  EF02  F09C         	goto	u4350
  1401  013800                     u4351:
  1402  013800  EF09  F09C         	goto	l931
  1403  013804                     u4350:
  1404                           	line	470
  1405                           ;main.c: 470: LATA = 0b11111111;
  1406  013804  6889               	setf	((c:3977)),c	;volatile
  1407                           	line	472
  1408                           ;main.c: 472: LATB = 0b00001100;
  1409  013806  0E0C               	movlw	low(0Ch)
  1410  013808  6E8A               	movwf	((c:3978)),c	;volatile
  1411                           	line	474
  1412                           ;main.c: 474: LATC = 0b00001111;
  1413  01380A  0E0F               	movlw	low(0Fh)
  1414  01380C  6E8B               	movwf	((c:3979)),c	;volatile
  1415                           	line	475
  1416                           ;main.c: 475: } else if (led_array[2] == 1 && le
                                 d_array[3] == 1 && led_array[11] == 1) {
  1417  01380E  EFFF  F09F         	goto	l882
  1418                           	
  1419  013812                     l931:		; BSR set to: ?
  1420                           
  1421  013812  0404               	decf	(0+((c:0)+04h)),c,w
  1422  013814  1005               	iorwf (1+((c:0)+04h)),c,w
  1423                           
  1424  013816  A4D8               	btfss	status,2
  1425  013818  EF10  F09C         	goto	u4361
  1426  01381C  EF12  F09C         	goto	u4360
  1427  013820                     u4361:
  1428  013820  EF2B  F09C         	goto	l933
  1429  013824                     u4360:
  1430  013824  0406               	decf	(0+((c:0)+06h)),c,w
  1431  013826  1007               	iorwf (1+((c:0)+06h)),c,w
  1432                           
  1433  013828  A4D8               	btfss	status,2
  1434  01382A  EF19  F09C         	goto	u4371
  1435  01382E  EF1B  F09C         	goto	u4370
  1436  013832                     u4371:
  1437  013832  EF2B  F09C         	goto	l933
  1438  013836                     u4370:
  1439  013836  0416               	decf	(0+((c:0)+016h)),c,w
  1440  013838  1017               	iorwf (1+((c:0)+016h)),c,w
  1441                           
  1442  01383A  A4D8               	btfss	status,2
  1443  01383C  EF22  F09C         	goto	u4381
  1444  013840  EF24  F09C         	goto	u4380
  1445  013844                     u4381:
  1446  013844  EF2B  F09C         	goto	l933
  1447  013848                     u4380:
  1448                           	line	478
  1449                           ;main.c: 478: LATA = 0b11111111;
  1450  013848  6889               	setf	((c:3977)),c	;volatile
  1451                           	line	480
  1452                           ;main.c: 480: LATB = 0b10001100;
  1453  01384A  0E8C               	movlw	low(08Ch)
  1454  01384C  6E8A               	movwf	((c:3978)),c	;volatile
  1455                           	line	482
  1456                           ;main.c: 482: LATC = 0b00001011;
  1457  01384E  0E0B               	movlw	low(0Bh)
  1458  013850  6E8B               	movwf	((c:3979)),c	;volatile
  1459                           	line	483
  1460                           ;main.c: 483: } else if (led_array[2] == 1 && le
                                 d_array[3] == 1 && led_array[12] == 1) {
  1461  013852  EFFF  F09F         	goto	l882
  1462                           	
  1463  013856                     l933:		; BSR set to: ?
  1464                           
  1465  013856  0404               	decf	(0+((c:0)+04h)),c,w
  1466  013858  1005               	iorwf (1+((c:0)+04h)),c,w
  1467                           
  1468  01385A  A4D8               	btfss	status,2
  1469  01385C  EF32  F09C         	goto	u4391
  1470  013860  EF34  F09C         	goto	u4390
  1471  013864                     u4391:
  1472  013864  EF4D  F09C         	goto	l935
  1473  013868                     u4390:
  1474  013868  0406               	decf	(0+((c:0)+06h)),c,w
  1475  01386A  1007               	iorwf (1+((c:0)+06h)),c,w
  1476                           
  1477  01386C  A4D8               	btfss	status,2
  1478  01386E  EF3B  F09C         	goto	u4401
  1479  013872  EF3D  F09C         	goto	u4400
  1480  013876                     u4401:
  1481  013876  EF4D  F09C         	goto	l935
  1482  01387A                     u4400:
  1483  01387A  0418               	decf	(0+((c:0)+018h)),c,w
  1484  01387C  1019               	iorwf (1+((c:0)+018h)),c,w
  1485                           
  1486  01387E  A4D8               	btfss	status,2
  1487  013880  EF44  F09C         	goto	u4411
  1488  013884  EF46  F09C         	goto	u4410
  1489  013888                     u4411:
  1490  013888  EF4D  F09C         	goto	l935
  1491  01388C                     u4410:
  1492                           	line	486
  1493                           ;main.c: 486: LATA = 0b11111111;
  1494  01388C  6889               	setf	((c:3977)),c	;volatile
  1495                           	line	488
  1496                           ;main.c: 488: LATB = 0b10001100;
  1497  01388E  0E8C               	movlw	low(08Ch)
  1498  013890  6E8A               	movwf	((c:3978)),c	;volatile
  1499                           	line	490
  1500                           ;main.c: 490: LATC = 0b00000111;
  1501  013892  0E07               	movlw	low(07h)
  1502  013894  6E8B               	movwf	((c:3979)),c	;volatile
  1503                           	line	491
  1504                           ;main.c: 491: } else if (led_array[2] == 1 && le
                                 d_array[6] == 1) {
  1505  013896  EFFF  F09F         	goto	l882
  1506                           	
  1507  01389A                     l935:		; BSR set to: ?
  1508                           
  1509  01389A  0404               	decf	(0+((c:0)+04h)),c,w
  1510  01389C  1005               	iorwf (1+((c:0)+04h)),c,w
  1511                           
  1512  01389E  A4D8               	btfss	status,2
  1513  0138A0  EF54  F09C         	goto	u4421
  1514  0138A4  EF56  F09C         	goto	u4420
  1515  0138A8                     u4421:
  1516  0138A8  EF67  F09C         	goto	l937
  1517  0138AC                     u4420:
  1518  0138AC  040C               	decf	(0+((c:0)+0Ch)),c,w
  1519  0138AE  100D               	iorwf (1+((c:0)+0Ch)),c,w
  1520                           
  1521  0138B0  A4D8               	btfss	status,2
  1522  0138B2  EF5D  F09C         	goto	u4431
  1523  0138B6  EF5F  F09C         	goto	u4430
  1524  0138BA                     u4431:
  1525  0138BA  EF67  F09C         	goto	l937
  1526  0138BE                     u4430:
  1527                           	line	494
  1528                           ;main.c: 494: LATA = 0b11101111;
  1529  0138BE  0EEF               	movlw	low(0EFh)
  1530  0138C0  6E89               	movwf	((c:3977)),c	;volatile
  1531                           	line	496
  1532                           ;main.c: 496: LATB = 0b10000100;
  1533  0138C2  0E84               	movlw	low(084h)
  1534  0138C4  6E8A               	movwf	((c:3978)),c	;volatile
  1535                           	line	498
  1536                           ;main.c: 498: LATC = 0b00001111;
  1537  0138C6  0E0F               	movlw	low(0Fh)
  1538  0138C8  6E8B               	movwf	((c:3979)),c	;volatile
  1539                           	line	500
  1540                           ;main.c: 500: } else if (led_array[2] == 1 && le
                                 d_array[7] == 1) {
  1541  0138CA  EFFF  F09F         	goto	l882
  1542                           	
  1543  0138CE                     l937:		; BSR set to: ?
  1544                           
  1545  0138CE  0404               	decf	(0+((c:0)+04h)),c,w
  1546  0138D0  1005               	iorwf (1+((c:0)+04h)),c,w
  1547                           
  1548  0138D2  A4D8               	btfss	status,2
  1549  0138D4  EF6E  F09C         	goto	u4441
  1550  0138D8  EF70  F09C         	goto	u4440
  1551  0138DC                     u4441:
  1552  0138DC  EF81  F09C         	goto	l939
  1553  0138E0                     u4440:
  1554  0138E0  040E               	decf	(0+((c:0)+0Eh)),c,w
  1555  0138E2  100F               	iorwf (1+((c:0)+0Eh)),c,w
  1556                           
  1557  0138E4  A4D8               	btfss	status,2
  1558  0138E6  EF77  F09C         	goto	u4451
  1559  0138EA  EF79  F09C         	goto	u4450
  1560  0138EE                     u4451:
  1561  0138EE  EF81  F09C         	goto	l939
  1562  0138F2                     u4450:
  1563                           	line	503
  1564                           ;main.c: 503: LATA = 0b10111111;
  1565  0138F2  0EBF               	movlw	low(0BFh)
  1566  0138F4  6E89               	movwf	((c:3977)),c	;volatile
  1567                           	line	505
  1568                           ;main.c: 505: LATB = 0b10000100;
  1569  0138F6  0E84               	movlw	low(084h)
  1570  0138F8  6E8A               	movwf	((c:3978)),c	;volatile
  1571                           	line	507
  1572                           ;main.c: 507: LATC = 0b00001111;
  1573  0138FA  0E0F               	movlw	low(0Fh)
  1574  0138FC  6E8B               	movwf	((c:3979)),c	;volatile
  1575                           	line	509
  1576                           ;main.c: 509: } else if (led_array[2] == 1 && le
                                 d_array[8] == 1) {
  1577  0138FE  EFFF  F09F         	goto	l882
  1578                           	
  1579  013902                     l939:		; BSR set to: ?
  1580                           
  1581  013902  0404               	decf	(0+((c:0)+04h)),c,w
  1582  013904  1005               	iorwf (1+((c:0)+04h)),c,w
  1583                           
  1584  013906  A4D8               	btfss	status,2
  1585  013908  EF88  F09C         	goto	u4461
  1586  01390C  EF8A  F09C         	goto	u4460
  1587  013910                     u4461:
  1588  013910  EF9A  F09C         	goto	l941
  1589  013914                     u4460:
  1590  013914  0410               	decf	(0+((c:0)+010h)),c,w
  1591  013916  1011               	iorwf (1+((c:0)+010h)),c,w
  1592                           
  1593  013918  A4D8               	btfss	status,2
  1594  01391A  EF91  F09C         	goto	u4471
  1595  01391E  EF93  F09C         	goto	u4470
  1596  013922                     u4471:
  1597  013922  EF9A  F09C         	goto	l941
  1598  013926                     u4470:
  1599                           	line	512
  1600                           ;main.c: 512: LATA = 0b11111111;
  1601  013926  6889               	setf	((c:3977)),c	;volatile
  1602                           	line	514
  1603                           ;main.c: 514: LATB = 0b10000100;
  1604  013928  0E84               	movlw	low(084h)
  1605  01392A  6E8A               	movwf	((c:3978)),c	;volatile
  1606                           	line	516
  1607                           ;main.c: 516: LATC = 0b00001110;
  1608  01392C  0E0E               	movlw	low(0Eh)
  1609  01392E  6E8B               	movwf	((c:3979)),c	;volatile
  1610                           	line	518
  1611                           ;main.c: 518: } else if (led_array[2] == 1 && le
                                 d_array[9] == 1) {
  1612  013930  EFFF  F09F         	goto	l882
  1613                           	
  1614  013934                     l941:		; BSR set to: ?
  1615                           
  1616  013934  0404               	decf	(0+((c:0)+04h)),c,w
  1617  013936  1005               	iorwf (1+((c:0)+04h)),c,w
  1618                           
  1619  013938  A4D8               	btfss	status,2
  1620  01393A  EFA1  F09C         	goto	u4481
  1621  01393E  EFA3  F09C         	goto	u4480
  1622  013942                     u4481:
  1623  013942  EFB3  F09C         	goto	l943
  1624  013946                     u4480:
  1625  013946  0412               	decf	(0+((c:0)+012h)),c,w
  1626  013948  1013               	iorwf (1+((c:0)+012h)),c,w
  1627                           
  1628  01394A  A4D8               	btfss	status,2
  1629  01394C  EFAA  F09C         	goto	u4491
  1630  013950  EFAC  F09C         	goto	u4490
  1631  013954                     u4491:
  1632  013954  EFB3  F09C         	goto	l943
  1633  013958                     u4490:
  1634                           	line	521
  1635                           ;main.c: 521: LATA = 0b11111111;
  1636  013958  6889               	setf	((c:3977)),c	;volatile
  1637                           	line	523
  1638                           ;main.c: 523: LATB = 0b10000100;
  1639  01395A  0E84               	movlw	low(084h)
  1640  01395C  6E8A               	movwf	((c:3978)),c	;volatile
  1641                           	line	525
  1642                           ;main.c: 525: LATC = 0b00001101;
  1643  01395E  0E0D               	movlw	low(0Dh)
  1644  013960  6E8B               	movwf	((c:3979)),c	;volatile
  1645                           	line	527
  1646                           ;main.c: 527: } else if (led_array[2] == 1 && le
                                 d_array[10] == 1) {
  1647  013962  EFFF  F09F         	goto	l882
  1648                           	
  1649  013966                     l943:		; BSR set to: ?
  1650                           
  1651  013966  0404               	decf	(0+((c:0)+04h)),c,w
  1652  013968  1005               	iorwf (1+((c:0)+04h)),c,w
  1653                           
  1654  01396A  A4D8               	btfss	status,2
  1655  01396C  EFBA  F09C         	goto	u4501
  1656  013970  EFBC  F09C         	goto	u4500
  1657  013974                     u4501:
  1658  013974  EFCC  F09C         	goto	l945
  1659  013978                     u4500:
  1660  013978  0414               	decf	(0+((c:0)+014h)),c,w
  1661  01397A  1015               	iorwf (1+((c:0)+014h)),c,w
  1662                           
  1663  01397C  A4D8               	btfss	status,2
  1664  01397E  EFC3  F09C         	goto	u4511
  1665  013982  EFC5  F09C         	goto	u4510
  1666  013986                     u4511:
  1667  013986  EFCC  F09C         	goto	l945
  1668  01398A                     u4510:
  1669                           	line	530
  1670                           ;main.c: 530: LATA = 0b11111111;
  1671  01398A  6889               	setf	((c:3977)),c	;volatile
  1672                           	line	532
  1673                           ;main.c: 532: LATB = 0b00000100;
  1674  01398C  0E04               	movlw	low(04h)
  1675  01398E  6E8A               	movwf	((c:3978)),c	;volatile
  1676                           	line	534
  1677                           ;main.c: 534: LATC = 0b00001111;
  1678  013990  0E0F               	movlw	low(0Fh)
  1679  013992  6E8B               	movwf	((c:3979)),c	;volatile
  1680                           	line	536
  1681                           ;main.c: 536: } else if (led_array[2] == 1 && le
                                 d_array[11] == 1) {
  1682  013994  EFFF  F09F         	goto	l882
  1683                           	
  1684  013998                     l945:		; BSR set to: ?
  1685                           
  1686  013998  0404               	decf	(0+((c:0)+04h)),c,w
  1687  01399A  1005               	iorwf (1+((c:0)+04h)),c,w
  1688                           
  1689  01399C  A4D8               	btfss	status,2
  1690  01399E  EFD3  F09C         	goto	u4521
  1691  0139A2  EFD5  F09C         	goto	u4520
  1692  0139A6                     u4521:
  1693  0139A6  EFE5  F09C         	goto	l947
  1694  0139AA                     u4520:
  1695  0139AA  0416               	decf	(0+((c:0)+016h)),c,w
  1696  0139AC  1017               	iorwf (1+((c:0)+016h)),c,w
  1697                           
  1698  0139AE  A4D8               	btfss	status,2
  1699  0139B0  EFDC  F09C         	goto	u4531
  1700  0139B4  EFDE  F09C         	goto	u4530
  1701  0139B8                     u4531:
  1702  0139B8  EFE5  F09C         	goto	l947
  1703  0139BC                     u4530:
  1704                           	line	539
  1705                           ;main.c: 539: LATA = 0b11111111;
  1706  0139BC  6889               	setf	((c:3977)),c	;volatile
  1707                           	line	541
  1708                           ;main.c: 541: LATB = 0b10000100;
  1709  0139BE  0E84               	movlw	low(084h)
  1710  0139C0  6E8A               	movwf	((c:3978)),c	;volatile
  1711                           	line	543
  1712                           ;main.c: 543: LATC = 0b00001011;
  1713  0139C2  0E0B               	movlw	low(0Bh)
  1714  0139C4  6E8B               	movwf	((c:3979)),c	;volatile
  1715                           	line	545
  1716                           ;main.c: 545: } else if (led_array[2] == 1 && le
                                 d_array[12] == 1) {
  1717  0139C6  EFFF  F09F         	goto	l882
  1718                           	
  1719  0139CA                     l947:		; BSR set to: ?
  1720                           
  1721  0139CA  0404               	decf	(0+((c:0)+04h)),c,w
  1722  0139CC  1005               	iorwf (1+((c:0)+04h)),c,w
  1723                           
  1724  0139CE  A4D8               	btfss	status,2
  1725  0139D0  EFEC  F09C         	goto	u4541
  1726  0139D4  EFEE  F09C         	goto	u4540
  1727  0139D8                     u4541:
  1728  0139D8  EFFE  F09C         	goto	l949
  1729  0139DC                     u4540:
  1730  0139DC  0418               	decf	(0+((c:0)+018h)),c,w
  1731  0139DE  1019               	iorwf (1+((c:0)+018h)),c,w
  1732                           
  1733  0139E0  A4D8               	btfss	status,2
  1734  0139E2  EFF5  F09C         	goto	u4551
  1735  0139E6  EFF7  F09C         	goto	u4550
  1736  0139EA                     u4551:
  1737  0139EA  EFFE  F09C         	goto	l949
  1738  0139EE                     u4550:
  1739                           	line	548
  1740                           ;main.c: 548: LATA = 0b11111111;
  1741  0139EE  6889               	setf	((c:3977)),c	;volatile
  1742                           	line	550
  1743                           ;main.c: 550: LATB = 0b10000100;
  1744  0139F0  0E84               	movlw	low(084h)
  1745  0139F2  6E8A               	movwf	((c:3978)),c	;volatile
  1746                           	line	552
  1747                           ;main.c: 552: LATC = 0b00000111;
  1748  0139F4  0E07               	movlw	low(07h)
  1749  0139F6  6E8B               	movwf	((c:3979)),c	;volatile
  1750                           	line	554
  1751                           ;main.c: 554: } else if (led_array[3] == 1 && le
                                 d_array[6] == 1) {
  1752  0139F8  EFFF  F09F         	goto	l882
  1753                           	
  1754  0139FC                     l949:		; BSR set to: ?
  1755                           
  1756  0139FC  0406               	decf	(0+((c:0)+06h)),c,w
  1757  0139FE  1007               	iorwf (1+((c:0)+06h)),c,w
  1758                           
  1759  013A00  A4D8               	btfss	status,2
  1760  013A02  EF05  F09D         	goto	u4561
  1761  013A06  EF07  F09D         	goto	u4560
  1762  013A0A                     u4561:
  1763  013A0A  EF18  F09D         	goto	l951
  1764  013A0E                     u4560:
  1765  013A0E  040C               	decf	(0+((c:0)+0Ch)),c,w
  1766  013A10  100D               	iorwf (1+((c:0)+0Ch)),c,w
  1767                           
  1768  013A12  A4D8               	btfss	status,2
  1769  013A14  EF0E  F09D         	goto	u4571
  1770  013A18  EF10  F09D         	goto	u4570
  1771  013A1C                     u4571:
  1772  013A1C  EF18  F09D         	goto	l951
  1773  013A20                     u4570:
  1774                           	line	557
  1775                           ;main.c: 557: LATA = 0b11101111;
  1776  013A20  0EEF               	movlw	low(0EFh)
  1777  013A22  6E89               	movwf	((c:3977)),c	;volatile
  1778                           	line	559
  1779                           ;main.c: 559: LATB = 0b10001000;
  1780  013A24  0E88               	movlw	low(088h)
  1781  013A26  6E8A               	movwf	((c:3978)),c	;volatile
  1782                           	line	561
  1783                           ;main.c: 561: LATC = 0b00001111;
  1784  013A28  0E0F               	movlw	low(0Fh)
  1785  013A2A  6E8B               	movwf	((c:3979)),c	;volatile
  1786                           	line	563
  1787                           ;main.c: 563: } else if (led_array[3] == 1 && le
                                 d_array[7] == 1) {
  1788  013A2C  EFFF  F09F         	goto	l882
  1789                           	
  1790  013A30                     l951:		; BSR set to: ?
  1791                           
  1792  013A30  0406               	decf	(0+((c:0)+06h)),c,w
  1793  013A32  1007               	iorwf (1+((c:0)+06h)),c,w
  1794                           
  1795  013A34  A4D8               	btfss	status,2
  1796  013A36  EF1F  F09D         	goto	u4581
  1797  013A3A  EF21  F09D         	goto	u4580
  1798  013A3E                     u4581:
  1799  013A3E  EF32  F09D         	goto	l953
  1800  013A42                     u4580:
  1801  013A42  040E               	decf	(0+((c:0)+0Eh)),c,w
  1802  013A44  100F               	iorwf (1+((c:0)+0Eh)),c,w
  1803                           
  1804  013A46  A4D8               	btfss	status,2
  1805  013A48  EF28  F09D         	goto	u4591
  1806  013A4C  EF2A  F09D         	goto	u4590
  1807  013A50                     u4591:
  1808  013A50  EF32  F09D         	goto	l953
  1809  013A54                     u4590:
  1810                           	line	566
  1811                           ;main.c: 566: LATA = 0b10111111;
  1812  013A54  0EBF               	movlw	low(0BFh)
  1813  013A56  6E89               	movwf	((c:3977)),c	;volatile
  1814                           	line	568
  1815                           ;main.c: 568: LATB = 0b10001000;
  1816  013A58  0E88               	movlw	low(088h)
  1817  013A5A  6E8A               	movwf	((c:3978)),c	;volatile
  1818                           	line	570
  1819                           ;main.c: 570: LATC = 0b00001111;
  1820  013A5C  0E0F               	movlw	low(0Fh)
  1821  013A5E  6E8B               	movwf	((c:3979)),c	;volatile
  1822                           	line	572
  1823                           ;main.c: 572: } else if (led_array[3] == 1 && le
                                 d_array[8] == 1) {
  1824  013A60  EFFF  F09F         	goto	l882
  1825                           	
  1826  013A64                     l953:		; BSR set to: ?
  1827                           
  1828  013A64  0406               	decf	(0+((c:0)+06h)),c,w
  1829  013A66  1007               	iorwf (1+((c:0)+06h)),c,w
  1830                           
  1831  013A68  A4D8               	btfss	status,2
  1832  013A6A  EF39  F09D         	goto	u4601
  1833  013A6E  EF3B  F09D         	goto	u4600
  1834  013A72                     u4601:
  1835  013A72  EF4B  F09D         	goto	l955
  1836  013A76                     u4600:
  1837  013A76  0410               	decf	(0+((c:0)+010h)),c,w
  1838  013A78  1011               	iorwf (1+((c:0)+010h)),c,w
  1839                           
  1840  013A7A  A4D8               	btfss	status,2
  1841  013A7C  EF42  F09D         	goto	u4611
  1842  013A80  EF44  F09D         	goto	u4610
  1843  013A84                     u4611:
  1844  013A84  EF4B  F09D         	goto	l955
  1845  013A88                     u4610:
  1846                           	line	575
  1847                           ;main.c: 575: LATA = 0b11111111;
  1848  013A88  6889               	setf	((c:3977)),c	;volatile
  1849                           	line	577
  1850                           ;main.c: 577: LATB = 0b10001000;
  1851  013A8A  0E88               	movlw	low(088h)
  1852  013A8C  6E8A               	movwf	((c:3978)),c	;volatile
  1853                           	line	579
  1854                           ;main.c: 579: LATC = 0b00001110;
  1855  013A8E  0E0E               	movlw	low(0Eh)
  1856  013A90  6E8B               	movwf	((c:3979)),c	;volatile
  1857                           	line	581
  1858                           ;main.c: 581: } else if (led_array[3] == 1 && le
                                 d_array[9] == 1) {
  1859  013A92  EFFF  F09F         	goto	l882
  1860                           	
  1861  013A96                     l955:		; BSR set to: ?
  1862                           
  1863  013A96  0406               	decf	(0+((c:0)+06h)),c,w
  1864  013A98  1007               	iorwf (1+((c:0)+06h)),c,w
  1865                           
  1866  013A9A  A4D8               	btfss	status,2
  1867  013A9C  EF52  F09D         	goto	u4621
  1868  013AA0  EF54  F09D         	goto	u4620
  1869  013AA4                     u4621:
  1870  013AA4  EF64  F09D         	goto	l957
  1871  013AA8                     u4620:
  1872  013AA8  0412               	decf	(0+((c:0)+012h)),c,w
  1873  013AAA  1013               	iorwf (1+((c:0)+012h)),c,w
  1874                           
  1875  013AAC  A4D8               	btfss	status,2
  1876  013AAE  EF5B  F09D         	goto	u4631
  1877  013AB2  EF5D  F09D         	goto	u4630
  1878  013AB6                     u4631:
  1879  013AB6  EF64  F09D         	goto	l957
  1880  013ABA                     u4630:
  1881                           	line	584
  1882                           ;main.c: 584: LATA = 0b11111111;
  1883  013ABA  6889               	setf	((c:3977)),c	;volatile
  1884                           	line	586
  1885                           ;main.c: 586: LATB = 0b10001000;
  1886  013ABC  0E88               	movlw	low(088h)
  1887  013ABE  6E8A               	movwf	((c:3978)),c	;volatile
  1888                           	line	588
  1889                           ;main.c: 588: LATC = 0b00001101;
  1890  013AC0  0E0D               	movlw	low(0Dh)
  1891  013AC2  6E8B               	movwf	((c:3979)),c	;volatile
  1892                           	line	590
  1893                           ;main.c: 590: } else if (led_array[3] == 1 && le
                                 d_array[10] == 1) {
  1894  013AC4  EFFF  F09F         	goto	l882
  1895                           	
  1896  013AC8                     l957:		; BSR set to: ?
  1897                           
  1898  013AC8  0406               	decf	(0+((c:0)+06h)),c,w
  1899  013ACA  1007               	iorwf (1+((c:0)+06h)),c,w
  1900                           
  1901  013ACC  A4D8               	btfss	status,2
  1902  013ACE  EF6B  F09D         	goto	u4641
  1903  013AD2  EF6D  F09D         	goto	u4640
  1904  013AD6                     u4641:
  1905  013AD6  EF7D  F09D         	goto	l959
  1906  013ADA                     u4640:
  1907  013ADA  0414               	decf	(0+((c:0)+014h)),c,w
  1908  013ADC  1015               	iorwf (1+((c:0)+014h)),c,w
  1909                           
  1910  013ADE  A4D8               	btfss	status,2
  1911  013AE0  EF74  F09D         	goto	u4651
  1912  013AE4  EF76  F09D         	goto	u4650
  1913  013AE8                     u4651:
  1914  013AE8  EF7D  F09D         	goto	l959
  1915  013AEC                     u4650:
  1916                           	line	593
  1917                           ;main.c: 593: LATA = 0b11111111;
  1918  013AEC  6889               	setf	((c:3977)),c	;volatile
  1919                           	line	595
  1920                           ;main.c: 595: LATB = 0b00001000;
  1921  013AEE  0E08               	movlw	low(08h)
  1922  013AF0  6E8A               	movwf	((c:3978)),c	;volatile
  1923                           	line	597
  1924                           ;main.c: 597: LATC = 0b00001111;
  1925  013AF2  0E0F               	movlw	low(0Fh)
  1926  013AF4  6E8B               	movwf	((c:3979)),c	;volatile
  1927                           	line	599
  1928                           ;main.c: 599: } else if (led_array[3] == 1 && le
                                 d_array[11] == 1) {
  1929  013AF6  EFFF  F09F         	goto	l882
  1930                           	
  1931  013AFA                     l959:		; BSR set to: ?
  1932                           
  1933  013AFA  0406               	decf	(0+((c:0)+06h)),c,w
  1934  013AFC  1007               	iorwf (1+((c:0)+06h)),c,w
  1935                           
  1936  013AFE  A4D8               	btfss	status,2
  1937  013B00  EF84  F09D         	goto	u4661
  1938  013B04  EF86  F09D         	goto	u4660
  1939  013B08                     u4661:
  1940  013B08  EF96  F09D         	goto	l961
  1941  013B0C                     u4660:
  1942  013B0C  0416               	decf	(0+((c:0)+016h)),c,w
  1943  013B0E  1017               	iorwf (1+((c:0)+016h)),c,w
  1944                           
  1945  013B10  A4D8               	btfss	status,2
  1946  013B12  EF8D  F09D         	goto	u4671
  1947  013B16  EF8F  F09D         	goto	u4670
  1948  013B1A                     u4671:
  1949  013B1A  EF96  F09D         	goto	l961
  1950  013B1E                     u4670:
  1951                           	line	602
  1952                           ;main.c: 602: LATA = 0b11111111;
  1953  013B1E  6889               	setf	((c:3977)),c	;volatile
  1954                           	line	604
  1955                           ;main.c: 604: LATB = 0b10001000;
  1956  013B20  0E88               	movlw	low(088h)
  1957  013B22  6E8A               	movwf	((c:3978)),c	;volatile
  1958                           	line	606
  1959                           ;main.c: 606: LATC = 0b00001011;
  1960  013B24  0E0B               	movlw	low(0Bh)
  1961  013B26  6E8B               	movwf	((c:3979)),c	;volatile
  1962                           	line	608
  1963                           ;main.c: 608: } else if (led_array[3] == 1 && le
                                 d_array[12] == 1) {
  1964  013B28  EFFF  F09F         	goto	l882
  1965                           	
  1966  013B2C                     l961:		; BSR set to: ?
  1967                           
  1968  013B2C  0406               	decf	(0+((c:0)+06h)),c,w
  1969  013B2E  1007               	iorwf (1+((c:0)+06h)),c,w
  1970                           
  1971  013B30  A4D8               	btfss	status,2
  1972  013B32  EF9D  F09D         	goto	u4681
  1973  013B36  EF9F  F09D         	goto	u4680
  1974  013B3A                     u4681:
  1975  013B3A  EFAF  F09D         	goto	l963
  1976  013B3E                     u4680:
  1977  013B3E  0418               	decf	(0+((c:0)+018h)),c,w
  1978  013B40  1019               	iorwf (1+((c:0)+018h)),c,w
  1979                           
  1980  013B42  A4D8               	btfss	status,2
  1981  013B44  EFA6  F09D         	goto	u4691
  1982  013B48  EFA8  F09D         	goto	u4690
  1983  013B4C                     u4691:
  1984  013B4C  EFAF  F09D         	goto	l963
  1985  013B50                     u4690:
  1986                           	line	611
  1987                           ;main.c: 611: LATA = 0b11111111;
  1988  013B50  6889               	setf	((c:3977)),c	;volatile
  1989                           	line	613
  1990                           ;main.c: 613: LATB = 0b10001000;
  1991  013B52  0E88               	movlw	low(088h)
  1992  013B54  6E8A               	movwf	((c:3978)),c	;volatile
  1993                           	line	615
  1994                           ;main.c: 615: LATC = 0b00000111;
  1995  013B56  0E07               	movlw	low(07h)
  1996  013B58  6E8B               	movwf	((c:3979)),c	;volatile
  1997                           	line	616
  1998                           ;main.c: 616: }
  1999  013B5A  EFFF  F09F         	goto	l882
  2000                           	line	619
  2001                           	
  2002  013B5E                     l963:		; BSR set to: ?
  2003                           
  2004                           ;main.c: 619: else if (led_array[0] == 1 && led_
                                 array[1] == 1 && led_array[6] == 1) {
  2005  013B5E  0400               	decf	((c:0)),c,w
  2006  013B60  1001               	iorwf ((c:0+1)),c,w
  2007                           
  2008  013B62  A4D8               	btfss	status,2
  2009  013B64  EFB6  F09D         	goto	u4701
  2010  013B68  EFB8  F09D         	goto	u4700
  2011  013B6C                     u4701:
  2012  013B6C  EFD2  F09D         	goto	l965
  2013  013B70                     u4700:
  2014  013B70  0402               	decf	(0+((c:0)+02h)),c,w
  2015  013B72  1003               	iorwf (1+((c:0)+02h)),c,w
  2016                           
  2017  013B74  A4D8               	btfss	status,2
  2018  013B76  EFBF  F09D         	goto	u4711
  2019  013B7A  EFC1  F09D         	goto	u4710
  2020  013B7E                     u4711:
  2021  013B7E  EFD2  F09D         	goto	l965
  2022  013B82                     u4710:
  2023  013B82  040C               	decf	(0+((c:0)+0Ch)),c,w
  2024  013B84  100D               	iorwf (1+((c:0)+0Ch)),c,w
  2025                           
  2026  013B86  A4D8               	btfss	status,2
  2027  013B88  EFC8  F09D         	goto	u4721
  2028  013B8C  EFCA  F09D         	goto	u4720
  2029  013B90                     u4721:
  2030  013B90  EFD2  F09D         	goto	l965
  2031  013B94                     u4720:
  2032                           	line	622
  2033                           ;main.c: 622: LATA = 0b11101111;
  2034  013B94  0EEF               	movlw	low(0EFh)
  2035  013B96  6E89               	movwf	((c:3977)),c	;volatile
  2036                           	line	624
  2037                           ;main.c: 624: LATB = 0b10000000;
  2038  013B98  0E80               	movlw	low(080h)
  2039  013B9A  6E8A               	movwf	((c:3978)),c	;volatile
  2040                           	line	626
  2041                           ;main.c: 626: LATC = 0b00111111;
  2042  013B9C  0E3F               	movlw	low(03Fh)
  2043  013B9E  6E8B               	movwf	((c:3979)),c	;volatile
  2044                           	line	628
  2045                           ;main.c: 628: } else if (led_array[0] == 1 && le
                                 d_array[1] == 1 && led_array[7] == 1) {
  2046  013BA0  EFFF  F09F         	goto	l882
  2047                           	
  2048  013BA4                     l965:		; BSR set to: ?
  2049                           
  2050  013BA4  0400               	decf	((c:0)),c,w
  2051  013BA6  1001               	iorwf ((c:0+1)),c,w
  2052                           
  2053  013BA8  A4D8               	btfss	status,2
  2054  013BAA  EFD9  F09D         	goto	u4731
  2055  013BAE  EFDB  F09D         	goto	u4730
  2056  013BB2                     u4731:
  2057  013BB2  EFF5  F09D         	goto	l967
  2058  013BB6                     u4730:
  2059  013BB6  0402               	decf	(0+((c:0)+02h)),c,w
  2060  013BB8  1003               	iorwf (1+((c:0)+02h)),c,w
  2061                           
  2062  013BBA  A4D8               	btfss	status,2
  2063  013BBC  EFE2  F09D         	goto	u4741
  2064  013BC0  EFE4  F09D         	goto	u4740
  2065  013BC4                     u4741:
  2066  013BC4  EFF5  F09D         	goto	l967
  2067  013BC8                     u4740:
  2068  013BC8  040E               	decf	(0+((c:0)+0Eh)),c,w
  2069  013BCA  100F               	iorwf (1+((c:0)+0Eh)),c,w
  2070                           
  2071  013BCC  A4D8               	btfss	status,2
  2072  013BCE  EFEB  F09D         	goto	u4751
  2073  013BD2  EFED  F09D         	goto	u4750
  2074  013BD6                     u4751:
  2075  013BD6  EFF5  F09D         	goto	l967
  2076  013BDA                     u4750:
  2077                           	line	631
  2078                           ;main.c: 631: LATA = 0b10111111;
  2079  013BDA  0EBF               	movlw	low(0BFh)
  2080  013BDC  6E89               	movwf	((c:3977)),c	;volatile
  2081                           	line	633
  2082                           ;main.c: 633: LATB = 0b10000000;
  2083  013BDE  0E80               	movlw	low(080h)
  2084  013BE0  6E8A               	movwf	((c:3978)),c	;volatile
  2085                           	line	635
  2086                           ;main.c: 635: LATC = 0b00111111;
  2087  013BE2  0E3F               	movlw	low(03Fh)
  2088  013BE4  6E8B               	movwf	((c:3979)),c	;volatile
  2089                           	line	637
  2090                           ;main.c: 637: } else if (led_array[0] == 1 && le
                                 d_array[1] == 1 && led_array[8] == 1) {
  2091  013BE6  EFFF  F09F         	goto	l882
  2092                           	
  2093  013BEA                     l967:		; BSR set to: ?
  2094                           
  2095  013BEA  0400               	decf	((c:0)),c,w
  2096  013BEC  1001               	iorwf ((c:0+1)),c,w
  2097                           
  2098  013BEE  A4D8               	btfss	status,2
  2099  013BF0  EFFC  F09D         	goto	u4761
  2100  013BF4  EFFE  F09D         	goto	u4760
  2101  013BF8                     u4761:
  2102  013BF8  EF17  F09E         	goto	l969
  2103  013BFC                     u4760:
  2104  013BFC  0402               	decf	(0+((c:0)+02h)),c,w
  2105  013BFE  1003               	iorwf (1+((c:0)+02h)),c,w
  2106                           
  2107  013C00  A4D8               	btfss	status,2
  2108  013C02  EF05  F09E         	goto	u4771
  2109  013C06  EF07  F09E         	goto	u4770
  2110  013C0A                     u4771:
  2111  013C0A  EF17  F09E         	goto	l969
  2112  013C0E                     u4770:
  2113  013C0E  0410               	decf	(0+((c:0)+010h)),c,w
  2114  013C10  1011               	iorwf (1+((c:0)+010h)),c,w
  2115                           
  2116  013C12  A4D8               	btfss	status,2
  2117  013C14  EF0E  F09E         	goto	u4781
  2118  013C18  EF10  F09E         	goto	u4780
  2119  013C1C                     u4781:
  2120  013C1C  EF17  F09E         	goto	l969
  2121  013C20                     u4780:
  2122                           	line	640
  2123                           ;main.c: 640: LATA = 0b11111111;
  2124  013C20  6889               	setf	((c:3977)),c	;volatile
  2125                           	line	642
  2126                           ;main.c: 642: LATB = 0b10000000;
  2127  013C22  0E80               	movlw	low(080h)
  2128  013C24  6E8A               	movwf	((c:3978)),c	;volatile
  2129                           	line	644
  2130                           ;main.c: 644: LATC = 0b00111110;
  2131  013C26  0E3E               	movlw	low(03Eh)
  2132  013C28  6E8B               	movwf	((c:3979)),c	;volatile
  2133                           	line	646
  2134                           ;main.c: 646: } else if (led_array[0] == 1 && le
                                 d_array[1] == 1 && led_array[9] == 1) {
  2135  013C2A  EFFF  F09F         	goto	l882
  2136                           	
  2137  013C2E                     l969:		; BSR set to: ?
  2138                           
  2139  013C2E  0400               	decf	((c:0)),c,w
  2140  013C30  1001               	iorwf ((c:0+1)),c,w
  2141                           
  2142  013C32  A4D8               	btfss	status,2
  2143  013C34  EF1E  F09E         	goto	u4791
  2144  013C38  EF20  F09E         	goto	u4790
  2145  013C3C                     u4791:
  2146  013C3C  EF39  F09E         	goto	l971
  2147  013C40                     u4790:
  2148  013C40  0402               	decf	(0+((c:0)+02h)),c,w
  2149  013C42  1003               	iorwf (1+((c:0)+02h)),c,w
  2150                           
  2151  013C44  A4D8               	btfss	status,2
  2152  013C46  EF27  F09E         	goto	u4801
  2153  013C4A  EF29  F09E         	goto	u4800
  2154  013C4E                     u4801:
  2155  013C4E  EF39  F09E         	goto	l971
  2156  013C52                     u4800:
  2157  013C52  0412               	decf	(0+((c:0)+012h)),c,w
  2158  013C54  1013               	iorwf (1+((c:0)+012h)),c,w
  2159                           
  2160  013C56  A4D8               	btfss	status,2
  2161  013C58  EF30  F09E         	goto	u4811
  2162  013C5C  EF32  F09E         	goto	u4810
  2163  013C60                     u4811:
  2164  013C60  EF39  F09E         	goto	l971
  2165  013C64                     u4810:
  2166                           	line	649
  2167                           ;main.c: 649: LATA = 0b11111111;
  2168  013C64  6889               	setf	((c:3977)),c	;volatile
  2169                           	line	651
  2170                           ;main.c: 651: LATB = 0b10000000;
  2171  013C66  0E80               	movlw	low(080h)
  2172  013C68  6E8A               	movwf	((c:3978)),c	;volatile
  2173                           	line	653
  2174                           ;main.c: 653: LATC = 0b00111101;
  2175  013C6A  0E3D               	movlw	low(03Dh)
  2176  013C6C  6E8B               	movwf	((c:3979)),c	;volatile
  2177                           	line	654
  2178                           ;main.c: 654: } else if (led_array[0] == 1 && le
                                 d_array[1] == 1 && led_array[10] == 1) {
  2179  013C6E  EFFF  F09F         	goto	l882
  2180                           	
  2181  013C72                     l971:		; BSR set to: ?
  2182                           
  2183  013C72  0400               	decf	((c:0)),c,w
  2184  013C74  1001               	iorwf ((c:0+1)),c,w
  2185                           
  2186  013C76  A4D8               	btfss	status,2
  2187  013C78  EF40  F09E         	goto	u4821
  2188  013C7C  EF42  F09E         	goto	u4820
  2189  013C80                     u4821:
  2190  013C80  EF5B  F09E         	goto	l973
  2191  013C84                     u4820:
  2192  013C84  0402               	decf	(0+((c:0)+02h)),c,w
  2193  013C86  1003               	iorwf (1+((c:0)+02h)),c,w
  2194                           
  2195  013C88  A4D8               	btfss	status,2
  2196  013C8A  EF49  F09E         	goto	u4831
  2197  013C8E  EF4B  F09E         	goto	u4830
  2198  013C92                     u4831:
  2199  013C92  EF5B  F09E         	goto	l973
  2200  013C96                     u4830:
  2201  013C96  0414               	decf	(0+((c:0)+014h)),c,w
  2202  013C98  1015               	iorwf (1+((c:0)+014h)),c,w
  2203                           
  2204  013C9A  A4D8               	btfss	status,2
  2205  013C9C  EF52  F09E         	goto	u4841
  2206  013CA0  EF54  F09E         	goto	u4840
  2207  013CA4                     u4841:
  2208  013CA4  EF5B  F09E         	goto	l973
  2209  013CA8                     u4840:
  2210                           	line	657
  2211                           ;main.c: 657: LATA = 0b11111111;
  2212  013CA8  6889               	setf	((c:3977)),c	;volatile
  2213                           	line	659
  2214                           ;main.c: 659: LATB = 0b00000000;
  2215  013CAA  0E00               	movlw	low(0)
  2216  013CAC  6E8A               	movwf	((c:3978)),c	;volatile
  2217                           	line	661
  2218                           ;main.c: 661: LATC = 0b00111111;
  2219  013CAE  0E3F               	movlw	low(03Fh)
  2220  013CB0  6E8B               	movwf	((c:3979)),c	;volatile
  2221                           	line	662
  2222                           ;main.c: 662: } else if (led_array[0] == 1 && le
                                 d_array[1] == 1 && led_array[11] == 1) {
  2223  013CB2  EFFF  F09F         	goto	l882
  2224                           	
  2225  013CB6                     l973:		; BSR set to: ?
  2226                           
  2227  013CB6  0400               	decf	((c:0)),c,w
  2228  013CB8  1001               	iorwf ((c:0+1)),c,w
  2229                           
  2230  013CBA  A4D8               	btfss	status,2
  2231  013CBC  EF62  F09E         	goto	u4851
  2232  013CC0  EF64  F09E         	goto	u4850
  2233  013CC4                     u4851:
  2234  013CC4  EF7D  F09E         	goto	l975
  2235  013CC8                     u4850:
  2236  013CC8  0402               	decf	(0+((c:0)+02h)),c,w
  2237  013CCA  1003               	iorwf (1+((c:0)+02h)),c,w
  2238                           
  2239  013CCC  A4D8               	btfss	status,2
  2240  013CCE  EF6B  F09E         	goto	u4861
  2241  013CD2  EF6D  F09E         	goto	u4860
  2242  013CD6                     u4861:
  2243  013CD6  EF7D  F09E         	goto	l975
  2244  013CDA                     u4860:
  2245  013CDA  0416               	decf	(0+((c:0)+016h)),c,w
  2246  013CDC  1017               	iorwf (1+((c:0)+016h)),c,w
  2247                           
  2248  013CDE  A4D8               	btfss	status,2
  2249  013CE0  EF74  F09E         	goto	u4871
  2250  013CE4  EF76  F09E         	goto	u4870
  2251  013CE8                     u4871:
  2252  013CE8  EF7D  F09E         	goto	l975
  2253  013CEC                     u4870:
  2254                           	line	665
  2255                           ;main.c: 665: LATA = 0b11111111;
  2256  013CEC  6889               	setf	((c:3977)),c	;volatile
  2257                           	line	667
  2258                           ;main.c: 667: LATB = 0b10000000;
  2259  013CEE  0E80               	movlw	low(080h)
  2260  013CF0  6E8A               	movwf	((c:3978)),c	;volatile
  2261                           	line	669
  2262                           ;main.c: 669: LATC = 0b00111011;
  2263  013CF2  0E3B               	movlw	low(03Bh)
  2264  013CF4  6E8B               	movwf	((c:3979)),c	;volatile
  2265                           	line	670
  2266                           ;main.c: 670: } else if (led_array[0] == 1 && le
                                 d_array[1] == 1 && led_array[12] == 1) {
  2267  013CF6  EFFF  F09F         	goto	l882
  2268                           	
  2269  013CFA                     l975:		; BSR set to: ?
  2270                           
  2271  013CFA  0400               	decf	((c:0)),c,w
  2272  013CFC  1001               	iorwf ((c:0+1)),c,w
  2273                           
  2274  013CFE  A4D8               	btfss	status,2
  2275  013D00  EF84  F09E         	goto	u4881
  2276  013D04  EF86  F09E         	goto	u4880
  2277  013D08                     u4881:
  2278  013D08  EF9F  F09E         	goto	l977
  2279  013D0C                     u4880:
  2280  013D0C  0402               	decf	(0+((c:0)+02h)),c,w
  2281  013D0E  1003               	iorwf (1+((c:0)+02h)),c,w
  2282                           
  2283  013D10  A4D8               	btfss	status,2
  2284  013D12  EF8D  F09E         	goto	u4891
  2285  013D16  EF8F  F09E         	goto	u4890
  2286  013D1A                     u4891:
  2287  013D1A  EF9F  F09E         	goto	l977
  2288  013D1E                     u4890:
  2289  013D1E  0418               	decf	(0+((c:0)+018h)),c,w
  2290  013D20  1019               	iorwf (1+((c:0)+018h)),c,w
  2291                           
  2292  013D22  A4D8               	btfss	status,2
  2293  013D24  EF96  F09E         	goto	u4901
  2294  013D28  EF98  F09E         	goto	u4900
  2295  013D2C                     u4901:
  2296  013D2C  EF9F  F09E         	goto	l977
  2297  013D30                     u4900:
  2298                           	line	673
  2299                           ;main.c: 673: LATA = 0b11111111;
  2300  013D30  6889               	setf	((c:3977)),c	;volatile
  2301                           	line	675
  2302                           ;main.c: 675: LATB = 0b10000000;
  2303  013D32  0E80               	movlw	low(080h)
  2304  013D34  6E8A               	movwf	((c:3978)),c	;volatile
  2305                           	line	677
  2306                           ;main.c: 677: LATC = 0b00110111;
  2307  013D36  0E37               	movlw	low(037h)
  2308  013D38  6E8B               	movwf	((c:3979)),c	;volatile
  2309                           	line	679
  2310                           ;main.c: 679: } else if (led_array[0] == 1 && le
                                 d_array[6] == 1) {
  2311  013D3A  EFFF  F09F         	goto	l882
  2312                           	
  2313  013D3E                     l977:		; BSR set to: ?
  2314                           
  2315  013D3E  0400               	decf	((c:0)),c,w
  2316  013D40  1001               	iorwf ((c:0+1)),c,w
  2317                           
  2318  013D42  A4D8               	btfss	status,2
  2319  013D44  EFA6  F09E         	goto	u4911
  2320  013D48  EFA8  F09E         	goto	u4910
  2321  013D4C                     u4911:
  2322  013D4C  EFB9  F09E         	goto	l979
  2323  013D50                     u4910:
  2324  013D50  040C               	decf	(0+((c:0)+0Ch)),c,w
  2325  013D52  100D               	iorwf (1+((c:0)+0Ch)),c,w
  2326                           
  2327  013D54  A4D8               	btfss	status,2
  2328  013D56  EFAF  F09E         	goto	u4921
  2329  013D5A  EFB1  F09E         	goto	u4920
  2330  013D5E                     u4921:
  2331  013D5E  EFB9  F09E         	goto	l979
  2332  013D62                     u4920:
  2333                           	line	682
  2334                           ;main.c: 682: LATA = 0b11101111;
  2335  013D62  0EEF               	movlw	low(0EFh)
  2336  013D64  6E89               	movwf	((c:3977)),c	;volatile
  2337                           	line	684
  2338                           ;main.c: 684: LATB = 0b10000000;
  2339  013D66  0E80               	movlw	low(080h)
  2340  013D68  6E8A               	movwf	((c:3978)),c	;volatile
  2341                           	line	686
  2342                           ;main.c: 686: LATC = 0b00011111;
  2343  013D6A  0E1F               	movlw	low(01Fh)
  2344  013D6C  6E8B               	movwf	((c:3979)),c	;volatile
  2345                           	line	688
  2346                           ;main.c: 688: } else if (led_array[0] == 1 && le
                                 d_array[7] == 1) {
  2347  013D6E  EFFF  F09F         	goto	l882
  2348                           	
  2349  013D72                     l979:		; BSR set to: ?
  2350                           
  2351  013D72  0400               	decf	((c:0)),c,w
  2352  013D74  1001               	iorwf ((c:0+1)),c,w
  2353                           
  2354  013D76  A4D8               	btfss	status,2
  2355  013D78  EFC0  F09E         	goto	u4931
  2356  013D7C  EFC2  F09E         	goto	u4930
  2357  013D80                     u4931:
  2358  013D80  EFD3  F09E         	goto	l981
  2359  013D84                     u4930:
  2360  013D84  040E               	decf	(0+((c:0)+0Eh)),c,w
  2361  013D86  100F               	iorwf (1+((c:0)+0Eh)),c,w
  2362                           
  2363  013D88  A4D8               	btfss	status,2
  2364  013D8A  EFC9  F09E         	goto	u4941
  2365  013D8E  EFCB  F09E         	goto	u4940
  2366  013D92                     u4941:
  2367  013D92  EFD3  F09E         	goto	l981
  2368  013D96                     u4940:
  2369                           	line	691
  2370                           ;main.c: 691: LATA = 0b10111111;
  2371  013D96  0EBF               	movlw	low(0BFh)
  2372  013D98  6E89               	movwf	((c:3977)),c	;volatile
  2373                           	line	693
  2374                           ;main.c: 693: LATB = 0b10000000;
  2375  013D9A  0E80               	movlw	low(080h)
  2376  013D9C  6E8A               	movwf	((c:3978)),c	;volatile
  2377                           	line	695
  2378                           ;main.c: 695: LATC = 0b00011111;
  2379  013D9E  0E1F               	movlw	low(01Fh)
  2380  013DA0  6E8B               	movwf	((c:3979)),c	;volatile
  2381                           	line	697
  2382                           ;main.c: 697: } else if (led_array[0] == 1 && le
                                 d_array[8] == 1) {
  2383  013DA2  EFFF  F09F         	goto	l882
  2384                           	
  2385  013DA6                     l981:		; BSR set to: ?
  2386                           
  2387  013DA6  0400               	decf	((c:0)),c,w
  2388  013DA8  1001               	iorwf ((c:0+1)),c,w
  2389                           
  2390  013DAA  A4D8               	btfss	status,2
  2391  013DAC  EFDA  F09E         	goto	u4951
  2392  013DB0  EFDC  F09E         	goto	u4950
  2393  013DB4                     u4951:
  2394  013DB4  EFEC  F09E         	goto	l983
  2395  013DB8                     u4950:
  2396  013DB8  0410               	decf	(0+((c:0)+010h)),c,w
  2397  013DBA  1011               	iorwf (1+((c:0)+010h)),c,w
  2398                           
  2399  013DBC  A4D8               	btfss	status,2
  2400  013DBE  EFE3  F09E         	goto	u4961
  2401  013DC2  EFE5  F09E         	goto	u4960
  2402  013DC6                     u4961:
  2403  013DC6  EFEC  F09E         	goto	l983
  2404  013DCA                     u4960:
  2405                           	line	700
  2406                           ;main.c: 700: LATA = 0b11111111;
  2407  013DCA  6889               	setf	((c:3977)),c	;volatile
  2408                           	line	702
  2409                           ;main.c: 702: LATB = 0b10000000;
  2410  013DCC  0E80               	movlw	low(080h)
  2411  013DCE  6E8A               	movwf	((c:3978)),c	;volatile
  2412                           	line	704
  2413                           ;main.c: 704: LATC = 0b00011110;
  2414  013DD0  0E1E               	movlw	low(01Eh)
  2415  013DD2  6E8B               	movwf	((c:3979)),c	;volatile
  2416                           	line	706
  2417                           ;main.c: 706: } else if (led_array[0] == 1 && le
                                 d_array[9] == 1) {
  2418  013DD4  EFFF  F09F         	goto	l882
  2419                           	
  2420  013DD8                     l983:		; BSR set to: ?
  2421                           
  2422  013DD8  0400               	decf	((c:0)),c,w
  2423  013DDA  1001               	iorwf ((c:0+1)),c,w
  2424                           
  2425  013DDC  A4D8               	btfss	status,2
  2426  013DDE  EFF3  F09E         	goto	u4971
  2427  013DE2  EFF5  F09E         	goto	u4970
  2428  013DE6                     u4971:
  2429  013DE6  EF05  F09F         	goto	l985
  2430  013DEA                     u4970:
  2431  013DEA  0412               	decf	(0+((c:0)+012h)),c,w
  2432  013DEC  1013               	iorwf (1+((c:0)+012h)),c,w
  2433                           
  2434  013DEE  A4D8               	btfss	status,2
  2435  013DF0  EFFC  F09E         	goto	u4981
  2436  013DF4  EFFE  F09E         	goto	u4980
  2437  013DF8                     u4981:
  2438  013DF8  EF05  F09F         	goto	l985
  2439  013DFC                     u4980:
  2440                           	line	709
  2441                           ;main.c: 709: LATA = 0b11111111;
  2442  013DFC  6889               	setf	((c:3977)),c	;volatile
  2443                           	line	711
  2444                           ;main.c: 711: LATB = 0b10000000;
  2445  013DFE  0E80               	movlw	low(080h)
  2446  013E00  6E8A               	movwf	((c:3978)),c	;volatile
  2447                           	line	713
  2448                           ;main.c: 713: LATC = 0b00011101;
  2449  013E02  0E1D               	movlw	low(01Dh)
  2450  013E04  6E8B               	movwf	((c:3979)),c	;volatile
  2451                           	line	715
  2452                           ;main.c: 715: } else if (led_array[0] == 1 && le
                                 d_array[10] == 1) {
  2453  013E06  EFFF  F09F         	goto	l882
  2454                           	
  2455  013E0A                     l985:		; BSR set to: ?
  2456                           
  2457  013E0A  0400               	decf	((c:0)),c,w
  2458  013E0C  1001               	iorwf ((c:0+1)),c,w
  2459                           
  2460  013E0E  A4D8               	btfss	status,2
  2461  013E10  EF0C  F09F         	goto	u4991
  2462  013E14  EF0E  F09F         	goto	u4990
  2463  013E18                     u4991:
  2464  013E18  EF1E  F09F         	goto	l987
  2465  013E1C                     u4990:
  2466  013E1C  0414               	decf	(0+((c:0)+014h)),c,w
  2467  013E1E  1015               	iorwf (1+((c:0)+014h)),c,w
  2468                           
  2469  013E20  A4D8               	btfss	status,2
  2470  013E22  EF15  F09F         	goto	u5001
  2471  013E26  EF17  F09F         	goto	u5000
  2472  013E2A                     u5001:
  2473  013E2A  EF1E  F09F         	goto	l987
  2474  013E2E                     u5000:
  2475                           	line	718
  2476                           ;main.c: 718: LATA = 0b11111111;
  2477  013E2E  6889               	setf	((c:3977)),c	;volatile
  2478                           	line	720
  2479                           ;main.c: 720: LATB = 0b00000000;
  2480  013E30  0E00               	movlw	low(0)
  2481  013E32  6E8A               	movwf	((c:3978)),c	;volatile
  2482                           	line	722
  2483                           ;main.c: 722: LATC = 0b00011111;
  2484  013E34  0E1F               	movlw	low(01Fh)
  2485  013E36  6E8B               	movwf	((c:3979)),c	;volatile
  2486                           	line	724
  2487                           ;main.c: 724: } else if (led_array[0] == 1 && le
                                 d_array[11] == 1) {
  2488  013E38  EFFF  F09F         	goto	l882
  2489                           	
  2490  013E3C                     l987:		; BSR set to: ?
  2491                           
  2492  013E3C  0400               	decf	((c:0)),c,w
  2493  013E3E  1001               	iorwf ((c:0+1)),c,w
  2494                           
  2495  013E40  A4D8               	btfss	status,2
  2496  013E42  EF25  F09F         	goto	u5011
  2497  013E46  EF27  F09F         	goto	u5010
  2498  013E4A                     u5011:
  2499  013E4A  EF37  F09F         	goto	l989
  2500  013E4E                     u5010:
  2501  013E4E  0416               	decf	(0+((c:0)+016h)),c,w
  2502  013E50  1017               	iorwf (1+((c:0)+016h)),c,w
  2503                           
  2504  013E52  A4D8               	btfss	status,2
  2505  013E54  EF2E  F09F         	goto	u5021
  2506  013E58  EF30  F09F         	goto	u5020
  2507  013E5C                     u5021:
  2508  013E5C  EF37  F09F         	goto	l989
  2509  013E60                     u5020:
  2510                           	line	727
  2511                           ;main.c: 727: LATA = 0b11111111;
  2512  013E60  6889               	setf	((c:3977)),c	;volatile
  2513                           	line	729
  2514                           ;main.c: 729: LATB = 0b10000000;
  2515  013E62  0E80               	movlw	low(080h)
  2516  013E64  6E8A               	movwf	((c:3978)),c	;volatile
  2517                           	line	731
  2518                           ;main.c: 731: LATC = 0b00011011;
  2519  013E66  0E1B               	movlw	low(01Bh)
  2520  013E68  6E8B               	movwf	((c:3979)),c	;volatile
  2521                           	line	733
  2522                           ;main.c: 733: } else if (led_array[0] == 1 && le
                                 d_array[12] == 1) {
  2523  013E6A  EFFF  F09F         	goto	l882
  2524                           	
  2525  013E6E                     l989:		; BSR set to: ?
  2526                           
  2527  013E6E  0400               	decf	((c:0)),c,w
  2528  013E70  1001               	iorwf ((c:0+1)),c,w
  2529                           
  2530  013E72  A4D8               	btfss	status,2
  2531  013E74  EF3E  F09F         	goto	u5031
  2532  013E78  EF40  F09F         	goto	u5030
  2533  013E7C                     u5031:
  2534  013E7C  EF50  F09F         	goto	l991
  2535  013E80                     u5030:
  2536  013E80  0418               	decf	(0+((c:0)+018h)),c,w
  2537  013E82  1019               	iorwf (1+((c:0)+018h)),c,w
  2538                           
  2539  013E84  A4D8               	btfss	status,2
  2540  013E86  EF47  F09F         	goto	u5041
  2541  013E8A  EF49  F09F         	goto	u5040
  2542  013E8E                     u5041:
  2543  013E8E  EF50  F09F         	goto	l991
  2544  013E92                     u5040:
  2545                           	line	736
  2546                           ;main.c: 736: LATA = 0b11111111;
  2547  013E92  6889               	setf	((c:3977)),c	;volatile
  2548                           	line	738
  2549                           ;main.c: 738: LATB = 0b10000000;
  2550  013E94  0E80               	movlw	low(080h)
  2551  013E96  6E8A               	movwf	((c:3978)),c	;volatile
  2552                           	line	740
  2553                           ;main.c: 740: LATC = 0b00010111;
  2554  013E98  0E17               	movlw	low(017h)
  2555  013E9A  6E8B               	movwf	((c:3979)),c	;volatile
  2556                           	line	742
  2557                           ;main.c: 742: } else if (led_array[1] == 1 && le
                                 d_array[6] == 1) {
  2558  013E9C  EFFF  F09F         	goto	l882
  2559                           	
  2560  013EA0                     l991:		; BSR set to: ?
  2561                           
  2562  013EA0  0402               	decf	(0+((c:0)+02h)),c,w
  2563  013EA2  1003               	iorwf (1+((c:0)+02h)),c,w
  2564                           
  2565  013EA4  A4D8               	btfss	status,2
  2566  013EA6  EF57  F09F         	goto	u5051
  2567  013EAA  EF59  F09F         	goto	u5050
  2568  013EAE                     u5051:
  2569  013EAE  EF6A  F09F         	goto	l993
  2570  013EB2                     u5050:
  2571  013EB2  040C               	decf	(0+((c:0)+0Ch)),c,w
  2572  013EB4  100D               	iorwf (1+((c:0)+0Ch)),c,w
  2573                           
  2574  013EB6  A4D8               	btfss	status,2
  2575  013EB8  EF60  F09F         	goto	u5061
  2576  013EBC  EF62  F09F         	goto	u5060
  2577  013EC0                     u5061:
  2578  013EC0  EF6A  F09F         	goto	l993
  2579  013EC4                     u5060:
  2580                           	line	745
  2581                           ;main.c: 745: LATA = 0b11101111;
  2582  013EC4  0EEF               	movlw	low(0EFh)
  2583  013EC6  6E89               	movwf	((c:3977)),c	;volatile
  2584                           	line	747
  2585                           ;main.c: 747: LATB = 0b10000000;
  2586  013EC8  0E80               	movlw	low(080h)
  2587  013ECA  6E8A               	movwf	((c:3978)),c	;volatile
  2588                           	line	749
  2589                           ;main.c: 749: LATC = 0b00101111;
  2590  013ECC  0E2F               	movlw	low(02Fh)
  2591  013ECE  6E8B               	movwf	((c:3979)),c	;volatile
  2592                           	line	751
  2593                           ;main.c: 751: } else if (led_array[1] == 1 && le
                                 d_array[7] == 1) {
  2594  013ED0  EFFF  F09F         	goto	l882
  2595                           	
  2596  013ED4                     l993:		; BSR set to: ?
  2597                           
  2598  013ED4  0402               	decf	(0+((c:0)+02h)),c,w
  2599  013ED6  1003               	iorwf (1+((c:0)+02h)),c,w
  2600                           
  2601  013ED8  A4D8               	btfss	status,2
  2602  013EDA  EF71  F09F         	goto	u5071
  2603  013EDE  EF73  F09F         	goto	u5070
  2604  013EE2                     u5071:
  2605  013EE2  EF84  F09F         	goto	l995
  2606  013EE6                     u5070:
  2607  013EE6  040E               	decf	(0+((c:0)+0Eh)),c,w
  2608  013EE8  100F               	iorwf (1+((c:0)+0Eh)),c,w
  2609                           
  2610  013EEA  A4D8               	btfss	status,2
  2611  013EEC  EF7A  F09F         	goto	u5081
  2612  013EF0  EF7C  F09F         	goto	u5080
  2613  013EF4                     u5081:
  2614  013EF4  EF84  F09F         	goto	l995
  2615  013EF8                     u5080:
  2616                           	line	754
  2617                           ;main.c: 754: LATA = 0b10111111;
  2618  013EF8  0EBF               	movlw	low(0BFh)
  2619  013EFA  6E89               	movwf	((c:3977)),c	;volatile
  2620                           	line	756
  2621                           ;main.c: 756: LATB = 0b10000000;
  2622  013EFC  0E80               	movlw	low(080h)
  2623  013EFE  6E8A               	movwf	((c:3978)),c	;volatile
  2624                           	line	758
  2625                           ;main.c: 758: LATC = 0b00101111;
  2626  013F00  0E2F               	movlw	low(02Fh)
  2627  013F02  6E8B               	movwf	((c:3979)),c	;volatile
  2628                           	line	760
  2629                           ;main.c: 760: } else if (led_array[1] == 1 && le
                                 d_array[8] == 1) {
  2630  013F04  EFFF  F09F         	goto	l882
  2631                           	
  2632  013F08                     l995:		; BSR set to: ?
  2633                           
  2634  013F08  0402               	decf	(0+((c:0)+02h)),c,w
  2635  013F0A  1003               	iorwf (1+((c:0)+02h)),c,w
  2636                           
  2637  013F0C  A4D8               	btfss	status,2
  2638  013F0E  EF8B  F09F         	goto	u5091
  2639  013F12  EF8D  F09F         	goto	u5090
  2640  013F16                     u5091:
  2641  013F16  EF9D  F09F         	goto	l997
  2642  013F1A                     u5090:
  2643  013F1A  0410               	decf	(0+((c:0)+010h)),c,w
  2644  013F1C  1011               	iorwf (1+((c:0)+010h)),c,w
  2645                           
  2646  013F1E  A4D8               	btfss	status,2
  2647  013F20  EF94  F09F         	goto	u5101
  2648  013F24  EF96  F09F         	goto	u5100
  2649  013F28                     u5101:
  2650  013F28  EF9D  F09F         	goto	l997
  2651  013F2C                     u5100:
  2652                           	line	763
  2653                           ;main.c: 763: LATA = 0b11111111;
  2654  013F2C  6889               	setf	((c:3977)),c	;volatile
  2655                           	line	765
  2656                           ;main.c: 765: LATB = 0b10000000;
  2657  013F2E  0E80               	movlw	low(080h)
  2658  013F30  6E8A               	movwf	((c:3978)),c	;volatile
  2659                           	line	767
  2660                           ;main.c: 767: LATC = 0b00101110;
  2661  013F32  0E2E               	movlw	low(02Eh)
  2662  013F34  6E8B               	movwf	((c:3979)),c	;volatile
  2663                           	line	769
  2664                           ;main.c: 769: } else if (led_array[1] == 1 && le
                                 d_array[9] == 1) {
  2665  013F36  EFFF  F09F         	goto	l882
  2666                           	
  2667  013F3A                     l997:		; BSR set to: ?
  2668                           
  2669  013F3A  0402               	decf	(0+((c:0)+02h)),c,w
  2670  013F3C  1003               	iorwf (1+((c:0)+02h)),c,w
  2671                           
  2672  013F3E  A4D8               	btfss	status,2
  2673  013F40  EFA4  F09F         	goto	u5111
  2674  013F44  EFA6  F09F         	goto	u5110
  2675  013F48                     u5111:
  2676  013F48  EFB6  F09F         	goto	l999
  2677  013F4C                     u5110:
  2678  013F4C  0412               	decf	(0+((c:0)+012h)),c,w
  2679  013F4E  1013               	iorwf (1+((c:0)+012h)),c,w
  2680                           
  2681  013F50  A4D8               	btfss	status,2
  2682  013F52  EFAD  F09F         	goto	u5121
  2683  013F56  EFAF  F09F         	goto	u5120
  2684  013F5A                     u5121:
  2685  013F5A  EFB6  F09F         	goto	l999
  2686  013F5E                     u5120:
  2687                           	line	772
  2688                           ;main.c: 772: LATA = 0b11111111;
  2689  013F5E  6889               	setf	((c:3977)),c	;volatile
  2690                           	line	774
  2691                           ;main.c: 774: LATB = 0b10000000;
  2692  013F60  0E80               	movlw	low(080h)
  2693  013F62  6E8A               	movwf	((c:3978)),c	;volatile
  2694                           	line	776
  2695                           ;main.c: 776: LATC = 0b00101101;
  2696  013F64  0E2D               	movlw	low(02Dh)
  2697  013F66  6E8B               	movwf	((c:3979)),c	;volatile
  2698                           	line	778
  2699                           ;main.c: 778: } else if (led_array[1] == 1 && le
                                 d_array[10] == 1) {
  2700  013F68  EFFF  F09F         	goto	l882
  2701                           	
  2702  013F6C                     l999:		; BSR set to: ?
  2703                           
  2704  013F6C  0402               	decf	(0+((c:0)+02h)),c,w
  2705  013F6E  1003               	iorwf (1+((c:0)+02h)),c,w
  2706                           
  2707  013F70  A4D8               	btfss	status,2
  2708  013F72  EFBD  F09F         	goto	u5131
  2709  013F76  EFBF  F09F         	goto	u5130
  2710  013F7A                     u5131:
  2711  013F7A  EFCF  F09F         	goto	l1001
  2712  013F7E                     u5130:
  2713  013F7E  0414               	decf	(0+((c:0)+014h)),c,w
  2714  013F80  1015               	iorwf (1+((c:0)+014h)),c,w
  2715                           
  2716  013F82  A4D8               	btfss	status,2
  2717  013F84  EFC6  F09F         	goto	u5141
  2718  013F88  EFC8  F09F         	goto	u5140
  2719  013F8C                     u5141:
  2720  013F8C  EFCF  F09F         	goto	l1001
  2721  013F90                     u5140:
  2722                           	line	781
  2723                           ;main.c: 781: LATA = 0b11111111;
  2724  013F90  6889               	setf	((c:3977)),c	;volatile
  2725                           	line	783
  2726                           ;main.c: 783: LATB = 0b00000000;
  2727  013F92  0E00               	movlw	low(0)
  2728  013F94  6E8A               	movwf	((c:3978)),c	;volatile
  2729                           	line	785
  2730                           ;main.c: 785: LATC = 0b00101111;
  2731  013F96  0E2F               	movlw	low(02Fh)
  2732  013F98  6E8B               	movwf	((c:3979)),c	;volatile
  2733                           	line	787
  2734                           ;main.c: 787: } else if (led_array[1] == 1 && le
                                 d_array[11] == 1) {
  2735  013F9A  EFFF  F09F         	goto	l882
  2736                           	
  2737  013F9E                     l1001:		; BSR set to: ?
  2738                           
  2739  013F9E  0402               	decf	(0+((c:0)+02h)),c,w
  2740  013FA0  1003               	iorwf (1+((c:0)+02h)),c,w
  2741                           
  2742  013FA2  A4D8               	btfss	status,2
  2743  013FA4  EFD6  F09F         	goto	u5151
  2744  013FA8  EFD8  F09F         	goto	u5150
  2745  013FAC                     u5151:
  2746  013FAC  EFE8  F09F         	goto	l1003
  2747  013FB0                     u5150:
  2748  013FB0  0416               	decf	(0+((c:0)+016h)),c,w
  2749  013FB2  1017               	iorwf (1+((c:0)+016h)),c,w
  2750                           
  2751  013FB4  A4D8               	btfss	status,2
  2752  013FB6  EFDF  F09F         	goto	u5161
  2753  013FBA  EFE1  F09F         	goto	u5160
  2754  013FBE                     u5161:
  2755  013FBE  EFE8  F09F         	goto	l1003
  2756  013FC2                     u5160:
  2757                           	line	790
  2758                           ;main.c: 790: LATA = 0b11111111;
  2759  013FC2  6889               	setf	((c:3977)),c	;volatile
  2760                           	line	792
  2761                           ;main.c: 792: LATB = 0b10000000;
  2762  013FC4  0E80               	movlw	low(080h)
  2763  013FC6  6E8A               	movwf	((c:3978)),c	;volatile
  2764                           	line	794
  2765                           ;main.c: 794: LATC = 0b00101011;
  2766  013FC8  0E2B               	movlw	low(02Bh)
  2767  013FCA  6E8B               	movwf	((c:3979)),c	;volatile
  2768                           	line	796
  2769                           ;main.c: 796: } else if (led_array[1] == 1 && le
                                 d_array[12] == 1) {
  2770  013FCC  EFFF  F09F         	goto	l882
  2771                           	
  2772  013FD0                     l1003:		; BSR set to: ?
  2773                           
  2774  013FD0  0402               	decf	(0+((c:0)+02h)),c,w
  2775  013FD2  1003               	iorwf (1+((c:0)+02h)),c,w
  2776                           
  2777  013FD4  A4D8               	btfss	status,2
  2778  013FD6  EFEF  F09F         	goto	u5171
  2779  013FDA  EFF1  F09F         	goto	u5170
  2780  013FDE                     u5171:
  2781  013FDE  EFFF  F09F         	goto	l882
  2782  013FE2                     u5170:
  2783  013FE2  0418               	decf	(0+((c:0)+018h)),c,w
  2784  013FE4  1019               	iorwf (1+((c:0)+018h)),c,w
  2785                           
  2786  013FE6  A4D8               	btfss	status,2
  2787  013FE8  EFF8  F09F         	goto	u5181
  2788  013FEC  EFFA  F09F         	goto	u5180
  2789  013FF0                     u5181:
  2790  013FF0  EFFF  F09F         	goto	l882
  2791  013FF4                     u5180:
  2792                           	line	799
  2793                           ;main.c: 799: LATA = 0b11111111;
  2794  013FF4  6889               	setf	((c:3977)),c	;volatile
  2795                           	line	801
  2796                           ;main.c: 801: LATB = 0b10000000;
  2797  013FF6  0E80               	movlw	low(080h)
  2798  013FF8  6E8A               	movwf	((c:3978)),c	;volatile
  2799                           	line	803
  2800                           ;main.c: 803: LATC = 0b00100111;
  2801  013FFA  0E27               	movlw	low(027h)
  2802  013FFC  6E8B               	movwf	((c:3979)),c	;volatile
  2803                           	line	804
  2804                           	
  2805  013FFE                     l1005:		; BSR set to: ?
  2806                           
  2807                           	line	805
  2808                           	
  2809  013FFE                     l1004:		; BSR set to: ?
  2810                           
  2811                           	
  2812  013FFE                     l1002:		; BSR set to: ?
  2813                           
  2814                           	
  2815  013FFE                     l1000:		; BSR set to: ?
  2816                           
  2817                           	
  2818  013FFE                     l998:		; BSR set to: ?
  2819                           
  2820                           	
  2821  013FFE                     l996:		; BSR set to: ?
  2822                           
  2823                           	
  2824  013FFE                     l994:		; BSR set to: ?
  2825                           
  2826                           	
  2827  013FFE                     l992:		; BSR set to: ?
  2828                           
  2829                           	
  2830  013FFE                     l990:		; BSR set to: ?
  2831                           
  2832                           	
  2833  013FFE                     l988:		; BSR set to: ?
  2834                           
  2835                           	
  2836  013FFE                     l986:		; BSR set to: ?
  2837                           
  2838                           	
  2839  013FFE                     l984:		; BSR set to: ?
  2840                           
  2841                           	
  2842  013FFE                     l982:		; BSR set to: ?
  2843                           
  2844                           	
  2845  013FFE                     l980:		; BSR set to: ?
  2846                           
  2847                           	
  2848  013FFE                     l978:		; BSR set to: ?
  2849                           
  2850                           	
  2851  013FFE                     l976:		; BSR set to: ?
  2852                           
  2853                           	
  2854  013FFE                     l974:		; BSR set to: ?
  2855                           
  2856                           	
  2857  013FFE                     l972:		; BSR set to: ?
  2858                           
  2859                           	
  2860  013FFE                     l970:		; BSR set to: ?
  2861                           
  2862                           	
  2863  013FFE                     l968:		; BSR set to: ?
  2864                           
  2865                           	
  2866  013FFE                     l966:		; BSR set to: ?
  2867                           
  2868                           	
  2869  013FFE                     l964:		; BSR set to: ?
  2870                           
  2871                           	
  2872  013FFE                     l962:		; BSR set to: ?
  2873                           
  2874                           	
  2875  013FFE                     l960:		; BSR set to: ?
  2876                           
  2877                           	
  2878  013FFE                     l958:		; BSR set to: ?
  2879                           
  2880                           	
  2881  013FFE                     l956:		; BSR set to: ?
  2882                           
  2883                           	
  2884  013FFE                     l954:		; BSR set to: ?
  2885                           
  2886                           	
  2887  013FFE                     l952:		; BSR set to: ?
  2888                           
  2889                           	
  2890  013FFE                     l950:		; BSR set to: ?
  2891                           
  2892                           	
  2893  013FFE                     l948:		; BSR set to: ?
  2894                           
  2895                           	
  2896  013FFE                     l946:		; BSR set to: ?
  2897                           
  2898                           	
  2899  013FFE                     l944:		; BSR set to: ?
  2900                           
  2901                           	
  2902  013FFE                     l942:		; BSR set to: ?
  2903                           
  2904                           	
  2905  013FFE                     l940:		; BSR set to: ?
  2906                           
  2907                           	
  2908  013FFE                     l938:		; BSR set to: ?
  2909                           
  2910                           	
  2911  013FFE                     l936:		; BSR set to: ?
  2912                           
  2913                           	
  2914  013FFE                     l934:		; BSR set to: ?
  2915                           
  2916                           	
  2917  013FFE                     l932:		; BSR set to: ?
  2918                           
  2919                           	
  2920  013FFE                     l930:		; BSR set to: ?
  2921                           
  2922                           	
  2923  013FFE                     l928:		; BSR set to: ?
  2924                           
  2925                           	
  2926  013FFE                     l926:		; BSR set to: ?
  2927                           
  2928                           	
  2929  013FFE                     l924:		; BSR set to: ?
  2930                           
  2931                           	
  2932  013FFE                     l922:		; BSR set to: ?
  2933                           
  2934                           	
  2935  013FFE                     l920:		; BSR set to: ?
  2936                           
  2937                           	
  2938  013FFE                     l918:		; BSR set to: ?
  2939                           
  2940                           	
  2941  013FFE                     l916:		; BSR set to: ?
  2942                           
  2943                           	
  2944  013FFE                     l914:		; BSR set to: ?
  2945                           
  2946                           	
  2947  013FFE                     l912:		; BSR set to: ?
  2948                           
  2949                           	
  2950  013FFE                     l910:		; BSR set to: ?
  2951                           
  2952                           	
  2953  013FFE                     l908:		; BSR set to: ?
  2954                           
  2955                           	
  2956  013FFE                     l906:		; BSR set to: ?
  2957                           
  2958                           	
  2959  013FFE                     l904:		; BSR set to: ?
  2960                           
  2961                           	
  2962  013FFE                     l902:		; BSR set to: ?
  2963                           
  2964                           	
  2965  013FFE                     l900:		; BSR set to: ?
  2966                           
  2967                           	
  2968  013FFE                     l898:		; BSR set to: ?
  2969                           
  2970                           	
  2971  013FFE                     l896:		; BSR set to: ?
  2972                           
  2973                           	
  2974  013FFE                     l894:		; BSR set to: ?
  2975                           
  2976                           	
  2977  013FFE                     l892:		; BSR set to: ?
  2978                           
  2979                           	
  2980  013FFE                     l890:		; BSR set to: ?
  2981                           
  2982                           	
  2983  013FFE                     l888:		; BSR set to: ?
  2984                           
  2985                           	
  2986  013FFE                     l886:		; BSR set to: ?
  2987                           
  2988                           	
  2989  013FFE                     l884:		; BSR set to: ?
  2990                           
  2991                           	
  2992  013FFE                     l882:		; BSR set to: ?
  2993                           
  2994                           ;main.c: 804: }
  2995                           ;main.c: 805: }
  2996  013FFE                     l880:
  2997                           			; BSR set to: ?
  2998                           
  2999  013FFE  0012               	return
  3000                           	opt stack 0
  3001                           GLOBAL __end_of_ToggleLeds
  3002  014000                     	__end_of_ToggleLeds:
  3003                           	FNSIZE	_ToggleLeds,0,0
  3004                           ; =============== function _ToggleLeds ends ====
                                 ========
  3005                           
  3006                           	signat	_ToggleLeds,88
  3007                           	FNCALL	_main,_ToggleLeds
  3008                           	FNROOT	_main
  3009                                   psect   const,class=CODE,space=0,reloc=2
  3010                           	global	_led_array
  3011                           	global	_led_array
  3012  000000                     _led_array  equ     0
  3013                           
  3014                           	DABS	1,0,26	;_led_array
  3015                           	global	_cur_inputs
  3016                           	global	_cur_inputs
  3017  000000                     _cur_inputs  equ     26
  3018                           
  3019                           	DABS	1,26,14	;_cur_inputs
  3020                           	global	_prev_inputs
  3021                           	global	_prev_inputs
  3022  000000                     _prev_inputs  equ     51
  3023                           
  3024                           	DABS	1,51,14	;_prev_inputs
  3025                           	global	_conv_result
  3026                           	global	_conv_result
  3027  000000                     _conv_result  equ     42
  3028                           
  3029                           	DABS	1,42,4	;_conv_result
  3030                           	global	_index
  3031                           	global	_index
  3032  000000                     _index  equ     40
  3033                           
  3034                           	DABS	1,40,2	;_index
  3035                           	global	_USART_Status
  3036                           	global	_USART_Status
  3037  000000                     _USART_Status  equ     48
  3038                           
  3039                           	DABS	1,48,1	;_USART_Status
  3040                           	global	_adc_num
  3041                           	global	_adc_num
  3042  000000                     _adc_num  equ     46
  3043                           
  3044                           	DABS	1,46,1	;_adc_num
  3045                           	global	_change_val
  3046                           	global	_change_val
  3047  000000                     _change_val  equ     47
  3048                           
  3049                           	DABS	1,47,1	;_change_val
  3050                           	global	_uart_in
  3051                           	global	_uart_in
  3052  000000                     _uart_in  equ     50
  3053                           
  3054                           	DABS	1,50,1	;_uart_in
  3055                           	global	_uart_out
  3056                           	global	_uart_out
  3057  000000                     _uart_out  equ     49
  3058                           
  3059                           	DABS	1,49,1	;_uart_out
  3060                           	global	_ADRES
  3061  000000                     _ADRES	equ	0xFC3
  3062                           	global	_ADCON0
  3063  000000                     _ADCON0	equ	0xFC2
  3064                           	global	_ADCON1
  3065  000000                     _ADCON1	equ	0xFC1
  3066                           	global	_ADCON2
  3067  000000                     _ADCON2	equ	0xFC0
  3068                           	global	_ADRESH
  3069  000000                     _ADRESH	equ	0xFC4
  3070                           	global	_ADRESL
  3071  000000                     _ADRESL	equ	0xFC3
  3072                           	global	_BAUDCON
  3073  000000                     _BAUDCON	equ	0xFB8
  3074                           	global	_LATA
  3075  000000                     _LATA	equ	0xF89
  3076                           	global	_LATB
  3077  000000                     _LATB	equ	0xF8A
  3078                           	global	_LATC
  3079  000000                     _LATC	equ	0xF8B
  3080                           	global	_OSCCON
  3081  000000                     _OSCCON	equ	0xFD3
  3082                           	global	_PIR1
  3083  000000                     _PIR1	equ	0xF9E
  3084                           	global	_RCREG
  3085  000000                     _RCREG	equ	0xFAE
  3086                           	global	_RCSTA
  3087  000000                     _RCSTA	equ	0xFAB
  3088                           	global	_SPBRG
  3089  000000                     _SPBRG	equ	0xFAF
  3090                           	global	_SPBRGH
  3091  000000                     _SPBRGH	equ	0xFB0
  3092                           	global	_TRISA
  3093  000000                     _TRISA	equ	0xF92
  3094                           	global	_TRISB
  3095  000000                     _TRISB	equ	0xF93
  3096                           	global	_TRISC
  3097  000000                     _TRISC	equ	0xF94
  3098                           	global	_TXREG
  3099  000000                     _TXREG	equ	0xFAD
  3100                           	global	_TXSTA
  3101  000000                     _TXSTA	equ	0xFAC
  3102                           	global	_ADON
  3103  000000                     _ADON	equ	0x7E10
  3104                           	global	_BRGH_x
  3105  000000                     _BRGH_x	equ	0x7D62
  3106                           	global	_CREN_x
  3107  000000                     _CREN_x	equ	0x7D5C
  3108                           	global	_CSRC_x
  3109  000000                     _CSRC_x	equ	0x7D67
  3110                           	global	_FERR
  3111  000000                     _FERR	equ	0x7D5A
  3112                           	global	_GODONE
  3113  000000                     _GODONE	equ	0x7E11
  3114                           	global	_OERR
  3115  000000                     _OERR	equ	0x7D59
  3116                           	global	_RCIE_x
  3117  000000                     _RCIE_x	equ	0x7CED
  3118                           	global	_RCIF
  3119  000000                     _RCIF	equ	0x7CF5
  3120                           	global	_RX9D
  3121  000000                     _RX9D	equ	0x7D58
  3122                           	global	_RX9_x
  3123  000000                     _RX9_x	equ	0x7D5E
  3124                           	global	_SENDB_x
  3125  000000                     _SENDB_x	equ	0x7D63
  3126                           	global	_SPEN_x
  3127  000000                     _SPEN_x	equ	0x7D5F
  3128                           	global	_SREN_x
  3129  000000                     _SREN_x	equ	0x7D5D
  3130                           	global	_SYNC_x
  3131  000000                     _SYNC_x	equ	0x7D64
  3132                           	global	_TRISC6
  3133  000000                     _TRISC6	equ	0x7CA6
  3134                           	global	_TRISC7
  3135  000000                     _TRISC7	equ	0x7CA7
  3136                           	global	_TRMT_x
  3137  000000                     _TRMT_x	equ	0x7D61
  3138                           	global	_TX9D
  3139  000000                     _TX9D	equ	0x7D60
  3140                           	global	_TX9_x
  3141  000000                     _TX9_x	equ	0x7D66
  3142                           	global	_TXEN_x
  3143  000000                     _TXEN_x	equ	0x7D65
  3144                           	global	_TXIE_x
  3145  000000                     _TXIE_x	equ	0x7CEC
  3146                           	global	_TXIF
  3147  000000                     _TXIF	equ	0x7CF4
  3148                           	psect	intsave_regs,class=BIGRAM,space=1
  3149                           	PSECT	param1,class=BANK1,space=1
  3150                           	GLOBAL	__Lparam1
  3151                           	FNCONF	param1,??,?
  3152                           	GLOBAL	__Labsbss0
  3153  000000                     __Labsbss0	EQU	0
  3154                           	GLOBAL	__Habsbss0
  3155  000000                     __Habsbss0	EQU	65
  3156                           GLOBAL	__Lparam, __Hparam
  3157                           GLOBAL	__Lparam1, __Hparam1
  3158  000000                     __Lparam	EQU	__Lparam1
  3159  000000                     __Hparam	EQU	__Hparam1


HI-TECH Software PICC-18 Macro Assembler V9.66 build 8870 
Symbol Table                                           Tue May 01 17:55:59 2012

                l900 3FFE                  l901 34C2  
                l902 3FFE                  l910 3FFE  
                l911 35C0                  l903 34F4  
                l904 3FFE                  l912 3FFE  
                l920 3FFE                  l921 36BA  
                l913 35F2                  l905 3526  
                l906 3FFE                  l914 3FFE  
                l922 3FFE                  l930 3FFE  
                l931 3812                  l923 3700  
                l915 3624                  l907 3558  
                l908 3FFE                  l916 3FFE  
                l924 3FFE                  l932 3FFE  
                l940 3FFE                  l941 3934  
                l933 3856                  l925 3746  
                l917 3656                  l909 358C  
                l918 3FFE                  l926 3FFE  
                l934 3FFE                  l942 3FFE  
                l950 3FFE                  l951 3A30  
                l943 3966                  l935 389A  
                l927 378A                  l919 3688  
                l871 31C6                  l880 3FFE  
                l928 3FFE                  l936 3FFE  
                l944 3FFE                  l952 3FFE  
                l960 3FFE                  l961 3B2C  
                l953 3A64                  l945 3998  
                l937 38CE                  l929 37CE  
                l881 325C                  l873 31D4  
                l890 3FFE                  l938 3FFE  
                l946 3FFE                  l954 3FFE  
                l962 3FFE                  l970 3FFE  
                l882 3FFE                  l874 3212  
                l971 3C72                  l963 3B5E  
                l955 3A96                  l947 39CA  
                l939 3902                  l891 33B2  
                l883 32A2                  l867 3212  
                l884 3FFE                  l892 3FFE  
                l948 3FFE                  l956 3FFE  
                l964 3FFE                  l972 3FFE  
                l980 3FFE                  l876 3212  
                l868 31D4                  l981 3DA6  
                l973 3CB6                  l965 3BA4  
                l957 3AC8                  l949 39FC  
                l893 33F6                  l885 32E6  
                l877 31DC                  l869 31BE  
                l886 3FFE                  l894 3FFE  
                l958 3FFE                  l966 3FFE  
                l974 3FFE                  l982 3FFE  
                l990 3FFE                  l878 31D8  
                l991 3EA0                  l983 3DD8  
                l975 3CFA                  l967 3BEA  
                l959 3AFA                  l895 342A  
                l887 332A                  l879 31EC  
                l888 3FFE                  l896 3FFE  
                l968 3FFE                  l976 3FFE  
                l984 3FFE                  l992 3FFE  
                l993 3ED4                  l985 3E0A  
                l977 3D3E                  l969 3C2E  
                l897 345E                  l889 336E  
                l898 3FFE                  l978 3FFE  
                l986 3FFE                  l994 3FFE  
                l995 3F08                  l987 3E3C  
                l979 3D72                  l899 3490  
                l988 3FFE                  l996 3FFE  
                l997 3F3A                  l989 3E6E  
                l998 3FFE                  l999 3F6C  
        main@channel 0104                 l1000 3FFE  
               l1001 3F9E                 l1002 3FFE  
               l1003 3FD0                 l1004 3FFE  
               l1005 3FFE                 _ADON 007E10  
               _FERR 007D5A                 _LATA 000F89  
               _LATB 000F8A                 _LATC 000F8B  
               u4000 34B4                 u4001 34B0  
               u4010 34D4                 u4011 34D0  
               u4100 35B0                 u4020 34E6  
               u4101 35AC                 u4021 34E2  
               u4110 35D2                 u4030 3506  
               u4111 35CE                 u4031 3502  
               u5000 3E2E                 u4200 36AC  
               u4120 35E4                 u4040 3518  
               u5001 3E2A                 u4201 36A8  
               u4121 35E0                 u4041 3514  
               u5010 3E4E                 u4210 36CC  
               u4130 3604                 u4050 3538  
               u5011 3E4A                 u4211 36C8  
               u4131 3600                 u4051 3534  
               u5100 3F2C                 u5020 3E60  
               u4300 379C                 u4220 36DE  
               u4140 3616                 u4060 354A  
               u5101 3F28                 u5021 3E5C  
               u4301 3798                 u4221 36DA  
               u4141 3612                 u4061 3546  
               u5110 3F4C                 u5030 3E80  
               u4310 37AE                 u4230 36F0  
               u4150 3636                 u4070 356A  
               u5111 3F48                 u5031 3E7C  
               u4311 37AA                 u4231 36EC  
               u4151 3632                 u4071 3566  
               u5120 3F5E                 u5040 3E92  
               u4400 387A                 u4320 37C0  
               u4240 3712                 u4160 3648  
               u4080 357C                 u5200 31EC  
               u5121 3F5A                 u5041 3E8E  
               u4401 3876                 u4321 37BC  
               u4241 370E                 u4161 3644  
               u4081 3578                 u5201 31E8  
               u5130 3F7E                 u5050 3EB2  
               u4410 388C                 u4330 37E0  
               u4250 3724                 u4170 3668  
               u4090 359E                 u5131 3F7A  
               u5051 3EAE                 u4411 3888  
               u4331 37DC                 u4251 3720  
               u4171 3664                 u4091 359A  
               u5140 3F90                 u5060 3EC4  
               u4500 3978                 u4420 38AC  
               u4340 37F2                 u4260 3736  
               u4180 367A                 u5141 3F8C  
               u5061 3EC0                 u4501 3974  
               u4421 38A8                 u4341 37EE  
               u4261 3732                 u4181 3676  
               u5150 3FB0                 u5070 3EE6  
               u4510 398A                 u4430 38BE  
               u4350 3804                 u4270 3758  
               u4190 369A                 u5151 3FAC  
               u5071 3EE2                 u4511 3986  
               u4431 38BA                 u4351 3800  
               u4271 3754                 u4191 3696  
               u5160 3FC2                 u5080 3EF8  
               u4600 3A76                 u4520 39AA  
               u4440 38E0                 u4360 3824  
               u4280 376A                 u3800 32D8  
               u3720 3228                 u5161 3FBE  
               u5081 3EF4                 u4601 3A72  
               u4521 39A6                 u4441 38DC  
               u4361 3820                 u4281 3766  
               u3801 32D4                 u3721 3224  
               u5170 3FE2                 u5090 3F1A  
               u4610 3A88                 u4530 39BC  
               u4450 38F2                 u4370 3836  
               u4290 377C                 u3810 32F8  
               u3730 323A                 u5171 3FDE  
               u5091 3F16                 u4611 3A84  
               u4531 39B8                 u4451 38EE  
               u4371 3832                 u4291 3778  
               u3811 32F4                 u3731 3236  
               u5180 3FF4                 u4700 3B70  
               u4620 3AA8                 u4540 39DC  
               u4460 3914                 u4380 3848  
               u3900 33C4                 u3820 330A  
               u3740 324C                 u5181 3FF0  
               u4701 3B6C                 u4621 3AA4  
               u4541 39D8                 u4461 3910  
               u4381 3844                 u3901 33C0  
               u3821 3306                 u3741 3248  
               u4710 3B82                 u4630 3ABA  
               u4550 39EE                 u4470 3926  
               u4390 3868                 u3910 33D6  
               u3830 331C                 u3750 326E  
               u5190 31D4                 u4711 3B7E  
               u4631 3AB6                 u4551 39EA  
               u4471 3922                 u4391 3864  
               u3911 33D2                 u3831 3318  
               u3751 326A                 u5191 31D0  
               u4800 3C52                 u4720 3B94  
               u4640 3ADA                 u4560 3A0E  
               u4480 3946                 u3920 33E8  
               u3840 333C                 u3760 3280  
               u4801 3C4E                 u4721 3B90  
               u4641 3AD6                 u4561 3A0A  
               u4481 3942                 u3921 33E4  
               u3841 3338                 u3761 327C  
               u4810 3C64                 u4730 3BB6  
               u4650 3AEC                 u4570 3A20  
               u4490 3958                 u3930 3408  
               u3850 334E                 u3770 3292  
               u4811 3C60                 u4731 3BB2  
               u4651 3AE8                 u4571 3A1C  
               u4491 3954                 u3931 3404  
               u3851 334A                 u3771 328E  
               _RCIF 007CF5                 u4900 3D30  
               u4820 3C84                 u4740 3BC8  
               u4660 3B0C                 u4580 3A42  
               u3940 341A                 u3860 3360  
               u3780 32B4                 u4901 3D2C  
               u4821 3C80                 u4741 3BC4  
               u4661 3B08                 u4581 3A3E  
               u3941 3416                 u3861 335C  
               u3781 32B0                 u4910 3D50  
               u4830 3C96                 u4750 3BDA  
               u4670 3B1E                 u4590 3A54  
               u3950 343C                 u3870 3380  
               u3790 32C6                 u4911 3D4C  
               u4831 3C92                 u4751 3BD6  
               u4671 3B1A                 u4591 3A50  
               u3951 3438                 u3871 337C  
               u3791 32C2                 u4920 3D62  
               u4840 3CA8                 u4760 3BFC  
               u4680 3B3E                 u3960 344E  
               u3880 3392                 _PIR1 000F9E  
               u4921 3D5E                 u4841 3CA4  
               u4761 3BF8                 u4681 3B3A  
               u3961 344A                 u3881 338E  
               u4930 3D84                 u4850 3CC8  
               u4770 3C0E                 u4690 3B50  
               u3970 3470                 u3890 33A4  
               u4931 3D80                 u4851 3CC4  
               u4771 3C0A                 u4691 3B4C  
               u3971 346C                 u3891 33A0  
               u4940 3D96                 u4860 3CDA  
               u4780 3C20                 u3980 3482  
               u4941 3D92                 u4861 3CD6  
               u4781 3C1C                 u3981 347E  
               u4950 3DB8                 u4870 3CEC  
               u4790 3C40                 u3990 34A2  
               u4951 3DB4                 u4871 3CE8  
               u4791 3C3C                 u3991 349E  
               u4960 3DCA                 u4880 3D0C  
               u4961 3DC6                 u4881 3D08  
               _OERR 007D59                 u4970 3DEA  
               u4890 3D1E                 u4971 3DE6  
               u4891 3D1A                 u4980 3DFC  
               u4981 3DF8                 u4990 3E1C  
               u4991 3E18                 _RX9D 007D58  
               _TX9D 007D60                 _TXIF 007CF4  
               _main 3186                 fsr0l 000FE9  
               start 0000                ?_main 0100  
              _ADRES 000FC3                _RCREG 000FAE  
              _RCSTA 000FAB                _SPBRG 000FAF  
              _TRISA 000F92                _TRISB 000F93  
              _TRISC 000F94                _RX9_x 007D5E  
              _TXREG 000FAD                _TX9_x 007D66  
              _TXSTA 000FAC                _index 000028  
              status 000FD8         __end_of_main 3216  
             ??_main 0104        __activetblptr 000000  
             _ADCON0 000FC2               _ADCON1 000FC1  
             _ADCON2 000FC0               _ADRESH 000FC4  
             _ADRESL 000FC3               _BRGH_x 007D62  
             _GODONE 007E11               _CREN_x 007D5C  
             _CSRC_x 007D67               _RCIE_x 007CED  
             _OSCCON 000FD3               _SPBRGH 000FB0  
             _TRISC6 007CA6               _TRISC7 007CA7  
             _SPEN_x 007D5F               _SREN_x 007D5D  
             _TRMT_x 007D61               _TXIE_x 007CEC  
             _TXEN_x 007D65               _SYNC_x 007D64  
             __Ldata 000000           _ToggleLeds 3216  
       __mediumconst 0D00           __accesstop 0060  
         _change_val 00002F              _BAUDCON 000FB8  
        ?_ToggleLeds 0108              _SENDB_x 007D63  
            __Hparam 0108           _cur_inputs 00001A  
            __Lparam 0100              _adc_num 00002E  
            __ramtop 0D00              _uart_in 000032  
      __Lmediumconst 0D00              postdec0 000FED  
            postinc0 000FEE           main@result 0105  
          __Habsbss0 000041            __Labsbss0 000000  
       ??_ToggleLeds 0108   __end_of_ToggleLeds 4000  
          _led_array 000000          __smallconst 0D00  
        _conv_result 00002A             __Hparam1 0108  
           __Lparam1 0100         __Lsmallconst 0D00  
           __config1 00F0FF             __config2 00FEFF  
           __config3 007FFF             __config4 00FFFB  
           __config5 00FFFF             __config6 00FFFF  
           __config7 00FFFF             _uart_out 000031  
           main@argc 0100             main@argv 0102  
        _prev_inputs 000033         _USART_Status 000030  
