

HI-TECH Software LITE Macro Assembler (PIC18) V9.66 build 8870 
                                                       Mon May 07 16:07:57 2012

HI-TECH Software Omniscient Code Generator build 8870
     1  000000                     opt subtitle "HI-TECH Software Omniscient Code G
                                 enerator build 8870"
     2                           
     3                           	processor	18F2682
     4  000000                     porta	equ	0F80h
     5  000000                     portb	equ	0F81h
     6  000000                     portc	equ	0F82h
     7  000000                     portd	equ	0F83h
     8  000000                     porte	equ	0F84h
     9  000000                     lata	equ	0F89h
    10  000000                     latb	equ	0F8Ah
    11  000000                     latc	equ	0F8Bh
    12  000000                     latd	equ	0F8Ch
    13  000000                     late	equ	0F8Dh
    14  000000                     trisa	equ	0F92h
    15  000000                     trisb	equ	0F93h
    16  000000                     trisc	equ	0F94h
    17  000000                     trisd	equ	0F95h
    18  000000                     trise	equ	0F96h
    19  000000                     pie1	equ	0F9Dh
    20  000000                     pir1	equ	0F9Eh
    21  000000                     ipr1	equ	0F9Fh
    22  000000                     pie2	equ	0FA0h
    23  000000                     pir2	equ	0FA1h
    24  000000                     ipr2	equ	0FA2h
    25  000000                     t3con	equ	0FB1h
    26  000000                     tmr3l	equ	0FB2h
    27  000000                     tmr3h	equ	0FB3h
    28  000000                     ccp1con	equ	0FBDh
    29  000000                     ccpr1l	equ	0FBEh
    30  000000                     ccpr1h	equ	0FBFh
    31  000000                     adcon1	equ	0FC1h
    32  000000                     adcon0	equ	0FC2h
    33  000000                     adresl	equ	0FC3h
    34  000000                     adresh	equ	0FC4h
    35  000000                     sspcon2	equ	0FC5h
    36  000000                     sspcon1	equ	0FC6h
    37  000000                     sspstat	equ	0FC7h
    38  000000                     sspadd	equ	0FC8h
    39  000000                     sspbuf	equ	0FC9h
    40  000000                     t2con	equ	0FCAh
    41  000000                     pr2	equ	0FCBh
    42  000000                     tmr2	equ	0FCCh
    43  000000                     t1con	equ	0FCDh
    44  000000                     tmr1l	equ	0FCEh
    45  000000                     tmr1h	equ	0FCFh
    46  000000                     rcon	equ	0FD0h
    47  000000                     wdtcon	equ	0FD1h
    48  000000                     lvdcon	equ	0FD2h
    49  000000                     osccon	equ	0FD3h
    50  000000                     t0con	equ	0FD5h
    51  000000                     tmr0l	equ	0FD6h
    52  000000                     tmr0h	equ	0FD7h
    53  000000                     status	equ	0FD8h
    54  000000                     fsr2	equ	0FD9h
    55  000000                     fsr2l	equ	0FD9h
    56  000000                     fsr2h	equ	0FDAh
    57  000000                     plusw2	equ	0FDBh
    58  000000                     preinc2	equ	0FDCh
    59  000000                     postdec2	equ	0FDDh
    60  000000                     postinc2	equ	0FDEh
    61  000000                     indf2	equ	0FDFh
    62  000000                     bsr	equ	0FE0h
    63  000000                     fsr1	equ	0FE1h
    64  000000                     fsr1l	equ	0FE1h
    65  000000                     fsr1h	equ	0FE2h
    66  000000                     plusw1	equ	0FE3h
    67  000000                     preinc1	equ	0FE4h
    68  000000                     postdec1	equ	0FE5h
    69  000000                     postinc1	equ	0FE6h
    70  000000                     indf1	equ	0FE7h
    71  000000                     wreg	equ	0FE8h
    72  000000                     fsr0	equ	0FE9h
    73  000000                     fsr0l	equ	0FE9h
    74  000000                     fsr0h	equ	0FEAh
    75  000000                     plusw0	equ	0FEBh
    76  000000                     preinc0	equ	0FECh
    77  000000                     postdec0	equ	0FEDh
    78  000000                     postinc0	equ	0FEEh
    79  000000                     indf0	equ	0FEFh
    80  000000                     intcon3	equ	0FF0h
    81  000000                     intcon2	equ	0FF1h
    82  000000                     intcon	equ	0FF2h
    83  000000                     prod	equ	0FF3h
    84  000000                     prodl	equ	0FF3h
    85  000000                     prodh	equ	0FF4h
    86  000000                     tablat	equ	0FF5h
    87  000000                     tblptr	equ	0FF6h
    88  000000                     tblptrl	equ	0FF6h
    89  000000                     tblptrh	equ	0FF7h
    90  000000                     tblptru	equ	0FF8h
    91  000000                     pcl	equ	0FF9h
    92  000000                     pclat	equ	0FFAh
    93  000000                     pclath	equ	0FFAh
    94  000000                     pclatu	equ	0FFBh
    95  000000                     stkptr	equ	0FFCh
    96  000000                     tosl	equ	0FFDh
    97  000000                     tosh	equ	0FFEh
    98  000000                     tosu	equ	0FFFh
    99                           	global	__ramtop
   100                           	global	__accesstop
   101                           # 20 "../code/main.c"
   102                           	global __config1 ;#
   103                           # 20 "../code/main.c"
   104  000000                     	__config1 equ 0xF0FF ;#
   105                           # 21 "../code/main.c"
   106                           	global __config2 ;#
   107                           # 21 "../code/main.c"
   108  000000                     	__config2 equ 0xFEFF ;#
   109                           # 22 "../code/main.c"
   110                           	global __config3 ;#
   111                           # 22 "../code/main.c"
   112  000000                     	__config3 equ 0x7FFF ;#
   113                           # 23 "../code/main.c"
   114                           	global __config4 ;#
   115                           # 23 "../code/main.c"
   116  000000                     	__config4 equ 0xFFFB & 0xFFFF ;#
   117                           # 24 "../code/main.c"
   118                           	global __config5 ;#
   119                           # 24 "../code/main.c"
   120  000000                     	__config5 equ 0xFFFF ;#
   121                           # 25 "../code/main.c"
   122                           	global __config6 ;#
   123                           # 25 "../code/main.c"
   124  000000                     	__config6 equ 0xFFFF ;#
   125                           # 26 "../code/main.c"
   126                           	global __config7 ;#
   127                           # 26 "../code/main.c"
   128  000000                     	__config7 equ 0xFFFF ;#
   129                           	GLOBAL	__activetblptr
   130  000000                     __activetblptr	EQU	0
   131                           	GLOBAL	__smallconst,__Lsmallconst
   132  000000                     __smallconst	EQU	__Lsmallconst
   133                           	GLOBAL	__mediumconst,__Lmediumconst
   134  000000                     __mediumconst	EQU	__Lmediumconst
   135                           	GLOBAL	__Ldata
   136  000000                     __Ldata	EQU	0
   137  000000                     main@hResult	equ	??_main+0
   138                           	global	main@hResult
   139  000000                     main@lResult	equ	??_main+1
   140                           	global	main@lResult
   141  000000                     main@uout	equ	??_main+2
   142                           	global	main@uout
   143  000000                     main@argc	equ	?_main+0
   144                           	global	main@argc
   145  000000                     main@argv	equ	?_main+2
   146                           	global	main@argv
   147  000000                     DelayMs@i	equ	??_DelayMs+0
   148                           	global	DelayMs@i
   149  000000                     DelayMs@_dcnt	equ	??_DelayMs+1
   150                           	global	DelayMs@_dcnt
   151  000000                     DelayMs@cnt	equ	?_DelayMs+0
   152                           	global	DelayMs@cnt
   153                           ;Data sizes: Strings 0, constant 0, data 0, bss 
                                 0, persistent 0 stack 12
   154                           	global	_main
   155                           	global	??_main
   156                           	global	?_main
   157                           
   158                           ; *************** function _main ***************
                                 **
   159                           ; Defined at:
   160                           ;		line 167 in file "../code/main.c"
   161                           ; Parameters:
   162                           ;		argc           size:   2offs:   0	type: int 
   163                           ;		argv           size:   2offs:   2	type: PTR P
                                 TR unsigned char 
   164                           ; Auto variables:
   165                           ;		hResult     	       	type: unsigned char 
   166                           ;		lResult     	       	type: unsigned char 
   167                           ;		uout        	       	type: unsigned char 
   168                           ; Return value:
   169                           ;		type: int 
   170                           ;		size: 2
   171                           ; Registers used:
   172                           ;		wreg, fsr0l, fsr0h, status,2, status,0, cstac
                                 k
   173                           ; Tracked objects:
   174                           ;		On entry : 0/0
   175                           ;		On exit  : 0/0
   176                           ;		Unchanged: 0/0
   177                           ; Data sizes:
   178                           ;		Autos:    3
   179                           ;		Params:   4
   180                           ;		Temp:     1
   181                           ;		Total:    8
   182                           ; This function calls:
   183                           ;		_DelayMs
   184                           ;		_ToggleLeds
   185                           ; This function is called by:
   186                           ;		Startup code after reset
   187                           ; This function uses a non-reentrant model
   188                           ; 
   189                                   psect   text0,class=CODE,space=0,reloc=2
   190                           
   191                           	opt lm
   192                           	file	"../code/main.c"
   193                           	line	167
   194  000000                     	__size_of_main	equ	__end_of_main-_main
   195                                   psect   text0
   196                           ;stdio.h: 12: typedef int ptrdiff_t;
   197                           ;stdio.h: 13: typedef unsigned size_t;
   198                           ;stdio.h: 14: typedef unsigned short wchar_t;
   199                           ;stdarg.h: 36: typedef void * va_list[1];
   200                           ;stdarg.h: 39: extern void * __va_start(void);
   201                           ;stdarg.h: 42: extern void * __va_arg(void *);
   202                           ;stdio.h: 27: extern int errno;
   203                           ;stdio.h: 58: struct __prbuf
   204                           ;stdio.h: 59: {
   205                           ;stdio.h: 60: char * ptr;
   206                           ;stdio.h: 61: void (* func)(char);
   207                           ;stdio.h: 62: };
   208                           ;conio.h: 17: extern int errno;
   209                           ;conio.h: 20: extern void init_uart(void);
   210                           ;conio.h: 22: extern char getch(void);
   211                           	
   212  0130D4                     _main:		; BSR set to: ?
   213                           
   214                           	opt stack 31
   215                           	line	169
   216  0130D4  0E72               	movlw	(072h)&0ffh
   217  0130D6  12D3               	iorwf	((c:4051)),c	;volatile
   218                           	line	172
   219                           ;main.c: 172: TRISA = 0b10101111;
   220  0130D8  0EAF               	movlw	low(0AFh)
   221  0130DA  6E92               	movwf	((c:3986)),c	;volatile
   222+                          	line	173
   223+                          ;main.c: 173: TRISB = 0b00010010;
   224+ 0130DC  0E12               	movlw	low(012h)
   225+ 0130DE  6E93               	movwf	((c:3987)),c	;volatile
   226                           	line	174
   227                           ;main.c: 174: TRISC = 0b10000000;
   228  0130E0  0E80               	movlw	low(080h)
   229  0130E2  6E94               	movwf	((c:3988)),c	;volatile
   230                           	line	177
   231                           ;main.c: 177: ADCON0 = 0b00000000;
   232  0130E4  0E00               	movlw	low(0)
   233  0130E6  6EC2               	movwf	((c:4034)),c	;volatile
   234                           	line	178
   235                           ;main.c: 178: ADCON1 = 0b00000101;
   236  0130E8  0E05               	movlw	low(05h)
   237  0130EA  6EC1               	movwf	((c:4033)),c	;volatile
   238                           	line	179
   239                           ;main.c: 179: ADCON2 = 0b10001101;
   240  0130EC  0E8D               	movlw	low(08Dh)
   241  0130EE  6EC0               	movwf	((c:4032)),c	;volatile
   242                           	line	180
   243                           ;main.c: 180: adc_num = 0;
   244  0130F0  0E00               	movlw	low(0)
   245  0130F2  6E1A               	movwf	((c:26)),c	;volatile
   246                           	line	193
   247                           ;main.c: 193: SPBRGH = (((8000000L/19200UL)/16) 
                                 - 1) >> 8;
   248  0130F4  0E00               	movlw	low(0)
   249  0130F6  6EB0               	movwf	((c:4016)),c	;volatile
   250                           	line	194
   251                           ;main.c: 194: SPBRG = (((8000000L/19200UL)/16) -
                                  1);
   252  0130F8  0E19               	movlw	low(019h)
   253  0130FA  6EAF               	movwf	((c:4015)),c	;volatile
   254                           	line	195
   255                           ;main.c: 195: BAUDCON = 0b00001000;
   256  0130FC  0E08               	movlw	low(08h)
   257  0130FE  6EB8               	movwf	((c:4024)),c	;volatile
   258                           	line	196
   259                           ;main.c: 196: RCSTA = 0b10010000;
   260  013100  0E90               	movlw	low(090h)
   261  013102  6EAB               	movwf	((c:4011)),c	;volatile
   262                           	line	197
   263                           ;main.c: 197: TXSTA = 0b00100000;
   264  013104  0E20               	movlw	low(020h)
   265  013106  6EAC               	movwf	((c:4012)),c	;volatile
   266                           	line	200
   267                           ;main.c: 200: LATA = 0b11111111;
   268  013108  6889               	setf	((c:3977)),c	;volatile
   269                           	line	202
   270                           ;main.c: 202: LATB = 0b10000000;
   271  01310A  0E80               	movlw	low(080h)
   272  01310C  6E8A               	movwf	((c:3978)),c	;volatile
   273                           	line	204
   274                           ;main.c: 204: LATC = 0b00001111;
   275  01310E  0E0F               	movlw	low(0Fh)
   276  013110  6E8B               	movwf	((c:3979)),c	;volatile
   277                           	line	223
   278                           ;main.c: 223: while (1) {
   279                           	
   280  013112                     l869:		; BSR set to: ?
   281                           
   282                           	line	228
   283                           ;main.c: 224: char uout;
   284                           ;main.c: 225: char hResult;
   285                           ;main.c: 226: char lResult;
   286                           ;main.c: 228: uout = 0xee;
   287  013112  0101               	movlb	1	; () banked
   288  013114  6F07               	movwf	(??_main+3+0)&0ffh
   289  013116  0EEE               	movlw	low(0EEh)
   290  013118  0101               	movlb	1	; () banked
   291  01311A  0101               	movlb	1	; () banked
   292  01311C  6F06               	movwf	((main@uout))&0ffh
   293  01311E  0101               	movlb	1	; () banked
   294  013120  5107               	movf	(??_main+3+0)&0ffh,w
   295                           	line	229
   296                           ;main.c: 229: TXREG = uout;
   297  013122  C106  FFAD         	movff	(main@uout),(c:4013)	;volatile
   298                           	line	230
   299                           ;main.c: 230: while((PIR1 & 0b00010000) == 0);
   300  013126  EF95  F098         	goto	l871
   301                           	
   302  01312A                     l871:		; BSR set to: ?
   303                           
   304                           	
   305  01312A  A89E               	btfss	((c:3998)),c,(4)&7	;volatile
   306  01312C  EF9A  F098         	goto	u6361
   307  013130  EF9C  F098         	goto	u6360
   308  013134                     u6361:
   309  013134  EF95  F098         	goto	l871
   310  013138                     u6360:
   311                           	
   312  013138                     l873:		; BSR set to: ?
   313                           
   314                           	line	233
   315                           ;main.c: 233: ADON = 0;
   316  013138  90C2               	bcf	c:(32272/8),(32272)&7	;volatile
   317                           	line	235
   318                           ;main.c: 235: ADRESH = 0x00;
   319  01313A  0E00               	movlw	low(0)
   320  01313C  6EC4               	movwf	((c:4036)),c	;volatile
   321                           	line	236
   322                           ;main.c: 236: ADRESL = 0x00;
   323  01313E  0E00               	movlw	low(0)
   324  013140  6EC3               	movwf	((c:4035)),c	;volatile
   325                           	line	237
   326                           ;main.c: 237: ADCON0 = 0b00100100;
   327  013142  0E24               	movlw	low(024h)
   328  013144  6EC2               	movwf	((c:4034)),c	;volatile
   329                           	line	239
   330                           ;main.c: 239: ADON = 1;
   331  013146  80C2               	bsf	c:(32272/8),(32272)&7	;volatile
   332                           	line	240
   333                           ;main.c: 240: GODONE = 1;
   334  013148  82C2               	bsf	c:(32273/8),(32273)&7	;volatile
   335                           	line	243
   336                           ;main.c: 243: while (GODONE);
   337  01314A  EFA7  F098         	goto	l874
   338                           	
   339  01314E                     l874:		; BSR set to: ?
   340                           
   341  01314E  B2C2               	btfsc	c:(32273/8),(32273)&7	;volatile
   342  013150  EFAC  F098         	goto	u6371
   343  013154  EFAE  F098         	goto	u6370
   344  013158                     u6371:
   345  013158  EFA7  F098         	goto	l874
   346  01315C                     u6370:
   347                           	
   348  01315C                     l876:		; BSR set to: ?
   349                           
   350                           	line	244
   351                           ;main.c: 244: hResult = ADRESH;
   352  01315C  CFC4 F104          	movff	(c:4036),(main@hResult)	;volatile
   353                           	line	245
   354                           ;main.c: 245: lResult = ADRESL;
   355  013160  CFC3 F105          	movff	(c:4035),(main@lResult)	;volatile
   356                           	line	247
   357                           ;main.c: 247: uout = hResult;
   358  013164  C104  F106         	movff	(main@hResult),(main@uout)
   359                           	line	248
   360                           ;main.c: 248: TXREG = uout;
   361  013168  C106  FFAD         	movff	(main@uout),(c:4013)	;volatile
   362                           	line	249
   363                           ;main.c: 249: while((PIR1 & 0b00010000) == 0);
   364  01316C  EFB8  F098         	goto	l877
   365                           	
   366  013170                     l877:		; BSR set to: ?
   367                           
   368                           	
   369  013170  A89E               	btfss	((c:3998)),c,(4)&7	;volatile
   370  013172  EFBD  F098         	goto	u6381
   371  013176  EFBF  F098         	goto	u6380
   372  01317A                     u6381:
   373  01317A  EFB8  F098         	goto	l877
   374  01317E                     u6380:
   375                           	
   376  01317E                     l879:		; BSR set to: ?
   377                           
   378                           	line	250
   379                           ;main.c: 250: uout = lResult;
   380  01317E  C105  F106         	movff	(main@lResult),(main@uout)
   381                           	line	251
   382                           ;main.c: 251: TXREG = uout;
   383  013182  C106  FFAD         	movff	(main@uout),(c:4013)	;volatile
   384                           	line	252
   385                           ;main.c: 252: while((PIR1 & 0b00010000) == 0);
   386  013186  EFC5  F098         	goto	l880
   387                           	
   388  01318A                     l880:		; BSR set to: ?
   389                           
   390                           	
   391  01318A  A89E               	btfss	((c:3998)),c,(4)&7	;volatile
   392  01318C  EFCA  F098         	goto	u6391
   393  013190  EFCC  F098         	goto	u6390
   394  013194                     u6391:
   395  013194  EFC5  F098         	goto	l880
   396  013198                     u6390:
   397                           	
   398  013198                     l882:		; BSR set to: ?
   399                           
   400                           	line	254
   401                           ;main.c: 254: DelayMs(5000);
   402  013198  0101               	movlb	1	; () banked
   403  01319A  6F07               	movwf	(??_main+3+0)&0ffh
   404  01319C  0E88               	movlw	low(088h)
   405  01319E  0101               	movlb	1	; () banked
   406  0131A0  0101               	movlb	1	; () banked
   407  0131A2  6F08               	movwf	((?_DelayMs))&0ffh
   408  0131A4  0101               	movlb	1	; () banked
   409  0131A6  5107               	movf	(??_main+3+0)&0ffh,w
   410  0131A8  EC46  F098         	call	_DelayMs	;wreg free
   411                           	line	255
   412                           ;main.c: 255: DelayMs(5000);
   413  0131AC  0101               	movlb	1	; () banked
   414  0131AE  6F07               	movwf	(??_main+3+0)&0ffh
   415  0131B0  0E88               	movlw	low(088h)
   416  0131B2  0101               	movlb	1	; () banked
   417  0131B4  0101               	movlb	1	; () banked
   418  0131B6  6F08               	movwf	((?_DelayMs))&0ffh
   419  0131B8  0101               	movlb	1	; () banked
   420  0131BA  5107               	movf	(??_main+3+0)&0ffh,w
   421  0131BC  EC46  F098         	call	_DelayMs	;wreg free
   422                           	line	256
   423                           	
   424  0131C0                     l868:		; BSR set to: ?
   425                           
   426                           	line	223
   427  0131C0  EF89  F098         	goto	l869
   428                           	line	264
   429                           	
   430  0131C4                     l884:		; BSR set to: ?
   431                           
   432                           	line	266
   433                           ;main.c: 266: while (change_val == 0) {
   434  0131C4  EFE4  F098         	goto	l886
   435                           	line	269
   436                           	
   437  0131C8                     l886:		; BSR set to: ?
   438                           
   439                           	line	266
   440  0131C8  5029               	movf	((c:41)),c,w
   441  0131CA  B4D8               	btfsc	status,2
   442  0131CC  EFEA  F098         	goto	u6401
   443  0131D0  EFEC  F098         	goto	u6400
   444  0131D4                     u6401:
   445  0131D4  EFE2  F098         	goto	l884
   446  0131D8                     u6400:
   447                           	
   448  0131D8                     l888:		; BSR set to: ?
   449                           
   450                           	line	272
   451                           ;main.c: 269: }
   452                           ;main.c: 272: uart_out = cur_inputs[index];
   453  0131D8  0E1B               	movlw	low((c:27))
   454  0131DA  2426               	addwf	((c:38)),c,w
   455  0131DC  6EE9               	movwf	c:fsr0l
   456  0131DE  6AEA               	clrf	1+c:fsr0l
   457  0131E0  0E00               	movlw	high((c:27))
   458  0131E2  22EA               	addwfc	1+c:fsr0l
   459  0131E4  50EF               	movf	indf0,w
   460  0131E6  6E28               	movwf	((c:40)),c
   461                           	line	273
   462                           ;main.c: 273: TXREG = uart_out;
   463  0131E8  C028 FFAD          	movff	(c:40),(c:4013)	;volatile
   464                           	line	274
   465                           ;main.c: 274: while((PIR1 & 0b00010000) == 0);
   466  0131EC  EFF8  F098         	goto	l889
   467                           	
   468  0131F0                     l889:		; BSR set to: ?
   469                           
   470                           	
   471  0131F0  A89E               	btfss	((c:3998)),c,(4)&7	;volatile
   472  0131F2  EFFD  F098         	goto	u6411
   473  0131F6  EFFF  F098         	goto	u6410
   474  0131FA                     u6411:
   475  0131FA  EFF8  F098         	goto	l889
   476  0131FE                     u6410:
   477                           	
   478  0131FE                     l891:		; BSR set to: ?
   479                           
   480                           	line	276
   481                           ;main.c: 276: ToggleLeds();
   482  0131FE  EC0B  F099         	call	_ToggleLeds	;wreg free
   483                           	line	279
   484                           ;main.c: 279: change_val = 0;
   485  013202  0101               	movlb	1	; () banked
   486  013204  6F07               	movwf	(??_main+3+0)&0ffh
   487  013206  0E00               	movlw	low(0)
   488  013208  6E29               	movwf	((c:41)),c
   489  01320A  0101               	movlb	1	; () banked
   490  01320C  5107               	movf	(??_main+3+0)&0ffh,w
   491                           	line	281
   492                           	
   493  01320E                     l883:		; BSR set to: ?
   494                           
   495                           	line	264
   496                           	
   497  01320E                     l885:		; BSR set to: ?
   498                           
   499                           	line	286
   500  01320E  EF09  F099         	goto	l867
   501                           	line	287
   502                           ;main.c: 287: }
   503  013212                     l867:
   504                           			; BSR set to: ?
   505                           
   506                           	global	start
   507  013212  EF00  F000         	goto	start
   508                           	opt stack 0
   509                           GLOBAL __end_of_main
   510  013216                     	__end_of_main:
   511                           	FNSIZE	_main,4,4
   512                           ; =============== function _main ends ==========
                                 ==
   513                           
   514                           	signat	_main,8314
   515                           	global	_ToggleLeds
   516                           	global	??_ToggleLeds
   517                           	global	?_ToggleLeds
   518                           
   519                           ; *************** function _ToggleLeds *********
                                 ********
   520                           ; Defined at:
   521                           ;		line 297 in file "../code/main.c"
   522                           ; Parameters:
   523                           ;		None
   524                           ; Auto variables:
   525                           ;		None
   526                           ; Return value:
   527                           ;		type: void 
   528                           ;		size: 0
   529                           ; Registers used:
   530                           ;		wreg, status,2, status,0
   531                           ; Tracked objects:
   532                           ;		On entry : 0/0
   533                           ;		On exit  : 0/0
   534                           ;		Unchanged: 0/0
   535                           ; Data sizes:
   536                           ;		Autos:    0
   537                           ;		Params:   0
   538                           ;		Temp:     0
   539                           ;		Total:    0
   540                           ; This function calls:
   541                           ;		Nothing
   542                           ; This function is called by:
   543                           ;		_main
   544                           ; This function uses a non-reentrant model
   545                           ; 
   546                                   psect   text1,class=CODE,space=0,reloc=2
   547                           
   548                           	opt lm
   549                           	file	"../code/main.c"
   550                           	line	297
   551  000000                     	__size_of_ToggleLeds	equ	__end_of_ToggleLeds-_T
                                 oggleLeds
   552                           ;main.c: 297: void ToggleLeds () {
   553                           	
   554  013216                     _ToggleLeds:		; BSR set to: ?
   555                           
   556                           	opt stack 30
   557                           	line	302
   558  013216  0408               	decf	(0+((c:0)+08h)),c,w
   559  013218  1009               	iorwf (1+((c:0)+08h)),c,w
   560                           
   561  01321A  A4D8               	btfss	status,2
   562  01321C  EF12  F099         	goto	u4891
   563  013220  EF14  F099         	goto	u4890
   564+ 013224                     u4891:
   565+ 013224  EF2E  F099         	goto	l893
   566  013228                     u4890:
   567  013228  040A               	decf	(0+((c:0)+0Ah)),c,w
   568  01322A  100B               	iorwf (1+((c:0)+0Ah)),c,w
   569                           
   570  01322C  A4D8               	btfss	status,2
   571  01322E  EF1B  F099         	goto	u4901
   572  013232  EF1D  F099         	goto	u4900
   573  013236                     u4901:
   574  013236  EF2E  F099         	goto	l893
   575  01323A                     u4900:
   576  01323A  040C               	decf	(0+((c:0)+0Ch)),c,w
   577  01323C  100D               	iorwf (1+((c:0)+0Ch)),c,w
   578                           
   579  01323E  A4D8               	btfss	status,2
   580  013240  EF24  F099         	goto	u4911
   581  013244  EF26  F099         	goto	u4910
   582  013248                     u4911:
   583  013248  EF2E  F099         	goto	l893
   584  01324C                     u4910:
   585                           	line	305
   586                           ;main.c: 305: LATA = 0b11101111;
   587  01324C  0EEF               	movlw	low(0EFh)
   588  01324E  6E89               	movwf	((c:3977)),c	;volatile
   589                           	line	307
   590                           ;main.c: 307: LATB = 0b11100000;
   591  013250  0EE0               	movlw	low(0E0h)
   592  013252  6E8A               	movwf	((c:3978)),c	;volatile
   593                           	line	309
   594                           ;main.c: 309: LATC = 0b00001111;
   595  013254  0E0F               	movlw	low(0Fh)
   596  013256  6E8B               	movwf	((c:3979)),c	;volatile
   597                           	line	310
   598                           ;main.c: 310: } else if (led_array[4] == 1 && le
                                 d_array[5] == 1 && led_array[7] == 1) {
   599  013258  EFFF  F09F         	goto	l894
   600                           	
   601  01325C                     l893:		; BSR set to: ?
   602                           
   603  01325C  0408               	decf	(0+((c:0)+08h)),c,w
   604  01325E  1009               	iorwf (1+((c:0)+08h)),c,w
   605                           
   606  013260  A4D8               	btfss	status,2
   607  013262  EF35  F099         	goto	u4921
   608  013266  EF37  F099         	goto	u4920
   609  01326A                     u4921:
   610  01326A  EF51  F099         	goto	l895
   611  01326E                     u4920:
   612  01326E  040A               	decf	(0+((c:0)+0Ah)),c,w
   613  013270  100B               	iorwf (1+((c:0)+0Ah)),c,w
   614                           
   615  013272  A4D8               	btfss	status,2
   616  013274  EF3E  F099         	goto	u4931
   617  013278  EF40  F099         	goto	u4930
   618  01327C                     u4931:
   619  01327C  EF51  F099         	goto	l895
   620  013280                     u4930:
   621  013280  040E               	decf	(0+((c:0)+0Eh)),c,w
   622  013282  100F               	iorwf (1+((c:0)+0Eh)),c,w
   623                           
   624  013284  A4D8               	btfss	status,2
   625  013286  EF47  F099         	goto	u4941
   626  01328A  EF49  F099         	goto	u4940
   627  01328E                     u4941:
   628  01328E  EF51  F099         	goto	l895
   629  013292                     u4940:
   630                           	line	313
   631                           ;main.c: 313: LATA = 0b10111111;
   632  013292  0EBF               	movlw	low(0BFh)
   633  013294  6E89               	movwf	((c:3977)),c	;volatile
   634                           	line	315
   635                           ;main.c: 315: LATB = 0b11100000;
   636  013296  0EE0               	movlw	low(0E0h)
   637  013298  6E8A               	movwf	((c:3978)),c	;volatile
   638                           	line	317
   639                           ;main.c: 317: LATC = 0b00001111;
   640  01329A  0E0F               	movlw	low(0Fh)
   641  01329C  6E8B               	movwf	((c:3979)),c	;volatile
   642                           	line	318
   643                           ;main.c: 318: } else if (led_array[4] == 1 && le
                                 d_array[5] == 1 && led_array[8] == 1) {
   644  01329E  EFFF  F09F         	goto	l894
   645                           	
   646  0132A2                     l895:		; BSR set to: ?
   647                           
   648  0132A2  0408               	decf	(0+((c:0)+08h)),c,w
   649  0132A4  1009               	iorwf (1+((c:0)+08h)),c,w
   650                           
   651  0132A6  A4D8               	btfss	status,2
   652  0132A8  EF58  F099         	goto	u4951
   653  0132AC  EF5A  F099         	goto	u4950
   654  0132B0                     u4951:
   655  0132B0  EF73  F099         	goto	l897
   656  0132B4                     u4950:
   657  0132B4  040A               	decf	(0+((c:0)+0Ah)),c,w
   658  0132B6  100B               	iorwf (1+((c:0)+0Ah)),c,w
   659                           
   660  0132B8  A4D8               	btfss	status,2
   661  0132BA  EF61  F099         	goto	u4961
   662  0132BE  EF63  F099         	goto	u4960
   663  0132C2                     u4961:
   664  0132C2  EF73  F099         	goto	l897
   665  0132C6                     u4960:
   666  0132C6  0410               	decf	(0+((c:0)+010h)),c,w
   667  0132C8  1011               	iorwf (1+((c:0)+010h)),c,w
   668                           
   669  0132CA  A4D8               	btfss	status,2
   670  0132CC  EF6A  F099         	goto	u4971
   671  0132D0  EF6C  F099         	goto	u4970
   672  0132D4                     u4971:
   673  0132D4  EF73  F099         	goto	l897
   674  0132D8                     u4970:
   675                           	line	321
   676                           ;main.c: 321: LATA = 0b11111111;
   677  0132D8  6889               	setf	((c:3977)),c	;volatile
   678                           	line	323
   679                           ;main.c: 323: LATB = 0b11100000;
   680  0132DA  0EE0               	movlw	low(0E0h)
   681  0132DC  6E8A               	movwf	((c:3978)),c	;volatile
   682                           	line	325
   683                           ;main.c: 325: LATC = 0b00001110;
   684  0132DE  0E0E               	movlw	low(0Eh)
   685  0132E0  6E8B               	movwf	((c:3979)),c	;volatile
   686                           	line	326
   687                           ;main.c: 326: } else if (led_array[4] == 1 && le
                                 d_array[5] == 1 && led_array[9] == 1) {
   688  0132E2  EFFF  F09F         	goto	l894
   689                           	
   690  0132E6                     l897:		; BSR set to: ?
   691                           
   692  0132E6  0408               	decf	(0+((c:0)+08h)),c,w
   693  0132E8  1009               	iorwf (1+((c:0)+08h)),c,w
   694                           
   695  0132EA  A4D8               	btfss	status,2
   696  0132EC  EF7A  F099         	goto	u4981
   697  0132F0  EF7C  F099         	goto	u4980
   698  0132F4                     u4981:
   699  0132F4  EF95  F099         	goto	l899
   700  0132F8                     u4980:
   701  0132F8  040A               	decf	(0+((c:0)+0Ah)),c,w
   702  0132FA  100B               	iorwf (1+((c:0)+0Ah)),c,w
   703                           
   704  0132FC  A4D8               	btfss	status,2
   705  0132FE  EF83  F099         	goto	u4991
   706  013302  EF85  F099         	goto	u4990
   707  013306                     u4991:
   708  013306  EF95  F099         	goto	l899
   709  01330A                     u4990:
   710  01330A  0412               	decf	(0+((c:0)+012h)),c,w
   711  01330C  1013               	iorwf (1+((c:0)+012h)),c,w
   712                           
   713  01330E  A4D8               	btfss	status,2
   714  013310  EF8C  F099         	goto	u5001
   715  013314  EF8E  F099         	goto	u5000
   716  013318                     u5001:
   717  013318  EF95  F099         	goto	l899
   718  01331C                     u5000:
   719                           	line	329
   720                           ;main.c: 329: LATA = 0b11111111;
   721  01331C  6889               	setf	((c:3977)),c	;volatile
   722                           	line	331
   723                           ;main.c: 331: LATB = 0b11100000;
   724  01331E  0EE0               	movlw	low(0E0h)
   725  013320  6E8A               	movwf	((c:3978)),c	;volatile
   726                           	line	333
   727                           ;main.c: 333: LATC = 0b00001101;
   728  013322  0E0D               	movlw	low(0Dh)
   729  013324  6E8B               	movwf	((c:3979)),c	;volatile
   730                           	line	334
   731                           ;main.c: 334: } else if (led_array[4] == 1 && le
                                 d_array[5] == 1 && led_array[10] == 1) {
   732  013326  EFFF  F09F         	goto	l894
   733                           	
   734  01332A                     l899:		; BSR set to: ?
   735                           
   736  01332A  0408               	decf	(0+((c:0)+08h)),c,w
   737  01332C  1009               	iorwf (1+((c:0)+08h)),c,w
   738                           
   739  01332E  A4D8               	btfss	status,2
   740  013330  EF9C  F099         	goto	u5011
   741  013334  EF9E  F099         	goto	u5010
   742  013338                     u5011:
   743  013338  EFB7  F099         	goto	l901
   744  01333C                     u5010:
   745  01333C  040A               	decf	(0+((c:0)+0Ah)),c,w
   746  01333E  100B               	iorwf (1+((c:0)+0Ah)),c,w
   747                           
   748  013340  A4D8               	btfss	status,2
   749  013342  EFA5  F099         	goto	u5021
   750  013346  EFA7  F099         	goto	u5020
   751  01334A                     u5021:
   752  01334A  EFB7  F099         	goto	l901
   753  01334E                     u5020:
   754  01334E  0414               	decf	(0+((c:0)+014h)),c,w
   755  013350  1015               	iorwf (1+((c:0)+014h)),c,w
   756                           
   757  013352  A4D8               	btfss	status,2
   758  013354  EFAE  F099         	goto	u5031
   759  013358  EFB0  F099         	goto	u5030
   760  01335C                     u5031:
   761+ 01335C  EFB7  F099         	goto	l901
   762+ 013360                     u5030:
   763                           	line	337
   764                           ;main.c: 337: LATA = 0b11111111;
   765  013360  6889               	setf	((c:3977)),c	;volatile
   766                           	line	339
   767                           ;main.c: 339: LATB = 0b01100000;
   768  013362  0E60               	movlw	low(060h)
   769  013364  6E8A               	movwf	((c:3978)),c	;volatile
   770                           	line	341
   771                           ;main.c: 341: LATC = 0b00001111;
   772  013366  0E0F               	movlw	low(0Fh)
   773  013368  6E8B               	movwf	((c:3979)),c	;volatile
   774                           	line	342
   775                           ;main.c: 342: } else if (led_array[4] == 1 && le
                                 d_array[5] == 1 && led_array[11] == 1) {
   776  01336A  EFFF  F09F         	goto	l894
   777                           	
   778  01336E                     l901:		; BSR set to: ?
   779                           
   780  01336E  0408               	decf	(0+((c:0)+08h)),c,w
   781  013370  1009               	iorwf (1+((c:0)+08h)),c,w
   782                           
   783  013372  A4D8               	btfss	status,2
   784  013374  EFBE  F099         	goto	u5041
   785  013378  EFC0  F099         	goto	u5040
   786  01337C                     u5041:
   787  01337C  EFD9  F099         	goto	l903
   788  013380                     u5040:
   789  013380  040A               	decf	(0+((c:0)+0Ah)),c,w
   790  013382  100B               	iorwf (1+((c:0)+0Ah)),c,w
   791                           
   792  013384  A4D8               	btfss	status,2
   793  013386  EFC7  F099         	goto	u5051
   794  01338A  EFC9  F099         	goto	u5050
   795  01338E                     u5051:
   796  01338E  EFD9  F099         	goto	l903
   797  013392                     u5050:
   798  013392  0416               	decf	(0+((c:0)+016h)),c,w
   799  013394  1017               	iorwf (1+((c:0)+016h)),c,w
   800                           
   801  013396  A4D8               	btfss	status,2
   802  013398  EFD0  F099         	goto	u5061
   803  01339C  EFD2  F099         	goto	u5060
   804  0133A0                     u5061:
   805  0133A0  EFD9  F099         	goto	l903
   806  0133A4                     u5060:
   807                           	line	345
   808                           ;main.c: 345: LATA = 0b11111111;
   809  0133A4  6889               	setf	((c:3977)),c	;volatile
   810                           	line	347
   811                           ;main.c: 347: LATB = 0b11100000;
   812  0133A6  0EE0               	movlw	low(0E0h)
   813  0133A8  6E8A               	movwf	((c:3978)),c	;volatile
   814                           	line	349
   815                           ;main.c: 349: LATC = 0b00001011;
   816  0133AA  0E0B               	movlw	low(0Bh)
   817  0133AC  6E8B               	movwf	((c:3979)),c	;volatile
   818                           	line	350
   819                           ;main.c: 350: } else if (led_array[4] == 1 && le
                                 d_array[5] == 1 && led_array[12] == 1) {
   820  0133AE  EFFF  F09F         	goto	l894
   821                           	
   822  0133B2                     l903:		; BSR set to: ?
   823                           
   824  0133B2  0408               	decf	(0+((c:0)+08h)),c,w
   825  0133B4  1009               	iorwf (1+((c:0)+08h)),c,w
   826                           
   827  0133B6  A4D8               	btfss	status,2
   828  0133B8  EFE0  F099         	goto	u5071
   829  0133BC  EFE2  F099         	goto	u5070
   830  0133C0                     u5071:
   831  0133C0  EFFB  F099         	goto	l905
   832  0133C4                     u5070:
   833  0133C4  040A               	decf	(0+((c:0)+0Ah)),c,w
   834  0133C6  100B               	iorwf (1+((c:0)+0Ah)),c,w
   835                           
   836  0133C8  A4D8               	btfss	status,2
   837  0133CA  EFE9  F099         	goto	u5081
   838  0133CE  EFEB  F099         	goto	u5080
   839  0133D2                     u5081:
   840  0133D2  EFFB  F099         	goto	l905
   841  0133D6                     u5080:
   842  0133D6  0418               	decf	(0+((c:0)+018h)),c,w
   843  0133D8  1019               	iorwf (1+((c:0)+018h)),c,w
   844                           
   845  0133DA  A4D8               	btfss	status,2
   846  0133DC  EFF2  F099         	goto	u5091
   847  0133E0  EFF4  F099         	goto	u5090
   848  0133E4                     u5091:
   849  0133E4  EFFB  F099         	goto	l905
   850  0133E8                     u5090:
   851                           	line	353
   852                           ;main.c: 353: LATA = 0b11111111;
   853  0133E8  6889               	setf	((c:3977)),c	;volatile
   854                           	line	355
   855                           ;main.c: 355: LATB = 0b11100000;
   856  0133EA  0EE0               	movlw	low(0E0h)
   857  0133EC  6E8A               	movwf	((c:3978)),c	;volatile
   858                           	line	357
   859                           ;main.c: 357: LATC = 0b00000111;
   860  0133EE  0E07               	movlw	low(07h)
   861  0133F0  6E8B               	movwf	((c:3979)),c	;volatile
   862                           	line	359
   863                           ;main.c: 359: } else if (led_array[4] == 1 && le
                                 d_array[6] == 1) {
   864  0133F2  EFFF  F09F         	goto	l894
   865                           	
   866  0133F6                     l905:		; BSR set to: ?
   867                           
   868  0133F6  0408               	decf	(0+((c:0)+08h)),c,w
   869  0133F8  1009               	iorwf (1+((c:0)+08h)),c,w
   870                           
   871  0133FA  A4D8               	btfss	status,2
   872  0133FC  EF02  F09A         	goto	u5101
   873  013400  EF04  F09A         	goto	u5100
   874  013404                     u5101:
   875  013404  EF15  F09A         	goto	l907
   876  013408                     u5100:
   877  013408  040C               	decf	(0+((c:0)+0Ch)),c,w
   878  01340A  100D               	iorwf (1+((c:0)+0Ch)),c,w
   879                           
   880  01340C  A4D8               	btfss	status,2
   881  01340E  EF0B  F09A         	goto	u5111
   882  013412  EF0D  F09A         	goto	u5110
   883  013416                     u5111:
   884  013416  EF15  F09A         	goto	l907
   885  01341A                     u5110:
   886                           	line	362
   887                           ;main.c: 362: LATA = 0b11101111;
   888  01341A  0EEF               	movlw	low(0EFh)
   889  01341C  6E89               	movwf	((c:3977)),c	;volatile
   890                           	line	364
   891                           ;main.c: 364: LATB = 0b11000000;
   892  01341E  0EC0               	movlw	low(0C0h)
   893  013420  6E8A               	movwf	((c:3978)),c	;volatile
   894                           	line	366
   895                           ;main.c: 366: LATC = 0b00001111;
   896  013422  0E0F               	movlw	low(0Fh)
   897  013424  6E8B               	movwf	((c:3979)),c	;volatile
   898                           	line	367
   899                           ;main.c: 367: } else if (led_array[4] == 1 && le
                                 d_array[7] == 1) {
   900  013426  EFFF  F09F         	goto	l894
   901                           	
   902  01342A                     l907:		; BSR set to: ?
   903                           
   904  01342A  0408               	decf	(0+((c:0)+08h)),c,w
   905  01342C  1009               	iorwf (1+((c:0)+08h)),c,w
   906                           
   907  01342E  A4D8               	btfss	status,2
   908  013430  EF1C  F09A         	goto	u5121
   909  013434  EF1E  F09A         	goto	u5120
   910  013438                     u5121:
   911  013438  EF2F  F09A         	goto	l909
   912  01343C                     u5120:
   913  01343C  040E               	decf	(0+((c:0)+0Eh)),c,w
   914  01343E  100F               	iorwf (1+((c:0)+0Eh)),c,w
   915                           
   916  013440  A4D8               	btfss	status,2
   917  013442  EF25  F09A         	goto	u5131
   918  013446  EF27  F09A         	goto	u5130
   919  01344A                     u5131:
   920  01344A  EF2F  F09A         	goto	l909
   921  01344E                     u5130:
   922                           	line	370
   923                           ;main.c: 370: LATA = 0b10111111;
   924  01344E  0EBF               	movlw	low(0BFh)
   925  013450  6E89               	movwf	((c:3977)),c	;volatile
   926                           	line	372
   927                           ;main.c: 372: LATB = 0b11000000;
   928  013452  0EC0               	movlw	low(0C0h)
   929  013454  6E8A               	movwf	((c:3978)),c	;volatile
   930                           	line	374
   931                           ;main.c: 374: LATC = 0b00001111;
   932  013456  0E0F               	movlw	low(0Fh)
   933  013458  6E8B               	movwf	((c:3979)),c	;volatile
   934                           	line	375
   935                           ;main.c: 375: } else if (led_array[4] == 1 && le
                                 d_array[8] == 1) {
   936  01345A  EFFF  F09F         	goto	l894
   937                           	
   938  01345E                     l909:		; BSR set to: ?
   939                           
   940  01345E  0408               	decf	(0+((c:0)+08h)),c,w
   941  013460  1009               	iorwf (1+((c:0)+08h)),c,w
   942                           
   943  013462  A4D8               	btfss	status,2
   944  013464  EF36  F09A         	goto	u5141
   945  013468  EF38  F09A         	goto	u5140
   946  01346C                     u5141:
   947  01346C  EF48  F09A         	goto	l911
   948  013470                     u5140:
   949  013470  0410               	decf	(0+((c:0)+010h)),c,w
   950  013472  1011               	iorwf (1+((c:0)+010h)),c,w
   951                           
   952  013474  A4D8               	btfss	status,2
   953  013476  EF3F  F09A         	goto	u5151
   954  01347A  EF41  F09A         	goto	u5150
   955  01347E                     u5151:
   956  01347E  EF48  F09A         	goto	l911
   957  013482                     u5150:
   958                           	line	378
   959                           ;main.c: 378: LATA = 0b11111111;
   960  013482  6889               	setf	((c:3977)),c	;volatile
   961                           	line	380
   962                           ;main.c: 380: LATB = 0b11000000;
   963  013484  0EC0               	movlw	low(0C0h)
   964  013486  6E8A               	movwf	((c:3978)),c	;volatile
   965                           	line	382
   966                           ;main.c: 382: LATC = 0b00001110;
   967  013488  0E0E               	movlw	low(0Eh)
   968  01348A  6E8B               	movwf	((c:3979)),c	;volatile
   969                           	line	383
   970                           ;main.c: 383: } else if (led_array[4] == 1 && le
                                 d_array[9] == 1) {
   971  01348C  EFFF  F09F         	goto	l894
   972                           	
   973  013490                     l911:		; BSR set to: ?
   974                           
   975  013490  0408               	decf	(0+((c:0)+08h)),c,w
   976  013492  1009               	iorwf (1+((c:0)+08h)),c,w
   977                           
   978  013494  A4D8               	btfss	status,2
   979  013496  EF4F  F09A         	goto	u5161
   980  01349A  EF51  F09A         	goto	u5160
   981  01349E                     u5161:
   982  01349E  EF61  F09A         	goto	l913
   983  0134A2                     u5160:
   984  0134A2  0412               	decf	(0+((c:0)+012h)),c,w
   985  0134A4  1013               	iorwf (1+((c:0)+012h)),c,w
   986                           
   987  0134A6  A4D8               	btfss	status,2
   988  0134A8  EF58  F09A         	goto	u5171
   989  0134AC  EF5A  F09A         	goto	u5170
   990  0134B0                     u5171:
   991  0134B0  EF61  F09A         	goto	l913
   992  0134B4                     u5170:
   993                           	line	386
   994                           ;main.c: 386: LATA = 0b11111111;
   995  0134B4  6889               	setf	((c:3977)),c	;volatile
   996                           	line	388
   997                           ;main.c: 388: LATB = 0b11000000;
   998  0134B6  0EC0               	movlw	low(0C0h)
   999  0134B8  6E8A               	movwf	((c:3978)),c	;volatile
  1000                           	line	390
  1001                           ;main.c: 390: LATC = 0b00001101;
  1002  0134BA  0E0D               	movlw	low(0Dh)
  1003  0134BC  6E8B               	movwf	((c:3979)),c	;volatile
  1004                           	line	392
  1005                           ;main.c: 392: } else if (led_array[4] == 1 && le
                                 d_array[10] == 1) {
  1006  0134BE  EFFF  F09F         	goto	l894
  1007                           	
  1008  0134C2                     l913:		; BSR set to: ?
  1009                           
  1010  0134C2  0408               	decf	(0+((c:0)+08h)),c,w
  1011  0134C4  1009               	iorwf (1+((c:0)+08h)),c,w
  1012                           
  1013  0134C6  A4D8               	btfss	status,2
  1014  0134C8  EF68  F09A         	goto	u5181
  1015  0134CC  EF6A  F09A         	goto	u5180
  1016  0134D0                     u5181:
  1017  0134D0  EF7A  F09A         	goto	l915
  1018  0134D4                     u5180:
  1019  0134D4  0414               	decf	(0+((c:0)+014h)),c,w
  1020  0134D6  1015               	iorwf (1+((c:0)+014h)),c,w
  1021                           
  1022  0134D8  A4D8               	btfss	status,2
  1023  0134DA  EF71  F09A         	goto	u5191
  1024  0134DE  EF73  F09A         	goto	u5190
  1025  0134E2                     u5191:
  1026  0134E2  EF7A  F09A         	goto	l915
  1027  0134E6                     u5190:
  1028                           	line	395
  1029                           ;main.c: 395: LATA = 0b11111111;
  1030  0134E6  6889               	setf	((c:3977)),c	;volatile
  1031                           	line	397
  1032                           ;main.c: 397: LATB = 0b01000000;
  1033  0134E8  0E40               	movlw	low(040h)
  1034  0134EA  6E8A               	movwf	((c:3978)),c	;volatile
  1035                           	line	399
  1036                           ;main.c: 399: LATC = 0b00001111;
  1037  0134EC  0E0F               	movlw	low(0Fh)
  1038  0134EE  6E8B               	movwf	((c:3979)),c	;volatile
  1039                           	line	401
  1040                           ;main.c: 401: } else if (led_array[4] == 1 && le
                                 d_array[11] == 1) {
  1041  0134F0  EFFF  F09F         	goto	l894
  1042                           	
  1043  0134F4                     l915:		; BSR set to: ?
  1044                           
  1045  0134F4  0408               	decf	(0+((c:0)+08h)),c,w
  1046  0134F6  1009               	iorwf (1+((c:0)+08h)),c,w
  1047                           
  1048  0134F8  A4D8               	btfss	status,2
  1049  0134FA  EF81  F09A         	goto	u5201
  1050  0134FE  EF83  F09A         	goto	u5200
  1051  013502                     u5201:
  1052  013502  EF93  F09A         	goto	l917
  1053  013506                     u5200:
  1054  013506  0416               	decf	(0+((c:0)+016h)),c,w
  1055  013508  1017               	iorwf (1+((c:0)+016h)),c,w
  1056                           
  1057  01350A  A4D8               	btfss	status,2
  1058  01350C  EF8A  F09A         	goto	u5211
  1059  013510  EF8C  F09A         	goto	u5210
  1060  013514                     u5211:
  1061  013514  EF93  F09A         	goto	l917
  1062  013518                     u5210:
  1063                           	line	404
  1064                           ;main.c: 404: LATA = 0b11111111;
  1065  013518  6889               	setf	((c:3977)),c	;volatile
  1066                           	line	406
  1067                           ;main.c: 406: LATB = 0b11000000;
  1068  01351A  0EC0               	movlw	low(0C0h)
  1069  01351C  6E8A               	movwf	((c:3978)),c	;volatile
  1070                           	line	408
  1071                           ;main.c: 408: LATC = 0b00001011;
  1072  01351E  0E0B               	movlw	low(0Bh)
  1073  013520  6E8B               	movwf	((c:3979)),c	;volatile
  1074                           	line	410
  1075                           ;main.c: 410: } else if (led_array[4] == 1 && le
                                 d_array[12] == 1) {
  1076  013522  EFFF  F09F         	goto	l894
  1077                           	
  1078  013526                     l917:		; BSR set to: ?
  1079                           
  1080  013526  0408               	decf	(0+((c:0)+08h)),c,w
  1081  013528  1009               	iorwf (1+((c:0)+08h)),c,w
  1082                           
  1083  01352A  A4D8               	btfss	status,2
  1084  01352C  EF9A  F09A         	goto	u5221
  1085  013530  EF9C  F09A         	goto	u5220
  1086  013534                     u5221:
  1087  013534  EFAC  F09A         	goto	l919
  1088  013538                     u5220:
  1089  013538  0418               	decf	(0+((c:0)+018h)),c,w
  1090  01353A  1019               	iorwf (1+((c:0)+018h)),c,w
  1091                           
  1092  01353C  A4D8               	btfss	status,2
  1093  01353E  EFA3  F09A         	goto	u5231
  1094  013542  EFA5  F09A         	goto	u5230
  1095  013546                     u5231:
  1096  013546  EFAC  F09A         	goto	l919
  1097  01354A                     u5230:
  1098                           	line	413
  1099                           ;main.c: 413: LATA = 0b11111111;
  1100  01354A  6889               	setf	((c:3977)),c	;volatile
  1101                           	line	415
  1102                           ;main.c: 415: LATB = 0b11000000;
  1103  01354C  0EC0               	movlw	low(0C0h)
  1104  01354E  6E8A               	movwf	((c:3978)),c	;volatile
  1105                           	line	417
  1106                           ;main.c: 417: LATC = 0b00000111;
  1107  013550  0E07               	movlw	low(07h)
  1108  013552  6E8B               	movwf	((c:3979)),c	;volatile
  1109                           	line	419
  1110                           ;main.c: 419: } else if (led_array[5] == 1 && le
                                 d_array[6] == 1) {
  1111  013554  EFFF  F09F         	goto	l894
  1112                           	
  1113  013558                     l919:		; BSR set to: ?
  1114                           
  1115  013558  040A               	decf	(0+((c:0)+0Ah)),c,w
  1116  01355A  100B               	iorwf (1+((c:0)+0Ah)),c,w
  1117                           
  1118  01355C  A4D8               	btfss	status,2
  1119  01355E  EFB3  F09A         	goto	u5241
  1120  013562  EFB5  F09A         	goto	u5240
  1121  013566                     u5241:
  1122  013566  EFC6  F09A         	goto	l921
  1123  01356A                     u5240:
  1124  01356A  040C               	decf	(0+((c:0)+0Ch)),c,w
  1125  01356C  100D               	iorwf (1+((c:0)+0Ch)),c,w
  1126                           
  1127  01356E  A4D8               	btfss	status,2
  1128  013570  EFBC  F09A         	goto	u5251
  1129  013574  EFBE  F09A         	goto	u5250
  1130  013578                     u5251:
  1131  013578  EFC6  F09A         	goto	l921
  1132  01357C                     u5250:
  1133                           	line	422
  1134                           ;main.c: 422: LATA = 0b11101111;
  1135  01357C  0EEF               	movlw	low(0EFh)
  1136  01357E  6E89               	movwf	((c:3977)),c	;volatile
  1137                           	line	424
  1138                           ;main.c: 424: LATB = 0b10100000;
  1139  013580  0EA0               	movlw	low(0A0h)
  1140  013582  6E8A               	movwf	((c:3978)),c	;volatile
  1141                           	line	426
  1142                           ;main.c: 426: LATC = 0b00001111;
  1143  013584  0E0F               	movlw	low(0Fh)
  1144  013586  6E8B               	movwf	((c:3979)),c	;volatile
  1145                           	line	428
  1146                           ;main.c: 428: } else if (led_array[5] == 1 && le
                                 d_array[7] == 1) {
  1147  013588  EFFF  F09F         	goto	l894
  1148                           	
  1149  01358C                     l921:		; BSR set to: ?
  1150                           
  1151  01358C  040A               	decf	(0+((c:0)+0Ah)),c,w
  1152  01358E  100B               	iorwf (1+((c:0)+0Ah)),c,w
  1153                           
  1154  013590  A4D8               	btfss	status,2
  1155  013592  EFCD  F09A         	goto	u5261
  1156  013596  EFCF  F09A         	goto	u5260
  1157  01359A                     u5261:
  1158  01359A  EFE0  F09A         	goto	l923
  1159  01359E                     u5260:
  1160  01359E  040E               	decf	(0+((c:0)+0Eh)),c,w
  1161  0135A0  100F               	iorwf (1+((c:0)+0Eh)),c,w
  1162                           
  1163  0135A2  A4D8               	btfss	status,2
  1164  0135A4  EFD6  F09A         	goto	u5271
  1165  0135A8  EFD8  F09A         	goto	u5270
  1166  0135AC                     u5271:
  1167  0135AC  EFE0  F09A         	goto	l923
  1168  0135B0                     u5270:
  1169                           	line	431
  1170                           ;main.c: 431: LATA = 0b10111111;
  1171  0135B0  0EBF               	movlw	low(0BFh)
  1172  0135B2  6E89               	movwf	((c:3977)),c	;volatile
  1173                           	line	433
  1174                           ;main.c: 433: LATB = 0b10100000;
  1175  0135B4  0EA0               	movlw	low(0A0h)
  1176  0135B6  6E8A               	movwf	((c:3978)),c	;volatile
  1177                           	line	435
  1178                           ;main.c: 435: LATC = 0b00001111;
  1179  0135B8  0E0F               	movlw	low(0Fh)
  1180  0135BA  6E8B               	movwf	((c:3979)),c	;volatile
  1181                           	line	437
  1182                           ;main.c: 437: } else if (led_array[5] == 1 && le
                                 d_array[8] == 1) {
  1183  0135BC  EFFF  F09F         	goto	l894
  1184                           	
  1185  0135C0                     l923:		; BSR set to: ?
  1186                           
  1187  0135C0  040A               	decf	(0+((c:0)+0Ah)),c,w
  1188  0135C2  100B               	iorwf (1+((c:0)+0Ah)),c,w
  1189                           
  1190  0135C4  A4D8               	btfss	status,2
  1191  0135C6  EFE7  F09A         	goto	u5281
  1192  0135CA  EFE9  F09A         	goto	u5280
  1193  0135CE                     u5281:
  1194  0135CE  EFF9  F09A         	goto	l925
  1195  0135D2                     u5280:
  1196  0135D2  0410               	decf	(0+((c:0)+010h)),c,w
  1197  0135D4  1011               	iorwf (1+((c:0)+010h)),c,w
  1198                           
  1199  0135D6  A4D8               	btfss	status,2
  1200  0135D8  EFF0  F09A         	goto	u5291
  1201  0135DC  EFF2  F09A         	goto	u5290
  1202  0135E0                     u5291:
  1203  0135E0  EFF9  F09A         	goto	l925
  1204  0135E4                     u5290:
  1205                           	line	440
  1206                           ;main.c: 440: LATA = 0b11111111;
  1207  0135E4  6889               	setf	((c:3977)),c	;volatile
  1208                           	line	442
  1209                           ;main.c: 442: LATB = 0b10100000;
  1210  0135E6  0EA0               	movlw	low(0A0h)
  1211  0135E8  6E8A               	movwf	((c:3978)),c	;volatile
  1212                           	line	444
  1213                           ;main.c: 444: LATC = 0b00001110;
  1214  0135EA  0E0E               	movlw	low(0Eh)
  1215  0135EC  6E8B               	movwf	((c:3979)),c	;volatile
  1216                           	line	446
  1217                           ;main.c: 446: } else if (led_array[5] == 1 && le
                                 d_array[9] == 1) {
  1218  0135EE  EFFF  F09F         	goto	l894
  1219                           	
  1220  0135F2                     l925:		; BSR set to: ?
  1221                           
  1222  0135F2  040A               	decf	(0+((c:0)+0Ah)),c,w
  1223  0135F4  100B               	iorwf (1+((c:0)+0Ah)),c,w
  1224                           
  1225  0135F6  A4D8               	btfss	status,2
  1226  0135F8  EF00  F09B         	goto	u5301
  1227  0135FC  EF02  F09B         	goto	u5300
  1228  013600                     u5301:
  1229  013600  EF12  F09B         	goto	l927
  1230  013604                     u5300:
  1231  013604  0412               	decf	(0+((c:0)+012h)),c,w
  1232  013606  1013               	iorwf (1+((c:0)+012h)),c,w
  1233                           
  1234  013608  A4D8               	btfss	status,2
  1235  01360A  EF09  F09B         	goto	u5311
  1236  01360E  EF0B  F09B         	goto	u5310
  1237  013612                     u5311:
  1238  013612  EF12  F09B         	goto	l927
  1239  013616                     u5310:
  1240                           	line	449
  1241                           ;main.c: 449: LATA = 0b11111111;
  1242  013616  6889               	setf	((c:3977)),c	;volatile
  1243                           	line	451
  1244                           ;main.c: 451: LATB = 0b10100000;
  1245  013618  0EA0               	movlw	low(0A0h)
  1246  01361A  6E8A               	movwf	((c:3978)),c	;volatile
  1247                           	line	453
  1248                           ;main.c: 453: LATC = 0b00001101;
  1249  01361C  0E0D               	movlw	low(0Dh)
  1250  01361E  6E8B               	movwf	((c:3979)),c	;volatile
  1251                           	line	455
  1252                           ;main.c: 455: } else if (led_array[5] == 1 && le
                                 d_array[10] == 1) {
  1253  013620  EFFF  F09F         	goto	l894
  1254                           	
  1255  013624                     l927:		; BSR set to: ?
  1256                           
  1257  013624  040A               	decf	(0+((c:0)+0Ah)),c,w
  1258  013626  100B               	iorwf (1+((c:0)+0Ah)),c,w
  1259                           
  1260  013628  A4D8               	btfss	status,2
  1261  01362A  EF19  F09B         	goto	u5321
  1262  01362E  EF1B  F09B         	goto	u5320
  1263  013632                     u5321:
  1264  013632  EF2B  F09B         	goto	l929
  1265  013636                     u5320:
  1266  013636  0414               	decf	(0+((c:0)+014h)),c,w
  1267  013638  1015               	iorwf (1+((c:0)+014h)),c,w
  1268                           
  1269  01363A  A4D8               	btfss	status,2
  1270  01363C  EF22  F09B         	goto	u5331
  1271  013640  EF24  F09B         	goto	u5330
  1272  013644                     u5331:
  1273  013644  EF2B  F09B         	goto	l929
  1274  013648                     u5330:
  1275                           	line	458
  1276                           ;main.c: 458: LATA = 0b11111111;
  1277  013648  6889               	setf	((c:3977)),c	;volatile
  1278                           	line	460
  1279                           ;main.c: 460: LATB = 0b00100000;
  1280  01364A  0E20               	movlw	low(020h)
  1281  01364C  6E8A               	movwf	((c:3978)),c	;volatile
  1282                           	line	462
  1283                           ;main.c: 462: LATC = 0b00001111;
  1284  01364E  0E0F               	movlw	low(0Fh)
  1285  013650  6E8B               	movwf	((c:3979)),c	;volatile
  1286                           	line	464
  1287                           ;main.c: 464: } else if (led_array[5] == 1 && le
                                 d_array[11] == 1) {
  1288  013652  EFFF  F09F         	goto	l894
  1289                           	
  1290  013656                     l929:		; BSR set to: ?
  1291                           
  1292  013656  040A               	decf	(0+((c:0)+0Ah)),c,w
  1293  013658  100B               	iorwf (1+((c:0)+0Ah)),c,w
  1294                           
  1295  01365A  A4D8               	btfss	status,2
  1296  01365C  EF32  F09B         	goto	u5341
  1297  013660  EF34  F09B         	goto	u5340
  1298  013664                     u5341:
  1299  013664  EF44  F09B         	goto	l931
  1300  013668                     u5340:
  1301  013668  0416               	decf	(0+((c:0)+016h)),c,w
  1302  01366A  1017               	iorwf (1+((c:0)+016h)),c,w
  1303                           
  1304  01366C  A4D8               	btfss	status,2
  1305  01366E  EF3B  F09B         	goto	u5351
  1306  013672  EF3D  F09B         	goto	u5350
  1307  013676                     u5351:
  1308  013676  EF44  F09B         	goto	l931
  1309  01367A                     u5350:
  1310                           	line	467
  1311                           ;main.c: 467: LATA = 0b11111111;
  1312  01367A  6889               	setf	((c:3977)),c	;volatile
  1313                           	line	469
  1314                           ;main.c: 469: LATB = 0b10100000;
  1315  01367C  0EA0               	movlw	low(0A0h)
  1316  01367E  6E8A               	movwf	((c:3978)),c	;volatile
  1317                           	line	471
  1318                           ;main.c: 471: LATC = 0b00001011;
  1319  013680  0E0B               	movlw	low(0Bh)
  1320  013682  6E8B               	movwf	((c:3979)),c	;volatile
  1321                           	line	473
  1322                           ;main.c: 473: } else if (led_array[5] == 1 && le
                                 d_array[12] == 1) {
  1323  013684  EFFF  F09F         	goto	l894
  1324                           	
  1325  013688                     l931:		; BSR set to: ?
  1326                           
  1327  013688  040A               	decf	(0+((c:0)+0Ah)),c,w
  1328  01368A  100B               	iorwf (1+((c:0)+0Ah)),c,w
  1329                           
  1330  01368C  A4D8               	btfss	status,2
  1331  01368E  EF4B  F09B         	goto	u5361
  1332  013692  EF4D  F09B         	goto	u5360
  1333  013696                     u5361:
  1334  013696  EF5D  F09B         	goto	l933
  1335  01369A                     u5360:
  1336  01369A  0418               	decf	(0+((c:0)+018h)),c,w
  1337  01369C  1019               	iorwf (1+((c:0)+018h)),c,w
  1338                           
  1339  01369E  A4D8               	btfss	status,2
  1340  0136A0  EF54  F09B         	goto	u5371
  1341  0136A4  EF56  F09B         	goto	u5370
  1342  0136A8                     u5371:
  1343  0136A8  EF5D  F09B         	goto	l933
  1344  0136AC                     u5370:
  1345                           	line	476
  1346                           ;main.c: 476: LATA = 0b11111111;
  1347  0136AC  6889               	setf	((c:3977)),c	;volatile
  1348                           	line	478
  1349                           ;main.c: 478: LATB = 0b10100000;
  1350  0136AE  0EA0               	movlw	low(0A0h)
  1351  0136B0  6E8A               	movwf	((c:3978)),c	;volatile
  1352                           	line	480
  1353                           ;main.c: 480: LATC = 0b00000111;
  1354  0136B2  0E07               	movlw	low(07h)
  1355  0136B4  6E8B               	movwf	((c:3979)),c	;volatile
  1356                           	line	481
  1357                           ;main.c: 481: }
  1358  0136B6  EFFF  F09F         	goto	l894
  1359                           	line	484
  1360                           	
  1361  0136BA                     l933:		; BSR set to: ?
  1362                           
  1363                           ;main.c: 484: else if (led_array[2] == 1 && led_
                                 array[3] == 1 && led_array[6] == 1) {
  1364  0136BA  0404               	decf	(0+((c:0)+04h)),c,w
  1365  0136BC  1005               	iorwf (1+((c:0)+04h)),c,w
  1366                           
  1367  0136BE  A4D8               	btfss	status,2
  1368  0136C0  EF64  F09B         	goto	u5381
  1369  0136C4  EF66  F09B         	goto	u5380
  1370  0136C8                     u5381:
  1371  0136C8  EF80  F09B         	goto	l935
  1372  0136CC                     u5380:
  1373  0136CC  0406               	decf	(0+((c:0)+06h)),c,w
  1374  0136CE  1007               	iorwf (1+((c:0)+06h)),c,w
  1375                           
  1376  0136D0  A4D8               	btfss	status,2
  1377  0136D2  EF6D  F09B         	goto	u5391
  1378  0136D6  EF6F  F09B         	goto	u5390
  1379  0136DA                     u5391:
  1380  0136DA  EF80  F09B         	goto	l935
  1381  0136DE                     u5390:
  1382  0136DE  040C               	decf	(0+((c:0)+0Ch)),c,w
  1383  0136E0  100D               	iorwf (1+((c:0)+0Ch)),c,w
  1384                           
  1385  0136E2  A4D8               	btfss	status,2
  1386  0136E4  EF76  F09B         	goto	u5401
  1387  0136E8  EF78  F09B         	goto	u5400
  1388  0136EC                     u5401:
  1389  0136EC  EF80  F09B         	goto	l935
  1390  0136F0                     u5400:
  1391                           	line	487
  1392                           ;main.c: 487: LATA = 0b11101111;
  1393  0136F0  0EEF               	movlw	low(0EFh)
  1394  0136F2  6E89               	movwf	((c:3977)),c	;volatile
  1395                           	line	489
  1396                           ;main.c: 489: LATB = 0b10001100;
  1397  0136F4  0E8C               	movlw	low(08Ch)
  1398  0136F6  6E8A               	movwf	((c:3978)),c	;volatile
  1399                           	line	491
  1400                           ;main.c: 491: LATC = 0b00001111;
  1401  0136F8  0E0F               	movlw	low(0Fh)
  1402  0136FA  6E8B               	movwf	((c:3979)),c	;volatile
  1403                           	line	493
  1404                           ;main.c: 493: } else if (led_array[2] == 1 && le
                                 d_array[3] == 1 && led_array[7] == 1) {
  1405  0136FC  EFFF  F09F         	goto	l894
  1406                           	
  1407  013700                     l935:		; BSR set to: ?
  1408                           
  1409  013700  0404               	decf	(0+((c:0)+04h)),c,w
  1410  013702  1005               	iorwf (1+((c:0)+04h)),c,w
  1411                           
  1412  013704  A4D8               	btfss	status,2
  1413  013706  EF87  F09B         	goto	u5411
  1414  01370A  EF89  F09B         	goto	u5410
  1415  01370E                     u5411:
  1416  01370E  EFA3  F09B         	goto	l937
  1417  013712                     u5410:
  1418  013712  0406               	decf	(0+((c:0)+06h)),c,w
  1419  013714  1007               	iorwf (1+((c:0)+06h)),c,w
  1420                           
  1421  013716  A4D8               	btfss	status,2
  1422  013718  EF90  F09B         	goto	u5421
  1423  01371C  EF92  F09B         	goto	u5420
  1424  013720                     u5421:
  1425  013720  EFA3  F09B         	goto	l937
  1426  013724                     u5420:
  1427  013724  040E               	decf	(0+((c:0)+0Eh)),c,w
  1428  013726  100F               	iorwf (1+((c:0)+0Eh)),c,w
  1429                           
  1430  013728  A4D8               	btfss	status,2
  1431  01372A  EF99  F09B         	goto	u5431
  1432  01372E  EF9B  F09B         	goto	u5430
  1433  013732                     u5431:
  1434  013732  EFA3  F09B         	goto	l937
  1435  013736                     u5430:
  1436                           	line	496
  1437                           ;main.c: 496: LATA = 0b10111111;
  1438  013736  0EBF               	movlw	low(0BFh)
  1439  013738  6E89               	movwf	((c:3977)),c	;volatile
  1440                           	line	498
  1441                           ;main.c: 498: LATB = 0b10001100;
  1442  01373A  0E8C               	movlw	low(08Ch)
  1443  01373C  6E8A               	movwf	((c:3978)),c	;volatile
  1444                           	line	500
  1445                           ;main.c: 500: LATC = 0b00001111;
  1446  01373E  0E0F               	movlw	low(0Fh)
  1447  013740  6E8B               	movwf	((c:3979)),c	;volatile
  1448                           	line	502
  1449                           ;main.c: 502: } else if (led_array[2] == 1 && le
                                 d_array[3] == 1 && led_array[8] == 1) {
  1450  013742  EFFF  F09F         	goto	l894
  1451                           	
  1452  013746                     l937:		; BSR set to: ?
  1453                           
  1454  013746  0404               	decf	(0+((c:0)+04h)),c,w
  1455  013748  1005               	iorwf (1+((c:0)+04h)),c,w
  1456                           
  1457  01374A  A4D8               	btfss	status,2
  1458  01374C  EFAA  F09B         	goto	u5441
  1459  013750  EFAC  F09B         	goto	u5440
  1460  013754                     u5441:
  1461  013754  EFC5  F09B         	goto	l939
  1462  013758                     u5440:
  1463  013758  0406               	decf	(0+((c:0)+06h)),c,w
  1464  01375A  1007               	iorwf (1+((c:0)+06h)),c,w
  1465                           
  1466  01375C  A4D8               	btfss	status,2
  1467  01375E  EFB3  F09B         	goto	u5451
  1468  013762  EFB5  F09B         	goto	u5450
  1469  013766                     u5451:
  1470  013766  EFC5  F09B         	goto	l939
  1471  01376A                     u5450:
  1472  01376A  0410               	decf	(0+((c:0)+010h)),c,w
  1473  01376C  1011               	iorwf (1+((c:0)+010h)),c,w
  1474                           
  1475  01376E  A4D8               	btfss	status,2
  1476  013770  EFBC  F09B         	goto	u5461
  1477  013774  EFBE  F09B         	goto	u5460
  1478  013778                     u5461:
  1479  013778  EFC5  F09B         	goto	l939
  1480  01377C                     u5460:
  1481                           	line	505
  1482                           ;main.c: 505: LATA = 0b11111111;
  1483  01377C  6889               	setf	((c:3977)),c	;volatile
  1484                           	line	507
  1485                           ;main.c: 507: LATB = 0b10001100;
  1486  01377E  0E8C               	movlw	low(08Ch)
  1487  013780  6E8A               	movwf	((c:3978)),c	;volatile
  1488                           	line	509
  1489                           ;main.c: 509: LATC = 0b00001110;
  1490  013782  0E0E               	movlw	low(0Eh)
  1491  013784  6E8B               	movwf	((c:3979)),c	;volatile
  1492                           	line	511
  1493                           ;main.c: 511: } else if (led_array[2] == 1 && le
                                 d_array[3] == 1 && led_array[9] == 1) {
  1494  013786  EFFF  F09F         	goto	l894
  1495                           	
  1496  01378A                     l939:		; BSR set to: ?
  1497                           
  1498  01378A  0404               	decf	(0+((c:0)+04h)),c,w
  1499  01378C  1005               	iorwf (1+((c:0)+04h)),c,w
  1500                           
  1501  01378E  A4D8               	btfss	status,2
  1502  013790  EFCC  F09B         	goto	u5471
  1503  013794  EFCE  F09B         	goto	u5470
  1504  013798                     u5471:
  1505  013798  EFE7  F09B         	goto	l941
  1506  01379C                     u5470:
  1507  01379C  0406               	decf	(0+((c:0)+06h)),c,w
  1508  01379E  1007               	iorwf (1+((c:0)+06h)),c,w
  1509                           
  1510  0137A0  A4D8               	btfss	status,2
  1511  0137A2  EFD5  F09B         	goto	u5481
  1512  0137A6  EFD7  F09B         	goto	u5480
  1513  0137AA                     u5481:
  1514  0137AA  EFE7  F09B         	goto	l941
  1515  0137AE                     u5480:
  1516  0137AE  0412               	decf	(0+((c:0)+012h)),c,w
  1517  0137B0  1013               	iorwf (1+((c:0)+012h)),c,w
  1518                           
  1519  0137B2  A4D8               	btfss	status,2
  1520  0137B4  EFDE  F09B         	goto	u5491
  1521  0137B8  EFE0  F09B         	goto	u5490
  1522  0137BC                     u5491:
  1523  0137BC  EFE7  F09B         	goto	l941
  1524  0137C0                     u5490:
  1525                           	line	514
  1526                           ;main.c: 514: LATA = 0b11111111;
  1527  0137C0  6889               	setf	((c:3977)),c	;volatile
  1528                           	line	516
  1529                           ;main.c: 516: LATB = 0b10001100;
  1530  0137C2  0E8C               	movlw	low(08Ch)
  1531  0137C4  6E8A               	movwf	((c:3978)),c	;volatile
  1532                           	line	518
  1533                           ;main.c: 518: LATC = 0b00001101;
  1534  0137C6  0E0D               	movlw	low(0Dh)
  1535  0137C8  6E8B               	movwf	((c:3979)),c	;volatile
  1536                           	line	519
  1537                           ;main.c: 519: } else if (led_array[2] == 1 && le
                                 d_array[3] == 1 && led_array[10] == 1) {
  1538  0137CA  EFFF  F09F         	goto	l894
  1539                           	
  1540  0137CE                     l941:		; BSR set to: ?
  1541                           
  1542  0137CE  0404               	decf	(0+((c:0)+04h)),c,w
  1543  0137D0  1005               	iorwf (1+((c:0)+04h)),c,w
  1544                           
  1545  0137D2  A4D8               	btfss	status,2
  1546  0137D4  EFEE  F09B         	goto	u5501
  1547  0137D8  EFF0  F09B         	goto	u5500
  1548  0137DC                     u5501:
  1549  0137DC  EF09  F09C         	goto	l943
  1550  0137E0                     u5500:
  1551  0137E0  0406               	decf	(0+((c:0)+06h)),c,w
  1552  0137E2  1007               	iorwf (1+((c:0)+06h)),c,w
  1553                           
  1554  0137E4  A4D8               	btfss	status,2
  1555  0137E6  EFF7  F09B         	goto	u5511
  1556  0137EA  EFF9  F09B         	goto	u5510
  1557  0137EE                     u5511:
  1558  0137EE  EF09  F09C         	goto	l943
  1559  0137F2                     u5510:
  1560  0137F2  0414               	decf	(0+((c:0)+014h)),c,w
  1561  0137F4  1015               	iorwf (1+((c:0)+014h)),c,w
  1562                           
  1563  0137F6  A4D8               	btfss	status,2
  1564  0137F8  EF00  F09C         	goto	u5521
  1565  0137FC  EF02  F09C         	goto	u5520
  1566  013800                     u5521:
  1567  013800  EF09  F09C         	goto	l943
  1568  013804                     u5520:
  1569                           	line	522
  1570                           ;main.c: 522: LATA = 0b11111111;
  1571  013804  6889               	setf	((c:3977)),c	;volatile
  1572                           	line	524
  1573                           ;main.c: 524: LATB = 0b00001100;
  1574  013806  0E0C               	movlw	low(0Ch)
  1575  013808  6E8A               	movwf	((c:3978)),c	;volatile
  1576                           	line	526
  1577                           ;main.c: 526: LATC = 0b00001111;
  1578  01380A  0E0F               	movlw	low(0Fh)
  1579  01380C  6E8B               	movwf	((c:3979)),c	;volatile
  1580                           	line	527
  1581                           ;main.c: 527: } else if (led_array[2] == 1 && le
                                 d_array[3] == 1 && led_array[11] == 1) {
  1582  01380E  EFFF  F09F         	goto	l894
  1583                           	
  1584  013812                     l943:		; BSR set to: ?
  1585                           
  1586  013812  0404               	decf	(0+((c:0)+04h)),c,w
  1587  013814  1005               	iorwf (1+((c:0)+04h)),c,w
  1588                           
  1589  013816  A4D8               	btfss	status,2
  1590  013818  EF10  F09C         	goto	u5531
  1591  01381C  EF12  F09C         	goto	u5530
  1592  013820                     u5531:
  1593  013820  EF2B  F09C         	goto	l945
  1594  013824                     u5530:
  1595  013824  0406               	decf	(0+((c:0)+06h)),c,w
  1596  013826  1007               	iorwf (1+((c:0)+06h)),c,w
  1597                           
  1598  013828  A4D8               	btfss	status,2
  1599  01382A  EF19  F09C         	goto	u5541
  1600  01382E  EF1B  F09C         	goto	u5540
  1601  013832                     u5541:
  1602  013832  EF2B  F09C         	goto	l945
  1603  013836                     u5540:
  1604  013836  0416               	decf	(0+((c:0)+016h)),c,w
  1605  013838  1017               	iorwf (1+((c:0)+016h)),c,w
  1606                           
  1607  01383A  A4D8               	btfss	status,2
  1608  01383C  EF22  F09C         	goto	u5551
  1609  013840  EF24  F09C         	goto	u5550
  1610  013844                     u5551:
  1611  013844  EF2B  F09C         	goto	l945
  1612  013848                     u5550:
  1613                           	line	530
  1614                           ;main.c: 530: LATA = 0b11111111;
  1615  013848  6889               	setf	((c:3977)),c	;volatile
  1616                           	line	532
  1617                           ;main.c: 532: LATB = 0b10001100;
  1618  01384A  0E8C               	movlw	low(08Ch)
  1619  01384C  6E8A               	movwf	((c:3978)),c	;volatile
  1620                           	line	534
  1621                           ;main.c: 534: LATC = 0b00001011;
  1622  01384E  0E0B               	movlw	low(0Bh)
  1623  013850  6E8B               	movwf	((c:3979)),c	;volatile
  1624                           	line	535
  1625                           ;main.c: 535: } else if (led_array[2] == 1 && le
                                 d_array[3] == 1 && led_array[12] == 1) {
  1626  013852  EFFF  F09F         	goto	l894
  1627                           	
  1628  013856                     l945:		; BSR set to: ?
  1629                           
  1630  013856  0404               	decf	(0+((c:0)+04h)),c,w
  1631  013858  1005               	iorwf (1+((c:0)+04h)),c,w
  1632                           
  1633  01385A  A4D8               	btfss	status,2
  1634  01385C  EF32  F09C         	goto	u5561
  1635  013860  EF34  F09C         	goto	u5560
  1636  013864                     u5561:
  1637  013864  EF4D  F09C         	goto	l947
  1638  013868                     u5560:
  1639  013868  0406               	decf	(0+((c:0)+06h)),c,w
  1640  01386A  1007               	iorwf (1+((c:0)+06h)),c,w
  1641                           
  1642  01386C  A4D8               	btfss	status,2
  1643  01386E  EF3B  F09C         	goto	u5571
  1644  013872  EF3D  F09C         	goto	u5570
  1645  013876                     u5571:
  1646  013876  EF4D  F09C         	goto	l947
  1647  01387A                     u5570:
  1648  01387A  0418               	decf	(0+((c:0)+018h)),c,w
  1649  01387C  1019               	iorwf (1+((c:0)+018h)),c,w
  1650                           
  1651  01387E  A4D8               	btfss	status,2
  1652  013880  EF44  F09C         	goto	u5581
  1653  013884  EF46  F09C         	goto	u5580
  1654  013888                     u5581:
  1655  013888  EF4D  F09C         	goto	l947
  1656  01388C                     u5580:
  1657                           	line	538
  1658                           ;main.c: 538: LATA = 0b11111111;
  1659  01388C  6889               	setf	((c:3977)),c	;volatile
  1660                           	line	540
  1661                           ;main.c: 540: LATB = 0b10001100;
  1662  01388E  0E8C               	movlw	low(08Ch)
  1663  013890  6E8A               	movwf	((c:3978)),c	;volatile
  1664                           	line	542
  1665                           ;main.c: 542: LATC = 0b00000111;
  1666  013892  0E07               	movlw	low(07h)
  1667  013894  6E8B               	movwf	((c:3979)),c	;volatile
  1668                           	line	543
  1669                           ;main.c: 543: } else if (led_array[2] == 1 && le
                                 d_array[6] == 1) {
  1670  013896  EFFF  F09F         	goto	l894
  1671                           	
  1672  01389A                     l947:		; BSR set to: ?
  1673                           
  1674  01389A  0404               	decf	(0+((c:0)+04h)),c,w
  1675  01389C  1005               	iorwf (1+((c:0)+04h)),c,w
  1676                           
  1677  01389E  A4D8               	btfss	status,2
  1678  0138A0  EF54  F09C         	goto	u5591
  1679  0138A4  EF56  F09C         	goto	u5590
  1680  0138A8                     u5591:
  1681  0138A8  EF67  F09C         	goto	l949
  1682  0138AC                     u5590:
  1683  0138AC  040C               	decf	(0+((c:0)+0Ch)),c,w
  1684  0138AE  100D               	iorwf (1+((c:0)+0Ch)),c,w
  1685                           
  1686  0138B0  A4D8               	btfss	status,2
  1687  0138B2  EF5D  F09C         	goto	u5601
  1688  0138B6  EF5F  F09C         	goto	u5600
  1689  0138BA                     u5601:
  1690  0138BA  EF67  F09C         	goto	l949
  1691  0138BE                     u5600:
  1692                           	line	546
  1693                           ;main.c: 546: LATA = 0b11101111;
  1694  0138BE  0EEF               	movlw	low(0EFh)
  1695  0138C0  6E89               	movwf	((c:3977)),c	;volatile
  1696                           	line	548
  1697                           ;main.c: 548: LATB = 0b10000100;
  1698  0138C2  0E84               	movlw	low(084h)
  1699  0138C4  6E8A               	movwf	((c:3978)),c	;volatile
  1700                           	line	550
  1701                           ;main.c: 550: LATC = 0b00001111;
  1702  0138C6  0E0F               	movlw	low(0Fh)
  1703  0138C8  6E8B               	movwf	((c:3979)),c	;volatile
  1704                           	line	552
  1705                           ;main.c: 552: } else if (led_array[2] == 1 && le
                                 d_array[7] == 1) {
  1706  0138CA  EFFF  F09F         	goto	l894
  1707                           	
  1708  0138CE                     l949:		; BSR set to: ?
  1709                           
  1710  0138CE  0404               	decf	(0+((c:0)+04h)),c,w
  1711  0138D0  1005               	iorwf (1+((c:0)+04h)),c,w
  1712                           
  1713  0138D2  A4D8               	btfss	status,2
  1714  0138D4  EF6E  F09C         	goto	u5611
  1715  0138D8  EF70  F09C         	goto	u5610
  1716  0138DC                     u5611:
  1717  0138DC  EF81  F09C         	goto	l951
  1718  0138E0                     u5610:
  1719  0138E0  040E               	decf	(0+((c:0)+0Eh)),c,w
  1720  0138E2  100F               	iorwf (1+((c:0)+0Eh)),c,w
  1721                           
  1722  0138E4  A4D8               	btfss	status,2
  1723  0138E6  EF77  F09C         	goto	u5621
  1724  0138EA  EF79  F09C         	goto	u5620
  1725  0138EE                     u5621:
  1726  0138EE  EF81  F09C         	goto	l951
  1727  0138F2                     u5620:
  1728                           	line	555
  1729                           ;main.c: 555: LATA = 0b10111111;
  1730  0138F2  0EBF               	movlw	low(0BFh)
  1731  0138F4  6E89               	movwf	((c:3977)),c	;volatile
  1732                           	line	557
  1733                           ;main.c: 557: LATB = 0b10000100;
  1734  0138F6  0E84               	movlw	low(084h)
  1735  0138F8  6E8A               	movwf	((c:3978)),c	;volatile
  1736                           	line	559
  1737                           ;main.c: 559: LATC = 0b00001111;
  1738  0138FA  0E0F               	movlw	low(0Fh)
  1739  0138FC  6E8B               	movwf	((c:3979)),c	;volatile
  1740                           	line	561
  1741                           ;main.c: 561: } else if (led_array[2] == 1 && le
                                 d_array[8] == 1) {
  1742  0138FE  EFFF  F09F         	goto	l894
  1743                           	
  1744  013902                     l951:		; BSR set to: ?
  1745                           
  1746  013902  0404               	decf	(0+((c:0)+04h)),c,w
  1747  013904  1005               	iorwf (1+((c:0)+04h)),c,w
  1748                           
  1749  013906  A4D8               	btfss	status,2
  1750  013908  EF88  F09C         	goto	u5631
  1751  01390C  EF8A  F09C         	goto	u5630
  1752  013910                     u5631:
  1753  013910  EF9A  F09C         	goto	l953
  1754  013914                     u5630:
  1755  013914  0410               	decf	(0+((c:0)+010h)),c,w
  1756  013916  1011               	iorwf (1+((c:0)+010h)),c,w
  1757                           
  1758  013918  A4D8               	btfss	status,2
  1759  01391A  EF91  F09C         	goto	u5641
  1760  01391E  EF93  F09C         	goto	u5640
  1761  013922                     u5641:
  1762  013922  EF9A  F09C         	goto	l953
  1763  013926                     u5640:
  1764                           	line	564
  1765                           ;main.c: 564: LATA = 0b11111111;
  1766  013926  6889               	setf	((c:3977)),c	;volatile
  1767                           	line	566
  1768                           ;main.c: 566: LATB = 0b10000100;
  1769  013928  0E84               	movlw	low(084h)
  1770  01392A  6E8A               	movwf	((c:3978)),c	;volatile
  1771                           	line	568
  1772                           ;main.c: 568: LATC = 0b00001110;
  1773  01392C  0E0E               	movlw	low(0Eh)
  1774  01392E  6E8B               	movwf	((c:3979)),c	;volatile
  1775                           	line	570
  1776                           ;main.c: 570: } else if (led_array[2] == 1 && le
                                 d_array[9] == 1) {
  1777  013930  EFFF  F09F         	goto	l894
  1778                           	
  1779  013934                     l953:		; BSR set to: ?
  1780                           
  1781  013934  0404               	decf	(0+((c:0)+04h)),c,w
  1782  013936  1005               	iorwf (1+((c:0)+04h)),c,w
  1783                           
  1784  013938  A4D8               	btfss	status,2
  1785  01393A  EFA1  F09C         	goto	u5651
  1786  01393E  EFA3  F09C         	goto	u5650
  1787  013942                     u5651:
  1788  013942  EFB3  F09C         	goto	l955
  1789  013946                     u5650:
  1790  013946  0412               	decf	(0+((c:0)+012h)),c,w
  1791  013948  1013               	iorwf (1+((c:0)+012h)),c,w
  1792                           
  1793  01394A  A4D8               	btfss	status,2
  1794  01394C  EFAA  F09C         	goto	u5661
  1795  013950  EFAC  F09C         	goto	u5660
  1796  013954                     u5661:
  1797  013954  EFB3  F09C         	goto	l955
  1798  013958                     u5660:
  1799                           	line	573
  1800                           ;main.c: 573: LATA = 0b11111111;
  1801  013958  6889               	setf	((c:3977)),c	;volatile
  1802                           	line	575
  1803                           ;main.c: 575: LATB = 0b10000100;
  1804  01395A  0E84               	movlw	low(084h)
  1805  01395C  6E8A               	movwf	((c:3978)),c	;volatile
  1806                           	line	577
  1807                           ;main.c: 577: LATC = 0b00001101;
  1808  01395E  0E0D               	movlw	low(0Dh)
  1809  013960  6E8B               	movwf	((c:3979)),c	;volatile
  1810                           	line	579
  1811                           ;main.c: 579: } else if (led_array[2] == 1 && le
                                 d_array[10] == 1) {
  1812  013962  EFFF  F09F         	goto	l894
  1813                           	
  1814  013966                     l955:		; BSR set to: ?
  1815                           
  1816  013966  0404               	decf	(0+((c:0)+04h)),c,w
  1817  013968  1005               	iorwf (1+((c:0)+04h)),c,w
  1818                           
  1819  01396A  A4D8               	btfss	status,2
  1820  01396C  EFBA  F09C         	goto	u5671
  1821  013970  EFBC  F09C         	goto	u5670
  1822  013974                     u5671:
  1823  013974  EFCC  F09C         	goto	l957
  1824  013978                     u5670:
  1825  013978  0414               	decf	(0+((c:0)+014h)),c,w
  1826  01397A  1015               	iorwf (1+((c:0)+014h)),c,w
  1827                           
  1828  01397C  A4D8               	btfss	status,2
  1829  01397E  EFC3  F09C         	goto	u5681
  1830  013982  EFC5  F09C         	goto	u5680
  1831  013986                     u5681:
  1832  013986  EFCC  F09C         	goto	l957
  1833  01398A                     u5680:
  1834                           	line	582
  1835                           ;main.c: 582: LATA = 0b11111111;
  1836  01398A  6889               	setf	((c:3977)),c	;volatile
  1837                           	line	584
  1838                           ;main.c: 584: LATB = 0b00000100;
  1839  01398C  0E04               	movlw	low(04h)
  1840  01398E  6E8A               	movwf	((c:3978)),c	;volatile
  1841                           	line	586
  1842                           ;main.c: 586: LATC = 0b00001111;
  1843  013990  0E0F               	movlw	low(0Fh)
  1844  013992  6E8B               	movwf	((c:3979)),c	;volatile
  1845                           	line	588
  1846                           ;main.c: 588: } else if (led_array[2] == 1 && le
                                 d_array[11] == 1) {
  1847  013994  EFFF  F09F         	goto	l894
  1848                           	
  1849  013998                     l957:		; BSR set to: ?
  1850                           
  1851  013998  0404               	decf	(0+((c:0)+04h)),c,w
  1852  01399A  1005               	iorwf (1+((c:0)+04h)),c,w
  1853                           
  1854  01399C  A4D8               	btfss	status,2
  1855  01399E  EFD3  F09C         	goto	u5691
  1856  0139A2  EFD5  F09C         	goto	u5690
  1857  0139A6                     u5691:
  1858  0139A6  EFE5  F09C         	goto	l959
  1859  0139AA                     u5690:
  1860  0139AA  0416               	decf	(0+((c:0)+016h)),c,w
  1861  0139AC  1017               	iorwf (1+((c:0)+016h)),c,w
  1862                           
  1863  0139AE  A4D8               	btfss	status,2
  1864  0139B0  EFDC  F09C         	goto	u5701
  1865  0139B4  EFDE  F09C         	goto	u5700
  1866  0139B8                     u5701:
  1867  0139B8  EFE5  F09C         	goto	l959
  1868  0139BC                     u5700:
  1869                           	line	591
  1870                           ;main.c: 591: LATA = 0b11111111;
  1871  0139BC  6889               	setf	((c:3977)),c	;volatile
  1872                           	line	593
  1873                           ;main.c: 593: LATB = 0b10000100;
  1874  0139BE  0E84               	movlw	low(084h)
  1875  0139C0  6E8A               	movwf	((c:3978)),c	;volatile
  1876                           	line	595
  1877                           ;main.c: 595: LATC = 0b00001011;
  1878  0139C2  0E0B               	movlw	low(0Bh)
  1879  0139C4  6E8B               	movwf	((c:3979)),c	;volatile
  1880                           	line	597
  1881                           ;main.c: 597: } else if (led_array[2] == 1 && le
                                 d_array[12] == 1) {
  1882  0139C6  EFFF  F09F         	goto	l894
  1883                           	
  1884  0139CA                     l959:		; BSR set to: ?
  1885                           
  1886  0139CA  0404               	decf	(0+((c:0)+04h)),c,w
  1887  0139CC  1005               	iorwf (1+((c:0)+04h)),c,w
  1888                           
  1889  0139CE  A4D8               	btfss	status,2
  1890  0139D0  EFEC  F09C         	goto	u5711
  1891  0139D4  EFEE  F09C         	goto	u5710
  1892  0139D8                     u5711:
  1893  0139D8  EFFE  F09C         	goto	l961
  1894  0139DC                     u5710:
  1895  0139DC  0418               	decf	(0+((c:0)+018h)),c,w
  1896  0139DE  1019               	iorwf (1+((c:0)+018h)),c,w
  1897                           
  1898  0139E0  A4D8               	btfss	status,2
  1899  0139E2  EFF5  F09C         	goto	u5721
  1900  0139E6  EFF7  F09C         	goto	u5720
  1901  0139EA                     u5721:
  1902  0139EA  EFFE  F09C         	goto	l961
  1903  0139EE                     u5720:
  1904                           	line	600
  1905                           ;main.c: 600: LATA = 0b11111111;
  1906  0139EE  6889               	setf	((c:3977)),c	;volatile
  1907                           	line	602
  1908                           ;main.c: 602: LATB = 0b10000100;
  1909  0139F0  0E84               	movlw	low(084h)
  1910  0139F2  6E8A               	movwf	((c:3978)),c	;volatile
  1911                           	line	604
  1912                           ;main.c: 604: LATC = 0b00000111;
  1913  0139F4  0E07               	movlw	low(07h)
  1914  0139F6  6E8B               	movwf	((c:3979)),c	;volatile
  1915                           	line	606
  1916                           ;main.c: 606: } else if (led_array[3] == 1 && le
                                 d_array[6] == 1) {
  1917  0139F8  EFFF  F09F         	goto	l894
  1918                           	
  1919  0139FC                     l961:		; BSR set to: ?
  1920                           
  1921  0139FC  0406               	decf	(0+((c:0)+06h)),c,w
  1922  0139FE  1007               	iorwf (1+((c:0)+06h)),c,w
  1923                           
  1924  013A00  A4D8               	btfss	status,2
  1925  013A02  EF05  F09D         	goto	u5731
  1926  013A06  EF07  F09D         	goto	u5730
  1927  013A0A                     u5731:
  1928  013A0A  EF18  F09D         	goto	l963
  1929  013A0E                     u5730:
  1930  013A0E  040C               	decf	(0+((c:0)+0Ch)),c,w
  1931  013A10  100D               	iorwf (1+((c:0)+0Ch)),c,w
  1932                           
  1933  013A12  A4D8               	btfss	status,2
  1934  013A14  EF0E  F09D         	goto	u5741
  1935  013A18  EF10  F09D         	goto	u5740
  1936  013A1C                     u5741:
  1937  013A1C  EF18  F09D         	goto	l963
  1938  013A20                     u5740:
  1939                           	line	609
  1940                           ;main.c: 609: LATA = 0b11101111;
  1941  013A20  0EEF               	movlw	low(0EFh)
  1942  013A22  6E89               	movwf	((c:3977)),c	;volatile
  1943                           	line	611
  1944                           ;main.c: 611: LATB = 0b10001000;
  1945  013A24  0E88               	movlw	low(088h)
  1946  013A26  6E8A               	movwf	((c:3978)),c	;volatile
  1947                           	line	613
  1948                           ;main.c: 613: LATC = 0b00001111;
  1949  013A28  0E0F               	movlw	low(0Fh)
  1950  013A2A  6E8B               	movwf	((c:3979)),c	;volatile
  1951                           	line	615
  1952                           ;main.c: 615: } else if (led_array[3] == 1 && le
                                 d_array[7] == 1) {
  1953  013A2C  EFFF  F09F         	goto	l894
  1954                           	
  1955  013A30                     l963:		; BSR set to: ?
  1956                           
  1957  013A30  0406               	decf	(0+((c:0)+06h)),c,w
  1958  013A32  1007               	iorwf (1+((c:0)+06h)),c,w
  1959                           
  1960  013A34  A4D8               	btfss	status,2
  1961  013A36  EF1F  F09D         	goto	u5751
  1962  013A3A  EF21  F09D         	goto	u5750
  1963  013A3E                     u5751:
  1964  013A3E  EF32  F09D         	goto	l965
  1965  013A42                     u5750:
  1966  013A42  040E               	decf	(0+((c:0)+0Eh)),c,w
  1967  013A44  100F               	iorwf (1+((c:0)+0Eh)),c,w
  1968                           
  1969  013A46  A4D8               	btfss	status,2
  1970  013A48  EF28  F09D         	goto	u5761
  1971  013A4C  EF2A  F09D         	goto	u5760
  1972  013A50                     u5761:
  1973  013A50  EF32  F09D         	goto	l965
  1974  013A54                     u5760:
  1975                           	line	618
  1976                           ;main.c: 618: LATA = 0b10111111;
  1977  013A54  0EBF               	movlw	low(0BFh)
  1978  013A56  6E89               	movwf	((c:3977)),c	;volatile
  1979                           	line	620
  1980                           ;main.c: 620: LATB = 0b10001000;
  1981  013A58  0E88               	movlw	low(088h)
  1982  013A5A  6E8A               	movwf	((c:3978)),c	;volatile
  1983                           	line	622
  1984                           ;main.c: 622: LATC = 0b00001111;
  1985  013A5C  0E0F               	movlw	low(0Fh)
  1986  013A5E  6E8B               	movwf	((c:3979)),c	;volatile
  1987                           	line	624
  1988                           ;main.c: 624: } else if (led_array[3] == 1 && le
                                 d_array[8] == 1) {
  1989  013A60  EFFF  F09F         	goto	l894
  1990                           	
  1991  013A64                     l965:		; BSR set to: ?
  1992                           
  1993  013A64  0406               	decf	(0+((c:0)+06h)),c,w
  1994  013A66  1007               	iorwf (1+((c:0)+06h)),c,w
  1995                           
  1996  013A68  A4D8               	btfss	status,2
  1997  013A6A  EF39  F09D         	goto	u5771
  1998  013A6E  EF3B  F09D         	goto	u5770
  1999  013A72                     u5771:
  2000  013A72  EF4B  F09D         	goto	l967
  2001  013A76                     u5770:
  2002  013A76  0410               	decf	(0+((c:0)+010h)),c,w
  2003  013A78  1011               	iorwf (1+((c:0)+010h)),c,w
  2004                           
  2005  013A7A  A4D8               	btfss	status,2
  2006  013A7C  EF42  F09D         	goto	u5781
  2007  013A80  EF44  F09D         	goto	u5780
  2008  013A84                     u5781:
  2009  013A84  EF4B  F09D         	goto	l967
  2010  013A88                     u5780:
  2011                           	line	627
  2012                           ;main.c: 627: LATA = 0b11111111;
  2013  013A88  6889               	setf	((c:3977)),c	;volatile
  2014                           	line	629
  2015                           ;main.c: 629: LATB = 0b10001000;
  2016  013A8A  0E88               	movlw	low(088h)
  2017  013A8C  6E8A               	movwf	((c:3978)),c	;volatile
  2018                           	line	631
  2019                           ;main.c: 631: LATC = 0b00001110;
  2020  013A8E  0E0E               	movlw	low(0Eh)
  2021  013A90  6E8B               	movwf	((c:3979)),c	;volatile
  2022                           	line	633
  2023                           ;main.c: 633: } else if (led_array[3] == 1 && le
                                 d_array[9] == 1) {
  2024  013A92  EFFF  F09F         	goto	l894
  2025                           	
  2026  013A96                     l967:		; BSR set to: ?
  2027                           
  2028  013A96  0406               	decf	(0+((c:0)+06h)),c,w
  2029  013A98  1007               	iorwf (1+((c:0)+06h)),c,w
  2030                           
  2031  013A9A  A4D8               	btfss	status,2
  2032  013A9C  EF52  F09D         	goto	u5791
  2033  013AA0  EF54  F09D         	goto	u5790
  2034  013AA4                     u5791:
  2035  013AA4  EF64  F09D         	goto	l969
  2036  013AA8                     u5790:
  2037  013AA8  0412               	decf	(0+((c:0)+012h)),c,w
  2038  013AAA  1013               	iorwf (1+((c:0)+012h)),c,w
  2039                           
  2040  013AAC  A4D8               	btfss	status,2
  2041  013AAE  EF5B  F09D         	goto	u5801
  2042  013AB2  EF5D  F09D         	goto	u5800
  2043  013AB6                     u5801:
  2044  013AB6  EF64  F09D         	goto	l969
  2045  013ABA                     u5800:
  2046                           	line	636
  2047                           ;main.c: 636: LATA = 0b11111111;
  2048  013ABA  6889               	setf	((c:3977)),c	;volatile
  2049                           	line	638
  2050                           ;main.c: 638: LATB = 0b10001000;
  2051  013ABC  0E88               	movlw	low(088h)
  2052  013ABE  6E8A               	movwf	((c:3978)),c	;volatile
  2053                           	line	640
  2054                           ;main.c: 640: LATC = 0b00001101;
  2055  013AC0  0E0D               	movlw	low(0Dh)
  2056  013AC2  6E8B               	movwf	((c:3979)),c	;volatile
  2057                           	line	642
  2058                           ;main.c: 642: } else if (led_array[3] == 1 && le
                                 d_array[10] == 1) {
  2059  013AC4  EFFF  F09F         	goto	l894
  2060                           	
  2061  013AC8                     l969:		; BSR set to: ?
  2062                           
  2063  013AC8  0406               	decf	(0+((c:0)+06h)),c,w
  2064  013ACA  1007               	iorwf (1+((c:0)+06h)),c,w
  2065                           
  2066  013ACC  A4D8               	btfss	status,2
  2067  013ACE  EF6B  F09D         	goto	u5811
  2068  013AD2  EF6D  F09D         	goto	u5810
  2069  013AD6                     u5811:
  2070  013AD6  EF7D  F09D         	goto	l971
  2071  013ADA                     u5810:
  2072  013ADA  0414               	decf	(0+((c:0)+014h)),c,w
  2073  013ADC  1015               	iorwf (1+((c:0)+014h)),c,w
  2074                           
  2075  013ADE  A4D8               	btfss	status,2
  2076  013AE0  EF74  F09D         	goto	u5821
  2077  013AE4  EF76  F09D         	goto	u5820
  2078  013AE8                     u5821:
  2079  013AE8  EF7D  F09D         	goto	l971
  2080  013AEC                     u5820:
  2081                           	line	645
  2082                           ;main.c: 645: LATA = 0b11111111;
  2083  013AEC  6889               	setf	((c:3977)),c	;volatile
  2084                           	line	647
  2085                           ;main.c: 647: LATB = 0b00001000;
  2086  013AEE  0E08               	movlw	low(08h)
  2087  013AF0  6E8A               	movwf	((c:3978)),c	;volatile
  2088                           	line	649
  2089                           ;main.c: 649: LATC = 0b00001111;
  2090  013AF2  0E0F               	movlw	low(0Fh)
  2091  013AF4  6E8B               	movwf	((c:3979)),c	;volatile
  2092                           	line	651
  2093                           ;main.c: 651: } else if (led_array[3] == 1 && le
                                 d_array[11] == 1) {
  2094  013AF6  EFFF  F09F         	goto	l894
  2095                           	
  2096  013AFA                     l971:		; BSR set to: ?
  2097                           
  2098  013AFA  0406               	decf	(0+((c:0)+06h)),c,w
  2099  013AFC  1007               	iorwf (1+((c:0)+06h)),c,w
  2100                           
  2101  013AFE  A4D8               	btfss	status,2
  2102  013B00  EF84  F09D         	goto	u5831
  2103  013B04  EF86  F09D         	goto	u5830
  2104  013B08                     u5831:
  2105  013B08  EF96  F09D         	goto	l973
  2106  013B0C                     u5830:
  2107  013B0C  0416               	decf	(0+((c:0)+016h)),c,w
  2108  013B0E  1017               	iorwf (1+((c:0)+016h)),c,w
  2109                           
  2110  013B10  A4D8               	btfss	status,2
  2111  013B12  EF8D  F09D         	goto	u5841
  2112  013B16  EF8F  F09D         	goto	u5840
  2113  013B1A                     u5841:
  2114  013B1A  EF96  F09D         	goto	l973
  2115  013B1E                     u5840:
  2116                           	line	654
  2117                           ;main.c: 654: LATA = 0b11111111;
  2118  013B1E  6889               	setf	((c:3977)),c	;volatile
  2119                           	line	656
  2120                           ;main.c: 656: LATB = 0b10001000;
  2121  013B20  0E88               	movlw	low(088h)
  2122  013B22  6E8A               	movwf	((c:3978)),c	;volatile
  2123                           	line	658
  2124                           ;main.c: 658: LATC = 0b00001011;
  2125  013B24  0E0B               	movlw	low(0Bh)
  2126  013B26  6E8B               	movwf	((c:3979)),c	;volatile
  2127                           	line	660
  2128                           ;main.c: 660: } else if (led_array[3] == 1 && le
                                 d_array[12] == 1) {
  2129  013B28  EFFF  F09F         	goto	l894
  2130                           	
  2131  013B2C                     l973:		; BSR set to: ?
  2132                           
  2133  013B2C  0406               	decf	(0+((c:0)+06h)),c,w
  2134  013B2E  1007               	iorwf (1+((c:0)+06h)),c,w
  2135                           
  2136  013B30  A4D8               	btfss	status,2
  2137  013B32  EF9D  F09D         	goto	u5851
  2138  013B36  EF9F  F09D         	goto	u5850
  2139  013B3A                     u5851:
  2140  013B3A  EFAF  F09D         	goto	l975
  2141  013B3E                     u5850:
  2142  013B3E  0418               	decf	(0+((c:0)+018h)),c,w
  2143  013B40  1019               	iorwf (1+((c:0)+018h)),c,w
  2144                           
  2145  013B42  A4D8               	btfss	status,2
  2146  013B44  EFA6  F09D         	goto	u5861
  2147  013B48  EFA8  F09D         	goto	u5860
  2148  013B4C                     u5861:
  2149  013B4C  EFAF  F09D         	goto	l975
  2150  013B50                     u5860:
  2151                           	line	663
  2152                           ;main.c: 663: LATA = 0b11111111;
  2153  013B50  6889               	setf	((c:3977)),c	;volatile
  2154                           	line	665
  2155                           ;main.c: 665: LATB = 0b10001000;
  2156  013B52  0E88               	movlw	low(088h)
  2157  013B54  6E8A               	movwf	((c:3978)),c	;volatile
  2158                           	line	667
  2159                           ;main.c: 667: LATC = 0b00000111;
  2160  013B56  0E07               	movlw	low(07h)
  2161  013B58  6E8B               	movwf	((c:3979)),c	;volatile
  2162                           	line	668
  2163                           ;main.c: 668: }
  2164  013B5A  EFFF  F09F         	goto	l894
  2165                           	line	671
  2166                           	
  2167  013B5E                     l975:		; BSR set to: ?
  2168                           
  2169                           ;main.c: 671: else if (led_array[0] == 1 && led_
                                 array[1] == 1 && led_array[6] == 1) {
  2170  013B5E  0400               	decf	((c:0)),c,w
  2171  013B60  1001               	iorwf ((c:0+1)),c,w
  2172                           
  2173  013B62  A4D8               	btfss	status,2
  2174  013B64  EFB6  F09D         	goto	u5871
  2175  013B68  EFB8  F09D         	goto	u5870
  2176  013B6C                     u5871:
  2177  013B6C  EFD2  F09D         	goto	l977
  2178  013B70                     u5870:
  2179  013B70  0402               	decf	(0+((c:0)+02h)),c,w
  2180  013B72  1003               	iorwf (1+((c:0)+02h)),c,w
  2181                           
  2182  013B74  A4D8               	btfss	status,2
  2183  013B76  EFBF  F09D         	goto	u5881
  2184  013B7A  EFC1  F09D         	goto	u5880
  2185  013B7E                     u5881:
  2186  013B7E  EFD2  F09D         	goto	l977
  2187  013B82                     u5880:
  2188  013B82  040C               	decf	(0+((c:0)+0Ch)),c,w
  2189  013B84  100D               	iorwf (1+((c:0)+0Ch)),c,w
  2190                           
  2191  013B86  A4D8               	btfss	status,2
  2192  013B88  EFC8  F09D         	goto	u5891
  2193  013B8C  EFCA  F09D         	goto	u5890
  2194  013B90                     u5891:
  2195  013B90  EFD2  F09D         	goto	l977
  2196  013B94                     u5890:
  2197                           	line	674
  2198                           ;main.c: 674: LATA = 0b11101111;
  2199  013B94  0EEF               	movlw	low(0EFh)
  2200  013B96  6E89               	movwf	((c:3977)),c	;volatile
  2201                           	line	676
  2202                           ;main.c: 676: LATB = 0b10000000;
  2203  013B98  0E80               	movlw	low(080h)
  2204  013B9A  6E8A               	movwf	((c:3978)),c	;volatile
  2205                           	line	678
  2206                           ;main.c: 678: LATC = 0b00111111;
  2207  013B9C  0E3F               	movlw	low(03Fh)
  2208  013B9E  6E8B               	movwf	((c:3979)),c	;volatile
  2209                           	line	680
  2210                           ;main.c: 680: } else if (led_array[0] == 1 && le
                                 d_array[1] == 1 && led_array[7] == 1) {
  2211  013BA0  EFFF  F09F         	goto	l894
  2212                           	
  2213  013BA4                     l977:		; BSR set to: ?
  2214                           
  2215  013BA4  0400               	decf	((c:0)),c,w
  2216  013BA6  1001               	iorwf ((c:0+1)),c,w
  2217                           
  2218  013BA8  A4D8               	btfss	status,2
  2219  013BAA  EFD9  F09D         	goto	u5901
  2220  013BAE  EFDB  F09D         	goto	u5900
  2221  013BB2                     u5901:
  2222  013BB2  EFF5  F09D         	goto	l979
  2223  013BB6                     u5900:
  2224  013BB6  0402               	decf	(0+((c:0)+02h)),c,w
  2225  013BB8  1003               	iorwf (1+((c:0)+02h)),c,w
  2226                           
  2227  013BBA  A4D8               	btfss	status,2
  2228  013BBC  EFE2  F09D         	goto	u5911
  2229  013BC0  EFE4  F09D         	goto	u5910
  2230  013BC4                     u5911:
  2231  013BC4  EFF5  F09D         	goto	l979
  2232  013BC8                     u5910:
  2233  013BC8  040E               	decf	(0+((c:0)+0Eh)),c,w
  2234  013BCA  100F               	iorwf (1+((c:0)+0Eh)),c,w
  2235                           
  2236  013BCC  A4D8               	btfss	status,2
  2237  013BCE  EFEB  F09D         	goto	u5921
  2238  013BD2  EFED  F09D         	goto	u5920
  2239  013BD6                     u5921:
  2240  013BD6  EFF5  F09D         	goto	l979
  2241  013BDA                     u5920:
  2242                           	line	683
  2243                           ;main.c: 683: LATA = 0b10111111;
  2244  013BDA  0EBF               	movlw	low(0BFh)
  2245  013BDC  6E89               	movwf	((c:3977)),c	;volatile
  2246                           	line	685
  2247                           ;main.c: 685: LATB = 0b10000000;
  2248  013BDE  0E80               	movlw	low(080h)
  2249  013BE0  6E8A               	movwf	((c:3978)),c	;volatile
  2250                           	line	687
  2251                           ;main.c: 687: LATC = 0b00111111;
  2252  013BE2  0E3F               	movlw	low(03Fh)
  2253  013BE4  6E8B               	movwf	((c:3979)),c	;volatile
  2254                           	line	689
  2255                           ;main.c: 689: } else if (led_array[0] == 1 && le
                                 d_array[1] == 1 && led_array[8] == 1) {
  2256  013BE6  EFFF  F09F         	goto	l894
  2257                           	
  2258  013BEA                     l979:		; BSR set to: ?
  2259                           
  2260  013BEA  0400               	decf	((c:0)),c,w
  2261  013BEC  1001               	iorwf ((c:0+1)),c,w
  2262                           
  2263  013BEE  A4D8               	btfss	status,2
  2264  013BF0  EFFC  F09D         	goto	u5931
  2265  013BF4  EFFE  F09D         	goto	u5930
  2266  013BF8                     u5931:
  2267  013BF8  EF17  F09E         	goto	l981
  2268  013BFC                     u5930:
  2269  013BFC  0402               	decf	(0+((c:0)+02h)),c,w
  2270  013BFE  1003               	iorwf (1+((c:0)+02h)),c,w
  2271                           
  2272  013C00  A4D8               	btfss	status,2
  2273  013C02  EF05  F09E         	goto	u5941
  2274  013C06  EF07  F09E         	goto	u5940
  2275  013C0A                     u5941:
  2276  013C0A  EF17  F09E         	goto	l981
  2277  013C0E                     u5940:
  2278  013C0E  0410               	decf	(0+((c:0)+010h)),c,w
  2279  013C10  1011               	iorwf (1+((c:0)+010h)),c,w
  2280                           
  2281  013C12  A4D8               	btfss	status,2
  2282  013C14  EF0E  F09E         	goto	u5951
  2283  013C18  EF10  F09E         	goto	u5950
  2284  013C1C                     u5951:
  2285  013C1C  EF17  F09E         	goto	l981
  2286  013C20                     u5950:
  2287                           	line	692
  2288                           ;main.c: 692: LATA = 0b11111111;
  2289  013C20  6889               	setf	((c:3977)),c	;volatile
  2290                           	line	694
  2291                           ;main.c: 694: LATB = 0b10000000;
  2292  013C22  0E80               	movlw	low(080h)
  2293  013C24  6E8A               	movwf	((c:3978)),c	;volatile
  2294                           	line	696
  2295                           ;main.c: 696: LATC = 0b00111110;
  2296  013C26  0E3E               	movlw	low(03Eh)
  2297  013C28  6E8B               	movwf	((c:3979)),c	;volatile
  2298                           	line	698
  2299                           ;main.c: 698: } else if (led_array[0] == 1 && le
                                 d_array[1] == 1 && led_array[9] == 1) {
  2300  013C2A  EFFF  F09F         	goto	l894
  2301                           	
  2302  013C2E                     l981:		; BSR set to: ?
  2303                           
  2304  013C2E  0400               	decf	((c:0)),c,w
  2305  013C30  1001               	iorwf ((c:0+1)),c,w
  2306                           
  2307  013C32  A4D8               	btfss	status,2
  2308  013C34  EF1E  F09E         	goto	u5961
  2309  013C38  EF20  F09E         	goto	u5960
  2310  013C3C                     u5961:
  2311  013C3C  EF39  F09E         	goto	l983
  2312  013C40                     u5960:
  2313  013C40  0402               	decf	(0+((c:0)+02h)),c,w
  2314  013C42  1003               	iorwf (1+((c:0)+02h)),c,w
  2315                           
  2316  013C44  A4D8               	btfss	status,2
  2317  013C46  EF27  F09E         	goto	u5971
  2318  013C4A  EF29  F09E         	goto	u5970
  2319  013C4E                     u5971:
  2320  013C4E  EF39  F09E         	goto	l983
  2321  013C52                     u5970:
  2322  013C52  0412               	decf	(0+((c:0)+012h)),c,w
  2323  013C54  1013               	iorwf (1+((c:0)+012h)),c,w
  2324                           
  2325  013C56  A4D8               	btfss	status,2
  2326  013C58  EF30  F09E         	goto	u5981
  2327  013C5C  EF32  F09E         	goto	u5980
  2328  013C60                     u5981:
  2329  013C60  EF39  F09E         	goto	l983
  2330  013C64                     u5980:
  2331                           	line	701
  2332                           ;main.c: 701: LATA = 0b11111111;
  2333  013C64  6889               	setf	((c:3977)),c	;volatile
  2334                           	line	703
  2335                           ;main.c: 703: LATB = 0b10000000;
  2336  013C66  0E80               	movlw	low(080h)
  2337  013C68  6E8A               	movwf	((c:3978)),c	;volatile
  2338                           	line	705
  2339                           ;main.c: 705: LATC = 0b00111101;
  2340  013C6A  0E3D               	movlw	low(03Dh)
  2341  013C6C  6E8B               	movwf	((c:3979)),c	;volatile
  2342                           	line	706
  2343                           ;main.c: 706: } else if (led_array[0] == 1 && le
                                 d_array[1] == 1 && led_array[10] == 1) {
  2344  013C6E  EFFF  F09F         	goto	l894
  2345                           	
  2346  013C72                     l983:		; BSR set to: ?
  2347                           
  2348  013C72  0400               	decf	((c:0)),c,w
  2349  013C74  1001               	iorwf ((c:0+1)),c,w
  2350                           
  2351  013C76  A4D8               	btfss	status,2
  2352  013C78  EF40  F09E         	goto	u5991
  2353  013C7C  EF42  F09E         	goto	u5990
  2354  013C80                     u5991:
  2355  013C80  EF5B  F09E         	goto	l985
  2356  013C84                     u5990:
  2357  013C84  0402               	decf	(0+((c:0)+02h)),c,w
  2358  013C86  1003               	iorwf (1+((c:0)+02h)),c,w
  2359                           
  2360  013C88  A4D8               	btfss	status,2
  2361  013C8A  EF49  F09E         	goto	u6001
  2362  013C8E  EF4B  F09E         	goto	u6000
  2363  013C92                     u6001:
  2364  013C92  EF5B  F09E         	goto	l985
  2365  013C96                     u6000:
  2366  013C96  0414               	decf	(0+((c:0)+014h)),c,w
  2367  013C98  1015               	iorwf (1+((c:0)+014h)),c,w
  2368                           
  2369  013C9A  A4D8               	btfss	status,2
  2370  013C9C  EF52  F09E         	goto	u6011
  2371  013CA0  EF54  F09E         	goto	u6010
  2372  013CA4                     u6011:
  2373  013CA4  EF5B  F09E         	goto	l985
  2374  013CA8                     u6010:
  2375                           	line	709
  2376                           ;main.c: 709: LATA = 0b11111111;
  2377  013CA8  6889               	setf	((c:3977)),c	;volatile
  2378                           	line	711
  2379                           ;main.c: 711: LATB = 0b00000000;
  2380  013CAA  0E00               	movlw	low(0)
  2381  013CAC  6E8A               	movwf	((c:3978)),c	;volatile
  2382                           	line	713
  2383                           ;main.c: 713: LATC = 0b00111111;
  2384  013CAE  0E3F               	movlw	low(03Fh)
  2385  013CB0  6E8B               	movwf	((c:3979)),c	;volatile
  2386                           	line	714
  2387                           ;main.c: 714: } else if (led_array[0] == 1 && le
                                 d_array[1] == 1 && led_array[11] == 1) {
  2388  013CB2  EFFF  F09F         	goto	l894
  2389                           	
  2390  013CB6                     l985:		; BSR set to: ?
  2391                           
  2392  013CB6  0400               	decf	((c:0)),c,w
  2393  013CB8  1001               	iorwf ((c:0+1)),c,w
  2394                           
  2395  013CBA  A4D8               	btfss	status,2
  2396  013CBC  EF62  F09E         	goto	u6021
  2397  013CC0  EF64  F09E         	goto	u6020
  2398  013CC4                     u6021:
  2399  013CC4  EF7D  F09E         	goto	l987
  2400  013CC8                     u6020:
  2401  013CC8  0402               	decf	(0+((c:0)+02h)),c,w
  2402  013CCA  1003               	iorwf (1+((c:0)+02h)),c,w
  2403                           
  2404  013CCC  A4D8               	btfss	status,2
  2405  013CCE  EF6B  F09E         	goto	u6031
  2406  013CD2  EF6D  F09E         	goto	u6030
  2407  013CD6                     u6031:
  2408  013CD6  EF7D  F09E         	goto	l987
  2409  013CDA                     u6030:
  2410  013CDA  0416               	decf	(0+((c:0)+016h)),c,w
  2411  013CDC  1017               	iorwf (1+((c:0)+016h)),c,w
  2412                           
  2413  013CDE  A4D8               	btfss	status,2
  2414  013CE0  EF74  F09E         	goto	u6041
  2415  013CE4  EF76  F09E         	goto	u6040
  2416  013CE8                     u6041:
  2417  013CE8  EF7D  F09E         	goto	l987
  2418  013CEC                     u6040:
  2419                           	line	717
  2420                           ;main.c: 717: LATA = 0b11111111;
  2421  013CEC  6889               	setf	((c:3977)),c	;volatile
  2422                           	line	719
  2423                           ;main.c: 719: LATB = 0b10000000;
  2424  013CEE  0E80               	movlw	low(080h)
  2425  013CF0  6E8A               	movwf	((c:3978)),c	;volatile
  2426                           	line	721
  2427                           ;main.c: 721: LATC = 0b00111011;
  2428  013CF2  0E3B               	movlw	low(03Bh)
  2429  013CF4  6E8B               	movwf	((c:3979)),c	;volatile
  2430                           	line	722
  2431                           ;main.c: 722: } else if (led_array[0] == 1 && le
                                 d_array[1] == 1 && led_array[12] == 1) {
  2432  013CF6  EFFF  F09F         	goto	l894
  2433                           	
  2434  013CFA                     l987:		; BSR set to: ?
  2435                           
  2436  013CFA  0400               	decf	((c:0)),c,w
  2437  013CFC  1001               	iorwf ((c:0+1)),c,w
  2438                           
  2439  013CFE  A4D8               	btfss	status,2
  2440  013D00  EF84  F09E         	goto	u6051
  2441  013D04  EF86  F09E         	goto	u6050
  2442  013D08                     u6051:
  2443  013D08  EF9F  F09E         	goto	l989
  2444  013D0C                     u6050:
  2445  013D0C  0402               	decf	(0+((c:0)+02h)),c,w
  2446  013D0E  1003               	iorwf (1+((c:0)+02h)),c,w
  2447                           
  2448  013D10  A4D8               	btfss	status,2
  2449  013D12  EF8D  F09E         	goto	u6061
  2450  013D16  EF8F  F09E         	goto	u6060
  2451  013D1A                     u6061:
  2452  013D1A  EF9F  F09E         	goto	l989
  2453  013D1E                     u6060:
  2454  013D1E  0418               	decf	(0+((c:0)+018h)),c,w
  2455  013D20  1019               	iorwf (1+((c:0)+018h)),c,w
  2456                           
  2457  013D22  A4D8               	btfss	status,2
  2458  013D24  EF96  F09E         	goto	u6071
  2459  013D28  EF98  F09E         	goto	u6070
  2460  013D2C                     u6071:
  2461  013D2C  EF9F  F09E         	goto	l989
  2462  013D30                     u6070:
  2463                           	line	725
  2464                           ;main.c: 725: LATA = 0b11111111;
  2465  013D30  6889               	setf	((c:3977)),c	;volatile
  2466                           	line	727
  2467                           ;main.c: 727: LATB = 0b10000000;
  2468  013D32  0E80               	movlw	low(080h)
  2469  013D34  6E8A               	movwf	((c:3978)),c	;volatile
  2470                           	line	729
  2471                           ;main.c: 729: LATC = 0b00110111;
  2472  013D36  0E37               	movlw	low(037h)
  2473  013D38  6E8B               	movwf	((c:3979)),c	;volatile
  2474                           	line	731
  2475                           ;main.c: 731: } else if (led_array[0] == 1 && le
                                 d_array[6] == 1) {
  2476  013D3A  EFFF  F09F         	goto	l894
  2477                           	
  2478  013D3E                     l989:		; BSR set to: ?
  2479                           
  2480  013D3E  0400               	decf	((c:0)),c,w
  2481  013D40  1001               	iorwf ((c:0+1)),c,w
  2482                           
  2483  013D42  A4D8               	btfss	status,2
  2484  013D44  EFA6  F09E         	goto	u6081
  2485  013D48  EFA8  F09E         	goto	u6080
  2486  013D4C                     u6081:
  2487  013D4C  EFB9  F09E         	goto	l991
  2488  013D50                     u6080:
  2489  013D50  040C               	decf	(0+((c:0)+0Ch)),c,w
  2490  013D52  100D               	iorwf (1+((c:0)+0Ch)),c,w
  2491                           
  2492  013D54  A4D8               	btfss	status,2
  2493  013D56  EFAF  F09E         	goto	u6091
  2494  013D5A  EFB1  F09E         	goto	u6090
  2495  013D5E                     u6091:
  2496  013D5E  EFB9  F09E         	goto	l991
  2497  013D62                     u6090:
  2498                           	line	734
  2499                           ;main.c: 734: LATA = 0b11101111;
  2500  013D62  0EEF               	movlw	low(0EFh)
  2501  013D64  6E89               	movwf	((c:3977)),c	;volatile
  2502                           	line	736
  2503                           ;main.c: 736: LATB = 0b10000000;
  2504  013D66  0E80               	movlw	low(080h)
  2505  013D68  6E8A               	movwf	((c:3978)),c	;volatile
  2506                           	line	738
  2507                           ;main.c: 738: LATC = 0b00011111;
  2508  013D6A  0E1F               	movlw	low(01Fh)
  2509  013D6C  6E8B               	movwf	((c:3979)),c	;volatile
  2510                           	line	740
  2511                           ;main.c: 740: } else if (led_array[0] == 1 && le
                                 d_array[7] == 1) {
  2512  013D6E  EFFF  F09F         	goto	l894
  2513                           	
  2514  013D72                     l991:		; BSR set to: ?
  2515                           
  2516  013D72  0400               	decf	((c:0)),c,w
  2517  013D74  1001               	iorwf ((c:0+1)),c,w
  2518                           
  2519  013D76  A4D8               	btfss	status,2
  2520  013D78  EFC0  F09E         	goto	u6101
  2521  013D7C  EFC2  F09E         	goto	u6100
  2522  013D80                     u6101:
  2523  013D80  EFD3  F09E         	goto	l993
  2524  013D84                     u6100:
  2525  013D84  040E               	decf	(0+((c:0)+0Eh)),c,w
  2526  013D86  100F               	iorwf (1+((c:0)+0Eh)),c,w
  2527                           
  2528  013D88  A4D8               	btfss	status,2
  2529  013D8A  EFC9  F09E         	goto	u6111
  2530  013D8E  EFCB  F09E         	goto	u6110
  2531  013D92                     u6111:
  2532  013D92  EFD3  F09E         	goto	l993
  2533  013D96                     u6110:
  2534                           	line	743
  2535                           ;main.c: 743: LATA = 0b10111111;
  2536  013D96  0EBF               	movlw	low(0BFh)
  2537  013D98  6E89               	movwf	((c:3977)),c	;volatile
  2538                           	line	745
  2539                           ;main.c: 745: LATB = 0b10000000;
  2540  013D9A  0E80               	movlw	low(080h)
  2541  013D9C  6E8A               	movwf	((c:3978)),c	;volatile
  2542                           	line	747
  2543                           ;main.c: 747: LATC = 0b00011111;
  2544  013D9E  0E1F               	movlw	low(01Fh)
  2545  013DA0  6E8B               	movwf	((c:3979)),c	;volatile
  2546                           	line	749
  2547                           ;main.c: 749: } else if (led_array[0] == 1 && le
                                 d_array[8] == 1) {
  2548  013DA2  EFFF  F09F         	goto	l894
  2549                           	
  2550  013DA6                     l993:		; BSR set to: ?
  2551                           
  2552  013DA6  0400               	decf	((c:0)),c,w
  2553  013DA8  1001               	iorwf ((c:0+1)),c,w
  2554                           
  2555  013DAA  A4D8               	btfss	status,2
  2556  013DAC  EFDA  F09E         	goto	u6121
  2557  013DB0  EFDC  F09E         	goto	u6120
  2558  013DB4                     u6121:
  2559  013DB4  EFEC  F09E         	goto	l995
  2560  013DB8                     u6120:
  2561  013DB8  0410               	decf	(0+((c:0)+010h)),c,w
  2562  013DBA  1011               	iorwf (1+((c:0)+010h)),c,w
  2563                           
  2564  013DBC  A4D8               	btfss	status,2
  2565  013DBE  EFE3  F09E         	goto	u6131
  2566  013DC2  EFE5  F09E         	goto	u6130
  2567  013DC6                     u6131:
  2568  013DC6  EFEC  F09E         	goto	l995
  2569  013DCA                     u6130:
  2570                           	line	752
  2571                           ;main.c: 752: LATA = 0b11111111;
  2572  013DCA  6889               	setf	((c:3977)),c	;volatile
  2573                           	line	754
  2574                           ;main.c: 754: LATB = 0b10000000;
  2575  013DCC  0E80               	movlw	low(080h)
  2576  013DCE  6E8A               	movwf	((c:3978)),c	;volatile
  2577                           	line	756
  2578                           ;main.c: 756: LATC = 0b00011110;
  2579  013DD0  0E1E               	movlw	low(01Eh)
  2580  013DD2  6E8B               	movwf	((c:3979)),c	;volatile
  2581                           	line	758
  2582                           ;main.c: 758: } else if (led_array[0] == 1 && le
                                 d_array[9] == 1) {
  2583  013DD4  EFFF  F09F         	goto	l894
  2584                           	
  2585  013DD8                     l995:		; BSR set to: ?
  2586                           
  2587  013DD8  0400               	decf	((c:0)),c,w
  2588  013DDA  1001               	iorwf ((c:0+1)),c,w
  2589                           
  2590  013DDC  A4D8               	btfss	status,2
  2591  013DDE  EFF3  F09E         	goto	u6141
  2592  013DE2  EFF5  F09E         	goto	u6140
  2593  013DE6                     u6141:
  2594  013DE6  EF05  F09F         	goto	l997
  2595  013DEA                     u6140:
  2596  013DEA  0412               	decf	(0+((c:0)+012h)),c,w
  2597  013DEC  1013               	iorwf (1+((c:0)+012h)),c,w
  2598                           
  2599  013DEE  A4D8               	btfss	status,2
  2600  013DF0  EFFC  F09E         	goto	u6151
  2601  013DF4  EFFE  F09E         	goto	u6150
  2602  013DF8                     u6151:
  2603  013DF8  EF05  F09F         	goto	l997
  2604  013DFC                     u6150:
  2605                           	line	761
  2606                           ;main.c: 761: LATA = 0b11111111;
  2607  013DFC  6889               	setf	((c:3977)),c	;volatile
  2608                           	line	763
  2609                           ;main.c: 763: LATB = 0b10000000;
  2610  013DFE  0E80               	movlw	low(080h)
  2611  013E00  6E8A               	movwf	((c:3978)),c	;volatile
  2612                           	line	765
  2613                           ;main.c: 765: LATC = 0b00011101;
  2614  013E02  0E1D               	movlw	low(01Dh)
  2615  013E04  6E8B               	movwf	((c:3979)),c	;volatile
  2616                           	line	767
  2617                           ;main.c: 767: } else if (led_array[0] == 1 && le
                                 d_array[10] == 1) {
  2618  013E06  EFFF  F09F         	goto	l894
  2619                           	
  2620  013E0A                     l997:		; BSR set to: ?
  2621                           
  2622  013E0A  0400               	decf	((c:0)),c,w
  2623  013E0C  1001               	iorwf ((c:0+1)),c,w
  2624                           
  2625  013E0E  A4D8               	btfss	status,2
  2626  013E10  EF0C  F09F         	goto	u6161
  2627  013E14  EF0E  F09F         	goto	u6160
  2628  013E18                     u6161:
  2629  013E18  EF1E  F09F         	goto	l999
  2630  013E1C                     u6160:
  2631  013E1C  0414               	decf	(0+((c:0)+014h)),c,w
  2632  013E1E  1015               	iorwf (1+((c:0)+014h)),c,w
  2633                           
  2634  013E20  A4D8               	btfss	status,2
  2635  013E22  EF15  F09F         	goto	u6171
  2636  013E26  EF17  F09F         	goto	u6170
  2637  013E2A                     u6171:
  2638  013E2A  EF1E  F09F         	goto	l999
  2639  013E2E                     u6170:
  2640                           	line	770
  2641                           ;main.c: 770: LATA = 0b11111111;
  2642  013E2E  6889               	setf	((c:3977)),c	;volatile
  2643                           	line	772
  2644                           ;main.c: 772: LATB = 0b00000000;
  2645  013E30  0E00               	movlw	low(0)
  2646  013E32  6E8A               	movwf	((c:3978)),c	;volatile
  2647                           	line	774
  2648                           ;main.c: 774: LATC = 0b00011111;
  2649  013E34  0E1F               	movlw	low(01Fh)
  2650  013E36  6E8B               	movwf	((c:3979)),c	;volatile
  2651                           	line	776
  2652                           ;main.c: 776: } else if (led_array[0] == 1 && le
                                 d_array[11] == 1) {
  2653  013E38  EFFF  F09F         	goto	l894
  2654                           	
  2655  013E3C                     l999:		; BSR set to: ?
  2656                           
  2657  013E3C  0400               	decf	((c:0)),c,w
  2658  013E3E  1001               	iorwf ((c:0+1)),c,w
  2659                           
  2660  013E40  A4D8               	btfss	status,2
  2661  013E42  EF25  F09F         	goto	u6181
  2662  013E46  EF27  F09F         	goto	u6180
  2663  013E4A                     u6181:
  2664  013E4A  EF37  F09F         	goto	l1001
  2665  013E4E                     u6180:
  2666  013E4E  0416               	decf	(0+((c:0)+016h)),c,w
  2667  013E50  1017               	iorwf (1+((c:0)+016h)),c,w
  2668                           
  2669  013E52  A4D8               	btfss	status,2
  2670  013E54  EF2E  F09F         	goto	u6191
  2671  013E58  EF30  F09F         	goto	u6190
  2672  013E5C                     u6191:
  2673  013E5C  EF37  F09F         	goto	l1001
  2674  013E60                     u6190:
  2675                           	line	779
  2676                           ;main.c: 779: LATA = 0b11111111;
  2677  013E60  6889               	setf	((c:3977)),c	;volatile
  2678                           	line	781
  2679                           ;main.c: 781: LATB = 0b10000000;
  2680  013E62  0E80               	movlw	low(080h)
  2681  013E64  6E8A               	movwf	((c:3978)),c	;volatile
  2682                           	line	783
  2683                           ;main.c: 783: LATC = 0b00011011;
  2684  013E66  0E1B               	movlw	low(01Bh)
  2685  013E68  6E8B               	movwf	((c:3979)),c	;volatile
  2686                           	line	785
  2687                           ;main.c: 785: } else if (led_array[0] == 1 && le
                                 d_array[12] == 1) {
  2688  013E6A  EFFF  F09F         	goto	l894
  2689                           	
  2690  013E6E                     l1001:		; BSR set to: ?
  2691                           
  2692  013E6E  0400               	decf	((c:0)),c,w
  2693  013E70  1001               	iorwf ((c:0+1)),c,w
  2694                           
  2695  013E72  A4D8               	btfss	status,2
  2696  013E74  EF3E  F09F         	goto	u6201
  2697  013E78  EF40  F09F         	goto	u6200
  2698  013E7C                     u6201:
  2699  013E7C  EF50  F09F         	goto	l1003
  2700  013E80                     u6200:
  2701  013E80  0418               	decf	(0+((c:0)+018h)),c,w
  2702  013E82  1019               	iorwf (1+((c:0)+018h)),c,w
  2703                           
  2704  013E84  A4D8               	btfss	status,2
  2705  013E86  EF47  F09F         	goto	u6211
  2706  013E8A  EF49  F09F         	goto	u6210
  2707  013E8E                     u6211:
  2708  013E8E  EF50  F09F         	goto	l1003
  2709  013E92                     u6210:
  2710                           	line	788
  2711                           ;main.c: 788: LATA = 0b11111111;
  2712  013E92  6889               	setf	((c:3977)),c	;volatile
  2713                           	line	790
  2714                           ;main.c: 790: LATB = 0b10000000;
  2715  013E94  0E80               	movlw	low(080h)
  2716  013E96  6E8A               	movwf	((c:3978)),c	;volatile
  2717                           	line	792
  2718                           ;main.c: 792: LATC = 0b00010111;
  2719  013E98  0E17               	movlw	low(017h)
  2720  013E9A  6E8B               	movwf	((c:3979)),c	;volatile
  2721                           	line	794
  2722                           ;main.c: 794: } else if (led_array[1] == 1 && le
                                 d_array[6] == 1) {
  2723  013E9C  EFFF  F09F         	goto	l894
  2724                           	
  2725  013EA0                     l1003:		; BSR set to: ?
  2726                           
  2727  013EA0  0402               	decf	(0+((c:0)+02h)),c,w
  2728  013EA2  1003               	iorwf (1+((c:0)+02h)),c,w
  2729                           
  2730  013EA4  A4D8               	btfss	status,2
  2731  013EA6  EF57  F09F         	goto	u6221
  2732  013EAA  EF59  F09F         	goto	u6220
  2733  013EAE                     u6221:
  2734  013EAE  EF6A  F09F         	goto	l1005
  2735  013EB2                     u6220:
  2736  013EB2  040C               	decf	(0+((c:0)+0Ch)),c,w
  2737  013EB4  100D               	iorwf (1+((c:0)+0Ch)),c,w
  2738                           
  2739  013EB6  A4D8               	btfss	status,2
  2740  013EB8  EF60  F09F         	goto	u6231
  2741  013EBC  EF62  F09F         	goto	u6230
  2742  013EC0                     u6231:
  2743  013EC0  EF6A  F09F         	goto	l1005
  2744  013EC4                     u6230:
  2745                           	line	797
  2746                           ;main.c: 797: LATA = 0b11101111;
  2747  013EC4  0EEF               	movlw	low(0EFh)
  2748  013EC6  6E89               	movwf	((c:3977)),c	;volatile
  2749                           	line	799
  2750                           ;main.c: 799: LATB = 0b10000000;
  2751  013EC8  0E80               	movlw	low(080h)
  2752  013ECA  6E8A               	movwf	((c:3978)),c	;volatile
  2753                           	line	801
  2754                           ;main.c: 801: LATC = 0b00101111;
  2755  013ECC  0E2F               	movlw	low(02Fh)
  2756  013ECE  6E8B               	movwf	((c:3979)),c	;volatile
  2757                           	line	803
  2758                           ;main.c: 803: } else if (led_array[1] == 1 && le
                                 d_array[7] == 1) {
  2759  013ED0  EFFF  F09F         	goto	l894
  2760                           	
  2761  013ED4                     l1005:		; BSR set to: ?
  2762                           
  2763  013ED4  0402               	decf	(0+((c:0)+02h)),c,w
  2764  013ED6  1003               	iorwf (1+((c:0)+02h)),c,w
  2765                           
  2766  013ED8  A4D8               	btfss	status,2
  2767  013EDA  EF71  F09F         	goto	u6241
  2768  013EDE  EF73  F09F         	goto	u6240
  2769  013EE2                     u6241:
  2770  013EE2  EF84  F09F         	goto	l1007
  2771  013EE6                     u6240:
  2772  013EE6  040E               	decf	(0+((c:0)+0Eh)),c,w
  2773  013EE8  100F               	iorwf (1+((c:0)+0Eh)),c,w
  2774                           
  2775  013EEA  A4D8               	btfss	status,2
  2776  013EEC  EF7A  F09F         	goto	u6251
  2777  013EF0  EF7C  F09F         	goto	u6250
  2778  013EF4                     u6251:
  2779  013EF4  EF84  F09F         	goto	l1007
  2780  013EF8                     u6250:
  2781                           	line	806
  2782                           ;main.c: 806: LATA = 0b10111111;
  2783  013EF8  0EBF               	movlw	low(0BFh)
  2784  013EFA  6E89               	movwf	((c:3977)),c	;volatile
  2785                           	line	808
  2786                           ;main.c: 808: LATB = 0b10000000;
  2787  013EFC  0E80               	movlw	low(080h)
  2788  013EFE  6E8A               	movwf	((c:3978)),c	;volatile
  2789                           	line	810
  2790                           ;main.c: 810: LATC = 0b00101111;
  2791  013F00  0E2F               	movlw	low(02Fh)
  2792  013F02  6E8B               	movwf	((c:3979)),c	;volatile
  2793                           	line	812
  2794                           ;main.c: 812: } else if (led_array[1] == 1 && le
                                 d_array[8] == 1) {
  2795  013F04  EFFF  F09F         	goto	l894
  2796                           	
  2797  013F08                     l1007:		; BSR set to: ?
  2798                           
  2799  013F08  0402               	decf	(0+((c:0)+02h)),c,w
  2800  013F0A  1003               	iorwf (1+((c:0)+02h)),c,w
  2801                           
  2802  013F0C  A4D8               	btfss	status,2
  2803  013F0E  EF8B  F09F         	goto	u6261
  2804  013F12  EF8D  F09F         	goto	u6260
  2805  013F16                     u6261:
  2806  013F16  EF9D  F09F         	goto	l1009
  2807  013F1A                     u6260:
  2808  013F1A  0410               	decf	(0+((c:0)+010h)),c,w
  2809  013F1C  1011               	iorwf (1+((c:0)+010h)),c,w
  2810                           
  2811  013F1E  A4D8               	btfss	status,2
  2812  013F20  EF94  F09F         	goto	u6271
  2813  013F24  EF96  F09F         	goto	u6270
  2814  013F28                     u6271:
  2815  013F28  EF9D  F09F         	goto	l1009
  2816  013F2C                     u6270:
  2817                           	line	815
  2818                           ;main.c: 815: LATA = 0b11111111;
  2819  013F2C  6889               	setf	((c:3977)),c	;volatile
  2820                           	line	817
  2821                           ;main.c: 817: LATB = 0b10000000;
  2822  013F2E  0E80               	movlw	low(080h)
  2823  013F30  6E8A               	movwf	((c:3978)),c	;volatile
  2824                           	line	819
  2825                           ;main.c: 819: LATC = 0b00101110;
  2826  013F32  0E2E               	movlw	low(02Eh)
  2827  013F34  6E8B               	movwf	((c:3979)),c	;volatile
  2828                           	line	821
  2829                           ;main.c: 821: } else if (led_array[1] == 1 && le
                                 d_array[9] == 1) {
  2830  013F36  EFFF  F09F         	goto	l894
  2831                           	
  2832  013F3A                     l1009:		; BSR set to: ?
  2833                           
  2834  013F3A  0402               	decf	(0+((c:0)+02h)),c,w
  2835  013F3C  1003               	iorwf (1+((c:0)+02h)),c,w
  2836                           
  2837  013F3E  A4D8               	btfss	status,2
  2838  013F40  EFA4  F09F         	goto	u6281
  2839  013F44  EFA6  F09F         	goto	u6280
  2840  013F48                     u6281:
  2841  013F48  EFB6  F09F         	goto	l1011
  2842  013F4C                     u6280:
  2843  013F4C  0412               	decf	(0+((c:0)+012h)),c,w
  2844  013F4E  1013               	iorwf (1+((c:0)+012h)),c,w
  2845                           
  2846  013F50  A4D8               	btfss	status,2
  2847  013F52  EFAD  F09F         	goto	u6291
  2848  013F56  EFAF  F09F         	goto	u6290
  2849  013F5A                     u6291:
  2850  013F5A  EFB6  F09F         	goto	l1011
  2851  013F5E                     u6290:
  2852                           	line	824
  2853                           ;main.c: 824: LATA = 0b11111111;
  2854  013F5E  6889               	setf	((c:3977)),c	;volatile
  2855                           	line	826
  2856                           ;main.c: 826: LATB = 0b10000000;
  2857  013F60  0E80               	movlw	low(080h)
  2858  013F62  6E8A               	movwf	((c:3978)),c	;volatile
  2859                           	line	828
  2860                           ;main.c: 828: LATC = 0b00101101;
  2861  013F64  0E2D               	movlw	low(02Dh)
  2862  013F66  6E8B               	movwf	((c:3979)),c	;volatile
  2863                           	line	830
  2864                           ;main.c: 830: } else if (led_array[1] == 1 && le
                                 d_array[10] == 1) {
  2865  013F68  EFFF  F09F         	goto	l894
  2866                           	
  2867  013F6C                     l1011:		; BSR set to: ?
  2868                           
  2869  013F6C  0402               	decf	(0+((c:0)+02h)),c,w
  2870  013F6E  1003               	iorwf (1+((c:0)+02h)),c,w
  2871                           
  2872  013F70  A4D8               	btfss	status,2
  2873  013F72  EFBD  F09F         	goto	u6301
  2874  013F76  EFBF  F09F         	goto	u6300
  2875  013F7A                     u6301:
  2876  013F7A  EFCF  F09F         	goto	l1013
  2877  013F7E                     u6300:
  2878  013F7E  0414               	decf	(0+((c:0)+014h)),c,w
  2879  013F80  1015               	iorwf (1+((c:0)+014h)),c,w
  2880                           
  2881  013F82  A4D8               	btfss	status,2
  2882  013F84  EFC6  F09F         	goto	u6311
  2883  013F88  EFC8  F09F         	goto	u6310
  2884  013F8C                     u6311:
  2885  013F8C  EFCF  F09F         	goto	l1013
  2886  013F90                     u6310:
  2887                           	line	833
  2888                           ;main.c: 833: LATA = 0b11111111;
  2889  013F90  6889               	setf	((c:3977)),c	;volatile
  2890                           	line	835
  2891                           ;main.c: 835: LATB = 0b00000000;
  2892  013F92  0E00               	movlw	low(0)
  2893  013F94  6E8A               	movwf	((c:3978)),c	;volatile
  2894                           	line	837
  2895                           ;main.c: 837: LATC = 0b00101111;
  2896  013F96  0E2F               	movlw	low(02Fh)
  2897  013F98  6E8B               	movwf	((c:3979)),c	;volatile
  2898                           	line	839
  2899                           ;main.c: 839: } else if (led_array[1] == 1 && le
                                 d_array[11] == 1) {
  2900  013F9A  EFFF  F09F         	goto	l894
  2901                           	
  2902  013F9E                     l1013:		; BSR set to: ?
  2903                           
  2904  013F9E  0402               	decf	(0+((c:0)+02h)),c,w
  2905  013FA0  1003               	iorwf (1+((c:0)+02h)),c,w
  2906                           
  2907  013FA2  A4D8               	btfss	status,2
  2908  013FA4  EFD6  F09F         	goto	u6321
  2909  013FA8  EFD8  F09F         	goto	u6320
  2910  013FAC                     u6321:
  2911  013FAC  EFE8  F09F         	goto	l1015
  2912  013FB0                     u6320:
  2913  013FB0  0416               	decf	(0+((c:0)+016h)),c,w
  2914  013FB2  1017               	iorwf (1+((c:0)+016h)),c,w
  2915                           
  2916  013FB4  A4D8               	btfss	status,2
  2917  013FB6  EFDF  F09F         	goto	u6331
  2918  013FBA  EFE1  F09F         	goto	u6330
  2919  013FBE                     u6331:
  2920  013FBE  EFE8  F09F         	goto	l1015
  2921  013FC2                     u6330:
  2922                           	line	842
  2923                           ;main.c: 842: LATA = 0b11111111;
  2924  013FC2  6889               	setf	((c:3977)),c	;volatile
  2925                           	line	844
  2926                           ;main.c: 844: LATB = 0b10000000;
  2927  013FC4  0E80               	movlw	low(080h)
  2928  013FC6  6E8A               	movwf	((c:3978)),c	;volatile
  2929                           	line	846
  2930                           ;main.c: 846: LATC = 0b00101011;
  2931  013FC8  0E2B               	movlw	low(02Bh)
  2932  013FCA  6E8B               	movwf	((c:3979)),c	;volatile
  2933                           	line	848
  2934                           ;main.c: 848: } else if (led_array[1] == 1 && le
                                 d_array[12] == 1) {
  2935  013FCC  EFFF  F09F         	goto	l894
  2936                           	
  2937  013FD0                     l1015:		; BSR set to: ?
  2938                           
  2939  013FD0  0402               	decf	(0+((c:0)+02h)),c,w
  2940  013FD2  1003               	iorwf (1+((c:0)+02h)),c,w
  2941                           
  2942  013FD4  A4D8               	btfss	status,2
  2943  013FD6  EFEF  F09F         	goto	u6341
  2944  013FDA  EFF1  F09F         	goto	u6340
  2945  013FDE                     u6341:
  2946  013FDE  EFFF  F09F         	goto	l894
  2947  013FE2                     u6340:
  2948  013FE2  0418               	decf	(0+((c:0)+018h)),c,w
  2949  013FE4  1019               	iorwf (1+((c:0)+018h)),c,w
  2950                           
  2951  013FE6  A4D8               	btfss	status,2
  2952  013FE8  EFF8  F09F         	goto	u6351
  2953  013FEC  EFFA  F09F         	goto	u6350
  2954  013FF0                     u6351:
  2955  013FF0  EFFF  F09F         	goto	l894
  2956  013FF4                     u6350:
  2957                           	line	851
  2958                           ;main.c: 851: LATA = 0b11111111;
  2959  013FF4  6889               	setf	((c:3977)),c	;volatile
  2960                           	line	853
  2961                           ;main.c: 853: LATB = 0b10000000;
  2962  013FF6  0E80               	movlw	low(080h)
  2963  013FF8  6E8A               	movwf	((c:3978)),c	;volatile
  2964                           	line	855
  2965                           ;main.c: 855: LATC = 0b00100111;
  2966  013FFA  0E27               	movlw	low(027h)
  2967  013FFC  6E8B               	movwf	((c:3979)),c	;volatile
  2968                           	line	856
  2969                           	
  2970  013FFE                     l1017:		; BSR set to: ?
  2971                           
  2972                           	line	857
  2973                           	
  2974  013FFE                     l1016:		; BSR set to: ?
  2975                           
  2976                           	
  2977  013FFE                     l1014:		; BSR set to: ?
  2978                           
  2979                           	
  2980  013FFE                     l1012:		; BSR set to: ?
  2981                           
  2982                           	
  2983  013FFE                     l1010:		; BSR set to: ?
  2984                           
  2985                           	
  2986  013FFE                     l1008:		; BSR set to: ?
  2987                           
  2988                           	
  2989  013FFE                     l1006:		; BSR set to: ?
  2990                           
  2991                           	
  2992  013FFE                     l1004:		; BSR set to: ?
  2993                           
  2994                           	
  2995  013FFE                     l1002:		; BSR set to: ?
  2996                           
  2997                           	
  2998  013FFE                     l1000:		; BSR set to: ?
  2999                           
  3000                           	
  3001  013FFE                     l998:		; BSR set to: ?
  3002                           
  3003                           	
  3004  013FFE                     l996:		; BSR set to: ?
  3005                           
  3006                           	
  3007  013FFE                     l994:		; BSR set to: ?
  3008                           
  3009                           	
  3010  013FFE                     l992:		; BSR set to: ?
  3011                           
  3012                           	
  3013  013FFE                     l990:		; BSR set to: ?
  3014                           
  3015                           	
  3016  013FFE                     l988:		; BSR set to: ?
  3017                           
  3018                           	
  3019  013FFE                     l986:		; BSR set to: ?
  3020                           
  3021                           	
  3022  013FFE                     l984:		; BSR set to: ?
  3023                           
  3024                           	
  3025  013FFE                     l982:		; BSR set to: ?
  3026                           
  3027                           	
  3028  013FFE                     l980:		; BSR set to: ?
  3029                           
  3030                           	
  3031  013FFE                     l978:		; BSR set to: ?
  3032                           
  3033                           	
  3034  013FFE                     l976:		; BSR set to: ?
  3035                           
  3036                           	
  3037  013FFE                     l974:		; BSR set to: ?
  3038                           
  3039                           	
  3040  013FFE                     l972:		; BSR set to: ?
  3041                           
  3042                           	
  3043  013FFE                     l970:		; BSR set to: ?
  3044                           
  3045                           	
  3046  013FFE                     l968:		; BSR set to: ?
  3047                           
  3048                           	
  3049  013FFE                     l966:		; BSR set to: ?
  3050                           
  3051                           	
  3052  013FFE                     l964:		; BSR set to: ?
  3053                           
  3054                           	
  3055  013FFE                     l962:		; BSR set to: ?
  3056                           
  3057                           	
  3058  013FFE                     l960:		; BSR set to: ?
  3059                           
  3060                           	
  3061  013FFE                     l958:		; BSR set to: ?
  3062                           
  3063                           	
  3064  013FFE                     l956:		; BSR set to: ?
  3065                           
  3066                           	
  3067  013FFE                     l954:		; BSR set to: ?
  3068                           
  3069                           	
  3070  013FFE                     l952:		; BSR set to: ?
  3071                           
  3072                           	
  3073  013FFE                     l950:		; BSR set to: ?
  3074                           
  3075                           	
  3076  013FFE                     l948:		; BSR set to: ?
  3077                           
  3078                           	
  3079  013FFE                     l946:		; BSR set to: ?
  3080                           
  3081                           	
  3082  013FFE                     l944:		; BSR set to: ?
  3083                           
  3084                           	
  3085  013FFE                     l942:		; BSR set to: ?
  3086                           
  3087                           	
  3088  013FFE                     l940:		; BSR set to: ?
  3089                           
  3090                           	
  3091  013FFE                     l938:		; BSR set to: ?
  3092                           
  3093                           	
  3094  013FFE                     l936:		; BSR set to: ?
  3095                           
  3096                           	
  3097  013FFE                     l934:		; BSR set to: ?
  3098                           
  3099                           	
  3100  013FFE                     l932:		; BSR set to: ?
  3101                           
  3102                           	
  3103  013FFE                     l930:		; BSR set to: ?
  3104                           
  3105                           	
  3106  013FFE                     l928:		; BSR set to: ?
  3107                           
  3108                           	
  3109  013FFE                     l926:		; BSR set to: ?
  3110                           
  3111                           	
  3112  013FFE                     l924:		; BSR set to: ?
  3113                           
  3114                           	
  3115  013FFE                     l922:		; BSR set to: ?
  3116                           
  3117                           	
  3118  013FFE                     l920:		; BSR set to: ?
  3119                           
  3120                           	
  3121  013FFE                     l918:		; BSR set to: ?
  3122                           
  3123                           	
  3124  013FFE                     l916:		; BSR set to: ?
  3125                           
  3126                           	
  3127  013FFE                     l914:		; BSR set to: ?
  3128                           
  3129                           	
  3130  013FFE                     l912:		; BSR set to: ?
  3131                           
  3132                           	
  3133  013FFE                     l910:		; BSR set to: ?
  3134                           
  3135                           	
  3136  013FFE                     l908:		; BSR set to: ?
  3137                           
  3138                           	
  3139  013FFE                     l906:		; BSR set to: ?
  3140                           
  3141                           	
  3142  013FFE                     l904:		; BSR set to: ?
  3143                           
  3144                           	
  3145  013FFE                     l902:		; BSR set to: ?
  3146                           
  3147                           	
  3148  013FFE                     l900:		; BSR set to: ?
  3149                           
  3150                           	
  3151  013FFE                     l898:		; BSR set to: ?
  3152                           
  3153                           	
  3154  013FFE                     l896:		; BSR set to: ?
  3155                           
  3156                           	
  3157  013FFE                     l894:		; BSR set to: ?
  3158                           
  3159                           ;main.c: 856: }
  3160                           ;main.c: 857: }
  3161  013FFE                     l892:
  3162                           			; BSR set to: ?
  3163                           
  3164  013FFE  0012               	return
  3165                           	opt stack 0
  3166                           GLOBAL __end_of_ToggleLeds
  3167  014000                     	__end_of_ToggleLeds:
  3168                           	FNSIZE	_ToggleLeds,0,0
  3169                           ; =============== function _ToggleLeds ends ====
                                 ========
  3170                           
  3171                           	signat	_ToggleLeds,88
  3172                           	global	_DelayMs
  3173                           	global	??_DelayMs
  3174                           	global	?_DelayMs
  3175                           
  3176                           ; *************** function _DelayMs ************
                                 *****
  3177                           ; Defined at:
  3178                           ;		line 12 in file "delay.c"
  3179                           ; Parameters:
  3180                           ;		cnt            size:   1offs:   0	type: unsig
                                 ned char 
  3181                           ; Auto variables:
  3182                           ;		i           	       	type: unsigned char 
  3183                           ;		_dcnt       	       	type: unsigned char 
  3184                           ; Return value:
  3185                           ;		type: void 
  3186                           ;		size: 0
  3187                           ; Registers used:
  3188                           ;		status,2
  3189                           ; Tracked objects:
  3190                           ;		On entry : 0/0
  3191                           ;		On exit  : 0/0
  3192                           ;		Unchanged: 0/0
  3193                           ; Data sizes:
  3194                           ;		Autos:    2
  3195                           ;		Params:   1
  3196                           ;		Temp:     1
  3197                           ;		Total:    4
  3198                           ; This function calls:
  3199                           ;		Nothing
  3200                           ; This function is called by:
  3201                           ;		_main
  3202                           ; This function uses a non-reentrant model
  3203                           ; 
  3204                                   psect   text2,class=CODE,space=0,reloc=2
  3205                           
  3206                           	opt lm
  3207                           	file	"delay.c"
  3208                           	line	12
  3209  000000                     	__size_of_DelayMs	equ	__end_of_DelayMs-_DelayMs
  3210                           ;delay.c: 10: void
  3211                           ;delay.c: 11: DelayMs(unsigned char cnt)
  3212                           ;delay.c: 12: {
  3213                           	
  3214  01308C                     _DelayMs:		; BSR set to: ?
  3215                           
  3216                           	opt stack 30
  3217                           	line	21
  3218                           	
  3219  01308C                     l1285:		; BSR set to: ?
  3220                           
  3221                           	line	22
  3222                           ;delay.c: 22: i = 4;
  3223  01308C  0101               	movlb	1	; () banked
  3224  01308E  6F0B               	movwf	(??_DelayMs+2+0)&0ffh
  3225  013090  0E04               	movlw	low(04h)
  3226  013092  0101               	movlb	1	; () banked
  3227  013094  0101               	movlb	1	; () banked
  3228  013096  6F09               	movwf	((DelayMs@i))&0ffh
  3229  013098  0101               	movlb	1	; () banked
  3230  01309A  510B               	movf	(??_DelayMs+2+0)&0ffh,w
  3231                           	line	23
  3232                           ;delay.c: 23: do {
  3233                           	
  3234  01309C                     l1288:		; BSR set to: ?
  3235                           
  3236                           	line	24
  3237                           ;delay.c: 24: { unsigned char _dcnt; _dcnt = (25
                                 0)/((12*1000L)/(8*1000L))|1; while(--_dcnt != 0)
                                  continue; };
  3238  01309C  0101               	movlb	1	; () banked
  3239  01309E  6F0B               	movwf	(??_DelayMs+2+0)&0ffh
  3240  0130A0  0EFB               	movlw	low(0FBh)
  3241  0130A2  0101               	movlb	1	; () banked
  3242  0130A4  0101               	movlb	1	; () banked
  3243  0130A6  6F0A               	movwf	((DelayMs@_dcnt))&0ffh
  3244  0130A8  0101               	movlb	1	; () banked
  3245  0130AA  510B               	movf	(??_DelayMs+2+0)&0ffh,w
  3246  0130AC  EF5A  F098         	goto	l1289
  3247                           	
  3248  0130B0                     l1290:		; BSR set to: ?
  3249                           
  3250  0130B0  EF5A  F098         	goto	l1289
  3251                           	
  3252  0130B4                     l1289:		; BSR set to: ?
  3253                           
  3254  0130B4  0101               	movlb	1	; () banked
  3255  0130B6  0101               	movlb	1	; () banked
  3256  0130B8  2F0A               	decfsz	((DelayMs@_dcnt))&0ffh
  3257                           	
  3258  0130BA  EF58  F098         	goto	l1290
  3259                           	
  3260  0130BE                     l1291:		; BSR set to: ?
  3261                           
  3262                           	line	25
  3263                           ;delay.c: 25: } while(--i);
  3264  0130BE  0101               	movlb	1	; () banked
  3265  0130C0  0101               	movlb	1	; () banked
  3266  0130C2  2F09               	decfsz	((DelayMs@i))&0ffh
  3267                           	
  3268  0130C4  EF4E  F098         	goto	l1288
  3269                           	
  3270  0130C8                     l1287:		; BSR set to: ?
  3271                           
  3272                           	line	26
  3273                           ;delay.c: 26: } while(--cnt);
  3274  0130C8  0101               	movlb	1	; () banked
  3275  0130CA  0101               	movlb	1	; () banked
  3276  0130CC  2F08               	decfsz	((DelayMs@cnt))&0ffh
  3277                           	
  3278  0130CE  EF46  F098         	goto	l1285
  3279                           	
  3280  0130D2                     l1284:		; BSR set to: ?
  3281                           
  3282                           	line	28
  3283                           ;delay.c: 28: }
  3284  0130D2                     l1282:
  3285                           			; BSR set to: ?
  3286                           
  3287  0130D2  0012               	return
  3288                           	opt stack 0
  3289                           GLOBAL __end_of_DelayMs
  3290  0130D4                     	__end_of_DelayMs:
  3291                           	FNSIZE	_DelayMs,3,1
  3292                           ; =============== function _DelayMs ends =======
                                 =====
  3293                           
  3294                           	signat	_DelayMs,4216
  3295                           	FNCALL	_main,_DelayMs
  3296                           	FNCALL	_main,_ToggleLeds
  3297                           	FNROOT	_main
  3298                                   psect   const,class=CODE,space=0,reloc=2
  3299                           	global	_led_array
  3300                           	global	_led_array
  3301  000000                     _led_array  equ     0
  3302                           
  3303                           	DABS	1,0,26	;_led_array
  3304                           	global	_cur_inputs
  3305                           	global	_cur_inputs
  3306  000000                     _cur_inputs  equ     27
  3307                           
  3308                           	DABS	1,27,7	;_cur_inputs
  3309                           	global	_prev_inputs
  3310                           	global	_prev_inputs
  3311  000000                     _prev_inputs  equ     43
  3312                           
  3313                           	DABS	1,43,7	;_prev_inputs
  3314                           	global	_conv_result
  3315                           	global	_conv_result
  3316  000000                     _conv_result  equ     34
  3317                           
  3318                           	DABS	1,34,4	;_conv_result
  3319                           	global	_index
  3320                           	global	_index
  3321  000000                     _index  equ     38
  3322                           
  3323                           	DABS	1,38,2	;_index
  3324                           	global	_USART_Status
  3325                           	global	_USART_Status
  3326  000000                     _USART_Status  equ     42
  3327                           
  3328                           	DABS	1,42,1	;_USART_Status
  3329                           	global	_adc_num
  3330                           	global	_adc_num
  3331  000000                     _adc_num  equ     26
  3332                           
  3333                           	DABS	1,26,1	;_adc_num
  3334                           	global	_change_val
  3335                           	global	_change_val
  3336  000000                     _change_val  equ     41
  3337                           
  3338                           	DABS	1,41,1	;_change_val
  3339                           	global	_new_note
  3340                           	global	_new_note
  3341  000000                     _new_note  equ     51
  3342                           
  3343                           	DABS	1,51,1	;_new_note
  3344                           	global	_old_note
  3345                           	global	_old_note
  3346  000000                     _old_note  equ     50
  3347                           
  3348                           	DABS	1,50,1	;_old_note
  3349                           	global	_uart_out
  3350                           	global	_uart_out
  3351  000000                     _uart_out  equ     40
  3352                           
  3353                           	DABS	1,40,1	;_uart_out
  3354                           	global	_ADCON0
  3355  000000                     _ADCON0	equ	0xFC2
  3356                           	global	_ADCON1
  3357  000000                     _ADCON1	equ	0xFC1
  3358                           	global	_ADCON2
  3359  000000                     _ADCON2	equ	0xFC0
  3360                           	global	_ADRESH
  3361  000000                     _ADRESH	equ	0xFC4
  3362                           	global	_ADRESL
  3363  000000                     _ADRESL	equ	0xFC3
  3364                           	global	_BAUDCON
  3365  000000                     _BAUDCON	equ	0xFB8
  3366                           	global	_LATA
  3367  000000                     _LATA	equ	0xF89
  3368                           	global	_LATB
  3369  000000                     _LATB	equ	0xF8A
  3370                           	global	_LATC
  3371  000000                     _LATC	equ	0xF8B
  3372                           	global	_OSCCON
  3373  000000                     _OSCCON	equ	0xFD3
  3374                           	global	_PIR1
  3375  000000                     _PIR1	equ	0xF9E
  3376                           	global	_RCREG
  3377  000000                     _RCREG	equ	0xFAE
  3378                           	global	_RCSTA
  3379  000000                     _RCSTA	equ	0xFAB
  3380                           	global	_SPBRG
  3381  000000                     _SPBRG	equ	0xFAF
  3382                           	global	_SPBRGH
  3383  000000                     _SPBRGH	equ	0xFB0
  3384                           	global	_TRISA
  3385  000000                     _TRISA	equ	0xF92
  3386                           	global	_TRISB
  3387  000000                     _TRISB	equ	0xF93
  3388                           	global	_TRISC
  3389  000000                     _TRISC	equ	0xF94
  3390                           	global	_TXREG
  3391  000000                     _TXREG	equ	0xFAD
  3392                           	global	_TXSTA
  3393  000000                     _TXSTA	equ	0xFAC
  3394                           	global	_ADON
  3395  000000                     _ADON	equ	0x7E10
  3396                           	global	_BRGH_x
  3397  000000                     _BRGH_x	equ	0x7D62
  3398                           	global	_CREN_x
  3399  000000                     _CREN_x	equ	0x7D5C
  3400                           	global	_CSRC_x
  3401  000000                     _CSRC_x	equ	0x7D67
  3402                           	global	_FERR
  3403  000000                     _FERR	equ	0x7D5A
  3404                           	global	_GODONE
  3405  000000                     _GODONE	equ	0x7E11
  3406                           	global	_OERR
  3407  000000                     _OERR	equ	0x7D59
  3408                           	global	_RCIE_x
  3409  000000                     _RCIE_x	equ	0x7CED
  3410                           	global	_RCIF
  3411  000000                     _RCIF	equ	0x7CF5
  3412                           	global	_RX9D
  3413  000000                     _RX9D	equ	0x7D58
  3414                           	global	_RX9_x
  3415  000000                     _RX9_x	equ	0x7D5E
  3416                           	global	_SENDB_x
  3417  000000                     _SENDB_x	equ	0x7D63
  3418                           	global	_SPEN_x
  3419  000000                     _SPEN_x	equ	0x7D5F
  3420                           	global	_SREN_x
  3421  000000                     _SREN_x	equ	0x7D5D
  3422                           	global	_SYNC_x
  3423  000000                     _SYNC_x	equ	0x7D64
  3424                           	global	_TRISC6
  3425  000000                     _TRISC6	equ	0x7CA6
  3426                           	global	_TRISC7
  3427  000000                     _TRISC7	equ	0x7CA7
  3428                           	global	_TRMT_x
  3429  000000                     _TRMT_x	equ	0x7D61
  3430                           	global	_TX9D
  3431  000000                     _TX9D	equ	0x7D60
  3432                           	global	_TX9_x
  3433  000000                     _TX9_x	equ	0x7D66
  3434                           	global	_TXEN_x
  3435  000000                     _TXEN_x	equ	0x7D65
  3436                           	global	_TXIE_x
  3437  000000                     _TXIE_x	equ	0x7CEC
  3438                           	global	_TXIF
  3439  000000                     _TXIF	equ	0x7CF4
  3440                           	psect	intsave_regs,class=BIGRAM,space=1
  3441                           	PSECT	param1,class=BANK1,space=1
  3442                           	GLOBAL	__Lparam1
  3443                           	FNCONF	param1,??,?
  3444                           	GLOBAL	__Labsbss0
  3445  000000                     __Labsbss0	EQU	0
  3446                           	GLOBAL	__Habsbss0
  3447  000000                     __Habsbss0	EQU	52
  3448                           GLOBAL	__Lparam, __Hparam
  3449                           GLOBAL	__Lparam1, __Hparam1
  3450  000000                     __Lparam	EQU	__Lparam1
  3451  000000                     __Hparam	EQU	__Hparam1


HI-TECH Software PICC-18 Macro Assembler V9.66 build 8870 
Symbol Table                                           Mon May 07 16:07:57 2012

                l900 3FFE                  l901 336E  
                l902 3FFE                  l910 3FFE  
                l911 3490                  l903 33B2  
                l904 3FFE                  l912 3FFE  
                l920 3FFE                  l921 358C  
                l913 34C2                  l905 33F6  
                l906 3FFE                  l914 3FFE  
                l922 3FFE                  l930 3FFE  
                l931 3688                  l923 35C0  
                l915 34F4                  l907 342A  
                l908 3FFE                  l916 3FFE  
                l924 3FFE                  l932 3FFE  
                l940 3FFE                  l941 37CE  
                l933 36BA                  l925 35F2  
                l917 3526                  l909 345E  
                l918 3FFE                  l926 3FFE  
                l934 3FFE                  l942 3FFE  
                l950 3FFE                  l951 3902  
                l943 3812                  l935 3700  
                l927 3624                  l919 3558  
                l871 312A                  l928 3FFE  
                l936 3FFE                  l944 3FFE  
                l952 3FFE                  l960 3FFE  
                l880 318A                  l961 39FC  
                l953 3934                  l945 3856  
                l937 3746                  l929 3656  
                l873 3138                  l938 3FFE  
                l946 3FFE                  l954 3FFE  
                l962 3FFE                  l970 3FFE  
                l882 3198                  l874 314E  
                l971 3AFA                  l963 3A30  
                l955 3966                  l947 389A  
                l939 378A                  l867 3212  
                l883 320E                  l891 31FE  
                l892 3FFE                  l948 3FFE  
                l956 3FFE                  l964 3FFE  
                l972 3FFE                  l980 3FFE  
                l884 31C4                  l868 31C0  
                l876 315C                  l981 3C2E  
                l973 3B2C                  l965 3A64  
                l957 3998                  l949 38CE  
                l893 325C                  l885 320E  
                l877 3170                  l869 3112  
                l958 3FFE                  l966 3FFE  
                l974 3FFE                  l982 3FFE  
                l990 3FFE                  l894 3FFE  
                l886 31C8                  l991 3D72  
                l983 3C72                  l975 3B5E  
                l967 3A96                  l959 39CA  
                l895 32A2                  l879 317E  
                l896 3FFE                  l968 3FFE  
                l976 3FFE                  l984 3FFE  
                l992 3FFE                  l888 31D8  
                l993 3DA6                  l985 3CB6  
                l977 3BA4                  l969 3AC8  
                l897 32E6                  l889 31F0  
                l898 3FFE                  l978 3FFE  
                l986 3FFE                  l994 3FFE  
                l995 3DD8                  l987 3CFA  
                l979 3BEA                  l899 332A  
                l988 3FFE                  l996 3FFE  
                l997 3E0A                  l989 3D3E  
                l998 3FFE                  l999 3E3C  
        main@hResult 0104          main@lResult 0105  
               l1000 3FFE                 l1001 3E6E  
               l1002 3FFE                 l1010 3FFE  
               l1011 3F6C                 l1003 3EA0  
               l1004 3FFE                 l1012 3FFE  
               l1013 3F9E                 l1005 3ED4  
               l1006 3FFE                 l1014 3FFE  
               l1015 3FD0                 l1007 3F08  
               l1008 3FFE                 l1016 3FFE  
               l1017 3FFE                 l1009 3F3A  
               l1282 30D2                 l1290 30B0  
               l1291 30BE                 l1284 30D2  
               l1285 308C                 l1287 30C8  
               l1288 309C                 l1289 30B4  
               _ADON 007E10                 _FERR 007D5A  
               _LATA 000F89                 _LATB 000F8A  
               _LATC 000F8B                 u5000 331C  
               u5001 3318                 u5010 333C  
               u5011 3338                 u5100 3408  
               u5020 334E                 u5101 3404  
               u5021 334A                 u5110 341A  
               u5030 3360                 u5111 3416  
               u5031 335C                 u6000 3C96  
               u5200 3506                 u5120 343C  
               u5040 3380                 u6001 3C92  
               u5201 3502                 u5121 3438  
               u5041 337C                 u6010 3CA8  
               u5210 3518                 u5130 344E  
               u5050 3392                 u6011 3CA4  
               u5211 3514                 u5131 344A  
               u5051 338E                 u6100 3D84  
               u6020 3CC8                 u5300 3604  
               u5220 3538                 u5140 3470  
               u5060 33A4                 u6101 3D80  
               u6021 3CC4                 u5301 3600  
               u5221 3534                 u5141 346C  
               u5061 33A0                 u6110 3D96  
               u6030 3CDA                 u5310 3616  
               u5230 354A                 u5150 3482  
               u5070 33C4                 u6111 3D92  
               u6031 3CD6                 u5311 3612  
               u5231 3546                 u5151 347E  
               u5071 33C0                 u6200 3E80  
               u6120 3DB8                 u6040 3CEC  
               u5400 36F0                 u5320 3636  
               u5240 356A                 u5160 34A2  
               u5080 33D6                 u6201 3E7C  
               u6121 3DB4                 u6041 3CE8  
               u5401 36EC                 u5321 3632  
               u5241 3566                 u5161 349E  
               u5081 33D2                 u6210 3E92  
               u6130 3DCA                 u6050 3D0C  
               u5410 3712                 u5330 3648  
               u5250 357C                 u5170 34B4  
               u5090 33E8                 u6211 3E8E  
               u6131 3DC6                 u6051 3D08  
               u5411 370E                 u5331 3644  
               u5251 3578                 u5171 34B0  
               u5091 33E4                 u6300 3F7E  
               u6220 3EB2                 u6140 3DEA  
               u6060 3D1E                 u5500 37E0  
               u5420 3724                 u5340 3668  
               u5260 359E                 u5180 34D4  
               u6301 3F7A                 u6221 3EAE  
               u6141 3DE6                 u6061 3D1A  
               u5501 37DC                 u5421 3720  
               u5341 3664                 u5261 359A  
               u5181 34D0                 u6310 3F90  
               u6230 3EC4                 u6150 3DFC  
               u6070 3D30                 u5510 37F2  
               u5430 3736                 u5350 367A  
               u5270 35B0                 u5190 34E6  
               u6311 3F8C                 u6231 3EC0  
               u6151 3DF8                 u6071 3D2C  
               u5511 37EE                 u5431 3732  
               u5351 3676                 u5271 35AC  
               u5191 34E2                 u6320 3FB0  
               u6240 3EE6                 u6160 3E1C  
               u6080 3D50                 u5600 38BE  
               u5520 3804                 u5440 3758  
               u5360 369A                 u5280 35D2  
               u6400 31D8                 u6321 3FAC  
               u6241 3EE2                 u6161 3E18  
               u6081 3D4C                 u5601 38BA  
               u5521 3800                 u5441 3754  
               u5361 3696                 u5281 35CE  
               u6401 31D4                 u6330 3FC2  
               u6250 3EF8                 u6170 3E2E  
               u6090 3D62                 u5610 38E0  
               u5530 3824                 u5450 376A  
               u5370 36AC                 u5290 35E4  
               u6410 31FE                 u6331 3FBE  
               u6251 3EF4                 u6171 3E2A  
               u6091 3D5E                 u5611 38DC  
               u5531 3820                 u5451 3766  
               u5371 36A8                 u5291 35E0  
               u6411 31FA                 _RCIF 007CF5  
               u6340 3FE2                 u6260 3F1A  
               u6180 3E4E                 u5700 39BC  
               u5620 38F2                 u5540 3836  
               u5460 377C                 u5380 36CC  
               u4900 323A                 u6341 3FDE  
               u6261 3F16                 u6181 3E4A  
               u5701 39B8                 u5621 38EE  
               u5541 3832                 u5461 3778  
               u5381 36C8                 u4901 3236  
               u6350 3FF4                 u6270 3F2C  
               u6190 3E60                 u5710 39DC  
               u5630 3914                 u5550 3848  
               u5470 379C                 u5390 36DE  
               u4910 324C                 u6351 3FF0  
               u6271 3F28                 u6191 3E5C  
               u5711 39D8                 u5631 3910  
               u5551 3844                 u5471 3798  
               u5391 36DA                 u4911 3248  
               u6280 3F4C                 u5800 3ABA  
               u5720 39EE                 u5640 3926  
               u5560 3868                 u5480 37AE  
               u4920 326E                 u6360 3138  
               _PIR1 000F9E                 u6281 3F48  
               u5801 3AB6                 u5721 39EA  
               u5641 3922                 u5561 3864  
               u5481 37AA                 u4921 326A  
               u6361 3134                 u6290 3F5E  
               u5810 3ADA                 u5730 3A0E  
               u5650 3946                 u5570 387A  
               u5490 37C0                 u4930 3280  
               u6370 315C                 u6291 3F5A  
               u5811 3AD6                 u5731 3A0A  
               u5651 3942                 u5571 3876  
               u5491 37BC                 u4931 327C  
               u6371 3158                 u5900 3BB6  
               u5820 3AEC                 u5740 3A20  
               u5660 3958                 u5580 388C  
               u4940 3292                 u6380 317E  
               u5901 3BB2                 u5821 3AE8  
               u5741 3A1C                 u5661 3954  
               u5581 3888                 u4941 328E  
               u6381 317A                 u5910 3BC8  
               u5830 3B0C                 u5750 3A42  
               u5670 3978                 u5590 38AC  
               u4950 32B4                 u6390 3198  
               u5911 3BC4                 u5831 3B08  
               u5751 3A3E                 u5671 3974  
               u5591 38A8                 u4951 32B0  
               u6391 3194                 u5920 3BDA  
               u5840 3B1E                 u5760 3A54  
               u5680 398A                 u4960 32C6  
               u5921 3BD6                 u5841 3B1A  
               u5761 3A50                 u5681 3986  
               u4961 32C2                 _OERR 007D59  
               u5930 3BFC                 u5850 3B3E  
               u5770 3A76                 u5690 39AA  
               u4970 32D8                 u4890 3228  
               u5931 3BF8                 u5851 3B3A  
               u5771 3A72                 u5691 39A6  
               u4971 32D4                 u4891 3224  
               u5940 3C0E                 u5860 3B50  
               u5780 3A88                 u4980 32F8  
               u5941 3C0A                 u5861 3B4C  
               u5781 3A84                 u4981 32F4  
               u5950 3C20                 u5870 3B70  
               u5790 3AA8                 u4990 330A  
               u5951 3C1C                 u5871 3B6C  
               u5791 3AA4                 u4991 3306  
               u5960 3C40                 u5880 3B82  
               u5961 3C3C                 u5881 3B7E  
               u5970 3C52                 u5890 3B94  
               u5971 3C4E                 u5891 3B90  
               u5980 3C64                 u5981 3C60  
               u5990 3C84                 u5991 3C80  
               _RX9D 007D58                 _TX9D 007D60  
               _TXIF 007CF4                 _main 30D4  
               indf0 000FEF                 fsr0l 000FE9  
               start 0000      __end_of_DelayMs 30D4  
              ?_main 0100                _RCREG 000FAE  
              _RCSTA 000FAB                _SPBRG 000FAF  
              _TRISA 000F92                _TRISB 000F93  
              _TRISC 000F94                _RX9_x 007D5E  
              _TXREG 000FAD                _TX9_x 007D66  
              _TXSTA 000FAC                _index 000026  
              status 000FD8         __end_of_main 3216  
             ??_main 0104        __activetblptr 000000  
             _ADCON0 000FC2               _ADCON1 000FC1  
             _ADCON2 000FC0               _ADRESH 000FC4  
             _ADRESL 000FC3               _BRGH_x 007D62  
             _GODONE 007E11               _CREN_x 007D5C  
             _CSRC_x 007D67            ??_DelayMs 0109  
             _RCIE_x 007CED               _OSCCON 000FD3  
             _SPBRGH 000FB0               _TRISC6 007CA6  
             _TRISC7 007CA7               _SPEN_x 007D5F  
             _SREN_x 007D5D               _TRMT_x 007D61  
             _TXIE_x 007CEC               _TXEN_x 007D65  
             _SYNC_x 007D64               __Ldata 000000  
         _ToggleLeds 3216         __mediumconst 0D00  
         __accesstop 0060           _change_val 000029  
            _BAUDCON 000FB8          ?_ToggleLeds 0108  
            _SENDB_x 007D63              _DelayMs 308C  
            __Hparam 010C           _cur_inputs 00001B  
            __Lparam 0100              _adc_num 00001A  
            __ramtop 0D00        __Lmediumconst 0D00  
       DelayMs@_dcnt 010A            __Habsbss0 000034  
          __Labsbss0 000000         ??_ToggleLeds 0108  
           ?_DelayMs 0108   __end_of_ToggleLeds 4000  
          _led_array 000000          __smallconst 0D00  
           DelayMs@i 0109          _conv_result 000022  
           __Hparam1 010C             __Lparam1 0100  
       __Lsmallconst 0D00             __config1 00F0FF  
           __config2 00FEFF             __config3 007FFF  
           __config4 00FFFB             __config5 00FFFF  
           __config6 00FFFF             __config7 00FFFF  
           _old_note 000032             _new_note 000033  
           _uart_out 000028             main@argc 0100  
           main@argv 0102             main@uout 0106  
         DelayMs@cnt 0108          _prev_inputs 00002B  
       _USART_Status 00002A  
