

HI-TECH Software LITE Macro Assembler (PIC18) V9.66 build 8870 
                                                       Mon May 07 12:08:32 2012

HI-TECH Software Omniscient Code Generator build 8870
     1  000000                     opt subtitle "HI-TECH Software Omniscient Code G
                                 enerator build 8870"
     2                           
     3                           	processor	18F2682
     4  000000                     porta	equ	0F80h
     5  000000                     portb	equ	0F81h
     6  000000                     portc	equ	0F82h
     7  000000                     portd	equ	0F83h
     8  000000                     porte	equ	0F84h
     9  000000                     lata	equ	0F89h
    10  000000                     latb	equ	0F8Ah
    11  000000                     latc	equ	0F8Bh
    12  000000                     latd	equ	0F8Ch
    13  000000                     late	equ	0F8Dh
    14  000000                     trisa	equ	0F92h
    15  000000                     trisb	equ	0F93h
    16  000000                     trisc	equ	0F94h
    17  000000                     trisd	equ	0F95h
    18  000000                     trise	equ	0F96h
    19  000000                     pie1	equ	0F9Dh
    20  000000                     pir1	equ	0F9Eh
    21  000000                     ipr1	equ	0F9Fh
    22  000000                     pie2	equ	0FA0h
    23  000000                     pir2	equ	0FA1h
    24  000000                     ipr2	equ	0FA2h
    25  000000                     t3con	equ	0FB1h
    26  000000                     tmr3l	equ	0FB2h
    27  000000                     tmr3h	equ	0FB3h
    28  000000                     ccp1con	equ	0FBDh
    29  000000                     ccpr1l	equ	0FBEh
    30  000000                     ccpr1h	equ	0FBFh
    31  000000                     adcon1	equ	0FC1h
    32  000000                     adcon0	equ	0FC2h
    33  000000                     adresl	equ	0FC3h
    34  000000                     adresh	equ	0FC4h
    35  000000                     sspcon2	equ	0FC5h
    36  000000                     sspcon1	equ	0FC6h
    37  000000                     sspstat	equ	0FC7h
    38  000000                     sspadd	equ	0FC8h
    39  000000                     sspbuf	equ	0FC9h
    40  000000                     t2con	equ	0FCAh
    41  000000                     pr2	equ	0FCBh
    42  000000                     tmr2	equ	0FCCh
    43  000000                     t1con	equ	0FCDh
    44  000000                     tmr1l	equ	0FCEh
    45  000000                     tmr1h	equ	0FCFh
    46  000000                     rcon	equ	0FD0h
    47  000000                     wdtcon	equ	0FD1h
    48  000000                     lvdcon	equ	0FD2h
    49  000000                     osccon	equ	0FD3h
    50  000000                     t0con	equ	0FD5h
    51  000000                     tmr0l	equ	0FD6h
    52  000000                     tmr0h	equ	0FD7h
    53  000000                     status	equ	0FD8h
    54  000000                     fsr2	equ	0FD9h
    55  000000                     fsr2l	equ	0FD9h
    56  000000                     fsr2h	equ	0FDAh
    57  000000                     plusw2	equ	0FDBh
    58  000000                     preinc2	equ	0FDCh
    59  000000                     postdec2	equ	0FDDh
    60  000000                     postinc2	equ	0FDEh
    61  000000                     indf2	equ	0FDFh
    62  000000                     bsr	equ	0FE0h
    63  000000                     fsr1	equ	0FE1h
    64  000000                     fsr1l	equ	0FE1h
    65  000000                     fsr1h	equ	0FE2h
    66  000000                     plusw1	equ	0FE3h
    67  000000                     preinc1	equ	0FE4h
    68  000000                     postdec1	equ	0FE5h
    69  000000                     postinc1	equ	0FE6h
    70  000000                     indf1	equ	0FE7h
    71  000000                     wreg	equ	0FE8h
    72  000000                     fsr0	equ	0FE9h
    73  000000                     fsr0l	equ	0FE9h
    74  000000                     fsr0h	equ	0FEAh
    75  000000                     plusw0	equ	0FEBh
    76  000000                     preinc0	equ	0FECh
    77  000000                     postdec0	equ	0FEDh
    78  000000                     postinc0	equ	0FEEh
    79  000000                     indf0	equ	0FEFh
    80  000000                     intcon3	equ	0FF0h
    81  000000                     intcon2	equ	0FF1h
    82  000000                     intcon	equ	0FF2h
    83  000000                     prod	equ	0FF3h
    84  000000                     prodl	equ	0FF3h
    85  000000                     prodh	equ	0FF4h
    86  000000                     tablat	equ	0FF5h
    87  000000                     tblptr	equ	0FF6h
    88  000000                     tblptrl	equ	0FF6h
    89  000000                     tblptrh	equ	0FF7h
    90  000000                     tblptru	equ	0FF8h
    91  000000                     pcl	equ	0FF9h
    92  000000                     pclat	equ	0FFAh
    93  000000                     pclath	equ	0FFAh
    94  000000                     pclatu	equ	0FFBh
    95  000000                     stkptr	equ	0FFCh
    96  000000                     tosl	equ	0FFDh
    97  000000                     tosh	equ	0FFEh
    98  000000                     tosu	equ	0FFFh
    99                           	global	__ramtop
   100                           	global	__accesstop
   101                           # 20 "../code/main.c"
   102                           	global __config1 ;#
   103                           # 20 "../code/main.c"
   104  000000                     	__config1 equ 0xF0FF ;#
   105                           # 21 "../code/main.c"
   106                           	global __config2 ;#
   107                           # 21 "../code/main.c"
   108  000000                     	__config2 equ 0xFEFF ;#
   109                           # 22 "../code/main.c"
   110                           	global __config3 ;#
   111                           # 22 "../code/main.c"
   112  000000                     	__config3 equ 0x7FFF ;#
   113                           # 23 "../code/main.c"
   114                           	global __config4 ;#
   115                           # 23 "../code/main.c"
   116  000000                     	__config4 equ 0xFFFB & 0xFFFF ;#
   117                           # 24 "../code/main.c"
   118                           	global __config5 ;#
   119                           # 24 "../code/main.c"
   120  000000                     	__config5 equ 0xFFFF ;#
   121                           # 25 "../code/main.c"
   122                           	global __config6 ;#
   123                           # 25 "../code/main.c"
   124  000000                     	__config6 equ 0xFFFF ;#
   125                           # 26 "../code/main.c"
   126                           	global __config7 ;#
   127                           # 26 "../code/main.c"
   128  000000                     	__config7 equ 0xFFFF ;#
   129                           	GLOBAL	__activetblptr
   130  000000                     __activetblptr	EQU	0
   131                           	GLOBAL	__smallconst,__Lsmallconst
   132  000000                     __smallconst	EQU	__Lsmallconst
   133                           	GLOBAL	__mediumconst,__Lmediumconst
   134  000000                     __mediumconst	EQU	__Lmediumconst
   135                           	GLOBAL	__Ldata
   136  000000                     __Ldata	EQU	0
   137  000000                     main@count	equ	??_main+0
   138                           	global	main@count
   139  000000                     main@uout	equ	??_main+1
   140                           	global	main@uout
   141  000000                     main@channel	equ	??_main+2
   142                           	global	main@channel
   143  000000                     main@result	equ	??_main+3
   144                           	global	main@result
   145  000000                     main@argc	equ	?_main+0
   146                           	global	main@argc
   147  000000                     main@argv	equ	?_main+2
   148                           	global	main@argv
   149  000000                     DelayMs@i	equ	??_DelayMs+0
   150                           	global	DelayMs@i
   151  000000                     DelayMs@_dcnt	equ	??_DelayMs+1
   152                           	global	DelayMs@_dcnt
   153  000000                     DelayMs@cnt	equ	?_DelayMs+0
   154                           	global	DelayMs@cnt
   155                           ;Data sizes: Strings 0, constant 0, data 0, bss 
                                 0, persistent 0 stack 14
   156                           	global	_main
   157                           	global	??_main
   158                           	global	?_main
   159                           
   160                           ; *************** function _main ***************
                                 **
   161                           ; Defined at:
   162                           ;		line 163 in file "../code/main.c"
   163                           ; Parameters:
   164                           ;		argc           size:   2offs:   0	type: int 
   165                           ;		argv           size:   2offs:   2	type: PTR P
                                 TR unsigned char 
   166                           ; Auto variables:
   167                           ;		count       	       	type: unsigned char 
   168                           ;		uout        	       	type: unsigned char 
   169                           ;		channel     	       	type: unsigned char 
   170                           ;		result      	       	type: int 
   171                           ; Return value:
   172                           ;		type: int 
   173                           ;		size: 2
   174                           ; Registers used:
   175                           ;		wreg, fsr0l, fsr0h, status,2, status,0, cstac
                                 k
   176                           ; Tracked objects:
   177                           ;		On entry : 0/0
   178                           ;		On exit  : 0/0
   179                           ;		Unchanged: 0/0
   180                           ; Data sizes:
   181                           ;		Autos:    5
   182                           ;		Params:   4
   183                           ;		Temp:     1
   184                           ;		Total:   10
   185                           ; This function calls:
   186                           ;		_DelayMs
   187                           ;		_ToggleLeds
   188                           ; This function is called by:
   189                           ;		Startup code after reset
   190                           ; This function uses a non-reentrant model
   191                           ; 
   192                                   psect   text0,class=CODE,space=0,reloc=2
   193                           
   194                           	opt lm
   195                           	file	"../code/main.c"
   196                           	line	163
   197  000000                     	__size_of_main	equ	__end_of_main-_main
   198                                   psect   text0
   199                           ;main.c: 20: asm("\tglobal __config" "1"); asm("
                                 \t__config" "1" " equ " "0xF0FF");
   200                           ;main.c: 21: asm("\tglobal __config" "2"); asm("
                                 \t__config" "2" " equ " "0xFEFF");
   201                           ;main.c: 22: asm("\tglobal __config" "3"); asm("
                                 \t__config" "3" " equ " "0x7FFF");
   202                           ;main.c: 23: asm("\tglobal __config" "4"); asm("
                                 \t__config" "4" " equ " "0xFFFB & 0xFFFF");
   203                           ;main.c: 24: asm("\tglobal __config" "5"); asm("
                                 \t__config" "5" " equ " "0xFFFF");
   204                           ;main.c: 25: asm("\tglobal __config" "6"); asm("
                                 \t__config" "6" " equ " "0xFFFF");
   205                           ;main.c: 26: asm("\tglobal __config" "7"); asm("
                                 \t__config" "7" " equ " "0xFFFF");
   206                           	
   207  012EEC                     _main:		; BSR set to: ?
   208                           
   209                           	opt stack 31
   210                           	line	166
   211  012EEC  0E72               	movlw	(072h)&0ffh
   212  012EEE  12D3               	iorwf	((c:4051)),c	;volatile
   213                           	line	169
   214                           ;main.c: 169: TRISA = 0b10101111;
   215  012EF0  0EAF               	movlw	low(0AFh)
   216+ 012EF2  6E92               	movwf	((c:3986)),c	;volatile
   217+                          	line	170
   218+                          ;main.c: 170: TRISB = 0b00010010;
   219+ 012EF4  0E12               	movlw	low(012h)
   220  012EF6  6E93               	movwf	((c:3987)),c	;volatile
   221                           	line	171
   222                           ;main.c: 171: TRISC = 0b10000000;
   223  012EF8  0E80               	movlw	low(080h)
   224  012EFA  6E94               	movwf	((c:3988)),c	;volatile
   225                           	line	174
   226                           ;main.c: 174: ADCON0 = 0b00000000;
   227  012EFC  0E00               	movlw	low(0)
   228  012EFE  6EC2               	movwf	((c:4034)),c	;volatile
   229                           	line	175
   230                           ;main.c: 175: ADCON1 = 0b00000101;
   231  012F00  0E05               	movlw	low(05h)
   232  012F02  6EC1               	movwf	((c:4033)),c	;volatile
   233                           	line	176
   234                           ;main.c: 176: ADCON2 = 0b10000000;
   235  012F04  0E80               	movlw	low(080h)
   236  012F06  6EC0               	movwf	((c:4032)),c	;volatile
   237                           	line	178
   238                           ;main.c: 178: ADCON2 = 0b10001101;
   239  012F08  0E8D               	movlw	low(08Dh)
   240  012F0A  6EC0               	movwf	((c:4032)),c	;volatile
   241                           	line	179
   242                           ;main.c: 179: adc_num = 0;
   243  012F0C  0E00               	movlw	low(0)
   244  012F0E  6E2E               	movwf	((c:46)),c	;volatile
   245                           	line	205
   246                           ;main.c: 205: SPBRGH = (((8000000L/19200UL)/16) 
                                 - 1) >> 8;
   247  012F10  0E00               	movlw	low(0)
   248  012F12  6EB0               	movwf	((c:4016)),c	;volatile
   249                           	line	206
   250                           ;main.c: 206: SPBRG = (((8000000L/19200UL)/16) -
                                  1);
   251  012F14  0E19               	movlw	low(019h)
   252  012F16  6EAF               	movwf	((c:4015)),c	;volatile
   253                           	line	207
   254                           ;main.c: 207: BAUDCON = 0b00001000;
   255  012F18  0E08               	movlw	low(08h)
   256  012F1A  6EB8               	movwf	((c:4024)),c	;volatile
   257                           	line	208
   258                           ;main.c: 208: RCSTA = 0b10010000;
   259  012F1C  0E90               	movlw	low(090h)
   260  012F1E  6EAB               	movwf	((c:4011)),c	;volatile
   261                           	line	209
   262                           ;main.c: 209: TXSTA = 0b00100000;
   263  012F20  0E20               	movlw	low(020h)
   264  012F22  6EAC               	movwf	((c:4012)),c	;volatile
   265                           	line	213
   266                           ;main.c: 213: LATA = 0b11111111;
   267  012F24  6889               	setf	((c:3977)),c	;volatile
   268                           	line	215
   269                           ;main.c: 215: LATB = 0b10000000;
   270  012F26  0E80               	movlw	low(080h)
   271  012F28  6E8A               	movwf	((c:3978)),c	;volatile
   272                           	line	217
   273                           ;main.c: 217: LATC = 0b00001111;
   274  012F2A  0E0F               	movlw	low(0Fh)
   275  012F2C  6E8B               	movwf	((c:3979)),c	;volatile
   276                           	line	232
   277                           ;main.c: 232: char count = 0x00;
   278  012F2E  0101               	movlb	1	; () banked
   279  012F30  6F09               	movwf	(??_main+5+0)&0ffh
   280  012F32  0E00               	movlw	low(0)
   281  012F34  0101               	movlb	1	; () banked
   282  012F36  0101               	movlb	1	; () banked
   283  012F38  6F04               	movwf	((main@count))&0ffh
   284  012F3A  0101               	movlb	1	; () banked
   285  012F3C  5109               	movf	(??_main+5+0)&0ffh,w
   286                           	line	233
   287                           ;main.c: 233: while (1) {
   288                           	
   289  012F3E                     l869:		; BSR set to: ?
   290                           
   291                           	line	236
   292                           ;main.c: 234: char uout;
   293                           ;main.c: 236: uout = 0xee;
   294  012F3E  0101               	movlb	1	; () banked
   295  012F40  6F09               	movwf	(??_main+5+0)&0ffh
   296  012F42  0EEE               	movlw	low(0EEh)
   297  012F44  0101               	movlb	1	; () banked
   298  012F46  0101               	movlb	1	; () banked
   299  012F48  6F05               	movwf	((main@uout))&0ffh
   300  012F4A  0101               	movlb	1	; () banked
   301  012F4C  5109               	movf	(??_main+5+0)&0ffh,w
   302                           	line	237
   303                           ;main.c: 237: TXREG = uout;
   304  012F4E  C105  FFAD         	movff	(main@uout),(c:4013)	;volatile
   305                           	line	238
   306                           ;main.c: 238: while((PIR1 & 0b00010000) == 0);
   307  012F52  EFAB  F097         	goto	l871
   308                           	
   309  012F56                     l871:		; BSR set to: ?
   310                           
   311                           	
   312  012F56  A89E               	btfss	((c:3998)),c,(4)&7	;volatile
   313  012F58  EFB0  F097         	goto	u5791
   314  012F5C  EFB2  F097         	goto	u5790
   315  012F60                     u5791:
   316  012F60  EFAB  F097         	goto	l871
   317  012F64                     u5790:
   318                           	
   319  012F64                     l873:		; BSR set to: ?
   320                           
   321                           	line	241
   322                           ;main.c: 241: ADON = 0;
   323  012F64  90C2               	bcf	c:(32272/8),(32272)&7	;volatile
   324                           	line	243
   325                           ;main.c: 243: ADRESH = 0x00;
   326  012F66  0E00               	movlw	low(0)
   327  012F68  6EC4               	movwf	((c:4036)),c	;volatile
   328                           	line	244
   329                           ;main.c: 244: ADRESL = 0x00;
   330  012F6A  0E00               	movlw	low(0)
   331  012F6C  6EC3               	movwf	((c:4035)),c	;volatile
   332                           	line	245
   333                           ;main.c: 245: ADCON0 = 0b00000100;
   334  012F6E  0E04               	movlw	low(04h)
   335  012F70  6EC2               	movwf	((c:4034)),c	;volatile
   336                           	line	247
   337                           ;main.c: 247: ADON = 1;
   338  012F72  80C2               	bsf	c:(32272/8),(32272)&7	;volatile
   339                           	line	248
   340                           ;main.c: 248: GODONE = 1;
   341  012F74  82C2               	bsf	c:(32273/8),(32273)&7	;volatile
   342                           	line	251
   343                           ;main.c: 251: while (GODONE);
   344  012F76  EFBD  F097         	goto	l874
   345                           	
   346  012F7A                     l874:		; BSR set to: ?
   347                           
   348  012F7A  B2C2               	btfsc	c:(32273/8),(32273)&7	;volatile
   349  012F7C  EFC2  F097         	goto	u5801
   350  012F80  EFC4  F097         	goto	u5800
   351  012F84                     u5801:
   352  012F84  EFBD  F097         	goto	l874
   353  012F88                     u5800:
   354                           	
   355  012F88                     l876:		; BSR set to: ?
   356                           
   357                           	line	252
   358                           ;main.c: 252: uout = ADRESH;
   359  012F88  CFC4 F105          	movff	(c:4036),(main@uout)	;volatile
   360                           	line	253
   361                           ;main.c: 253: TXREG = uout;
   362  012F8C  C105  FFAD         	movff	(main@uout),(c:4013)	;volatile
   363                           	line	254
   364                           ;main.c: 254: while((PIR1 & 0b00010000) == 0);
   365  012F90  EFCA  F097         	goto	l877
   366                           	
   367  012F94                     l877:		; BSR set to: ?
   368                           
   369                           	
   370  012F94  A89E               	btfss	((c:3998)),c,(4)&7	;volatile
   371  012F96  EFCF  F097         	goto	u5811
   372  012F9A  EFD1  F097         	goto	u5810
   373  012F9E                     u5811:
   374  012F9E  EFCA  F097         	goto	l877
   375  012FA2                     u5810:
   376                           	
   377  012FA2                     l879:		; BSR set to: ?
   378                           
   379                           	line	256
   380                           ;main.c: 256: if (ADRESL < 50 ) {
   381  012FA2  0E32               	movlw	(032h)&0ffh
   382  012FA4  60C3               	cpfslt	((c:4035)),c	;volatile
   383  012FA6  EFD7  F097         	goto	u5821
   384  012FAA  EFD9  F097         	goto	u5820
   385  012FAE                     u5821:
   386  012FAE  EFFB  F097         	goto	l880
   387  012FB2                     u5820:
   388                           	line	257
   389                           ;main.c: 257: uout = 0x01;
   390  012FB2  0101               	movlb	1	; () banked
   391  012FB4  6F09               	movwf	(??_main+5+0)&0ffh
   392  012FB6  0E01               	movlw	low(01h)
   393  012FB8  0101               	movlb	1	; () banked
   394  012FBA  0101               	movlb	1	; () banked
   395  012FBC  6F05               	movwf	((main@uout))&0ffh
   396  012FBE  0101               	movlb	1	; () banked
   397  012FC0  5109               	movf	(??_main+5+0)&0ffh,w
   398                           	line	258
   399                           ;main.c: 258: TXREG = uout;
   400  012FC2  C105  FFAD         	movff	(main@uout),(c:4013)	;volatile
   401                           	line	259
   402                           ;main.c: 259: while((PIR1 & 0b00010000) == 0);
   403  012FC6  EFE5  F097         	goto	l881
   404                           	
   405  012FCA                     l881:		; BSR set to: ?
   406                           
   407                           	
   408  012FCA  A89E               	btfss	((c:3998)),c,(4)&7	;volatile
   409  012FCC  EFEA  F097         	goto	u5831
   410  012FD0  EFEC  F097         	goto	u5830
   411  012FD4                     u5831:
   412  012FD4  EFE5  F097         	goto	l881
   413  012FD8                     u5830:
   414                           	
   415  012FD8                     l883:		; BSR set to: ?
   416                           
   417                           	line	260
   418                           ;main.c: 260: uout = ADRESL;
   419  012FD8  CFC3 F105          	movff	(c:4035),(main@uout)	;volatile
   420                           	line	261
   421                           ;main.c: 261: TXREG = uout;
   422  012FDC  C105  FFAD         	movff	(main@uout),(c:4013)	;volatile
   423                           	line	262
   424                           ;main.c: 262: while((PIR1 & 0b00010000) == 0);
   425  012FE0  EFF2  F097         	goto	l884
   426                           	
   427  012FE4                     l884:		; BSR set to: ?
   428                           
   429                           	
   430  012FE4  A89E               	btfss	((c:3998)),c,(4)&7	;volatile
   431  012FE6  EFF7  F097         	goto	u5841
   432  012FEA  EFF9  F097         	goto	u5840
   433  012FEE                     u5841:
   434  012FEE  EFF2  F097         	goto	l884
   435  012FF2                     u5840:
   436                           	
   437  012FF2                     l886:		; BSR set to: ?
   438                           
   439                           	line	263
   440                           ;main.c: 263: }
   441  012FF2  EF9A  F098         	goto	l887
   442                           	line	264
   443                           	
   444  012FF6                     l880:		; BSR set to: ?
   445                           
   446                           ;main.c: 264: else if (ADRESL >= 50 && ADRESL <1
                                 60 ) {
   447  012FF6  0E31               	movlw	(032h-1)
   448  012FF8  64C3               	cpfsgt	((c:4035)),c	;volatile
   449  012FFA  EF01  F098         	goto	u5851
   450  012FFE  EF03  F098         	goto	u5850
   451  013002                     u5851:
   452  013002  EF2D  F098         	goto	l888
   453  013006                     u5850:
   454  013006  0EA0               	movlw	(0A0h)&0ffh
   455  013008  60C3               	cpfslt	((c:4035)),c	;volatile
   456  01300A  EF09  F098         	goto	u5861
   457  01300E  EF0B  F098         	goto	u5860
   458  013012                     u5861:
   459  013012  EF2D  F098         	goto	l888
   460  013016                     u5860:
   461                           	line	265
   462                           ;main.c: 265: uout = 0x02;
   463  013016  0101               	movlb	1	; () banked
   464  013018  6F09               	movwf	(??_main+5+0)&0ffh
   465  01301A  0E02               	movlw	low(02h)
   466  01301C  0101               	movlb	1	; () banked
   467  01301E  0101               	movlb	1	; () banked
   468  013020  6F05               	movwf	((main@uout))&0ffh
   469  013022  0101               	movlb	1	; () banked
   470  013024  5109               	movf	(??_main+5+0)&0ffh,w
   471                           	line	266
   472                           ;main.c: 266: TXREG = uout;
   473  013026  C105  FFAD         	movff	(main@uout),(c:4013)	;volatile
   474                           	line	267
   475                           ;main.c: 267: while((PIR1 & 0b00010000) == 0);
   476  01302A  EF17  F098         	goto	l889
   477                           	
   478  01302E                     l889:		; BSR set to: ?
   479                           
   480                           	
   481  01302E  A89E               	btfss	((c:3998)),c,(4)&7	;volatile
   482  013030  EF1C  F098         	goto	u5871
   483  013034  EF1E  F098         	goto	u5870
   484  013038                     u5871:
   485  013038  EF17  F098         	goto	l889
   486  01303C                     u5870:
   487                           	
   488  01303C                     l891:		; BSR set to: ?
   489                           
   490                           	line	268
   491                           ;main.c: 268: uout = ADRESL;
   492  01303C  CFC3 F105          	movff	(c:4035),(main@uout)	;volatile
   493+                          	line	269
   494+                          ;main.c: 269: TXREG = uout;
   495+ 013040  C105  FFAD         	movff	(main@uout),(c:4013)	;volatile
   496+                          	line	270
   497+                          ;main.c: 270: while((PIR1 & 0b00010000) == 0);
   498+ 013044  EF24  F098         	goto	l892
   499                           	
   500  013048                     l892:		; BSR set to: ?
   501                           
   502                           	
   503  013048  A89E               	btfss	((c:3998)),c,(4)&7	;volatile
   504  01304A  EF29  F098         	goto	u5881
   505  01304E  EF2B  F098         	goto	u5880
   506  013052                     u5881:
   507  013052  EF24  F098         	goto	l892
   508  013056                     u5880:
   509                           	
   510  013056                     l894:		; BSR set to: ?
   511                           
   512                           	line	271
   513                           ;main.c: 271: }
   514  013056  EF9A  F098         	goto	l887
   515                           	line	272
   516                           	
   517  01305A                     l888:		; BSR set to: ?
   518                           
   519                           ;main.c: 272: else if (ADRESL >= 160 && ADRESL <
                                 250 ) {
   520  01305A  0E9F               	movlw	(0A0h-1)
   521  01305C  64C3               	cpfsgt	((c:4035)),c	;volatile
   522  01305E  EF33  F098         	goto	u5891
   523  013062  EF35  F098         	goto	u5890
   524  013066                     u5891:
   525  013066  EF5F  F098         	goto	l896
   526  01306A                     u5890:
   527  01306A  0EFA               	movlw	(0FAh)&0ffh
   528  01306C  60C3               	cpfslt	((c:4035)),c	;volatile
   529  01306E  EF3B  F098         	goto	u5901
   530  013072  EF3D  F098         	goto	u5900
   531  013076                     u5901:
   532  013076  EF5F  F098         	goto	l896
   533  01307A                     u5900:
   534                           	line	273
   535                           ;main.c: 273: uout = 0x03;
   536  01307A  0101               	movlb	1	; () banked
   537  01307C  6F09               	movwf	(??_main+5+0)&0ffh
   538  01307E  0E03               	movlw	low(03h)
   539  013080  0101               	movlb	1	; () banked
   540  013082  0101               	movlb	1	; () banked
   541  013084  6F05               	movwf	((main@uout))&0ffh
   542  013086  0101               	movlb	1	; () banked
   543  013088  5109               	movf	(??_main+5+0)&0ffh,w
   544                           	line	274
   545                           ;main.c: 274: TXREG = uout;
   546  01308A  C105  FFAD         	movff	(main@uout),(c:4013)	;volatile
   547                           	line	275
   548                           ;main.c: 275: while((PIR1 & 0b00010000) == 0);
   549  01308E  EF49  F098         	goto	l897
   550                           	
   551  013092                     l897:		; BSR set to: ?
   552                           
   553                           	
   554  013092  A89E               	btfss	((c:3998)),c,(4)&7	;volatile
   555  013094  EF4E  F098         	goto	u5911
   556  013098  EF50  F098         	goto	u5910
   557  01309C                     u5911:
   558  01309C  EF49  F098         	goto	l897
   559  0130A0                     u5910:
   560                           	
   561  0130A0                     l899:		; BSR set to: ?
   562                           
   563                           	line	276
   564                           ;main.c: 276: uout = ADRESL;
   565  0130A0  CFC3 F105          	movff	(c:4035),(main@uout)	;volatile
   566                           	line	277
   567                           ;main.c: 277: TXREG = uout;
   568  0130A4  C105  FFAD         	movff	(main@uout),(c:4013)	;volatile
   569                           	line	278
   570                           ;main.c: 278: while((PIR1 & 0b00010000) == 0);
   571  0130A8  EF56  F098         	goto	l900
   572                           	
   573  0130AC                     l900:		; BSR set to: ?
   574                           
   575                           	
   576  0130AC  A89E               	btfss	((c:3998)),c,(4)&7	;volatile
   577  0130AE  EF5B  F098         	goto	u5921
   578  0130B2  EF5D  F098         	goto	u5920
   579  0130B6                     u5921:
   580  0130B6  EF56  F098         	goto	l900
   581  0130BA                     u5920:
   582                           	
   583  0130BA                     l902:		; BSR set to: ?
   584                           
   585                           	line	279
   586                           ;main.c: 279: }
   587  0130BA  EF9A  F098         	goto	l887
   588                           	line	280
   589                           	
   590  0130BE                     l896:		; BSR set to: ?
   591                           
   592                           ;main.c: 280: else if (ADRESL >= 250 && ADRESL <
                                 350 ) {
   593  0130BE  0EF9               	movlw	(0FAh-1)
   594  0130C0  64C3               	cpfsgt	((c:4035)),c	;volatile
   595  0130C2  EF65  F098         	goto	u5931
   596  0130C6  EF67  F098         	goto	u5930
   597  0130CA                     u5931:
   598  0130CA  EF7C  F098         	goto	l904
   599  0130CE                     u5930:
   600                           	line	281
   601                           ;main.c: 281: uout = 0x04;
   602  0130CE  0101               	movlb	1	; () banked
   603  0130D0  6F09               	movwf	(??_main+5+0)&0ffh
   604  0130D2  0E04               	movlw	low(04h)
   605  0130D4  0101               	movlb	1	; () banked
   606  0130D6  0101               	movlb	1	; () banked
   607  0130D8  6F05               	movwf	((main@uout))&0ffh
   608  0130DA  0101               	movlb	1	; () banked
   609  0130DC  5109               	movf	(??_main+5+0)&0ffh,w
   610                           	line	282
   611                           ;main.c: 282: TXREG = uout;
   612  0130DE  C105  FFAD         	movff	(main@uout),(c:4013)	;volatile
   613                           	line	283
   614                           ;main.c: 283: while((PIR1 & 0b00010000) == 0);
   615  0130E2  EF73  F098         	goto	l905
   616                           	
   617  0130E6                     l905:		; BSR set to: ?
   618                           
   619                           	
   620  0130E6  A89E               	btfss	((c:3998)),c,(4)&7	;volatile
   621  0130E8  EF78  F098         	goto	u5941
   622  0130EC  EF7A  F098         	goto	u5940
   623  0130F0                     u5941:
   624  0130F0  EF73  F098         	goto	l905
   625  0130F4                     u5940:
   626                           	
   627  0130F4                     l907:		; BSR set to: ?
   628                           
   629                           	line	284
   630                           ;main.c: 284: }
   631  0130F4  EF9A  F098         	goto	l887
   632                           	line	285
   633                           	
   634  0130F8                     l904:		; BSR set to: ?
   635                           
   636  0130F8  EF7E  F098         	goto	l909
   637                           	line	290
   638                           	
   639  0130FC                     l909:		; BSR set to: ?
   640                           
   641  0130FC  EF80  F098         	goto	l914
   642                           	line	295
   643                           	
   644  013100                     l914:		; BSR set to: ?
   645                           
   646  013100  EF82  F098         	goto	l919
   647                           	line	300
   648                           	
   649  013104                     l919:		; BSR set to: ?
   650                           
   651  013104  EF84  F098         	goto	l924
   652                           	line	305
   653                           	
   654  013108                     l924:		; BSR set to: ?
   655                           
   656  013108  EF86  F098         	goto	l929
   657                           	line	310
   658                           	
   659  01310C                     l929:		; BSR set to: ?
   660                           
   661  01310C  EF88  F098         	goto	l934
   662                           	line	315
   663                           	
   664  013110                     l934:		; BSR set to: ?
   665                           
   666  013110  EF8A  F098         	goto	l939
   667                           	line	320
   668                           	
   669  013114                     l939:		; BSR set to: ?
   670                           
   671  013114  EF8C  F098         	goto	l944
   672                           	line	325
   673                           	
   674  013118                     l944:		; BSR set to: ?
   675                           
   676  013118  EF8E  F098         	goto	l949
   677                           	line	330
   678                           	
   679  01311C                     l949:		; BSR set to: ?
   680                           
   681  01311C  EF90  F098         	goto	l954
   682                           	line	335
   683                           	
   684  013120                     l954:		; BSR set to: ?
   685                           
   686  013120  EF92  F098         	goto	l959
   687                           	line	340
   688                           	
   689  013124                     l959:		; BSR set to: ?
   690                           
   691  013124  EF94  F098         	goto	l964
   692                           	line	345
   693                           	
   694  013128                     l964:		; BSR set to: ?
   695                           
   696  013128  EF96  F098         	goto	l969
   697                           	line	350
   698                           	
   699  01312C                     l969:		; BSR set to: ?
   700                           
   701  01312C  EF98  F098         	goto	l974
   702                           	line	355
   703                           	
   704  013130                     l974:		; BSR set to: ?
   705                           
   706  013130  EF9A  F098         	goto	l887
   707                           	line	375
   708                           	
   709  013134                     l887:		; BSR set to: ?
   710                           
   711                           ;main.c: 359: }
   712                           ;main.c: 375: DelayMs(5000);
   713  013134  0101               	movlb	1	; () banked
   714  013136  6F09               	movwf	(??_main+5+0)&0ffh
   715  013138  0E88               	movlw	low(088h)
   716  01313A  0101               	movlb	1	; () banked
   717  01313C  0101               	movlb	1	; () banked
   718  01313E  6F0A               	movwf	((?_DelayMs))&0ffh
   719  013140  0101               	movlb	1	; () banked
   720  013142  5109               	movf	(??_main+5+0)&0ffh,w
   721  013144  EC52  F097         	call	_DelayMs	;wreg free
   722                           	line	376
   723                           ;main.c: 376: DelayMs(5000);
   724  013148  0101               	movlb	1	; () banked
   725  01314A  6F09               	movwf	(??_main+5+0)&0ffh
   726  01314C  0E88               	movlw	low(088h)
   727  01314E  0101               	movlb	1	; () banked
   728  013150  0101               	movlb	1	; () banked
   729  013152  6F0A               	movwf	((?_DelayMs))&0ffh
   730  013154  0101               	movlb	1	; () banked
   731  013156  5109               	movf	(??_main+5+0)&0ffh,w
   732  013158  EC52  F097         	call	_DelayMs	;wreg free
   733                           	line	377
   734                           ;main.c: 377: DelayMs(5000);
   735  01315C  0101               	movlb	1	; () banked
   736  01315E  6F09               	movwf	(??_main+5+0)&0ffh
   737  013160  0E88               	movlw	low(088h)
   738  013162  0101               	movlb	1	; () banked
   739  013164  0101               	movlb	1	; () banked
   740  013166  6F0A               	movwf	((?_DelayMs))&0ffh
   741  013168  0101               	movlb	1	; () banked
   742  01316A  5109               	movf	(??_main+5+0)&0ffh,w
   743  01316C  EC52  F097         	call	_DelayMs	;wreg free
   744                           	line	378
   745                           ;main.c: 378: DelayMs(5000);
   746  013170  0101               	movlb	1	; () banked
   747  013172  6F09               	movwf	(??_main+5+0)&0ffh
   748  013174  0E88               	movlw	low(088h)
   749  013176  0101               	movlb	1	; () banked
   750  013178  0101               	movlb	1	; () banked
   751  01317A  6F0A               	movwf	((?_DelayMs))&0ffh
   752  01317C  0101               	movlb	1	; () banked
   753  01317E  5109               	movf	(??_main+5+0)&0ffh,w
   754  013180  EC52  F097         	call	_DelayMs	;wreg free
   755                           	line	379
   756                           ;main.c: 379: DelayMs(5000);
   757  013184  0101               	movlb	1	; () banked
   758  013186  6F09               	movwf	(??_main+5+0)&0ffh
   759  013188  0E88               	movlw	low(088h)
   760  01318A  0101               	movlb	1	; () banked
   761  01318C  0101               	movlb	1	; () banked
   762  01318E  6F0A               	movwf	((?_DelayMs))&0ffh
   763  013190  0101               	movlb	1	; () banked
   764  013192  5109               	movf	(??_main+5+0)&0ffh,w
   765  013194  EC52  F097         	call	_DelayMs	;wreg free
   766                           	line	380
   767                           ;main.c: 380: DelayMs(5000);
   768  013198  0101               	movlb	1	; () banked
   769  01319A  6F09               	movwf	(??_main+5+0)&0ffh
   770  01319C  0E88               	movlw	low(088h)
   771  01319E  0101               	movlb	1	; () banked
   772  0131A0  0101               	movlb	1	; () banked
   773  0131A2  6F0A               	movwf	((?_DelayMs))&0ffh
   774  0131A4  0101               	movlb	1	; () banked
   775  0131A6  5109               	movf	(??_main+5+0)&0ffh,w
   776  0131A8  EC52  F097         	call	_DelayMs	;wreg free
   777                           	line	381
   778                           ;main.c: 381: DelayMs(5000);
   779  0131AC  0101               	movlb	1	; () banked
   780  0131AE  6F09               	movwf	(??_main+5+0)&0ffh
   781  0131B0  0E88               	movlw	low(088h)
   782  0131B2  0101               	movlb	1	; () banked
   783  0131B4  0101               	movlb	1	; () banked
   784  0131B6  6F0A               	movwf	((?_DelayMs))&0ffh
   785  0131B8  0101               	movlb	1	; () banked
   786  0131BA  5109               	movf	(??_main+5+0)&0ffh,w
   787  0131BC  EC52  F097         	call	_DelayMs	;wreg free
   788                           	line	382
   789                           ;main.c: 382: DelayMs(5000);
   790  0131C0  0101               	movlb	1	; () banked
   791  0131C2  6F09               	movwf	(??_main+5+0)&0ffh
   792  0131C4  0E88               	movlw	low(088h)
   793  0131C6  0101               	movlb	1	; () banked
   794  0131C8  0101               	movlb	1	; () banked
   795  0131CA  6F0A               	movwf	((?_DelayMs))&0ffh
   796  0131CC  0101               	movlb	1	; () banked
   797  0131CE  5109               	movf	(??_main+5+0)&0ffh,w
   798  0131D0  EC52  F097         	call	_DelayMs	;wreg free
   799                           	line	385
   800                           	
   801  0131D4                     l868:		; BSR set to: ?
   802                           
   803                           	line	233
   804  0131D4  EF9F  F097         	goto	l869
   805                           	line	398
   806                           	
   807  0131D8                     l987:		; BSR set to: ?
   808                           
   809                           	line	400
   810                           ;main.c: 400: continue;
   811  0131D8  EFEE  F098         	goto	l986
   812                           	line	401
   813                           	
   814  0131DC                     l986:		; BSR set to: ?
   815                           
   816                           	line	398
   817  0131DC  502F               	movf	((c:47)),c,w
   818  0131DE  B4D8               	btfsc	status,2
   819  0131E0  EFF4  F098         	goto	u6101
   820  0131E4  EFF6  F098         	goto	u6100
   821  0131E8                     u6101:
   822  0131E8  EFEC  F098         	goto	l987
   823  0131EC                     u6100:
   824                           	
   825  0131EC                     l988:		; BSR set to: ?
   826                           
   827                           	line	402
   828                           ;main.c: 401: }
   829                           ;main.c: 402: int result = cur_inputs[index];
   830  0131EC  90D8               	bcf	status,0
   831  0131EE  3428               	rlcf	((c:40)),c,w
   832  0131F0  0101               	movlb	1	; () banked
   833  0131F2  6F09               	movwf	(??_main+5+0)&0ffh
   834  0131F4  0E1A               	movlw	low((c:26))
   835  0131F6  0101               	movlb	1	; () banked
   836  0131F8  2509               	addwf	(??_main+5+0)&0ffh,w
   837  0131FA  6EE9               	movwf	c:fsr0l
   838  0131FC  6AEA               	clrf	1+c:fsr0l
   839  0131FE  0E00               	movlw	high((c:26))
   840  013200  22EA               	addwfc	1+c:fsr0l
   841  013202  0101               	movlb	1	; () banked
   842  013204  CFEE F107          	movff	postinc0,(main@result)
   843  013208  0101               	movlb	1	; () banked
   844  01320A  CFED F108          	movff	postdec0,(main@result+1)
   845                           	line	403
   846                           ;main.c: 403: char channel = index;
   847  01320E  C028 F106          	movff	(c:40),(main@channel)
   848                           	line	406
   849                           	
   850  013212                     l983:		; BSR set to: ?
   851                           
   852                           	line	393
   853                           	
   854  013212                     l985:		; BSR set to: ?
   855                           
   856                           	line	415
   857                           ;main.c: 406: }
   858                           ;main.c: 415: }
   859  013212                     l867:
   860                           			; BSR set to: ?
   861                           
   862                           	global	start
   863  013212  EF00  F000         	goto	start
   864                           	opt stack 0
   865                           GLOBAL __end_of_main
   866  013216                     	__end_of_main:
   867                           	FNSIZE	_main,6,4
   868                           ; =============== function _main ends ==========
                                 ==
   869                           
   870                           	signat	_main,8314
   871                           	global	_ToggleLeds
   872                           	global	??_ToggleLeds
   873                           	global	?_ToggleLeds
   874                           
   875                           ; *************** function _ToggleLeds *********
                                 ********
   876                           ; Defined at:
   877                           ;		line 425 in file "../code/main.c"
   878                           ; Parameters:
   879                           ;		None
   880                           ; Auto variables:
   881                           ;		None
   882                           ; Return value:
   883                           ;		type: void 
   884                           ;		size: 0
   885                           ; Registers used:
   886                           ;		wreg, status,2, status,0
   887                           ; Tracked objects:
   888                           ;		On entry : 0/0
   889                           ;		On exit  : 0/0
   890                           ;		Unchanged: 0/0
   891                           ; Data sizes:
   892                           ;		Autos:    0
   893                           ;		Params:   0
   894                           ;		Temp:     0
   895                           ;		Total:    0
   896                           ; This function calls:
   897                           ;		Nothing
   898                           ; This function is called by:
   899                           ;		_main
   900                           ; This function uses a non-reentrant model
   901                           ; 
   902                                   psect   text1,class=CODE,space=0,reloc=2
   903                           
   904                           	opt lm
   905                           	file	"../code/main.c"
   906                           	line	425
   907  000000                     	__size_of_ToggleLeds	equ	__end_of_ToggleLeds-_T
                                 oggleLeds
   908                           ;main.c: 425: void ToggleLeds () {
   909                           	
   910  013216                     _ToggleLeds:		; BSR set to: ?
   911                           
   912                           	opt stack 30
   913                           	line	430
   914  013216  0408               	decf	(0+((c:0)+08h)),c,w
   915  013218  1009               	iorwf (1+((c:0)+08h)),c,w
   916                           
   917  01321A  A4D8               	btfss	status,2
   918  01321C  EF12  F099         	goto	u4321
   919  013220  EF14  F099         	goto	u4320
   920  013224                     u4321:
   921  013224  EF2E  F099         	goto	l990
   922  013228                     u4320:
   923  013228  040A               	decf	(0+((c:0)+0Ah)),c,w
   924  01322A  100B               	iorwf (1+((c:0)+0Ah)),c,w
   925                           
   926  01322C  A4D8               	btfss	status,2
   927  01322E  EF1B  F099         	goto	u4331
   928  013232  EF1D  F099         	goto	u4330
   929  013236                     u4331:
   930  013236  EF2E  F099         	goto	l990
   931  01323A                     u4330:
   932  01323A  040C               	decf	(0+((c:0)+0Ch)),c,w
   933  01323C  100D               	iorwf (1+((c:0)+0Ch)),c,w
   934                           
   935  01323E  A4D8               	btfss	status,2
   936  013240  EF24  F099         	goto	u4341
   937  013244  EF26  F099         	goto	u4340
   938  013248                     u4341:
   939  013248  EF2E  F099         	goto	l990
   940  01324C                     u4340:
   941                           	line	433
   942                           ;main.c: 433: LATA = 0b11101111;
   943  01324C  0EEF               	movlw	low(0EFh)
   944  01324E  6E89               	movwf	((c:3977)),c	;volatile
   945                           	line	435
   946                           ;main.c: 435: LATB = 0b11100000;
   947  013250  0EE0               	movlw	low(0E0h)
   948  013252  6E8A               	movwf	((c:3978)),c	;volatile
   949                           	line	437
   950                           ;main.c: 437: LATC = 0b00001111;
   951  013254  0E0F               	movlw	low(0Fh)
   952  013256  6E8B               	movwf	((c:3979)),c	;volatile
   953                           	line	438
   954                           ;main.c: 438: } else if (led_array[4] == 1 && le
                                 d_array[5] == 1 && led_array[7] == 1) {
   955  013258  EFFF  F09F         	goto	l991
   956                           	
   957  01325C                     l990:		; BSR set to: ?
   958                           
   959  01325C  0408               	decf	(0+((c:0)+08h)),c,w
   960  01325E  1009               	iorwf (1+((c:0)+08h)),c,w
   961                           
   962  013260  A4D8               	btfss	status,2
   963  013262  EF35  F099         	goto	u4351
   964  013266  EF37  F099         	goto	u4350
   965  01326A                     u4351:
   966  01326A  EF51  F099         	goto	l992
   967  01326E                     u4350:
   968  01326E  040A               	decf	(0+((c:0)+0Ah)),c,w
   969  013270  100B               	iorwf (1+((c:0)+0Ah)),c,w
   970                           
   971  013272  A4D8               	btfss	status,2
   972  013274  EF3E  F099         	goto	u4361
   973  013278  EF40  F099         	goto	u4360
   974  01327C                     u4361:
   975  01327C  EF51  F099         	goto	l992
   976  013280                     u4360:
   977  013280  040E               	decf	(0+((c:0)+0Eh)),c,w
   978  013282  100F               	iorwf (1+((c:0)+0Eh)),c,w
   979                           
   980  013284  A4D8               	btfss	status,2
   981  013286  EF47  F099         	goto	u4371
   982  01328A  EF49  F099         	goto	u4370
   983  01328E                     u4371:
   984  01328E  EF51  F099         	goto	l992
   985  013292                     u4370:
   986                           	line	441
   987                           ;main.c: 441: LATA = 0b10111111;
   988  013292  0EBF               	movlw	low(0BFh)
   989  013294  6E89               	movwf	((c:3977)),c	;volatile
   990                           	line	443
   991                           ;main.c: 443: LATB = 0b11100000;
   992  013296  0EE0               	movlw	low(0E0h)
   993  013298  6E8A               	movwf	((c:3978)),c	;volatile
   994                           	line	445
   995                           ;main.c: 445: LATC = 0b00001111;
   996  01329A  0E0F               	movlw	low(0Fh)
   997  01329C  6E8B               	movwf	((c:3979)),c	;volatile
   998                           	line	446
   999                           ;main.c: 446: } else if (led_array[4] == 1 && le
                                 d_array[5] == 1 && led_array[8] == 1) {
  1000  01329E  EFFF  F09F         	goto	l991
  1001                           	
  1002  0132A2                     l992:		; BSR set to: ?
  1003                           
  1004  0132A2  0408               	decf	(0+((c:0)+08h)),c,w
  1005  0132A4  1009               	iorwf (1+((c:0)+08h)),c,w
  1006                           
  1007  0132A6  A4D8               	btfss	status,2
  1008  0132A8  EF58  F099         	goto	u4381
  1009  0132AC  EF5A  F099         	goto	u4380
  1010  0132B0                     u4381:
  1011  0132B0  EF73  F099         	goto	l994
  1012  0132B4                     u4380:
  1013  0132B4  040A               	decf	(0+((c:0)+0Ah)),c,w
  1014  0132B6  100B               	iorwf (1+((c:0)+0Ah)),c,w
  1015                           
  1016  0132B8  A4D8               	btfss	status,2
  1017  0132BA  EF61  F099         	goto	u4391
  1018  0132BE  EF63  F099         	goto	u4390
  1019  0132C2                     u4391:
  1020  0132C2  EF73  F099         	goto	l994
  1021  0132C6                     u4390:
  1022  0132C6  0410               	decf	(0+((c:0)+010h)),c,w
  1023  0132C8  1011               	iorwf (1+((c:0)+010h)),c,w
  1024                           
  1025  0132CA  A4D8               	btfss	status,2
  1026  0132CC  EF6A  F099         	goto	u4401
  1027  0132D0  EF6C  F099         	goto	u4400
  1028  0132D4                     u4401:
  1029  0132D4  EF73  F099         	goto	l994
  1030  0132D8                     u4400:
  1031                           	line	449
  1032                           ;main.c: 449: LATA = 0b11111111;
  1033  0132D8  6889               	setf	((c:3977)),c	;volatile
  1034                           	line	451
  1035                           ;main.c: 451: LATB = 0b11100000;
  1036  0132DA  0EE0               	movlw	low(0E0h)
  1037  0132DC  6E8A               	movwf	((c:3978)),c	;volatile
  1038                           	line	453
  1039                           ;main.c: 453: LATC = 0b00001110;
  1040  0132DE  0E0E               	movlw	low(0Eh)
  1041  0132E0  6E8B               	movwf	((c:3979)),c	;volatile
  1042                           	line	454
  1043                           ;main.c: 454: } else if (led_array[4] == 1 && le
                                 d_array[5] == 1 && led_array[9] == 1) {
  1044  0132E2  EFFF  F09F         	goto	l991
  1045                           	
  1046  0132E6                     l994:		; BSR set to: ?
  1047                           
  1048  0132E6  0408               	decf	(0+((c:0)+08h)),c,w
  1049  0132E8  1009               	iorwf (1+((c:0)+08h)),c,w
  1050                           
  1051  0132EA  A4D8               	btfss	status,2
  1052  0132EC  EF7A  F099         	goto	u4411
  1053  0132F0  EF7C  F099         	goto	u4410
  1054  0132F4                     u4411:
  1055  0132F4  EF95  F099         	goto	l996
  1056  0132F8                     u4410:
  1057  0132F8  040A               	decf	(0+((c:0)+0Ah)),c,w
  1058  0132FA  100B               	iorwf (1+((c:0)+0Ah)),c,w
  1059                           
  1060  0132FC  A4D8               	btfss	status,2
  1061  0132FE  EF83  F099         	goto	u4421
  1062  013302  EF85  F099         	goto	u4420
  1063  013306                     u4421:
  1064  013306  EF95  F099         	goto	l996
  1065  01330A                     u4420:
  1066  01330A  0412               	decf	(0+((c:0)+012h)),c,w
  1067  01330C  1013               	iorwf (1+((c:0)+012h)),c,w
  1068                           
  1069  01330E  A4D8               	btfss	status,2
  1070  013310  EF8C  F099         	goto	u4431
  1071  013314  EF8E  F099         	goto	u4430
  1072  013318                     u4431:
  1073  013318  EF95  F099         	goto	l996
  1074  01331C                     u4430:
  1075                           	line	457
  1076                           ;main.c: 457: LATA = 0b11111111;
  1077  01331C  6889               	setf	((c:3977)),c	;volatile
  1078                           	line	459
  1079                           ;main.c: 459: LATB = 0b11100000;
  1080  01331E  0EE0               	movlw	low(0E0h)
  1081  013320  6E8A               	movwf	((c:3978)),c	;volatile
  1082                           	line	461
  1083                           ;main.c: 461: LATC = 0b00001101;
  1084  013322  0E0D               	movlw	low(0Dh)
  1085  013324  6E8B               	movwf	((c:3979)),c	;volatile
  1086                           	line	462
  1087                           ;main.c: 462: } else if (led_array[4] == 1 && le
                                 d_array[5] == 1 && led_array[10] == 1) {
  1088  013326  EFFF  F09F         	goto	l991
  1089                           	
  1090  01332A                     l996:		; BSR set to: ?
  1091                           
  1092  01332A  0408               	decf	(0+((c:0)+08h)),c,w
  1093  01332C  1009               	iorwf (1+((c:0)+08h)),c,w
  1094                           
  1095  01332E  A4D8               	btfss	status,2
  1096  013330  EF9C  F099         	goto	u4441
  1097  013334  EF9E  F099         	goto	u4440
  1098  013338                     u4441:
  1099  013338  EFB7  F099         	goto	l998
  1100  01333C                     u4440:
  1101  01333C  040A               	decf	(0+((c:0)+0Ah)),c,w
  1102  01333E  100B               	iorwf (1+((c:0)+0Ah)),c,w
  1103                           
  1104  013340  A4D8               	btfss	status,2
  1105  013342  EFA5  F099         	goto	u4451
  1106  013346  EFA7  F099         	goto	u4450
  1107  01334A                     u4451:
  1108  01334A  EFB7  F099         	goto	l998
  1109  01334E                     u4450:
  1110  01334E  0414               	decf	(0+((c:0)+014h)),c,w
  1111  013350  1015               	iorwf (1+((c:0)+014h)),c,w
  1112                           
  1113  013352  A4D8               	btfss	status,2
  1114  013354  EFAE  F099         	goto	u4461
  1115  013358  EFB0  F099         	goto	u4460
  1116  01335C                     u4461:
  1117  01335C  EFB7  F099         	goto	l998
  1118  013360                     u4460:
  1119                           	line	465
  1120                           ;main.c: 465: LATA = 0b11111111;
  1121  013360  6889               	setf	((c:3977)),c	;volatile
  1122                           	line	467
  1123                           ;main.c: 467: LATB = 0b01100000;
  1124  013362  0E60               	movlw	low(060h)
  1125  013364  6E8A               	movwf	((c:3978)),c	;volatile
  1126                           	line	469
  1127                           ;main.c: 469: LATC = 0b00001111;
  1128  013366  0E0F               	movlw	low(0Fh)
  1129  013368  6E8B               	movwf	((c:3979)),c	;volatile
  1130                           	line	470
  1131                           ;main.c: 470: } else if (led_array[4] == 1 && le
                                 d_array[5] == 1 && led_array[11] == 1) {
  1132  01336A  EFFF  F09F         	goto	l991
  1133                           	
  1134  01336E                     l998:		; BSR set to: ?
  1135                           
  1136  01336E  0408               	decf	(0+((c:0)+08h)),c,w
  1137  013370  1009               	iorwf (1+((c:0)+08h)),c,w
  1138                           
  1139  013372  A4D8               	btfss	status,2
  1140  013374  EFBE  F099         	goto	u4471
  1141  013378  EFC0  F099         	goto	u4470
  1142  01337C                     u4471:
  1143  01337C  EFD9  F099         	goto	l1000
  1144  013380                     u4470:
  1145  013380  040A               	decf	(0+((c:0)+0Ah)),c,w
  1146  013382  100B               	iorwf (1+((c:0)+0Ah)),c,w
  1147                           
  1148  013384  A4D8               	btfss	status,2
  1149  013386  EFC7  F099         	goto	u4481
  1150  01338A  EFC9  F099         	goto	u4480
  1151  01338E                     u4481:
  1152  01338E  EFD9  F099         	goto	l1000
  1153  013392                     u4480:
  1154  013392  0416               	decf	(0+((c:0)+016h)),c,w
  1155  013394  1017               	iorwf (1+((c:0)+016h)),c,w
  1156                           
  1157  013396  A4D8               	btfss	status,2
  1158  013398  EFD0  F099         	goto	u4491
  1159  01339C  EFD2  F099         	goto	u4490
  1160  0133A0                     u4491:
  1161  0133A0  EFD9  F099         	goto	l1000
  1162  0133A4                     u4490:
  1163                           	line	473
  1164                           ;main.c: 473: LATA = 0b11111111;
  1165  0133A4  6889               	setf	((c:3977)),c	;volatile
  1166                           	line	475
  1167                           ;main.c: 475: LATB = 0b11100000;
  1168  0133A6  0EE0               	movlw	low(0E0h)
  1169  0133A8  6E8A               	movwf	((c:3978)),c	;volatile
  1170                           	line	477
  1171                           ;main.c: 477: LATC = 0b00001011;
  1172  0133AA  0E0B               	movlw	low(0Bh)
  1173  0133AC  6E8B               	movwf	((c:3979)),c	;volatile
  1174                           	line	478
  1175                           ;main.c: 478: } else if (led_array[4] == 1 && le
                                 d_array[5] == 1 && led_array[12] == 1) {
  1176  0133AE  EFFF  F09F         	goto	l991
  1177                           	
  1178  0133B2                     l1000:		; BSR set to: ?
  1179                           
  1180  0133B2  0408               	decf	(0+((c:0)+08h)),c,w
  1181  0133B4  1009               	iorwf (1+((c:0)+08h)),c,w
  1182                           
  1183  0133B6  A4D8               	btfss	status,2
  1184  0133B8  EFE0  F099         	goto	u4501
  1185  0133BC  EFE2  F099         	goto	u4500
  1186  0133C0                     u4501:
  1187  0133C0  EFFB  F099         	goto	l1002
  1188  0133C4                     u4500:
  1189  0133C4  040A               	decf	(0+((c:0)+0Ah)),c,w
  1190  0133C6  100B               	iorwf (1+((c:0)+0Ah)),c,w
  1191                           
  1192  0133C8  A4D8               	btfss	status,2
  1193  0133CA  EFE9  F099         	goto	u4511
  1194  0133CE  EFEB  F099         	goto	u4510
  1195  0133D2                     u4511:
  1196  0133D2  EFFB  F099         	goto	l1002
  1197  0133D6                     u4510:
  1198  0133D6  0418               	decf	(0+((c:0)+018h)),c,w
  1199  0133D8  1019               	iorwf (1+((c:0)+018h)),c,w
  1200                           
  1201  0133DA  A4D8               	btfss	status,2
  1202  0133DC  EFF2  F099         	goto	u4521
  1203  0133E0  EFF4  F099         	goto	u4520
  1204  0133E4                     u4521:
  1205  0133E4  EFFB  F099         	goto	l1002
  1206  0133E8                     u4520:
  1207                           	line	481
  1208                           ;main.c: 481: LATA = 0b11111111;
  1209  0133E8  6889               	setf	((c:3977)),c	;volatile
  1210                           	line	483
  1211                           ;main.c: 483: LATB = 0b11100000;
  1212  0133EA  0EE0               	movlw	low(0E0h)
  1213  0133EC  6E8A               	movwf	((c:3978)),c	;volatile
  1214                           	line	485
  1215                           ;main.c: 485: LATC = 0b00000111;
  1216  0133EE  0E07               	movlw	low(07h)
  1217  0133F0  6E8B               	movwf	((c:3979)),c	;volatile
  1218                           	line	487
  1219                           ;main.c: 487: } else if (led_array[4] == 1 && le
                                 d_array[6] == 1) {
  1220  0133F2  EFFF  F09F         	goto	l991
  1221                           	
  1222  0133F6                     l1002:		; BSR set to: ?
  1223                           
  1224  0133F6  0408               	decf	(0+((c:0)+08h)),c,w
  1225  0133F8  1009               	iorwf (1+((c:0)+08h)),c,w
  1226                           
  1227  0133FA  A4D8               	btfss	status,2
  1228  0133FC  EF02  F09A         	goto	u4531
  1229  013400  EF04  F09A         	goto	u4530
  1230  013404                     u4531:
  1231  013404  EF15  F09A         	goto	l1004
  1232  013408                     u4530:
  1233  013408  040C               	decf	(0+((c:0)+0Ch)),c,w
  1234  01340A  100D               	iorwf (1+((c:0)+0Ch)),c,w
  1235                           
  1236  01340C  A4D8               	btfss	status,2
  1237  01340E  EF0B  F09A         	goto	u4541
  1238  013412  EF0D  F09A         	goto	u4540
  1239  013416                     u4541:
  1240  013416  EF15  F09A         	goto	l1004
  1241  01341A                     u4540:
  1242                           	line	490
  1243                           ;main.c: 490: LATA = 0b11101111;
  1244  01341A  0EEF               	movlw	low(0EFh)
  1245  01341C  6E89               	movwf	((c:3977)),c	;volatile
  1246                           	line	492
  1247                           ;main.c: 492: LATB = 0b11000000;
  1248  01341E  0EC0               	movlw	low(0C0h)
  1249  013420  6E8A               	movwf	((c:3978)),c	;volatile
  1250                           	line	494
  1251                           ;main.c: 494: LATC = 0b00001111;
  1252  013422  0E0F               	movlw	low(0Fh)
  1253  013424  6E8B               	movwf	((c:3979)),c	;volatile
  1254                           	line	495
  1255                           ;main.c: 495: } else if (led_array[4] == 1 && le
                                 d_array[7] == 1) {
  1256  013426  EFFF  F09F         	goto	l991
  1257                           	
  1258  01342A                     l1004:		; BSR set to: ?
  1259                           
  1260  01342A  0408               	decf	(0+((c:0)+08h)),c,w
  1261  01342C  1009               	iorwf (1+((c:0)+08h)),c,w
  1262                           
  1263  01342E  A4D8               	btfss	status,2
  1264  013430  EF1C  F09A         	goto	u4551
  1265  013434  EF1E  F09A         	goto	u4550
  1266  013438                     u4551:
  1267  013438  EF2F  F09A         	goto	l1006
  1268  01343C                     u4550:
  1269  01343C  040E               	decf	(0+((c:0)+0Eh)),c,w
  1270  01343E  100F               	iorwf (1+((c:0)+0Eh)),c,w
  1271                           
  1272  013440  A4D8               	btfss	status,2
  1273  013442  EF25  F09A         	goto	u4561
  1274  013446  EF27  F09A         	goto	u4560
  1275  01344A                     u4561:
  1276  01344A  EF2F  F09A         	goto	l1006
  1277  01344E                     u4560:
  1278                           	line	498
  1279                           ;main.c: 498: LATA = 0b10111111;
  1280  01344E  0EBF               	movlw	low(0BFh)
  1281  013450  6E89               	movwf	((c:3977)),c	;volatile
  1282                           	line	500
  1283                           ;main.c: 500: LATB = 0b11000000;
  1284  013452  0EC0               	movlw	low(0C0h)
  1285  013454  6E8A               	movwf	((c:3978)),c	;volatile
  1286                           	line	502
  1287                           ;main.c: 502: LATC = 0b00001111;
  1288  013456  0E0F               	movlw	low(0Fh)
  1289  013458  6E8B               	movwf	((c:3979)),c	;volatile
  1290                           	line	503
  1291                           ;main.c: 503: } else if (led_array[4] == 1 && le
                                 d_array[8] == 1) {
  1292  01345A  EFFF  F09F         	goto	l991
  1293                           	
  1294  01345E                     l1006:		; BSR set to: ?
  1295                           
  1296  01345E  0408               	decf	(0+((c:0)+08h)),c,w
  1297  013460  1009               	iorwf (1+((c:0)+08h)),c,w
  1298                           
  1299  013462  A4D8               	btfss	status,2
  1300  013464  EF36  F09A         	goto	u4571
  1301  013468  EF38  F09A         	goto	u4570
  1302  01346C                     u4571:
  1303  01346C  EF48  F09A         	goto	l1008
  1304  013470                     u4570:
  1305  013470  0410               	decf	(0+((c:0)+010h)),c,w
  1306  013472  1011               	iorwf (1+((c:0)+010h)),c,w
  1307                           
  1308  013474  A4D8               	btfss	status,2
  1309  013476  EF3F  F09A         	goto	u4581
  1310  01347A  EF41  F09A         	goto	u4580
  1311  01347E                     u4581:
  1312  01347E  EF48  F09A         	goto	l1008
  1313  013482                     u4580:
  1314                           	line	506
  1315                           ;main.c: 506: LATA = 0b11111111;
  1316  013482  6889               	setf	((c:3977)),c	;volatile
  1317                           	line	508
  1318                           ;main.c: 508: LATB = 0b11000000;
  1319  013484  0EC0               	movlw	low(0C0h)
  1320  013486  6E8A               	movwf	((c:3978)),c	;volatile
  1321                           	line	510
  1322                           ;main.c: 510: LATC = 0b00001110;
  1323  013488  0E0E               	movlw	low(0Eh)
  1324  01348A  6E8B               	movwf	((c:3979)),c	;volatile
  1325                           	line	511
  1326                           ;main.c: 511: } else if (led_array[4] == 1 && le
                                 d_array[9] == 1) {
  1327  01348C  EFFF  F09F         	goto	l991
  1328                           	
  1329  013490                     l1008:		; BSR set to: ?
  1330                           
  1331  013490  0408               	decf	(0+((c:0)+08h)),c,w
  1332  013492  1009               	iorwf (1+((c:0)+08h)),c,w
  1333                           
  1334  013494  A4D8               	btfss	status,2
  1335  013496  EF4F  F09A         	goto	u4591
  1336  01349A  EF51  F09A         	goto	u4590
  1337  01349E                     u4591:
  1338  01349E  EF61  F09A         	goto	l1010
  1339  0134A2                     u4590:
  1340  0134A2  0412               	decf	(0+((c:0)+012h)),c,w
  1341  0134A4  1013               	iorwf (1+((c:0)+012h)),c,w
  1342                           
  1343  0134A6  A4D8               	btfss	status,2
  1344  0134A8  EF58  F09A         	goto	u4601
  1345  0134AC  EF5A  F09A         	goto	u4600
  1346  0134B0                     u4601:
  1347  0134B0  EF61  F09A         	goto	l1010
  1348  0134B4                     u4600:
  1349                           	line	514
  1350                           ;main.c: 514: LATA = 0b11111111;
  1351  0134B4  6889               	setf	((c:3977)),c	;volatile
  1352                           	line	516
  1353                           ;main.c: 516: LATB = 0b11000000;
  1354  0134B6  0EC0               	movlw	low(0C0h)
  1355  0134B8  6E8A               	movwf	((c:3978)),c	;volatile
  1356                           	line	518
  1357                           ;main.c: 518: LATC = 0b00001101;
  1358  0134BA  0E0D               	movlw	low(0Dh)
  1359  0134BC  6E8B               	movwf	((c:3979)),c	;volatile
  1360                           	line	520
  1361                           ;main.c: 520: } else if (led_array[4] == 1 && le
                                 d_array[10] == 1) {
  1362  0134BE  EFFF  F09F         	goto	l991
  1363                           	
  1364  0134C2                     l1010:		; BSR set to: ?
  1365                           
  1366  0134C2  0408               	decf	(0+((c:0)+08h)),c,w
  1367  0134C4  1009               	iorwf (1+((c:0)+08h)),c,w
  1368                           
  1369  0134C6  A4D8               	btfss	status,2
  1370  0134C8  EF68  F09A         	goto	u4611
  1371  0134CC  EF6A  F09A         	goto	u4610
  1372  0134D0                     u4611:
  1373  0134D0  EF7A  F09A         	goto	l1012
  1374  0134D4                     u4610:
  1375  0134D4  0414               	decf	(0+((c:0)+014h)),c,w
  1376  0134D6  1015               	iorwf (1+((c:0)+014h)),c,w
  1377                           
  1378  0134D8  A4D8               	btfss	status,2
  1379  0134DA  EF71  F09A         	goto	u4621
  1380  0134DE  EF73  F09A         	goto	u4620
  1381  0134E2                     u4621:
  1382  0134E2  EF7A  F09A         	goto	l1012
  1383  0134E6                     u4620:
  1384                           	line	523
  1385                           ;main.c: 523: LATA = 0b11111111;
  1386  0134E6  6889               	setf	((c:3977)),c	;volatile
  1387                           	line	525
  1388                           ;main.c: 525: LATB = 0b01000000;
  1389  0134E8  0E40               	movlw	low(040h)
  1390  0134EA  6E8A               	movwf	((c:3978)),c	;volatile
  1391                           	line	527
  1392                           ;main.c: 527: LATC = 0b00001111;
  1393  0134EC  0E0F               	movlw	low(0Fh)
  1394  0134EE  6E8B               	movwf	((c:3979)),c	;volatile
  1395                           	line	529
  1396                           ;main.c: 529: } else if (led_array[4] == 1 && le
                                 d_array[11] == 1) {
  1397  0134F0  EFFF  F09F         	goto	l991
  1398                           	
  1399  0134F4                     l1012:		; BSR set to: ?
  1400                           
  1401  0134F4  0408               	decf	(0+((c:0)+08h)),c,w
  1402  0134F6  1009               	iorwf (1+((c:0)+08h)),c,w
  1403                           
  1404  0134F8  A4D8               	btfss	status,2
  1405  0134FA  EF81  F09A         	goto	u4631
  1406  0134FE  EF83  F09A         	goto	u4630
  1407  013502                     u4631:
  1408  013502  EF93  F09A         	goto	l1014
  1409  013506                     u4630:
  1410  013506  0416               	decf	(0+((c:0)+016h)),c,w
  1411  013508  1017               	iorwf (1+((c:0)+016h)),c,w
  1412                           
  1413  01350A  A4D8               	btfss	status,2
  1414  01350C  EF8A  F09A         	goto	u4641
  1415  013510  EF8C  F09A         	goto	u4640
  1416  013514                     u4641:
  1417  013514  EF93  F09A         	goto	l1014
  1418  013518                     u4640:
  1419                           	line	532
  1420                           ;main.c: 532: LATA = 0b11111111;
  1421  013518  6889               	setf	((c:3977)),c	;volatile
  1422                           	line	534
  1423                           ;main.c: 534: LATB = 0b11000000;
  1424  01351A  0EC0               	movlw	low(0C0h)
  1425  01351C  6E8A               	movwf	((c:3978)),c	;volatile
  1426                           	line	536
  1427                           ;main.c: 536: LATC = 0b00001011;
  1428  01351E  0E0B               	movlw	low(0Bh)
  1429  013520  6E8B               	movwf	((c:3979)),c	;volatile
  1430                           	line	538
  1431                           ;main.c: 538: } else if (led_array[4] == 1 && le
                                 d_array[12] == 1) {
  1432  013522  EFFF  F09F         	goto	l991
  1433                           	
  1434  013526                     l1014:		; BSR set to: ?
  1435                           
  1436  013526  0408               	decf	(0+((c:0)+08h)),c,w
  1437  013528  1009               	iorwf (1+((c:0)+08h)),c,w
  1438                           
  1439  01352A  A4D8               	btfss	status,2
  1440  01352C  EF9A  F09A         	goto	u4651
  1441  013530  EF9C  F09A         	goto	u4650
  1442  013534                     u4651:
  1443  013534  EFAC  F09A         	goto	l1016
  1444  013538                     u4650:
  1445  013538  0418               	decf	(0+((c:0)+018h)),c,w
  1446  01353A  1019               	iorwf (1+((c:0)+018h)),c,w
  1447                           
  1448  01353C  A4D8               	btfss	status,2
  1449  01353E  EFA3  F09A         	goto	u4661
  1450  013542  EFA5  F09A         	goto	u4660
  1451  013546                     u4661:
  1452  013546  EFAC  F09A         	goto	l1016
  1453  01354A                     u4660:
  1454                           	line	541
  1455                           ;main.c: 541: LATA = 0b11111111;
  1456  01354A  6889               	setf	((c:3977)),c	;volatile
  1457                           	line	543
  1458                           ;main.c: 543: LATB = 0b11000000;
  1459  01354C  0EC0               	movlw	low(0C0h)
  1460  01354E  6E8A               	movwf	((c:3978)),c	;volatile
  1461                           	line	545
  1462                           ;main.c: 545: LATC = 0b00000111;
  1463  013550  0E07               	movlw	low(07h)
  1464  013552  6E8B               	movwf	((c:3979)),c	;volatile
  1465                           	line	547
  1466                           ;main.c: 547: } else if (led_array[5] == 1 && le
                                 d_array[6] == 1) {
  1467  013554  EFFF  F09F         	goto	l991
  1468                           	
  1469  013558                     l1016:		; BSR set to: ?
  1470                           
  1471  013558  040A               	decf	(0+((c:0)+0Ah)),c,w
  1472  01355A  100B               	iorwf (1+((c:0)+0Ah)),c,w
  1473                           
  1474  01355C  A4D8               	btfss	status,2
  1475  01355E  EFB3  F09A         	goto	u4671
  1476  013562  EFB5  F09A         	goto	u4670
  1477  013566                     u4671:
  1478  013566  EFC6  F09A         	goto	l1018
  1479  01356A                     u4670:
  1480  01356A  040C               	decf	(0+((c:0)+0Ch)),c,w
  1481  01356C  100D               	iorwf (1+((c:0)+0Ch)),c,w
  1482                           
  1483  01356E  A4D8               	btfss	status,2
  1484  013570  EFBC  F09A         	goto	u4681
  1485  013574  EFBE  F09A         	goto	u4680
  1486  013578                     u4681:
  1487  013578  EFC6  F09A         	goto	l1018
  1488  01357C                     u4680:
  1489                           	line	550
  1490                           ;main.c: 550: LATA = 0b11101111;
  1491  01357C  0EEF               	movlw	low(0EFh)
  1492  01357E  6E89               	movwf	((c:3977)),c	;volatile
  1493                           	line	552
  1494                           ;main.c: 552: LATB = 0b10100000;
  1495  013580  0EA0               	movlw	low(0A0h)
  1496  013582  6E8A               	movwf	((c:3978)),c	;volatile
  1497                           	line	554
  1498                           ;main.c: 554: LATC = 0b00001111;
  1499  013584  0E0F               	movlw	low(0Fh)
  1500  013586  6E8B               	movwf	((c:3979)),c	;volatile
  1501                           	line	556
  1502                           ;main.c: 556: } else if (led_array[5] == 1 && le
                                 d_array[7] == 1) {
  1503  013588  EFFF  F09F         	goto	l991
  1504                           	
  1505  01358C                     l1018:		; BSR set to: ?
  1506                           
  1507  01358C  040A               	decf	(0+((c:0)+0Ah)),c,w
  1508  01358E  100B               	iorwf (1+((c:0)+0Ah)),c,w
  1509                           
  1510  013590  A4D8               	btfss	status,2
  1511  013592  EFCD  F09A         	goto	u4691
  1512  013596  EFCF  F09A         	goto	u4690
  1513  01359A                     u4691:
  1514  01359A  EFE0  F09A         	goto	l1020
  1515  01359E                     u4690:
  1516  01359E  040E               	decf	(0+((c:0)+0Eh)),c,w
  1517  0135A0  100F               	iorwf (1+((c:0)+0Eh)),c,w
  1518                           
  1519  0135A2  A4D8               	btfss	status,2
  1520  0135A4  EFD6  F09A         	goto	u4701
  1521  0135A8  EFD8  F09A         	goto	u4700
  1522  0135AC                     u4701:
  1523  0135AC  EFE0  F09A         	goto	l1020
  1524  0135B0                     u4700:
  1525                           	line	559
  1526                           ;main.c: 559: LATA = 0b10111111;
  1527  0135B0  0EBF               	movlw	low(0BFh)
  1528  0135B2  6E89               	movwf	((c:3977)),c	;volatile
  1529                           	line	561
  1530                           ;main.c: 561: LATB = 0b10100000;
  1531  0135B4  0EA0               	movlw	low(0A0h)
  1532  0135B6  6E8A               	movwf	((c:3978)),c	;volatile
  1533                           	line	563
  1534                           ;main.c: 563: LATC = 0b00001111;
  1535  0135B8  0E0F               	movlw	low(0Fh)
  1536  0135BA  6E8B               	movwf	((c:3979)),c	;volatile
  1537                           	line	565
  1538                           ;main.c: 565: } else if (led_array[5] == 1 && le
                                 d_array[8] == 1) {
  1539  0135BC  EFFF  F09F         	goto	l991
  1540                           	
  1541  0135C0                     l1020:		; BSR set to: ?
  1542                           
  1543  0135C0  040A               	decf	(0+((c:0)+0Ah)),c,w
  1544  0135C2  100B               	iorwf (1+((c:0)+0Ah)),c,w
  1545                           
  1546  0135C4  A4D8               	btfss	status,2
  1547  0135C6  EFE7  F09A         	goto	u4711
  1548  0135CA  EFE9  F09A         	goto	u4710
  1549  0135CE                     u4711:
  1550  0135CE  EFF9  F09A         	goto	l1022
  1551  0135D2                     u4710:
  1552  0135D2  0410               	decf	(0+((c:0)+010h)),c,w
  1553  0135D4  1011               	iorwf (1+((c:0)+010h)),c,w
  1554                           
  1555  0135D6  A4D8               	btfss	status,2
  1556  0135D8  EFF0  F09A         	goto	u4721
  1557  0135DC  EFF2  F09A         	goto	u4720
  1558  0135E0                     u4721:
  1559  0135E0  EFF9  F09A         	goto	l1022
  1560  0135E4                     u4720:
  1561                           	line	568
  1562                           ;main.c: 568: LATA = 0b11111111;
  1563  0135E4  6889               	setf	((c:3977)),c	;volatile
  1564                           	line	570
  1565                           ;main.c: 570: LATB = 0b10100000;
  1566  0135E6  0EA0               	movlw	low(0A0h)
  1567  0135E8  6E8A               	movwf	((c:3978)),c	;volatile
  1568                           	line	572
  1569                           ;main.c: 572: LATC = 0b00001110;
  1570  0135EA  0E0E               	movlw	low(0Eh)
  1571  0135EC  6E8B               	movwf	((c:3979)),c	;volatile
  1572                           	line	574
  1573                           ;main.c: 574: } else if (led_array[5] == 1 && le
                                 d_array[9] == 1) {
  1574  0135EE  EFFF  F09F         	goto	l991
  1575                           	
  1576  0135F2                     l1022:		; BSR set to: ?
  1577                           
  1578  0135F2  040A               	decf	(0+((c:0)+0Ah)),c,w
  1579  0135F4  100B               	iorwf (1+((c:0)+0Ah)),c,w
  1580                           
  1581  0135F6  A4D8               	btfss	status,2
  1582  0135F8  EF00  F09B         	goto	u4731
  1583  0135FC  EF02  F09B         	goto	u4730
  1584  013600                     u4731:
  1585  013600  EF12  F09B         	goto	l1024
  1586  013604                     u4730:
  1587  013604  0412               	decf	(0+((c:0)+012h)),c,w
  1588  013606  1013               	iorwf (1+((c:0)+012h)),c,w
  1589                           
  1590  013608  A4D8               	btfss	status,2
  1591  01360A  EF09  F09B         	goto	u4741
  1592  01360E  EF0B  F09B         	goto	u4740
  1593  013612                     u4741:
  1594  013612  EF12  F09B         	goto	l1024
  1595  013616                     u4740:
  1596                           	line	577
  1597                           ;main.c: 577: LATA = 0b11111111;
  1598  013616  6889               	setf	((c:3977)),c	;volatile
  1599                           	line	579
  1600                           ;main.c: 579: LATB = 0b10100000;
  1601  013618  0EA0               	movlw	low(0A0h)
  1602  01361A  6E8A               	movwf	((c:3978)),c	;volatile
  1603                           	line	581
  1604                           ;main.c: 581: LATC = 0b00001101;
  1605  01361C  0E0D               	movlw	low(0Dh)
  1606  01361E  6E8B               	movwf	((c:3979)),c	;volatile
  1607                           	line	583
  1608                           ;main.c: 583: } else if (led_array[5] == 1 && le
                                 d_array[10] == 1) {
  1609  013620  EFFF  F09F         	goto	l991
  1610                           	
  1611  013624                     l1024:		; BSR set to: ?
  1612                           
  1613  013624  040A               	decf	(0+((c:0)+0Ah)),c,w
  1614  013626  100B               	iorwf (1+((c:0)+0Ah)),c,w
  1615                           
  1616  013628  A4D8               	btfss	status,2
  1617  01362A  EF19  F09B         	goto	u4751
  1618  01362E  EF1B  F09B         	goto	u4750
  1619  013632                     u4751:
  1620  013632  EF2B  F09B         	goto	l1026
  1621  013636                     u4750:
  1622  013636  0414               	decf	(0+((c:0)+014h)),c,w
  1623  013638  1015               	iorwf (1+((c:0)+014h)),c,w
  1624                           
  1625  01363A  A4D8               	btfss	status,2
  1626  01363C  EF22  F09B         	goto	u4761
  1627  013640  EF24  F09B         	goto	u4760
  1628  013644                     u4761:
  1629  013644  EF2B  F09B         	goto	l1026
  1630  013648                     u4760:
  1631                           	line	586
  1632                           ;main.c: 586: LATA = 0b11111111;
  1633  013648  6889               	setf	((c:3977)),c	;volatile
  1634                           	line	588
  1635                           ;main.c: 588: LATB = 0b00100000;
  1636  01364A  0E20               	movlw	low(020h)
  1637  01364C  6E8A               	movwf	((c:3978)),c	;volatile
  1638                           	line	590
  1639                           ;main.c: 590: LATC = 0b00001111;
  1640  01364E  0E0F               	movlw	low(0Fh)
  1641  013650  6E8B               	movwf	((c:3979)),c	;volatile
  1642                           	line	592
  1643                           ;main.c: 592: } else if (led_array[5] == 1 && le
                                 d_array[11] == 1) {
  1644  013652  EFFF  F09F         	goto	l991
  1645                           	
  1646  013656                     l1026:		; BSR set to: ?
  1647                           
  1648  013656  040A               	decf	(0+((c:0)+0Ah)),c,w
  1649  013658  100B               	iorwf (1+((c:0)+0Ah)),c,w
  1650                           
  1651  01365A  A4D8               	btfss	status,2
  1652  01365C  EF32  F09B         	goto	u4771
  1653  013660  EF34  F09B         	goto	u4770
  1654  013664                     u4771:
  1655  013664  EF44  F09B         	goto	l1028
  1656  013668                     u4770:
  1657  013668  0416               	decf	(0+((c:0)+016h)),c,w
  1658  01366A  1017               	iorwf (1+((c:0)+016h)),c,w
  1659                           
  1660  01366C  A4D8               	btfss	status,2
  1661  01366E  EF3B  F09B         	goto	u4781
  1662  013672  EF3D  F09B         	goto	u4780
  1663  013676                     u4781:
  1664  013676  EF44  F09B         	goto	l1028
  1665  01367A                     u4780:
  1666                           	line	595
  1667                           ;main.c: 595: LATA = 0b11111111;
  1668  01367A  6889               	setf	((c:3977)),c	;volatile
  1669                           	line	597
  1670                           ;main.c: 597: LATB = 0b10100000;
  1671  01367C  0EA0               	movlw	low(0A0h)
  1672  01367E  6E8A               	movwf	((c:3978)),c	;volatile
  1673                           	line	599
  1674                           ;main.c: 599: LATC = 0b00001011;
  1675  013680  0E0B               	movlw	low(0Bh)
  1676  013682  6E8B               	movwf	((c:3979)),c	;volatile
  1677                           	line	601
  1678                           ;main.c: 601: } else if (led_array[5] == 1 && le
                                 d_array[12] == 1) {
  1679  013684  EFFF  F09F         	goto	l991
  1680                           	
  1681  013688                     l1028:		; BSR set to: ?
  1682                           
  1683  013688  040A               	decf	(0+((c:0)+0Ah)),c,w
  1684  01368A  100B               	iorwf (1+((c:0)+0Ah)),c,w
  1685                           
  1686  01368C  A4D8               	btfss	status,2
  1687  01368E  EF4B  F09B         	goto	u4791
  1688  013692  EF4D  F09B         	goto	u4790
  1689  013696                     u4791:
  1690  013696  EF5D  F09B         	goto	l1030
  1691  01369A                     u4790:
  1692  01369A  0418               	decf	(0+((c:0)+018h)),c,w
  1693  01369C  1019               	iorwf (1+((c:0)+018h)),c,w
  1694                           
  1695  01369E  A4D8               	btfss	status,2
  1696  0136A0  EF54  F09B         	goto	u4801
  1697  0136A4  EF56  F09B         	goto	u4800
  1698  0136A8                     u4801:
  1699  0136A8  EF5D  F09B         	goto	l1030
  1700  0136AC                     u4800:
  1701                           	line	604
  1702                           ;main.c: 604: LATA = 0b11111111;
  1703  0136AC  6889               	setf	((c:3977)),c	;volatile
  1704                           	line	606
  1705                           ;main.c: 606: LATB = 0b10100000;
  1706  0136AE  0EA0               	movlw	low(0A0h)
  1707  0136B0  6E8A               	movwf	((c:3978)),c	;volatile
  1708                           	line	608
  1709                           ;main.c: 608: LATC = 0b00000111;
  1710  0136B2  0E07               	movlw	low(07h)
  1711  0136B4  6E8B               	movwf	((c:3979)),c	;volatile
  1712                           	line	609
  1713                           ;main.c: 609: }
  1714  0136B6  EFFF  F09F         	goto	l991
  1715                           	line	612
  1716                           	
  1717  0136BA                     l1030:		; BSR set to: ?
  1718                           
  1719                           ;main.c: 612: else if (led_array[2] == 1 && led_
                                 array[3] == 1 && led_array[6] == 1) {
  1720  0136BA  0404               	decf	(0+((c:0)+04h)),c,w
  1721  0136BC  1005               	iorwf (1+((c:0)+04h)),c,w
  1722                           
  1723  0136BE  A4D8               	btfss	status,2
  1724  0136C0  EF64  F09B         	goto	u4811
  1725  0136C4  EF66  F09B         	goto	u4810
  1726  0136C8                     u4811:
  1727  0136C8  EF80  F09B         	goto	l1032
  1728  0136CC                     u4810:
  1729  0136CC  0406               	decf	(0+((c:0)+06h)),c,w
  1730  0136CE  1007               	iorwf (1+((c:0)+06h)),c,w
  1731                           
  1732  0136D0  A4D8               	btfss	status,2
  1733  0136D2  EF6D  F09B         	goto	u4821
  1734  0136D6  EF6F  F09B         	goto	u4820
  1735  0136DA                     u4821:
  1736  0136DA  EF80  F09B         	goto	l1032
  1737  0136DE                     u4820:
  1738  0136DE  040C               	decf	(0+((c:0)+0Ch)),c,w
  1739  0136E0  100D               	iorwf (1+((c:0)+0Ch)),c,w
  1740                           
  1741  0136E2  A4D8               	btfss	status,2
  1742  0136E4  EF76  F09B         	goto	u4831
  1743  0136E8  EF78  F09B         	goto	u4830
  1744  0136EC                     u4831:
  1745  0136EC  EF80  F09B         	goto	l1032
  1746  0136F0                     u4830:
  1747                           	line	615
  1748                           ;main.c: 615: LATA = 0b11101111;
  1749  0136F0  0EEF               	movlw	low(0EFh)
  1750  0136F2  6E89               	movwf	((c:3977)),c	;volatile
  1751                           	line	617
  1752                           ;main.c: 617: LATB = 0b10001100;
  1753  0136F4  0E8C               	movlw	low(08Ch)
  1754  0136F6  6E8A               	movwf	((c:3978)),c	;volatile
  1755                           	line	619
  1756                           ;main.c: 619: LATC = 0b00001111;
  1757  0136F8  0E0F               	movlw	low(0Fh)
  1758  0136FA  6E8B               	movwf	((c:3979)),c	;volatile
  1759                           	line	621
  1760                           ;main.c: 621: } else if (led_array[2] == 1 && le
                                 d_array[3] == 1 && led_array[7] == 1) {
  1761  0136FC  EFFF  F09F         	goto	l991
  1762                           	
  1763  013700                     l1032:		; BSR set to: ?
  1764                           
  1765  013700  0404               	decf	(0+((c:0)+04h)),c,w
  1766  013702  1005               	iorwf (1+((c:0)+04h)),c,w
  1767                           
  1768  013704  A4D8               	btfss	status,2
  1769  013706  EF87  F09B         	goto	u4841
  1770  01370A  EF89  F09B         	goto	u4840
  1771  01370E                     u4841:
  1772  01370E  EFA3  F09B         	goto	l1034
  1773  013712                     u4840:
  1774  013712  0406               	decf	(0+((c:0)+06h)),c,w
  1775  013714  1007               	iorwf (1+((c:0)+06h)),c,w
  1776                           
  1777  013716  A4D8               	btfss	status,2
  1778  013718  EF90  F09B         	goto	u4851
  1779  01371C  EF92  F09B         	goto	u4850
  1780  013720                     u4851:
  1781  013720  EFA3  F09B         	goto	l1034
  1782  013724                     u4850:
  1783  013724  040E               	decf	(0+((c:0)+0Eh)),c,w
  1784  013726  100F               	iorwf (1+((c:0)+0Eh)),c,w
  1785                           
  1786  013728  A4D8               	btfss	status,2
  1787  01372A  EF99  F09B         	goto	u4861
  1788  01372E  EF9B  F09B         	goto	u4860
  1789  013732                     u4861:
  1790  013732  EFA3  F09B         	goto	l1034
  1791  013736                     u4860:
  1792                           	line	624
  1793                           ;main.c: 624: LATA = 0b10111111;
  1794  013736  0EBF               	movlw	low(0BFh)
  1795  013738  6E89               	movwf	((c:3977)),c	;volatile
  1796                           	line	626
  1797                           ;main.c: 626: LATB = 0b10001100;
  1798  01373A  0E8C               	movlw	low(08Ch)
  1799  01373C  6E8A               	movwf	((c:3978)),c	;volatile
  1800                           	line	628
  1801                           ;main.c: 628: LATC = 0b00001111;
  1802  01373E  0E0F               	movlw	low(0Fh)
  1803  013740  6E8B               	movwf	((c:3979)),c	;volatile
  1804                           	line	630
  1805                           ;main.c: 630: } else if (led_array[2] == 1 && le
                                 d_array[3] == 1 && led_array[8] == 1) {
  1806  013742  EFFF  F09F         	goto	l991
  1807                           	
  1808  013746                     l1034:		; BSR set to: ?
  1809                           
  1810  013746  0404               	decf	(0+((c:0)+04h)),c,w
  1811  013748  1005               	iorwf (1+((c:0)+04h)),c,w
  1812                           
  1813  01374A  A4D8               	btfss	status,2
  1814  01374C  EFAA  F09B         	goto	u4871
  1815  013750  EFAC  F09B         	goto	u4870
  1816  013754                     u4871:
  1817  013754  EFC5  F09B         	goto	l1036
  1818  013758                     u4870:
  1819  013758  0406               	decf	(0+((c:0)+06h)),c,w
  1820  01375A  1007               	iorwf (1+((c:0)+06h)),c,w
  1821                           
  1822  01375C  A4D8               	btfss	status,2
  1823  01375E  EFB3  F09B         	goto	u4881
  1824  013762  EFB5  F09B         	goto	u4880
  1825  013766                     u4881:
  1826  013766  EFC5  F09B         	goto	l1036
  1827  01376A                     u4880:
  1828  01376A  0410               	decf	(0+((c:0)+010h)),c,w
  1829  01376C  1011               	iorwf (1+((c:0)+010h)),c,w
  1830                           
  1831  01376E  A4D8               	btfss	status,2
  1832  013770  EFBC  F09B         	goto	u4891
  1833  013774  EFBE  F09B         	goto	u4890
  1834  013778                     u4891:
  1835  013778  EFC5  F09B         	goto	l1036
  1836  01377C                     u4890:
  1837                           	line	633
  1838                           ;main.c: 633: LATA = 0b11111111;
  1839  01377C  6889               	setf	((c:3977)),c	;volatile
  1840                           	line	635
  1841                           ;main.c: 635: LATB = 0b10001100;
  1842  01377E  0E8C               	movlw	low(08Ch)
  1843  013780  6E8A               	movwf	((c:3978)),c	;volatile
  1844                           	line	637
  1845                           ;main.c: 637: LATC = 0b00001110;
  1846  013782  0E0E               	movlw	low(0Eh)
  1847  013784  6E8B               	movwf	((c:3979)),c	;volatile
  1848                           	line	639
  1849                           ;main.c: 639: } else if (led_array[2] == 1 && le
                                 d_array[3] == 1 && led_array[9] == 1) {
  1850  013786  EFFF  F09F         	goto	l991
  1851                           	
  1852  01378A                     l1036:		; BSR set to: ?
  1853                           
  1854  01378A  0404               	decf	(0+((c:0)+04h)),c,w
  1855  01378C  1005               	iorwf (1+((c:0)+04h)),c,w
  1856                           
  1857  01378E  A4D8               	btfss	status,2
  1858  013790  EFCC  F09B         	goto	u4901
  1859  013794  EFCE  F09B         	goto	u4900
  1860  013798                     u4901:
  1861  013798  EFE7  F09B         	goto	l1038
  1862  01379C                     u4900:
  1863  01379C  0406               	decf	(0+((c:0)+06h)),c,w
  1864  01379E  1007               	iorwf (1+((c:0)+06h)),c,w
  1865                           
  1866  0137A0  A4D8               	btfss	status,2
  1867  0137A2  EFD5  F09B         	goto	u4911
  1868  0137A6  EFD7  F09B         	goto	u4910
  1869  0137AA                     u4911:
  1870  0137AA  EFE7  F09B         	goto	l1038
  1871  0137AE                     u4910:
  1872  0137AE  0412               	decf	(0+((c:0)+012h)),c,w
  1873  0137B0  1013               	iorwf (1+((c:0)+012h)),c,w
  1874                           
  1875  0137B2  A4D8               	btfss	status,2
  1876  0137B4  EFDE  F09B         	goto	u4921
  1877  0137B8  EFE0  F09B         	goto	u4920
  1878  0137BC                     u4921:
  1879  0137BC  EFE7  F09B         	goto	l1038
  1880  0137C0                     u4920:
  1881                           	line	642
  1882                           ;main.c: 642: LATA = 0b11111111;
  1883  0137C0  6889               	setf	((c:3977)),c	;volatile
  1884                           	line	644
  1885                           ;main.c: 644: LATB = 0b10001100;
  1886  0137C2  0E8C               	movlw	low(08Ch)
  1887  0137C4  6E8A               	movwf	((c:3978)),c	;volatile
  1888                           	line	646
  1889                           ;main.c: 646: LATC = 0b00001101;
  1890  0137C6  0E0D               	movlw	low(0Dh)
  1891  0137C8  6E8B               	movwf	((c:3979)),c	;volatile
  1892                           	line	647
  1893                           ;main.c: 647: } else if (led_array[2] == 1 && le
                                 d_array[3] == 1 && led_array[10] == 1) {
  1894  0137CA  EFFF  F09F         	goto	l991
  1895                           	
  1896  0137CE                     l1038:		; BSR set to: ?
  1897                           
  1898  0137CE  0404               	decf	(0+((c:0)+04h)),c,w
  1899  0137D0  1005               	iorwf (1+((c:0)+04h)),c,w
  1900                           
  1901  0137D2  A4D8               	btfss	status,2
  1902  0137D4  EFEE  F09B         	goto	u4931
  1903  0137D8  EFF0  F09B         	goto	u4930
  1904  0137DC                     u4931:
  1905  0137DC  EF09  F09C         	goto	l1040
  1906  0137E0                     u4930:
  1907  0137E0  0406               	decf	(0+((c:0)+06h)),c,w
  1908  0137E2  1007               	iorwf (1+((c:0)+06h)),c,w
  1909                           
  1910  0137E4  A4D8               	btfss	status,2
  1911  0137E6  EFF7  F09B         	goto	u4941
  1912  0137EA  EFF9  F09B         	goto	u4940
  1913  0137EE                     u4941:
  1914  0137EE  EF09  F09C         	goto	l1040
  1915  0137F2                     u4940:
  1916  0137F2  0414               	decf	(0+((c:0)+014h)),c,w
  1917  0137F4  1015               	iorwf (1+((c:0)+014h)),c,w
  1918                           
  1919  0137F6  A4D8               	btfss	status,2
  1920  0137F8  EF00  F09C         	goto	u4951
  1921  0137FC  EF02  F09C         	goto	u4950
  1922  013800                     u4951:
  1923  013800  EF09  F09C         	goto	l1040
  1924  013804                     u4950:
  1925                           	line	650
  1926                           ;main.c: 650: LATA = 0b11111111;
  1927  013804  6889               	setf	((c:3977)),c	;volatile
  1928                           	line	652
  1929                           ;main.c: 652: LATB = 0b00001100;
  1930  013806  0E0C               	movlw	low(0Ch)
  1931  013808  6E8A               	movwf	((c:3978)),c	;volatile
  1932                           	line	654
  1933                           ;main.c: 654: LATC = 0b00001111;
  1934  01380A  0E0F               	movlw	low(0Fh)
  1935  01380C  6E8B               	movwf	((c:3979)),c	;volatile
  1936                           	line	655
  1937                           ;main.c: 655: } else if (led_array[2] == 1 && le
                                 d_array[3] == 1 && led_array[11] == 1) {
  1938  01380E  EFFF  F09F         	goto	l991
  1939                           	
  1940  013812                     l1040:		; BSR set to: ?
  1941                           
  1942  013812  0404               	decf	(0+((c:0)+04h)),c,w
  1943  013814  1005               	iorwf (1+((c:0)+04h)),c,w
  1944                           
  1945  013816  A4D8               	btfss	status,2
  1946  013818  EF10  F09C         	goto	u4961
  1947  01381C  EF12  F09C         	goto	u4960
  1948  013820                     u4961:
  1949  013820  EF2B  F09C         	goto	l1042
  1950  013824                     u4960:
  1951  013824  0406               	decf	(0+((c:0)+06h)),c,w
  1952  013826  1007               	iorwf (1+((c:0)+06h)),c,w
  1953                           
  1954  013828  A4D8               	btfss	status,2
  1955  01382A  EF19  F09C         	goto	u4971
  1956  01382E  EF1B  F09C         	goto	u4970
  1957  013832                     u4971:
  1958  013832  EF2B  F09C         	goto	l1042
  1959  013836                     u4970:
  1960  013836  0416               	decf	(0+((c:0)+016h)),c,w
  1961  013838  1017               	iorwf (1+((c:0)+016h)),c,w
  1962                           
  1963  01383A  A4D8               	btfss	status,2
  1964  01383C  EF22  F09C         	goto	u4981
  1965  013840  EF24  F09C         	goto	u4980
  1966  013844                     u4981:
  1967  013844  EF2B  F09C         	goto	l1042
  1968  013848                     u4980:
  1969                           	line	658
  1970                           ;main.c: 658: LATA = 0b11111111;
  1971  013848  6889               	setf	((c:3977)),c	;volatile
  1972                           	line	660
  1973                           ;main.c: 660: LATB = 0b10001100;
  1974  01384A  0E8C               	movlw	low(08Ch)
  1975  01384C  6E8A               	movwf	((c:3978)),c	;volatile
  1976                           	line	662
  1977                           ;main.c: 662: LATC = 0b00001011;
  1978  01384E  0E0B               	movlw	low(0Bh)
  1979  013850  6E8B               	movwf	((c:3979)),c	;volatile
  1980                           	line	663
  1981                           ;main.c: 663: } else if (led_array[2] == 1 && le
                                 d_array[3] == 1 && led_array[12] == 1) {
  1982  013852  EFFF  F09F         	goto	l991
  1983                           	
  1984  013856                     l1042:		; BSR set to: ?
  1985                           
  1986  013856  0404               	decf	(0+((c:0)+04h)),c,w
  1987  013858  1005               	iorwf (1+((c:0)+04h)),c,w
  1988                           
  1989  01385A  A4D8               	btfss	status,2
  1990  01385C  EF32  F09C         	goto	u4991
  1991  013860  EF34  F09C         	goto	u4990
  1992  013864                     u4991:
  1993  013864  EF4D  F09C         	goto	l1044
  1994  013868                     u4990:
  1995  013868  0406               	decf	(0+((c:0)+06h)),c,w
  1996  01386A  1007               	iorwf (1+((c:0)+06h)),c,w
  1997                           
  1998  01386C  A4D8               	btfss	status,2
  1999  01386E  EF3B  F09C         	goto	u5001
  2000  013872  EF3D  F09C         	goto	u5000
  2001  013876                     u5001:
  2002  013876  EF4D  F09C         	goto	l1044
  2003  01387A                     u5000:
  2004  01387A  0418               	decf	(0+((c:0)+018h)),c,w
  2005  01387C  1019               	iorwf (1+((c:0)+018h)),c,w
  2006                           
  2007  01387E  A4D8               	btfss	status,2
  2008  013880  EF44  F09C         	goto	u5011
  2009  013884  EF46  F09C         	goto	u5010
  2010  013888                     u5011:
  2011  013888  EF4D  F09C         	goto	l1044
  2012  01388C                     u5010:
  2013                           	line	666
  2014                           ;main.c: 666: LATA = 0b11111111;
  2015  01388C  6889               	setf	((c:3977)),c	;volatile
  2016                           	line	668
  2017                           ;main.c: 668: LATB = 0b10001100;
  2018  01388E  0E8C               	movlw	low(08Ch)
  2019  013890  6E8A               	movwf	((c:3978)),c	;volatile
  2020                           	line	670
  2021                           ;main.c: 670: LATC = 0b00000111;
  2022  013892  0E07               	movlw	low(07h)
  2023  013894  6E8B               	movwf	((c:3979)),c	;volatile
  2024                           	line	671
  2025                           ;main.c: 671: } else if (led_array[2] == 1 && le
                                 d_array[6] == 1) {
  2026  013896  EFFF  F09F         	goto	l991
  2027                           	
  2028  01389A                     l1044:		; BSR set to: ?
  2029                           
  2030  01389A  0404               	decf	(0+((c:0)+04h)),c,w
  2031  01389C  1005               	iorwf (1+((c:0)+04h)),c,w
  2032                           
  2033  01389E  A4D8               	btfss	status,2
  2034  0138A0  EF54  F09C         	goto	u5021
  2035  0138A4  EF56  F09C         	goto	u5020
  2036  0138A8                     u5021:
  2037  0138A8  EF67  F09C         	goto	l1046
  2038  0138AC                     u5020:
  2039  0138AC  040C               	decf	(0+((c:0)+0Ch)),c,w
  2040  0138AE  100D               	iorwf (1+((c:0)+0Ch)),c,w
  2041                           
  2042  0138B0  A4D8               	btfss	status,2
  2043  0138B2  EF5D  F09C         	goto	u5031
  2044  0138B6  EF5F  F09C         	goto	u5030
  2045  0138BA                     u5031:
  2046  0138BA  EF67  F09C         	goto	l1046
  2047  0138BE                     u5030:
  2048                           	line	674
  2049                           ;main.c: 674: LATA = 0b11101111;
  2050  0138BE  0EEF               	movlw	low(0EFh)
  2051  0138C0  6E89               	movwf	((c:3977)),c	;volatile
  2052                           	line	676
  2053                           ;main.c: 676: LATB = 0b10000100;
  2054  0138C2  0E84               	movlw	low(084h)
  2055  0138C4  6E8A               	movwf	((c:3978)),c	;volatile
  2056                           	line	678
  2057                           ;main.c: 678: LATC = 0b00001111;
  2058  0138C6  0E0F               	movlw	low(0Fh)
  2059  0138C8  6E8B               	movwf	((c:3979)),c	;volatile
  2060                           	line	680
  2061                           ;main.c: 680: } else if (led_array[2] == 1 && le
                                 d_array[7] == 1) {
  2062  0138CA  EFFF  F09F         	goto	l991
  2063                           	
  2064  0138CE                     l1046:		; BSR set to: ?
  2065                           
  2066  0138CE  0404               	decf	(0+((c:0)+04h)),c,w
  2067  0138D0  1005               	iorwf (1+((c:0)+04h)),c,w
  2068                           
  2069  0138D2  A4D8               	btfss	status,2
  2070  0138D4  EF6E  F09C         	goto	u5041
  2071  0138D8  EF70  F09C         	goto	u5040
  2072  0138DC                     u5041:
  2073  0138DC  EF81  F09C         	goto	l1048
  2074  0138E0                     u5040:
  2075  0138E0  040E               	decf	(0+((c:0)+0Eh)),c,w
  2076  0138E2  100F               	iorwf (1+((c:0)+0Eh)),c,w
  2077                           
  2078  0138E4  A4D8               	btfss	status,2
  2079  0138E6  EF77  F09C         	goto	u5051
  2080  0138EA  EF79  F09C         	goto	u5050
  2081  0138EE                     u5051:
  2082  0138EE  EF81  F09C         	goto	l1048
  2083  0138F2                     u5050:
  2084                           	line	683
  2085                           ;main.c: 683: LATA = 0b10111111;
  2086  0138F2  0EBF               	movlw	low(0BFh)
  2087  0138F4  6E89               	movwf	((c:3977)),c	;volatile
  2088                           	line	685
  2089                           ;main.c: 685: LATB = 0b10000100;
  2090  0138F6  0E84               	movlw	low(084h)
  2091  0138F8  6E8A               	movwf	((c:3978)),c	;volatile
  2092                           	line	687
  2093                           ;main.c: 687: LATC = 0b00001111;
  2094  0138FA  0E0F               	movlw	low(0Fh)
  2095  0138FC  6E8B               	movwf	((c:3979)),c	;volatile
  2096                           	line	689
  2097                           ;main.c: 689: } else if (led_array[2] == 1 && le
                                 d_array[8] == 1) {
  2098  0138FE  EFFF  F09F         	goto	l991
  2099                           	
  2100  013902                     l1048:		; BSR set to: ?
  2101                           
  2102  013902  0404               	decf	(0+((c:0)+04h)),c,w
  2103  013904  1005               	iorwf (1+((c:0)+04h)),c,w
  2104                           
  2105  013906  A4D8               	btfss	status,2
  2106  013908  EF88  F09C         	goto	u5061
  2107  01390C  EF8A  F09C         	goto	u5060
  2108  013910                     u5061:
  2109  013910  EF9A  F09C         	goto	l1050
  2110  013914                     u5060:
  2111  013914  0410               	decf	(0+((c:0)+010h)),c,w
  2112  013916  1011               	iorwf (1+((c:0)+010h)),c,w
  2113                           
  2114  013918  A4D8               	btfss	status,2
  2115  01391A  EF91  F09C         	goto	u5071
  2116  01391E  EF93  F09C         	goto	u5070
  2117  013922                     u5071:
  2118  013922  EF9A  F09C         	goto	l1050
  2119  013926                     u5070:
  2120                           	line	692
  2121                           ;main.c: 692: LATA = 0b11111111;
  2122  013926  6889               	setf	((c:3977)),c	;volatile
  2123                           	line	694
  2124                           ;main.c: 694: LATB = 0b10000100;
  2125  013928  0E84               	movlw	low(084h)
  2126  01392A  6E8A               	movwf	((c:3978)),c	;volatile
  2127                           	line	696
  2128                           ;main.c: 696: LATC = 0b00001110;
  2129  01392C  0E0E               	movlw	low(0Eh)
  2130  01392E  6E8B               	movwf	((c:3979)),c	;volatile
  2131                           	line	698
  2132                           ;main.c: 698: } else if (led_array[2] == 1 && le
                                 d_array[9] == 1) {
  2133  013930  EFFF  F09F         	goto	l991
  2134                           	
  2135  013934                     l1050:		; BSR set to: ?
  2136                           
  2137  013934  0404               	decf	(0+((c:0)+04h)),c,w
  2138  013936  1005               	iorwf (1+((c:0)+04h)),c,w
  2139                           
  2140  013938  A4D8               	btfss	status,2
  2141  01393A  EFA1  F09C         	goto	u5081
  2142  01393E  EFA3  F09C         	goto	u5080
  2143  013942                     u5081:
  2144  013942  EFB3  F09C         	goto	l1052
  2145  013946                     u5080:
  2146  013946  0412               	decf	(0+((c:0)+012h)),c,w
  2147  013948  1013               	iorwf (1+((c:0)+012h)),c,w
  2148                           
  2149  01394A  A4D8               	btfss	status,2
  2150  01394C  EFAA  F09C         	goto	u5091
  2151  013950  EFAC  F09C         	goto	u5090
  2152  013954                     u5091:
  2153  013954  EFB3  F09C         	goto	l1052
  2154  013958                     u5090:
  2155                           	line	701
  2156                           ;main.c: 701: LATA = 0b11111111;
  2157  013958  6889               	setf	((c:3977)),c	;volatile
  2158                           	line	703
  2159                           ;main.c: 703: LATB = 0b10000100;
  2160  01395A  0E84               	movlw	low(084h)
  2161  01395C  6E8A               	movwf	((c:3978)),c	;volatile
  2162                           	line	705
  2163                           ;main.c: 705: LATC = 0b00001101;
  2164  01395E  0E0D               	movlw	low(0Dh)
  2165  013960  6E8B               	movwf	((c:3979)),c	;volatile
  2166                           	line	707
  2167                           ;main.c: 707: } else if (led_array[2] == 1 && le
                                 d_array[10] == 1) {
  2168  013962  EFFF  F09F         	goto	l991
  2169                           	
  2170  013966                     l1052:		; BSR set to: ?
  2171                           
  2172  013966  0404               	decf	(0+((c:0)+04h)),c,w
  2173  013968  1005               	iorwf (1+((c:0)+04h)),c,w
  2174                           
  2175  01396A  A4D8               	btfss	status,2
  2176  01396C  EFBA  F09C         	goto	u5101
  2177  013970  EFBC  F09C         	goto	u5100
  2178  013974                     u5101:
  2179  013974  EFCC  F09C         	goto	l1054
  2180  013978                     u5100:
  2181  013978  0414               	decf	(0+((c:0)+014h)),c,w
  2182  01397A  1015               	iorwf (1+((c:0)+014h)),c,w
  2183                           
  2184  01397C  A4D8               	btfss	status,2
  2185  01397E  EFC3  F09C         	goto	u5111
  2186  013982  EFC5  F09C         	goto	u5110
  2187  013986                     u5111:
  2188  013986  EFCC  F09C         	goto	l1054
  2189  01398A                     u5110:
  2190                           	line	710
  2191                           ;main.c: 710: LATA = 0b11111111;
  2192  01398A  6889               	setf	((c:3977)),c	;volatile
  2193                           	line	712
  2194                           ;main.c: 712: LATB = 0b00000100;
  2195  01398C  0E04               	movlw	low(04h)
  2196  01398E  6E8A               	movwf	((c:3978)),c	;volatile
  2197                           	line	714
  2198                           ;main.c: 714: LATC = 0b00001111;
  2199  013990  0E0F               	movlw	low(0Fh)
  2200  013992  6E8B               	movwf	((c:3979)),c	;volatile
  2201                           	line	716
  2202                           ;main.c: 716: } else if (led_array[2] == 1 && le
                                 d_array[11] == 1) {
  2203  013994  EFFF  F09F         	goto	l991
  2204                           	
  2205  013998                     l1054:		; BSR set to: ?
  2206                           
  2207  013998  0404               	decf	(0+((c:0)+04h)),c,w
  2208  01399A  1005               	iorwf (1+((c:0)+04h)),c,w
  2209                           
  2210  01399C  A4D8               	btfss	status,2
  2211  01399E  EFD3  F09C         	goto	u5121
  2212  0139A2  EFD5  F09C         	goto	u5120
  2213  0139A6                     u5121:
  2214  0139A6  EFE5  F09C         	goto	l1056
  2215  0139AA                     u5120:
  2216  0139AA  0416               	decf	(0+((c:0)+016h)),c,w
  2217  0139AC  1017               	iorwf (1+((c:0)+016h)),c,w
  2218                           
  2219  0139AE  A4D8               	btfss	status,2
  2220  0139B0  EFDC  F09C         	goto	u5131
  2221  0139B4  EFDE  F09C         	goto	u5130
  2222  0139B8                     u5131:
  2223  0139B8  EFE5  F09C         	goto	l1056
  2224  0139BC                     u5130:
  2225                           	line	719
  2226                           ;main.c: 719: LATA = 0b11111111;
  2227  0139BC  6889               	setf	((c:3977)),c	;volatile
  2228                           	line	721
  2229                           ;main.c: 721: LATB = 0b10000100;
  2230  0139BE  0E84               	movlw	low(084h)
  2231  0139C0  6E8A               	movwf	((c:3978)),c	;volatile
  2232                           	line	723
  2233                           ;main.c: 723: LATC = 0b00001011;
  2234  0139C2  0E0B               	movlw	low(0Bh)
  2235  0139C4  6E8B               	movwf	((c:3979)),c	;volatile
  2236                           	line	725
  2237                           ;main.c: 725: } else if (led_array[2] == 1 && le
                                 d_array[12] == 1) {
  2238  0139C6  EFFF  F09F         	goto	l991
  2239                           	
  2240  0139CA                     l1056:		; BSR set to: ?
  2241                           
  2242  0139CA  0404               	decf	(0+((c:0)+04h)),c,w
  2243  0139CC  1005               	iorwf (1+((c:0)+04h)),c,w
  2244                           
  2245  0139CE  A4D8               	btfss	status,2
  2246  0139D0  EFEC  F09C         	goto	u5141
  2247  0139D4  EFEE  F09C         	goto	u5140
  2248  0139D8                     u5141:
  2249  0139D8  EFFE  F09C         	goto	l1058
  2250  0139DC                     u5140:
  2251  0139DC  0418               	decf	(0+((c:0)+018h)),c,w
  2252  0139DE  1019               	iorwf (1+((c:0)+018h)),c,w
  2253                           
  2254  0139E0  A4D8               	btfss	status,2
  2255  0139E2  EFF5  F09C         	goto	u5151
  2256  0139E6  EFF7  F09C         	goto	u5150
  2257  0139EA                     u5151:
  2258  0139EA  EFFE  F09C         	goto	l1058
  2259  0139EE                     u5150:
  2260                           	line	728
  2261                           ;main.c: 728: LATA = 0b11111111;
  2262  0139EE  6889               	setf	((c:3977)),c	;volatile
  2263                           	line	730
  2264                           ;main.c: 730: LATB = 0b10000100;
  2265  0139F0  0E84               	movlw	low(084h)
  2266  0139F2  6E8A               	movwf	((c:3978)),c	;volatile
  2267                           	line	732
  2268                           ;main.c: 732: LATC = 0b00000111;
  2269  0139F4  0E07               	movlw	low(07h)
  2270  0139F6  6E8B               	movwf	((c:3979)),c	;volatile
  2271                           	line	734
  2272                           ;main.c: 734: } else if (led_array[3] == 1 && le
                                 d_array[6] == 1) {
  2273  0139F8  EFFF  F09F         	goto	l991
  2274                           	
  2275  0139FC                     l1058:		; BSR set to: ?
  2276                           
  2277  0139FC  0406               	decf	(0+((c:0)+06h)),c,w
  2278  0139FE  1007               	iorwf (1+((c:0)+06h)),c,w
  2279                           
  2280  013A00  A4D8               	btfss	status,2
  2281  013A02  EF05  F09D         	goto	u5161
  2282  013A06  EF07  F09D         	goto	u5160
  2283  013A0A                     u5161:
  2284  013A0A  EF18  F09D         	goto	l1060
  2285  013A0E                     u5160:
  2286  013A0E  040C               	decf	(0+((c:0)+0Ch)),c,w
  2287  013A10  100D               	iorwf (1+((c:0)+0Ch)),c,w
  2288                           
  2289  013A12  A4D8               	btfss	status,2
  2290  013A14  EF0E  F09D         	goto	u5171
  2291  013A18  EF10  F09D         	goto	u5170
  2292  013A1C                     u5171:
  2293  013A1C  EF18  F09D         	goto	l1060
  2294  013A20                     u5170:
  2295                           	line	737
  2296                           ;main.c: 737: LATA = 0b11101111;
  2297  013A20  0EEF               	movlw	low(0EFh)
  2298  013A22  6E89               	movwf	((c:3977)),c	;volatile
  2299                           	line	739
  2300                           ;main.c: 739: LATB = 0b10001000;
  2301  013A24  0E88               	movlw	low(088h)
  2302  013A26  6E8A               	movwf	((c:3978)),c	;volatile
  2303                           	line	741
  2304                           ;main.c: 741: LATC = 0b00001111;
  2305  013A28  0E0F               	movlw	low(0Fh)
  2306  013A2A  6E8B               	movwf	((c:3979)),c	;volatile
  2307                           	line	743
  2308                           ;main.c: 743: } else if (led_array[3] == 1 && le
                                 d_array[7] == 1) {
  2309  013A2C  EFFF  F09F         	goto	l991
  2310                           	
  2311  013A30                     l1060:		; BSR set to: ?
  2312                           
  2313  013A30  0406               	decf	(0+((c:0)+06h)),c,w
  2314  013A32  1007               	iorwf (1+((c:0)+06h)),c,w
  2315                           
  2316  013A34  A4D8               	btfss	status,2
  2317  013A36  EF1F  F09D         	goto	u5181
  2318  013A3A  EF21  F09D         	goto	u5180
  2319  013A3E                     u5181:
  2320  013A3E  EF32  F09D         	goto	l1062
  2321  013A42                     u5180:
  2322  013A42  040E               	decf	(0+((c:0)+0Eh)),c,w
  2323  013A44  100F               	iorwf (1+((c:0)+0Eh)),c,w
  2324                           
  2325  013A46  A4D8               	btfss	status,2
  2326  013A48  EF28  F09D         	goto	u5191
  2327  013A4C  EF2A  F09D         	goto	u5190
  2328  013A50                     u5191:
  2329  013A50  EF32  F09D         	goto	l1062
  2330  013A54                     u5190:
  2331                           	line	746
  2332                           ;main.c: 746: LATA = 0b10111111;
  2333  013A54  0EBF               	movlw	low(0BFh)
  2334  013A56  6E89               	movwf	((c:3977)),c	;volatile
  2335                           	line	748
  2336                           ;main.c: 748: LATB = 0b10001000;
  2337  013A58  0E88               	movlw	low(088h)
  2338  013A5A  6E8A               	movwf	((c:3978)),c	;volatile
  2339                           	line	750
  2340                           ;main.c: 750: LATC = 0b00001111;
  2341  013A5C  0E0F               	movlw	low(0Fh)
  2342  013A5E  6E8B               	movwf	((c:3979)),c	;volatile
  2343                           	line	752
  2344                           ;main.c: 752: } else if (led_array[3] == 1 && le
                                 d_array[8] == 1) {
  2345  013A60  EFFF  F09F         	goto	l991
  2346                           	
  2347  013A64                     l1062:		; BSR set to: ?
  2348                           
  2349  013A64  0406               	decf	(0+((c:0)+06h)),c,w
  2350  013A66  1007               	iorwf (1+((c:0)+06h)),c,w
  2351                           
  2352  013A68  A4D8               	btfss	status,2
  2353  013A6A  EF39  F09D         	goto	u5201
  2354  013A6E  EF3B  F09D         	goto	u5200
  2355  013A72                     u5201:
  2356  013A72  EF4B  F09D         	goto	l1064
  2357  013A76                     u5200:
  2358  013A76  0410               	decf	(0+((c:0)+010h)),c,w
  2359  013A78  1011               	iorwf (1+((c:0)+010h)),c,w
  2360                           
  2361  013A7A  A4D8               	btfss	status,2
  2362  013A7C  EF42  F09D         	goto	u5211
  2363  013A80  EF44  F09D         	goto	u5210
  2364  013A84                     u5211:
  2365  013A84  EF4B  F09D         	goto	l1064
  2366  013A88                     u5210:
  2367                           	line	755
  2368                           ;main.c: 755: LATA = 0b11111111;
  2369  013A88  6889               	setf	((c:3977)),c	;volatile
  2370                           	line	757
  2371                           ;main.c: 757: LATB = 0b10001000;
  2372  013A8A  0E88               	movlw	low(088h)
  2373  013A8C  6E8A               	movwf	((c:3978)),c	;volatile
  2374                           	line	759
  2375                           ;main.c: 759: LATC = 0b00001110;
  2376  013A8E  0E0E               	movlw	low(0Eh)
  2377  013A90  6E8B               	movwf	((c:3979)),c	;volatile
  2378                           	line	761
  2379                           ;main.c: 761: } else if (led_array[3] == 1 && le
                                 d_array[9] == 1) {
  2380  013A92  EFFF  F09F         	goto	l991
  2381                           	
  2382  013A96                     l1064:		; BSR set to: ?
  2383                           
  2384  013A96  0406               	decf	(0+((c:0)+06h)),c,w
  2385  013A98  1007               	iorwf (1+((c:0)+06h)),c,w
  2386                           
  2387  013A9A  A4D8               	btfss	status,2
  2388  013A9C  EF52  F09D         	goto	u5221
  2389  013AA0  EF54  F09D         	goto	u5220
  2390  013AA4                     u5221:
  2391  013AA4  EF64  F09D         	goto	l1066
  2392  013AA8                     u5220:
  2393  013AA8  0412               	decf	(0+((c:0)+012h)),c,w
  2394  013AAA  1013               	iorwf (1+((c:0)+012h)),c,w
  2395                           
  2396  013AAC  A4D8               	btfss	status,2
  2397  013AAE  EF5B  F09D         	goto	u5231
  2398  013AB2  EF5D  F09D         	goto	u5230
  2399  013AB6                     u5231:
  2400  013AB6  EF64  F09D         	goto	l1066
  2401  013ABA                     u5230:
  2402                           	line	764
  2403                           ;main.c: 764: LATA = 0b11111111;
  2404  013ABA  6889               	setf	((c:3977)),c	;volatile
  2405                           	line	766
  2406                           ;main.c: 766: LATB = 0b10001000;
  2407  013ABC  0E88               	movlw	low(088h)
  2408  013ABE  6E8A               	movwf	((c:3978)),c	;volatile
  2409                           	line	768
  2410                           ;main.c: 768: LATC = 0b00001101;
  2411  013AC0  0E0D               	movlw	low(0Dh)
  2412  013AC2  6E8B               	movwf	((c:3979)),c	;volatile
  2413                           	line	770
  2414                           ;main.c: 770: } else if (led_array[3] == 1 && le
                                 d_array[10] == 1) {
  2415  013AC4  EFFF  F09F         	goto	l991
  2416                           	
  2417  013AC8                     l1066:		; BSR set to: ?
  2418                           
  2419  013AC8  0406               	decf	(0+((c:0)+06h)),c,w
  2420  013ACA  1007               	iorwf (1+((c:0)+06h)),c,w
  2421                           
  2422  013ACC  A4D8               	btfss	status,2
  2423  013ACE  EF6B  F09D         	goto	u5241
  2424  013AD2  EF6D  F09D         	goto	u5240
  2425  013AD6                     u5241:
  2426  013AD6  EF7D  F09D         	goto	l1068
  2427  013ADA                     u5240:
  2428  013ADA  0414               	decf	(0+((c:0)+014h)),c,w
  2429  013ADC  1015               	iorwf (1+((c:0)+014h)),c,w
  2430                           
  2431  013ADE  A4D8               	btfss	status,2
  2432  013AE0  EF74  F09D         	goto	u5251
  2433  013AE4  EF76  F09D         	goto	u5250
  2434  013AE8                     u5251:
  2435  013AE8  EF7D  F09D         	goto	l1068
  2436  013AEC                     u5250:
  2437                           	line	773
  2438                           ;main.c: 773: LATA = 0b11111111;
  2439  013AEC  6889               	setf	((c:3977)),c	;volatile
  2440                           	line	775
  2441                           ;main.c: 775: LATB = 0b00001000;
  2442  013AEE  0E08               	movlw	low(08h)
  2443  013AF0  6E8A               	movwf	((c:3978)),c	;volatile
  2444                           	line	777
  2445                           ;main.c: 777: LATC = 0b00001111;
  2446  013AF2  0E0F               	movlw	low(0Fh)
  2447  013AF4  6E8B               	movwf	((c:3979)),c	;volatile
  2448                           	line	779
  2449                           ;main.c: 779: } else if (led_array[3] == 1 && le
                                 d_array[11] == 1) {
  2450  013AF6  EFFF  F09F         	goto	l991
  2451                           	
  2452  013AFA                     l1068:		; BSR set to: ?
  2453                           
  2454  013AFA  0406               	decf	(0+((c:0)+06h)),c,w
  2455  013AFC  1007               	iorwf (1+((c:0)+06h)),c,w
  2456                           
  2457  013AFE  A4D8               	btfss	status,2
  2458  013B00  EF84  F09D         	goto	u5261
  2459  013B04  EF86  F09D         	goto	u5260
  2460  013B08                     u5261:
  2461  013B08  EF96  F09D         	goto	l1070
  2462  013B0C                     u5260:
  2463  013B0C  0416               	decf	(0+((c:0)+016h)),c,w
  2464  013B0E  1017               	iorwf (1+((c:0)+016h)),c,w
  2465                           
  2466  013B10  A4D8               	btfss	status,2
  2467  013B12  EF8D  F09D         	goto	u5271
  2468  013B16  EF8F  F09D         	goto	u5270
  2469  013B1A                     u5271:
  2470  013B1A  EF96  F09D         	goto	l1070
  2471  013B1E                     u5270:
  2472                           	line	782
  2473                           ;main.c: 782: LATA = 0b11111111;
  2474  013B1E  6889               	setf	((c:3977)),c	;volatile
  2475                           	line	784
  2476                           ;main.c: 784: LATB = 0b10001000;
  2477  013B20  0E88               	movlw	low(088h)
  2478  013B22  6E8A               	movwf	((c:3978)),c	;volatile
  2479                           	line	786
  2480                           ;main.c: 786: LATC = 0b00001011;
  2481  013B24  0E0B               	movlw	low(0Bh)
  2482  013B26  6E8B               	movwf	((c:3979)),c	;volatile
  2483                           	line	788
  2484                           ;main.c: 788: } else if (led_array[3] == 1 && le
                                 d_array[12] == 1) {
  2485  013B28  EFFF  F09F         	goto	l991
  2486                           	
  2487  013B2C                     l1070:		; BSR set to: ?
  2488                           
  2489  013B2C  0406               	decf	(0+((c:0)+06h)),c,w
  2490  013B2E  1007               	iorwf (1+((c:0)+06h)),c,w
  2491                           
  2492  013B30  A4D8               	btfss	status,2
  2493  013B32  EF9D  F09D         	goto	u5281
  2494  013B36  EF9F  F09D         	goto	u5280
  2495  013B3A                     u5281:
  2496  013B3A  EFAF  F09D         	goto	l1072
  2497  013B3E                     u5280:
  2498  013B3E  0418               	decf	(0+((c:0)+018h)),c,w
  2499  013B40  1019               	iorwf (1+((c:0)+018h)),c,w
  2500                           
  2501  013B42  A4D8               	btfss	status,2
  2502  013B44  EFA6  F09D         	goto	u5291
  2503  013B48  EFA8  F09D         	goto	u5290
  2504  013B4C                     u5291:
  2505  013B4C  EFAF  F09D         	goto	l1072
  2506  013B50                     u5290:
  2507                           	line	791
  2508                           ;main.c: 791: LATA = 0b11111111;
  2509  013B50  6889               	setf	((c:3977)),c	;volatile
  2510                           	line	793
  2511                           ;main.c: 793: LATB = 0b10001000;
  2512  013B52  0E88               	movlw	low(088h)
  2513  013B54  6E8A               	movwf	((c:3978)),c	;volatile
  2514                           	line	795
  2515                           ;main.c: 795: LATC = 0b00000111;
  2516  013B56  0E07               	movlw	low(07h)
  2517  013B58  6E8B               	movwf	((c:3979)),c	;volatile
  2518                           	line	796
  2519                           ;main.c: 796: }
  2520  013B5A  EFFF  F09F         	goto	l991
  2521                           	line	799
  2522                           	
  2523  013B5E                     l1072:		; BSR set to: ?
  2524                           
  2525                           ;main.c: 799: else if (led_array[0] == 1 && led_
                                 array[1] == 1 && led_array[6] == 1) {
  2526  013B5E  0400               	decf	((c:0)),c,w
  2527  013B60  1001               	iorwf ((c:0+1)),c,w
  2528                           
  2529  013B62  A4D8               	btfss	status,2
  2530  013B64  EFB6  F09D         	goto	u5301
  2531  013B68  EFB8  F09D         	goto	u5300
  2532  013B6C                     u5301:
  2533  013B6C  EFD2  F09D         	goto	l1074
  2534  013B70                     u5300:
  2535  013B70  0402               	decf	(0+((c:0)+02h)),c,w
  2536  013B72  1003               	iorwf (1+((c:0)+02h)),c,w
  2537                           
  2538  013B74  A4D8               	btfss	status,2
  2539  013B76  EFBF  F09D         	goto	u5311
  2540  013B7A  EFC1  F09D         	goto	u5310
  2541  013B7E                     u5311:
  2542  013B7E  EFD2  F09D         	goto	l1074
  2543  013B82                     u5310:
  2544  013B82  040C               	decf	(0+((c:0)+0Ch)),c,w
  2545  013B84  100D               	iorwf (1+((c:0)+0Ch)),c,w
  2546                           
  2547  013B86  A4D8               	btfss	status,2
  2548  013B88  EFC8  F09D         	goto	u5321
  2549  013B8C  EFCA  F09D         	goto	u5320
  2550  013B90                     u5321:
  2551  013B90  EFD2  F09D         	goto	l1074
  2552  013B94                     u5320:
  2553                           	line	802
  2554                           ;main.c: 802: LATA = 0b11101111;
  2555  013B94  0EEF               	movlw	low(0EFh)
  2556  013B96  6E89               	movwf	((c:3977)),c	;volatile
  2557                           	line	804
  2558                           ;main.c: 804: LATB = 0b10000000;
  2559  013B98  0E80               	movlw	low(080h)
  2560  013B9A  6E8A               	movwf	((c:3978)),c	;volatile
  2561                           	line	806
  2562                           ;main.c: 806: LATC = 0b00111111;
  2563  013B9C  0E3F               	movlw	low(03Fh)
  2564  013B9E  6E8B               	movwf	((c:3979)),c	;volatile
  2565                           	line	808
  2566                           ;main.c: 808: } else if (led_array[0] == 1 && le
                                 d_array[1] == 1 && led_array[7] == 1) {
  2567  013BA0  EFFF  F09F         	goto	l991
  2568                           	
  2569  013BA4                     l1074:		; BSR set to: ?
  2570                           
  2571  013BA4  0400               	decf	((c:0)),c,w
  2572  013BA6  1001               	iorwf ((c:0+1)),c,w
  2573                           
  2574  013BA8  A4D8               	btfss	status,2
  2575  013BAA  EFD9  F09D         	goto	u5331
  2576  013BAE  EFDB  F09D         	goto	u5330
  2577  013BB2                     u5331:
  2578  013BB2  EFF5  F09D         	goto	l1076
  2579  013BB6                     u5330:
  2580  013BB6  0402               	decf	(0+((c:0)+02h)),c,w
  2581  013BB8  1003               	iorwf (1+((c:0)+02h)),c,w
  2582                           
  2583  013BBA  A4D8               	btfss	status,2
  2584  013BBC  EFE2  F09D         	goto	u5341
  2585  013BC0  EFE4  F09D         	goto	u5340
  2586  013BC4                     u5341:
  2587  013BC4  EFF5  F09D         	goto	l1076
  2588  013BC8                     u5340:
  2589  013BC8  040E               	decf	(0+((c:0)+0Eh)),c,w
  2590  013BCA  100F               	iorwf (1+((c:0)+0Eh)),c,w
  2591                           
  2592  013BCC  A4D8               	btfss	status,2
  2593  013BCE  EFEB  F09D         	goto	u5351
  2594  013BD2  EFED  F09D         	goto	u5350
  2595  013BD6                     u5351:
  2596  013BD6  EFF5  F09D         	goto	l1076
  2597  013BDA                     u5350:
  2598                           	line	811
  2599                           ;main.c: 811: LATA = 0b10111111;
  2600  013BDA  0EBF               	movlw	low(0BFh)
  2601  013BDC  6E89               	movwf	((c:3977)),c	;volatile
  2602                           	line	813
  2603                           ;main.c: 813: LATB = 0b10000000;
  2604  013BDE  0E80               	movlw	low(080h)
  2605  013BE0  6E8A               	movwf	((c:3978)),c	;volatile
  2606                           	line	815
  2607                           ;main.c: 815: LATC = 0b00111111;
  2608  013BE2  0E3F               	movlw	low(03Fh)
  2609  013BE4  6E8B               	movwf	((c:3979)),c	;volatile
  2610                           	line	817
  2611                           ;main.c: 817: } else if (led_array[0] == 1 && le
                                 d_array[1] == 1 && led_array[8] == 1) {
  2612  013BE6  EFFF  F09F         	goto	l991
  2613                           	
  2614  013BEA                     l1076:		; BSR set to: ?
  2615                           
  2616  013BEA  0400               	decf	((c:0)),c,w
  2617  013BEC  1001               	iorwf ((c:0+1)),c,w
  2618                           
  2619  013BEE  A4D8               	btfss	status,2
  2620  013BF0  EFFC  F09D         	goto	u5361
  2621  013BF4  EFFE  F09D         	goto	u5360
  2622  013BF8                     u5361:
  2623  013BF8  EF17  F09E         	goto	l1078
  2624  013BFC                     u5360:
  2625  013BFC  0402               	decf	(0+((c:0)+02h)),c,w
  2626  013BFE  1003               	iorwf (1+((c:0)+02h)),c,w
  2627                           
  2628  013C00  A4D8               	btfss	status,2
  2629  013C02  EF05  F09E         	goto	u5371
  2630  013C06  EF07  F09E         	goto	u5370
  2631  013C0A                     u5371:
  2632  013C0A  EF17  F09E         	goto	l1078
  2633  013C0E                     u5370:
  2634  013C0E  0410               	decf	(0+((c:0)+010h)),c,w
  2635  013C10  1011               	iorwf (1+((c:0)+010h)),c,w
  2636                           
  2637  013C12  A4D8               	btfss	status,2
  2638  013C14  EF0E  F09E         	goto	u5381
  2639  013C18  EF10  F09E         	goto	u5380
  2640  013C1C                     u5381:
  2641  013C1C  EF17  F09E         	goto	l1078
  2642  013C20                     u5380:
  2643                           	line	820
  2644                           ;main.c: 820: LATA = 0b11111111;
  2645  013C20  6889               	setf	((c:3977)),c	;volatile
  2646                           	line	822
  2647                           ;main.c: 822: LATB = 0b10000000;
  2648  013C22  0E80               	movlw	low(080h)
  2649  013C24  6E8A               	movwf	((c:3978)),c	;volatile
  2650                           	line	824
  2651                           ;main.c: 824: LATC = 0b00111110;
  2652  013C26  0E3E               	movlw	low(03Eh)
  2653  013C28  6E8B               	movwf	((c:3979)),c	;volatile
  2654                           	line	826
  2655                           ;main.c: 826: } else if (led_array[0] == 1 && le
                                 d_array[1] == 1 && led_array[9] == 1) {
  2656  013C2A  EFFF  F09F         	goto	l991
  2657                           	
  2658  013C2E                     l1078:		; BSR set to: ?
  2659                           
  2660  013C2E  0400               	decf	((c:0)),c,w
  2661  013C30  1001               	iorwf ((c:0+1)),c,w
  2662                           
  2663  013C32  A4D8               	btfss	status,2
  2664  013C34  EF1E  F09E         	goto	u5391
  2665  013C38  EF20  F09E         	goto	u5390
  2666  013C3C                     u5391:
  2667  013C3C  EF39  F09E         	goto	l1080
  2668  013C40                     u5390:
  2669  013C40  0402               	decf	(0+((c:0)+02h)),c,w
  2670  013C42  1003               	iorwf (1+((c:0)+02h)),c,w
  2671                           
  2672  013C44  A4D8               	btfss	status,2
  2673  013C46  EF27  F09E         	goto	u5401
  2674  013C4A  EF29  F09E         	goto	u5400
  2675  013C4E                     u5401:
  2676  013C4E  EF39  F09E         	goto	l1080
  2677  013C52                     u5400:
  2678  013C52  0412               	decf	(0+((c:0)+012h)),c,w
  2679  013C54  1013               	iorwf (1+((c:0)+012h)),c,w
  2680                           
  2681  013C56  A4D8               	btfss	status,2
  2682  013C58  EF30  F09E         	goto	u5411
  2683  013C5C  EF32  F09E         	goto	u5410
  2684  013C60                     u5411:
  2685  013C60  EF39  F09E         	goto	l1080
  2686  013C64                     u5410:
  2687                           	line	829
  2688                           ;main.c: 829: LATA = 0b11111111;
  2689  013C64  6889               	setf	((c:3977)),c	;volatile
  2690                           	line	831
  2691                           ;main.c: 831: LATB = 0b10000000;
  2692  013C66  0E80               	movlw	low(080h)
  2693  013C68  6E8A               	movwf	((c:3978)),c	;volatile
  2694                           	line	833
  2695                           ;main.c: 833: LATC = 0b00111101;
  2696  013C6A  0E3D               	movlw	low(03Dh)
  2697  013C6C  6E8B               	movwf	((c:3979)),c	;volatile
  2698                           	line	834
  2699                           ;main.c: 834: } else if (led_array[0] == 1 && le
                                 d_array[1] == 1 && led_array[10] == 1) {
  2700  013C6E  EFFF  F09F         	goto	l991
  2701                           	
  2702  013C72                     l1080:		; BSR set to: ?
  2703                           
  2704  013C72  0400               	decf	((c:0)),c,w
  2705  013C74  1001               	iorwf ((c:0+1)),c,w
  2706                           
  2707  013C76  A4D8               	btfss	status,2
  2708  013C78  EF40  F09E         	goto	u5421
  2709  013C7C  EF42  F09E         	goto	u5420
  2710  013C80                     u5421:
  2711  013C80  EF5B  F09E         	goto	l1082
  2712  013C84                     u5420:
  2713  013C84  0402               	decf	(0+((c:0)+02h)),c,w
  2714  013C86  1003               	iorwf (1+((c:0)+02h)),c,w
  2715                           
  2716  013C88  A4D8               	btfss	status,2
  2717  013C8A  EF49  F09E         	goto	u5431
  2718  013C8E  EF4B  F09E         	goto	u5430
  2719  013C92                     u5431:
  2720  013C92  EF5B  F09E         	goto	l1082
  2721  013C96                     u5430:
  2722  013C96  0414               	decf	(0+((c:0)+014h)),c,w
  2723  013C98  1015               	iorwf (1+((c:0)+014h)),c,w
  2724                           
  2725  013C9A  A4D8               	btfss	status,2
  2726  013C9C  EF52  F09E         	goto	u5441
  2727  013CA0  EF54  F09E         	goto	u5440
  2728  013CA4                     u5441:
  2729  013CA4  EF5B  F09E         	goto	l1082
  2730  013CA8                     u5440:
  2731                           	line	837
  2732                           ;main.c: 837: LATA = 0b11111111;
  2733  013CA8  6889               	setf	((c:3977)),c	;volatile
  2734                           	line	839
  2735                           ;main.c: 839: LATB = 0b00000000;
  2736  013CAA  0E00               	movlw	low(0)
  2737  013CAC  6E8A               	movwf	((c:3978)),c	;volatile
  2738                           	line	841
  2739                           ;main.c: 841: LATC = 0b00111111;
  2740  013CAE  0E3F               	movlw	low(03Fh)
  2741  013CB0  6E8B               	movwf	((c:3979)),c	;volatile
  2742                           	line	842
  2743                           ;main.c: 842: } else if (led_array[0] == 1 && le
                                 d_array[1] == 1 && led_array[11] == 1) {
  2744  013CB2  EFFF  F09F         	goto	l991
  2745                           	
  2746  013CB6                     l1082:		; BSR set to: ?
  2747                           
  2748  013CB6  0400               	decf	((c:0)),c,w
  2749  013CB8  1001               	iorwf ((c:0+1)),c,w
  2750                           
  2751  013CBA  A4D8               	btfss	status,2
  2752  013CBC  EF62  F09E         	goto	u5451
  2753  013CC0  EF64  F09E         	goto	u5450
  2754  013CC4                     u5451:
  2755  013CC4  EF7D  F09E         	goto	l1084
  2756  013CC8                     u5450:
  2757  013CC8  0402               	decf	(0+((c:0)+02h)),c,w
  2758  013CCA  1003               	iorwf (1+((c:0)+02h)),c,w
  2759                           
  2760  013CCC  A4D8               	btfss	status,2
  2761  013CCE  EF6B  F09E         	goto	u5461
  2762  013CD2  EF6D  F09E         	goto	u5460
  2763  013CD6                     u5461:
  2764  013CD6  EF7D  F09E         	goto	l1084
  2765  013CDA                     u5460:
  2766  013CDA  0416               	decf	(0+((c:0)+016h)),c,w
  2767  013CDC  1017               	iorwf (1+((c:0)+016h)),c,w
  2768                           
  2769  013CDE  A4D8               	btfss	status,2
  2770  013CE0  EF74  F09E         	goto	u5471
  2771  013CE4  EF76  F09E         	goto	u5470
  2772  013CE8                     u5471:
  2773  013CE8  EF7D  F09E         	goto	l1084
  2774  013CEC                     u5470:
  2775                           	line	845
  2776                           ;main.c: 845: LATA = 0b11111111;
  2777  013CEC  6889               	setf	((c:3977)),c	;volatile
  2778                           	line	847
  2779                           ;main.c: 847: LATB = 0b10000000;
  2780  013CEE  0E80               	movlw	low(080h)
  2781  013CF0  6E8A               	movwf	((c:3978)),c	;volatile
  2782                           	line	849
  2783                           ;main.c: 849: LATC = 0b00111011;
  2784  013CF2  0E3B               	movlw	low(03Bh)
  2785  013CF4  6E8B               	movwf	((c:3979)),c	;volatile
  2786                           	line	850
  2787                           ;main.c: 850: } else if (led_array[0] == 1 && le
                                 d_array[1] == 1 && led_array[12] == 1) {
  2788  013CF6  EFFF  F09F         	goto	l991
  2789                           	
  2790  013CFA                     l1084:		; BSR set to: ?
  2791                           
  2792  013CFA  0400               	decf	((c:0)),c,w
  2793  013CFC  1001               	iorwf ((c:0+1)),c,w
  2794                           
  2795  013CFE  A4D8               	btfss	status,2
  2796  013D00  EF84  F09E         	goto	u5481
  2797  013D04  EF86  F09E         	goto	u5480
  2798  013D08                     u5481:
  2799  013D08  EF9F  F09E         	goto	l1086
  2800  013D0C                     u5480:
  2801  013D0C  0402               	decf	(0+((c:0)+02h)),c,w
  2802  013D0E  1003               	iorwf (1+((c:0)+02h)),c,w
  2803                           
  2804  013D10  A4D8               	btfss	status,2
  2805  013D12  EF8D  F09E         	goto	u5491
  2806  013D16  EF8F  F09E         	goto	u5490
  2807  013D1A                     u5491:
  2808  013D1A  EF9F  F09E         	goto	l1086
  2809  013D1E                     u5490:
  2810  013D1E  0418               	decf	(0+((c:0)+018h)),c,w
  2811  013D20  1019               	iorwf (1+((c:0)+018h)),c,w
  2812                           
  2813  013D22  A4D8               	btfss	status,2
  2814  013D24  EF96  F09E         	goto	u5501
  2815  013D28  EF98  F09E         	goto	u5500
  2816  013D2C                     u5501:
  2817+ 013D2C  EF9F  F09E         	goto	l1086
  2818+ 013D30                     u5500:
  2819+                          	line	853
  2820+                          ;main.c: 853: LATA = 0b11111111;
  2821+ 013D30  6889               	setf	((c:3977)),c	;volatile
  2822+                          	line	855
  2823+                          ;main.c: 855: LATB = 0b10000000;
  2824+ 013D32  0E80               	movlw	low(080h)
  2825+ 013D34  6E8A               	movwf	((c:3978)),c	;volatile
  2826+                          	line	857
  2827+                          ;main.c: 857: LATC = 0b00110111;
  2828+ 013D36  0E37               	movlw	low(037h)
  2829+ 013D38  6E8B               	movwf	((c:3979)),c	;volatile
  2830+                          	line	859
  2831+                          ;main.c: 859: } else if (led_array[0] == 1 && le
      +                          d_array[6] == 1) {
  2832+ 013D3A  EFFF  F09F         	goto	l991
  2833+                          	
  2834+ 013D3E                     l1086:		; BSR set to: ?
  2835+                          
  2836+ 013D3E  0400               	decf	((c:0)),c,w
  2837+ 013D40  1001               	iorwf ((c:0+1)),c,w
  2838+                          
  2839+ 013D42  A4D8               	btfss	status,2
  2840+ 013D44  EFA6  F09E         	goto	u5511
  2841+ 013D48  EFA8  F09E         	goto	u5510
  2842+ 013D4C                     u5511:
  2843+ 013D4C  EFB9  F09E         	goto	l1088
  2844+ 013D50                     u5510:
  2845+ 013D50  040C               	decf	(0+((c:0)+0Ch)),c,w
  2846+ 013D52  100D               	iorwf (1+((c:0)+0Ch)),c,w
  2847+                          
  2848+ 013D54  A4D8               	btfss	status,2
  2849+ 013D56  EFAF  F09E         	goto	u5521
  2850+ 013D5A  EFB1  F09E         	goto	u5520
  2851+ 013D5E                     u5521:
  2852+ 013D5E  EFB9  F09E         	goto	l1088
  2853+ 013D62                     u5520:
  2854+                          	line	862
  2855+                          ;main.c: 862: LATA = 0b11101111;
  2856+ 013D62  0EEF               	movlw	low(0EFh)
  2857+ 013D64  6E89               	movwf	((c:3977)),c	;volatile
  2858+                          	line	864
  2859+                          ;main.c: 864: LATB = 0b10000000;
  2860+ 013D66  0E80               	movlw	low(080h)
  2861+ 013D68  6E8A               	movwf	((c:3978)),c	;volatile
  2862+                          	line	866
  2863+                          ;main.c: 866: LATC = 0b00011111;
  2864+ 013D6A  0E1F               	movlw	low(01Fh)
  2865+ 013D6C  6E8B               	movwf	((c:3979)),c	;volatile
  2866+                          	line	868
  2867+                          ;main.c: 868: } else if (led_array[0] == 1 && le
      +                          d_array[7] == 1) {
  2868+ 013D6E  EFFF  F09F         	goto	l991
  2869+                          	
  2870+ 013D72                     l1088:		; BSR set to: ?
  2871+                          
  2872+ 013D72  0400               	decf	((c:0)),c,w
  2873+ 013D74  1001               	iorwf ((c:0+1)),c,w
  2874+                          
  2875+ 013D76  A4D8               	btfss	status,2
  2876+ 013D78  EFC0  F09E         	goto	u5531
  2877+ 013D7C  EFC2  F09E         	goto	u5530
  2878+ 013D80                     u5531:
  2879+ 013D80  EFD3  F09E         	goto	l1090
  2880+ 013D84                     u5530:
  2881+ 013D84  040E               	decf	(0+((c:0)+0Eh)),c,w
  2882+ 013D86  100F               	iorwf (1+((c:0)+0Eh)),c,w
  2883+                          
  2884+ 013D88  A4D8               	btfss	status,2
  2885+ 013D8A  EFC9  F09E         	goto	u5541
  2886+ 013D8E  EFCB  F09E         	goto	u5540
  2887+ 013D92                     u5541:
  2888+ 013D92  EFD3  F09E         	goto	l1090
  2889+ 013D96                     u5540:
  2890+                          	line	871
  2891+                          ;main.c: 871: LATA = 0b10111111;
  2892+ 013D96  0EBF               	movlw	low(0BFh)
  2893+ 013D98  6E89               	movwf	((c:3977)),c	;volatile
  2894+                          	line	873
  2895+                          ;main.c: 873: LATB = 0b10000000;
  2896+ 013D9A  0E80               	movlw	low(080h)
  2897+ 013D9C  6E8A               	movwf	((c:3978)),c	;volatile
  2898+                          	line	875
  2899+                          ;main.c: 875: LATC = 0b00011111;
  2900+ 013D9E  0E1F               	movlw	low(01Fh)
  2901+ 013DA0  6E8B               	movwf	((c:3979)),c	;volatile
  2902+                          	line	877
  2903+                          ;main.c: 877: } else if (led_array[0] == 1 && le
      +                          d_array[8] == 1) {
  2904+ 013DA2  EFFF  F09F         	goto	l991
  2905+                          	
  2906+ 013DA6                     l1090:		; BSR set to: ?
  2907+                          
  2908+ 013DA6  0400               	decf	((c:0)),c,w
  2909+ 013DA8  1001               	iorwf ((c:0+1)),c,w
  2910+                          
  2911+ 013DAA  A4D8               	btfss	status,2
  2912+ 013DAC  EFDA  F09E         	goto	u5551
  2913+ 013DB0  EFDC  F09E         	goto	u5550
  2914+ 013DB4                     u5551:
  2915+ 013DB4  EFEC  F09E         	goto	l1092
  2916+ 013DB8                     u5550:
  2917+ 013DB8  0410               	decf	(0+((c:0)+010h)),c,w
  2918+ 013DBA  1011               	iorwf (1+((c:0)+010h)),c,w
  2919+                          
  2920+ 013DBC  A4D8               	btfss	status,2
  2921+ 013DBE  EFE3  F09E         	goto	u5561
  2922+ 013DC2  EFE5  F09E         	goto	u5560
  2923+ 013DC6                     u5561:
  2924+ 013DC6  EFEC  F09E         	goto	l1092
  2925+ 013DCA                     u5560:
  2926+                          	line	880
  2927+                          ;main.c: 880: LATA = 0b11111111;
  2928+ 013DCA  6889               	setf	((c:3977)),c	;volatile
  2929+                          	line	882
  2930+                          ;main.c: 882: LATB = 0b10000000;
  2931+ 013DCC  0E80               	movlw	low(080h)
  2932+ 013DCE  6E8A               	movwf	((c:3978)),c	;volatile
  2933+                          	line	884
  2934+                          ;main.c: 884: LATC = 0b00011110;
  2935+ 013DD0  0E1E               	movlw	low(01Eh)
  2936+ 013DD2  6E8B               	movwf	((c:3979)),c	;volatile
  2937+                          	line	886
  2938+                          ;main.c: 886: } else if (led_array[0] == 1 && le
      +                          d_array[9] == 1) {
  2939+ 013DD4  EFFF  F09F         	goto	l991
  2940+                          	
  2941+ 013DD8                     l1092:		; BSR set to: ?
  2942+                          
  2943+ 013DD8  0400               	decf	((c:0)),c,w
  2944+ 013DDA  1001               	iorwf ((c:0+1)),c,w
  2945+                          
  2946+ 013DDC  A4D8               	btfss	status,2
  2947+ 013DDE  EFF3  F09E         	goto	u5571
  2948+ 013DE2  EFF5  F09E         	goto	u5570
  2949+ 013DE6                     u5571:
  2950+ 013DE6  EF05  F09F         	goto	l1094
  2951+ 013DEA                     u5570:
  2952+ 013DEA  0412               	decf	(0+((c:0)+012h)),c,w
  2953+ 013DEC  1013               	iorwf (1+((c:0)+012h)),c,w
  2954+                          
  2955+ 013DEE  A4D8               	btfss	status,2
  2956+ 013DF0  EFFC  F09E         	goto	u5581
  2957+ 013DF4  EFFE  F09E         	goto	u5580
  2958+ 013DF8                     u5581:
  2959+ 013DF8  EF05  F09F         	goto	l1094
  2960+ 013DFC                     u5580:
  2961+                          	line	889
  2962+                          ;main.c: 889: LATA = 0b11111111;
  2963+ 013DFC  6889               	setf	((c:3977)),c	;volatile
  2964+                          	line	891
  2965+                          ;main.c: 891: LATB = 0b10000000;
  2966+ 013DFE  0E80               	movlw	low(080h)
  2967+ 013E00  6E8A               	movwf	((c:3978)),c	;volatile
  2968+                          	line	893
  2969+                          ;main.c: 893: LATC = 0b00011101;
  2970+ 013E02  0E1D               	movlw	low(01Dh)
  2971  013E04  6E8B               	movwf	((c:3979)),c	;volatile
  2972                           	line	895
  2973                           ;main.c: 895: } else if (led_array[0] == 1 && le
                                 d_array[10] == 1) {
  2974  013E06  EFFF  F09F         	goto	l991
  2975                           	
  2976  013E0A                     l1094:		; BSR set to: ?
  2977                           
  2978  013E0A  0400               	decf	((c:0)),c,w
  2979  013E0C  1001               	iorwf ((c:0+1)),c,w
  2980                           
  2981  013E0E  A4D8               	btfss	status,2
  2982  013E10  EF0C  F09F         	goto	u5591
  2983  013E14  EF0E  F09F         	goto	u5590
  2984  013E18                     u5591:
  2985  013E18  EF1E  F09F         	goto	l1096
  2986  013E1C                     u5590:
  2987  013E1C  0414               	decf	(0+((c:0)+014h)),c,w
  2988  013E1E  1015               	iorwf (1+((c:0)+014h)),c,w
  2989                           
  2990  013E20  A4D8               	btfss	status,2
  2991  013E22  EF15  F09F         	goto	u5601
  2992  013E26  EF17  F09F         	goto	u5600
  2993  013E2A                     u5601:
  2994  013E2A  EF1E  F09F         	goto	l1096
  2995  013E2E                     u5600:
  2996                           	line	898
  2997                           ;main.c: 898: LATA = 0b11111111;
  2998  013E2E  6889               	setf	((c:3977)),c	;volatile
  2999                           	line	900
  3000                           ;main.c: 900: LATB = 0b00000000;
  3001  013E30  0E00               	movlw	low(0)
  3002  013E32  6E8A               	movwf	((c:3978)),c	;volatile
  3003                           	line	902
  3004                           ;main.c: 902: LATC = 0b00011111;
  3005  013E34  0E1F               	movlw	low(01Fh)
  3006  013E36  6E8B               	movwf	((c:3979)),c	;volatile
  3007                           	line	904
  3008                           ;main.c: 904: } else if (led_array[0] == 1 && le
                                 d_array[11] == 1) {
  3009  013E38  EFFF  F09F         	goto	l991
  3010                           	
  3011  013E3C                     l1096:		; BSR set to: ?
  3012                           
  3013  013E3C  0400               	decf	((c:0)),c,w
  3014  013E3E  1001               	iorwf ((c:0+1)),c,w
  3015                           
  3016  013E40  A4D8               	btfss	status,2
  3017  013E42  EF25  F09F         	goto	u5611
  3018  013E46  EF27  F09F         	goto	u5610
  3019  013E4A                     u5611:
  3020  013E4A  EF37  F09F         	goto	l1098
  3021  013E4E                     u5610:
  3022  013E4E  0416               	decf	(0+((c:0)+016h)),c,w
  3023  013E50  1017               	iorwf (1+((c:0)+016h)),c,w
  3024                           
  3025  013E52  A4D8               	btfss	status,2
  3026  013E54  EF2E  F09F         	goto	u5621
  3027  013E58  EF30  F09F         	goto	u5620
  3028  013E5C                     u5621:
  3029  013E5C  EF37  F09F         	goto	l1098
  3030  013E60                     u5620:
  3031                           	line	907
  3032                           ;main.c: 907: LATA = 0b11111111;
  3033  013E60  6889               	setf	((c:3977)),c	;volatile
  3034                           	line	909
  3035                           ;main.c: 909: LATB = 0b10000000;
  3036  013E62  0E80               	movlw	low(080h)
  3037  013E64  6E8A               	movwf	((c:3978)),c	;volatile
  3038                           	line	911
  3039                           ;main.c: 911: LATC = 0b00011011;
  3040  013E66  0E1B               	movlw	low(01Bh)
  3041  013E68  6E8B               	movwf	((c:3979)),c	;volatile
  3042                           	line	913
  3043                           ;main.c: 913: } else if (led_array[0] == 1 && le
                                 d_array[12] == 1) {
  3044  013E6A  EFFF  F09F         	goto	l991
  3045                           	
  3046  013E6E                     l1098:		; BSR set to: ?
  3047                           
  3048  013E6E  0400               	decf	((c:0)),c,w
  3049  013E70  1001               	iorwf ((c:0+1)),c,w
  3050                           
  3051  013E72  A4D8               	btfss	status,2
  3052  013E74  EF3E  F09F         	goto	u5631
  3053  013E78  EF40  F09F         	goto	u5630
  3054  013E7C                     u5631:
  3055  013E7C  EF50  F09F         	goto	l1100
  3056  013E80                     u5630:
  3057  013E80  0418               	decf	(0+((c:0)+018h)),c,w
  3058  013E82  1019               	iorwf (1+((c:0)+018h)),c,w
  3059                           
  3060  013E84  A4D8               	btfss	status,2
  3061  013E86  EF47  F09F         	goto	u5641
  3062  013E8A  EF49  F09F         	goto	u5640
  3063  013E8E                     u5641:
  3064  013E8E  EF50  F09F         	goto	l1100
  3065  013E92                     u5640:
  3066                           	line	916
  3067                           ;main.c: 916: LATA = 0b11111111;
  3068  013E92  6889               	setf	((c:3977)),c	;volatile
  3069                           	line	918
  3070                           ;main.c: 918: LATB = 0b10000000;
  3071  013E94  0E80               	movlw	low(080h)
  3072  013E96  6E8A               	movwf	((c:3978)),c	;volatile
  3073                           	line	920
  3074                           ;main.c: 920: LATC = 0b00010111;
  3075  013E98  0E17               	movlw	low(017h)
  3076  013E9A  6E8B               	movwf	((c:3979)),c	;volatile
  3077                           	line	922
  3078                           ;main.c: 922: } else if (led_array[1] == 1 && le
                                 d_array[6] == 1) {
  3079  013E9C  EFFF  F09F         	goto	l991
  3080                           	
  3081  013EA0                     l1100:		; BSR set to: ?
  3082                           
  3083  013EA0  0402               	decf	(0+((c:0)+02h)),c,w
  3084  013EA2  1003               	iorwf (1+((c:0)+02h)),c,w
  3085                           
  3086  013EA4  A4D8               	btfss	status,2
  3087  013EA6  EF57  F09F         	goto	u5651
  3088  013EAA  EF59  F09F         	goto	u5650
  3089  013EAE                     u5651:
  3090  013EAE  EF6A  F09F         	goto	l1102
  3091  013EB2                     u5650:
  3092  013EB2  040C               	decf	(0+((c:0)+0Ch)),c,w
  3093  013EB4  100D               	iorwf (1+((c:0)+0Ch)),c,w
  3094                           
  3095  013EB6  A4D8               	btfss	status,2
  3096  013EB8  EF60  F09F         	goto	u5661
  3097  013EBC  EF62  F09F         	goto	u5660
  3098  013EC0                     u5661:
  3099  013EC0  EF6A  F09F         	goto	l1102
  3100  013EC4                     u5660:
  3101                           	line	925
  3102                           ;main.c: 925: LATA = 0b11101111;
  3103  013EC4  0EEF               	movlw	low(0EFh)
  3104  013EC6  6E89               	movwf	((c:3977)),c	;volatile
  3105                           	line	927
  3106                           ;main.c: 927: LATB = 0b10000000;
  3107  013EC8  0E80               	movlw	low(080h)
  3108  013ECA  6E8A               	movwf	((c:3978)),c	;volatile
  3109                           	line	929
  3110                           ;main.c: 929: LATC = 0b00101111;
  3111  013ECC  0E2F               	movlw	low(02Fh)
  3112  013ECE  6E8B               	movwf	((c:3979)),c	;volatile
  3113                           	line	931
  3114                           ;main.c: 931: } else if (led_array[1] == 1 && le
                                 d_array[7] == 1) {
  3115  013ED0  EFFF  F09F         	goto	l991
  3116                           	
  3117  013ED4                     l1102:		; BSR set to: ?
  3118                           
  3119  013ED4  0402               	decf	(0+((c:0)+02h)),c,w
  3120  013ED6  1003               	iorwf (1+((c:0)+02h)),c,w
  3121                           
  3122  013ED8  A4D8               	btfss	status,2
  3123  013EDA  EF71  F09F         	goto	u5671
  3124  013EDE  EF73  F09F         	goto	u5670
  3125  013EE2                     u5671:
  3126  013EE2  EF84  F09F         	goto	l1104
  3127  013EE6                     u5670:
  3128  013EE6  040E               	decf	(0+((c:0)+0Eh)),c,w
  3129  013EE8  100F               	iorwf (1+((c:0)+0Eh)),c,w
  3130                           
  3131  013EEA  A4D8               	btfss	status,2
  3132  013EEC  EF7A  F09F         	goto	u5681
  3133  013EF0  EF7C  F09F         	goto	u5680
  3134  013EF4                     u5681:
  3135  013EF4  EF84  F09F         	goto	l1104
  3136  013EF8                     u5680:
  3137                           	line	934
  3138                           ;main.c: 934: LATA = 0b10111111;
  3139  013EF8  0EBF               	movlw	low(0BFh)
  3140  013EFA  6E89               	movwf	((c:3977)),c	;volatile
  3141                           	line	936
  3142                           ;main.c: 936: LATB = 0b10000000;
  3143  013EFC  0E80               	movlw	low(080h)
  3144  013EFE  6E8A               	movwf	((c:3978)),c	;volatile
  3145                           	line	938
  3146                           ;main.c: 938: LATC = 0b00101111;
  3147  013F00  0E2F               	movlw	low(02Fh)
  3148  013F02  6E8B               	movwf	((c:3979)),c	;volatile
  3149                           	line	940
  3150                           ;main.c: 940: } else if (led_array[1] == 1 && le
                                 d_array[8] == 1) {
  3151  013F04  EFFF  F09F         	goto	l991
  3152                           	
  3153  013F08                     l1104:		; BSR set to: ?
  3154                           
  3155  013F08  0402               	decf	(0+((c:0)+02h)),c,w
  3156  013F0A  1003               	iorwf (1+((c:0)+02h)),c,w
  3157                           
  3158  013F0C  A4D8               	btfss	status,2
  3159  013F0E  EF8B  F09F         	goto	u5691
  3160  013F12  EF8D  F09F         	goto	u5690
  3161  013F16                     u5691:
  3162  013F16  EF9D  F09F         	goto	l1106
  3163  013F1A                     u5690:
  3164  013F1A  0410               	decf	(0+((c:0)+010h)),c,w
  3165  013F1C  1011               	iorwf (1+((c:0)+010h)),c,w
  3166                           
  3167  013F1E  A4D8               	btfss	status,2
  3168  013F20  EF94  F09F         	goto	u5701
  3169  013F24  EF96  F09F         	goto	u5700
  3170  013F28                     u5701:
  3171  013F28  EF9D  F09F         	goto	l1106
  3172  013F2C                     u5700:
  3173                           	line	943
  3174                           ;main.c: 943: LATA = 0b11111111;
  3175  013F2C  6889               	setf	((c:3977)),c	;volatile
  3176                           	line	945
  3177                           ;main.c: 945: LATB = 0b10000000;
  3178  013F2E  0E80               	movlw	low(080h)
  3179  013F30  6E8A               	movwf	((c:3978)),c	;volatile
  3180                           	line	947
  3181                           ;main.c: 947: LATC = 0b00101110;
  3182  013F32  0E2E               	movlw	low(02Eh)
  3183  013F34  6E8B               	movwf	((c:3979)),c	;volatile
  3184                           	line	949
  3185                           ;main.c: 949: } else if (led_array[1] == 1 && le
                                 d_array[9] == 1) {
  3186  013F36  EFFF  F09F         	goto	l991
  3187                           	
  3188  013F3A                     l1106:		; BSR set to: ?
  3189                           
  3190  013F3A  0402               	decf	(0+((c:0)+02h)),c,w
  3191  013F3C  1003               	iorwf (1+((c:0)+02h)),c,w
  3192                           
  3193  013F3E  A4D8               	btfss	status,2
  3194  013F40  EFA4  F09F         	goto	u5711
  3195  013F44  EFA6  F09F         	goto	u5710
  3196  013F48                     u5711:
  3197  013F48  EFB6  F09F         	goto	l1108
  3198  013F4C                     u5710:
  3199  013F4C  0412               	decf	(0+((c:0)+012h)),c,w
  3200  013F4E  1013               	iorwf (1+((c:0)+012h)),c,w
  3201                           
  3202  013F50  A4D8               	btfss	status,2
  3203  013F52  EFAD  F09F         	goto	u5721
  3204  013F56  EFAF  F09F         	goto	u5720
  3205  013F5A                     u5721:
  3206  013F5A  EFB6  F09F         	goto	l1108
  3207  013F5E                     u5720:
  3208                           	line	952
  3209                           ;main.c: 952: LATA = 0b11111111;
  3210  013F5E  6889               	setf	((c:3977)),c	;volatile
  3211                           	line	954
  3212                           ;main.c: 954: LATB = 0b10000000;
  3213  013F60  0E80               	movlw	low(080h)
  3214  013F62  6E8A               	movwf	((c:3978)),c	;volatile
  3215                           	line	956
  3216                           ;main.c: 956: LATC = 0b00101101;
  3217  013F64  0E2D               	movlw	low(02Dh)
  3218  013F66  6E8B               	movwf	((c:3979)),c	;volatile
  3219                           	line	958
  3220                           ;main.c: 958: } else if (led_array[1] == 1 && le
                                 d_array[10] == 1) {
  3221  013F68  EFFF  F09F         	goto	l991
  3222                           	
  3223  013F6C                     l1108:		; BSR set to: ?
  3224                           
  3225  013F6C  0402               	decf	(0+((c:0)+02h)),c,w
  3226  013F6E  1003               	iorwf (1+((c:0)+02h)),c,w
  3227                           
  3228  013F70  A4D8               	btfss	status,2
  3229  013F72  EFBD  F09F         	goto	u5731
  3230  013F76  EFBF  F09F         	goto	u5730
  3231  013F7A                     u5731:
  3232  013F7A  EFCF  F09F         	goto	l1110
  3233  013F7E                     u5730:
  3234  013F7E  0414               	decf	(0+((c:0)+014h)),c,w
  3235  013F80  1015               	iorwf (1+((c:0)+014h)),c,w
  3236                           
  3237  013F82  A4D8               	btfss	status,2
  3238  013F84  EFC6  F09F         	goto	u5741
  3239  013F88  EFC8  F09F         	goto	u5740
  3240  013F8C                     u5741:
  3241  013F8C  EFCF  F09F         	goto	l1110
  3242  013F90                     u5740:
  3243                           	line	961
  3244                           ;main.c: 961: LATA = 0b11111111;
  3245  013F90  6889               	setf	((c:3977)),c	;volatile
  3246                           	line	963
  3247                           ;main.c: 963: LATB = 0b00000000;
  3248  013F92  0E00               	movlw	low(0)
  3249  013F94  6E8A               	movwf	((c:3978)),c	;volatile
  3250                           	line	965
  3251                           ;main.c: 965: LATC = 0b00101111;
  3252  013F96  0E2F               	movlw	low(02Fh)
  3253  013F98  6E8B               	movwf	((c:3979)),c	;volatile
  3254                           	line	967
  3255                           ;main.c: 967: } else if (led_array[1] == 1 && le
                                 d_array[11] == 1) {
  3256  013F9A  EFFF  F09F         	goto	l991
  3257                           	
  3258  013F9E                     l1110:		; BSR set to: ?
  3259                           
  3260  013F9E  0402               	decf	(0+((c:0)+02h)),c,w
  3261  013FA0  1003               	iorwf (1+((c:0)+02h)),c,w
  3262                           
  3263  013FA2  A4D8               	btfss	status,2
  3264  013FA4  EFD6  F09F         	goto	u5751
  3265  013FA8  EFD8  F09F         	goto	u5750
  3266  013FAC                     u5751:
  3267  013FAC  EFE8  F09F         	goto	l1112
  3268  013FB0                     u5750:
  3269  013FB0  0416               	decf	(0+((c:0)+016h)),c,w
  3270  013FB2  1017               	iorwf (1+((c:0)+016h)),c,w
  3271                           
  3272  013FB4  A4D8               	btfss	status,2
  3273  013FB6  EFDF  F09F         	goto	u5761
  3274  013FBA  EFE1  F09F         	goto	u5760
  3275  013FBE                     u5761:
  3276  013FBE  EFE8  F09F         	goto	l1112
  3277  013FC2                     u5760:
  3278                           	line	970
  3279                           ;main.c: 970: LATA = 0b11111111;
  3280  013FC2  6889               	setf	((c:3977)),c	;volatile
  3281                           	line	972
  3282                           ;main.c: 972: LATB = 0b10000000;
  3283  013FC4  0E80               	movlw	low(080h)
  3284  013FC6  6E8A               	movwf	((c:3978)),c	;volatile
  3285                           	line	974
  3286                           ;main.c: 974: LATC = 0b00101011;
  3287  013FC8  0E2B               	movlw	low(02Bh)
  3288  013FCA  6E8B               	movwf	((c:3979)),c	;volatile
  3289                           	line	976
  3290                           ;main.c: 976: } else if (led_array[1] == 1 && le
                                 d_array[12] == 1) {
  3291  013FCC  EFFF  F09F         	goto	l991
  3292                           	
  3293  013FD0                     l1112:		; BSR set to: ?
  3294                           
  3295  013FD0  0402               	decf	(0+((c:0)+02h)),c,w
  3296  013FD2  1003               	iorwf (1+((c:0)+02h)),c,w
  3297                           
  3298  013FD4  A4D8               	btfss	status,2
  3299  013FD6  EFEF  F09F         	goto	u5771
  3300  013FDA  EFF1  F09F         	goto	u5770
  3301  013FDE                     u5771:
  3302  013FDE  EFFF  F09F         	goto	l991
  3303  013FE2                     u5770:
  3304  013FE2  0418               	decf	(0+((c:0)+018h)),c,w
  3305  013FE4  1019               	iorwf (1+((c:0)+018h)),c,w
  3306                           
  3307  013FE6  A4D8               	btfss	status,2
  3308  013FE8  EFF8  F09F         	goto	u5781
  3309  013FEC  EFFA  F09F         	goto	u5780
  3310  013FF0                     u5781:
  3311  013FF0  EFFF  F09F         	goto	l991
  3312  013FF4                     u5780:
  3313                           	line	979
  3314                           ;main.c: 979: LATA = 0b11111111;
  3315  013FF4  6889               	setf	((c:3977)),c	;volatile
  3316                           	line	981
  3317                           ;main.c: 981: LATB = 0b10000000;
  3318  013FF6  0E80               	movlw	low(080h)
  3319  013FF8  6E8A               	movwf	((c:3978)),c	;volatile
  3320                           	line	983
  3321                           ;main.c: 983: LATC = 0b00100111;
  3322  013FFA  0E27               	movlw	low(027h)
  3323  013FFC  6E8B               	movwf	((c:3979)),c	;volatile
  3324                           	line	984
  3325                           	
  3326  013FFE                     l1114:		; BSR set to: ?
  3327                           
  3328                           	line	985
  3329                           	
  3330  013FFE                     l1113:		; BSR set to: ?
  3331                           
  3332                           	
  3333  013FFE                     l1111:		; BSR set to: ?
  3334                           
  3335                           	
  3336  013FFE                     l1109:		; BSR set to: ?
  3337                           
  3338                           	
  3339  013FFE                     l1107:		; BSR set to: ?
  3340                           
  3341                           	
  3342  013FFE                     l1105:		; BSR set to: ?
  3343                           
  3344                           	
  3345  013FFE                     l1103:		; BSR set to: ?
  3346                           
  3347                           	
  3348  013FFE                     l1101:		; BSR set to: ?
  3349                           
  3350                           	
  3351  013FFE                     l1099:		; BSR set to: ?
  3352                           
  3353                           	
  3354  013FFE                     l1097:		; BSR set to: ?
  3355                           
  3356                           	
  3357  013FFE                     l1095:		; BSR set to: ?
  3358                           
  3359                           	
  3360  013FFE                     l1093:		; BSR set to: ?
  3361                           
  3362                           	
  3363  013FFE                     l1091:		; BSR set to: ?
  3364                           
  3365                           	
  3366  013FFE                     l1089:		; BSR set to: ?
  3367                           
  3368                           	
  3369  013FFE                     l1087:		; BSR set to: ?
  3370                           
  3371                           	
  3372  013FFE                     l1085:		; BSR set to: ?
  3373                           
  3374                           	
  3375  013FFE                     l1083:		; BSR set to: ?
  3376                           
  3377                           	
  3378  013FFE                     l1081:		; BSR set to: ?
  3379                           
  3380                           	
  3381  013FFE                     l1079:		; BSR set to: ?
  3382                           
  3383                           	
  3384  013FFE                     l1077:		; BSR set to: ?
  3385                           
  3386                           	
  3387  013FFE                     l1075:		; BSR set to: ?
  3388                           
  3389                           	
  3390  013FFE                     l1073:		; BSR set to: ?
  3391                           
  3392                           	
  3393  013FFE                     l1071:		; BSR set to: ?
  3394                           
  3395                           	
  3396  013FFE                     l1069:		; BSR set to: ?
  3397                           
  3398                           	
  3399  013FFE                     l1067:		; BSR set to: ?
  3400                           
  3401                           	
  3402  013FFE                     l1065:		; BSR set to: ?
  3403                           
  3404                           	
  3405  013FFE                     l1063:		; BSR set to: ?
  3406                           
  3407                           	
  3408  013FFE                     l1061:		; BSR set to: ?
  3409                           
  3410                           	
  3411  013FFE                     l1059:		; BSR set to: ?
  3412                           
  3413                           	
  3414  013FFE                     l1057:		; BSR set to: ?
  3415                           
  3416                           	
  3417  013FFE                     l1055:		; BSR set to: ?
  3418                           
  3419                           	
  3420  013FFE                     l1053:		; BSR set to: ?
  3421                           
  3422                           	
  3423  013FFE                     l1051:		; BSR set to: ?
  3424                           
  3425                           	
  3426  013FFE                     l1049:		; BSR set to: ?
  3427                           
  3428                           	
  3429  013FFE                     l1047:		; BSR set to: ?
  3430                           
  3431                           	
  3432  013FFE                     l1045:		; BSR set to: ?
  3433                           
  3434                           	
  3435  013FFE                     l1043:		; BSR set to: ?
  3436                           
  3437                           	
  3438  013FFE                     l1041:		; BSR set to: ?
  3439                           
  3440                           	
  3441  013FFE                     l1039:		; BSR set to: ?
  3442                           
  3443                           	
  3444  013FFE                     l1037:		; BSR set to: ?
  3445                           
  3446                           	
  3447  013FFE                     l1035:		; BSR set to: ?
  3448                           
  3449                           	
  3450  013FFE                     l1033:		; BSR set to: ?
  3451                           
  3452                           	
  3453  013FFE                     l1031:		; BSR set to: ?
  3454                           
  3455                           	
  3456  013FFE                     l1029:		; BSR set to: ?
  3457                           
  3458                           	
  3459  013FFE                     l1027:		; BSR set to: ?
  3460                           
  3461                           	
  3462  013FFE                     l1025:		; BSR set to: ?
  3463                           
  3464                           	
  3465  013FFE                     l1023:		; BSR set to: ?
  3466                           
  3467                           	
  3468  013FFE                     l1021:		; BSR set to: ?
  3469                           
  3470                           	
  3471  013FFE                     l1019:		; BSR set to: ?
  3472                           
  3473                           	
  3474  013FFE                     l1017:		; BSR set to: ?
  3475                           
  3476                           	
  3477  013FFE                     l1015:		; BSR set to: ?
  3478                           
  3479                           	
  3480  013FFE                     l1013:		; BSR set to: ?
  3481                           
  3482                           	
  3483  013FFE                     l1011:		; BSR set to: ?
  3484                           
  3485                           	
  3486  013FFE                     l1009:		; BSR set to: ?
  3487                           
  3488                           	
  3489  013FFE                     l1007:		; BSR set to: ?
  3490                           
  3491                           	
  3492  013FFE                     l1005:		; BSR set to: ?
  3493                           
  3494                           	
  3495  013FFE                     l1003:		; BSR set to: ?
  3496                           
  3497                           	
  3498  013FFE                     l1001:		; BSR set to: ?
  3499                           
  3500                           	
  3501  013FFE                     l999:		; BSR set to: ?
  3502                           
  3503                           	
  3504  013FFE                     l997:		; BSR set to: ?
  3505                           
  3506                           	
  3507  013FFE                     l995:		; BSR set to: ?
  3508                           
  3509                           	
  3510  013FFE                     l993:		; BSR set to: ?
  3511                           
  3512                           	
  3513  013FFE                     l991:		; BSR set to: ?
  3514                           
  3515                           ;main.c: 984: }
  3516                           ;main.c: 985: }
  3517  013FFE                     l989:
  3518                           			; BSR set to: ?
  3519                           
  3520  013FFE  0012               	return
  3521                           	opt stack 0
  3522                           GLOBAL __end_of_ToggleLeds
  3523  014000                     	__end_of_ToggleLeds:
  3524                           	FNSIZE	_ToggleLeds,0,0
  3525                           ; =============== function _ToggleLeds ends ====
                                 ========
  3526                           
  3527                           	signat	_ToggleLeds,88
  3528                           	global	_DelayMs
  3529                           	global	??_DelayMs
  3530                           	global	?_DelayMs
  3531                           
  3532                           ; *************** function _DelayMs ************
                                 *****
  3533                           ; Defined at:
  3534                           ;		line 12 in file "delay.c"
  3535                           ; Parameters:
  3536                           ;		cnt            size:   1offs:   0	type: unsig
                                 ned char 
  3537                           ; Auto variables:
  3538                           ;		i           	       	type: unsigned char 
  3539                           ;		_dcnt       	       	type: unsigned char 
  3540                           ; Return value:
  3541                           ;		type: void 
  3542                           ;		size: 0
  3543                           ; Registers used:
  3544                           ;		status,2
  3545                           ; Tracked objects:
  3546                           ;		On entry : 0/0
  3547                           ;		On exit  : 0/0
  3548                           ;		Unchanged: 0/0
  3549                           ; Data sizes:
  3550                           ;		Autos:    2
  3551                           ;		Params:   1
  3552                           ;		Temp:     1
  3553                           ;		Total:    4
  3554                           ; This function calls:
  3555                           ;		Nothing
  3556                           ; This function is called by:
  3557                           ;		_main
  3558                           ; This function uses a non-reentrant model
  3559                           ; 
  3560                                   psect   text2,class=CODE,space=0,reloc=2
  3561                           
  3562                           	opt lm
  3563                           	file	"delay.c"
  3564                           	line	12
  3565  000000                     	__size_of_DelayMs	equ	__end_of_DelayMs-_DelayMs
  3566                           ;delay.c: 10: void
  3567                           ;delay.c: 11: DelayMs(unsigned char cnt)
  3568                           ;delay.c: 12: {
  3569                           	
  3570  012EA4                     _DelayMs:		; BSR set to: ?
  3571                           
  3572                           	opt stack 30
  3573                           	line	21
  3574                           	
  3575  012EA4                     l1190:		; BSR set to: ?
  3576                           
  3577                           	line	22
  3578                           ;delay.c: 22: i = 4;
  3579  012EA4  0101               	movlb	1	; () banked
  3580  012EA6  6F0D               	movwf	(??_DelayMs+2+0)&0ffh
  3581  012EA8  0E04               	movlw	low(04h)
  3582  012EAA  0101               	movlb	1	; () banked
  3583  012EAC  0101               	movlb	1	; () banked
  3584  012EAE  6F0B               	movwf	((DelayMs@i))&0ffh
  3585  012EB0  0101               	movlb	1	; () banked
  3586  012EB2  510D               	movf	(??_DelayMs+2+0)&0ffh,w
  3587                           	line	23
  3588                           ;delay.c: 23: do {
  3589                           	
  3590  012EB4                     l1193:		; BSR set to: ?
  3591                           
  3592                           	line	24
  3593                           ;delay.c: 24: { unsigned char _dcnt; _dcnt = (25
                                 0)*((20*1000L)/(12*1000L)); while(--_dcnt != 0) 
                                 continue; };
  3594  012EB4  0101               	movlb	1	; () banked
  3595  012EB6  6F0D               	movwf	(??_DelayMs+2+0)&0ffh
  3596  012EB8  0EFA               	movlw	low(0FAh)
  3597  012EBA  0101               	movlb	1	; () banked
  3598  012EBC  0101               	movlb	1	; () banked
  3599  012EBE  6F0C               	movwf	((DelayMs@_dcnt))&0ffh
  3600  012EC0  0101               	movlb	1	; () banked
  3601  012EC2  510D               	movf	(??_DelayMs+2+0)&0ffh,w
  3602  012EC4  EF66  F097         	goto	l1194
  3603                           	
  3604  012EC8                     l1195:		; BSR set to: ?
  3605                           
  3606  012EC8  EF66  F097         	goto	l1194
  3607                           	
  3608  012ECC                     l1194:		; BSR set to: ?
  3609                           
  3610  012ECC  0101               	movlb	1	; () banked
  3611  012ECE  0101               	movlb	1	; () banked
  3612  012ED0  2F0C               	decfsz	((DelayMs@_dcnt))&0ffh
  3613                           	
  3614  012ED2  EF64  F097         	goto	l1195
  3615                           	
  3616  012ED6                     l1196:		; BSR set to: ?
  3617                           
  3618                           	line	25
  3619                           ;delay.c: 25: } while(--i);
  3620  012ED6  0101               	movlb	1	; () banked
  3621  012ED8  0101               	movlb	1	; () banked
  3622  012EDA  2F0B               	decfsz	((DelayMs@i))&0ffh
  3623                           	
  3624  012EDC  EF5A  F097         	goto	l1193
  3625                           	
  3626  012EE0                     l1192:		; BSR set to: ?
  3627                           
  3628                           	line	26
  3629                           ;delay.c: 26: } while(--cnt);
  3630  012EE0  0101               	movlb	1	; () banked
  3631  012EE2  0101               	movlb	1	; () banked
  3632  012EE4  2F0A               	decfsz	((DelayMs@cnt))&0ffh
  3633                           	
  3634  012EE6  EF52  F097         	goto	l1190
  3635                           	
  3636  012EEA                     l1189:		; BSR set to: ?
  3637                           
  3638                           	line	28
  3639                           ;delay.c: 28: }
  3640  012EEA                     l1187:
  3641                           			; BSR set to: ?
  3642                           
  3643  012EEA  0012               	return
  3644                           	opt stack 0
  3645                           GLOBAL __end_of_DelayMs
  3646  012EEC                     	__end_of_DelayMs:
  3647                           	FNSIZE	_DelayMs,3,1
  3648                           ; =============== function _DelayMs ends =======
                                 =====
  3649                           
  3650                           	signat	_DelayMs,4216
  3651                           	FNCALL	_main,_DelayMs
  3652                           	FNCALL	_main,_ToggleLeds
  3653                           	FNROOT	_main
  3654                                   psect   const,class=CODE,space=0,reloc=2
  3655                           	global	_led_array
  3656                           	global	_led_array
  3657  000000                     _led_array  equ     0
  3658                           
  3659                           	DABS	1,0,26	;_led_array
  3660                           	global	_cur_inputs
  3661                           	global	_cur_inputs
  3662  000000                     _cur_inputs  equ     26
  3663                           
  3664                           	DABS	1,26,14	;_cur_inputs
  3665                           	global	_prev_inputs
  3666                           	global	_prev_inputs
  3667  000000                     _prev_inputs  equ     51
  3668                           
  3669                           	DABS	1,51,14	;_prev_inputs
  3670                           	global	_conv_result
  3671                           	global	_conv_result
  3672  000000                     _conv_result  equ     42
  3673                           
  3674                           	DABS	1,42,4	;_conv_result
  3675                           	global	_index
  3676                           	global	_index
  3677  000000                     _index  equ     40
  3678                           
  3679                           	DABS	1,40,2	;_index
  3680                           	global	_USART_Status
  3681                           	global	_USART_Status
  3682  000000                     _USART_Status  equ     48
  3683                           
  3684                           	DABS	1,48,1	;_USART_Status
  3685                           	global	_adc_num
  3686                           	global	_adc_num
  3687  000000                     _adc_num  equ     46
  3688                           
  3689                           	DABS	1,46,1	;_adc_num
  3690                           	global	_change_val
  3691                           	global	_change_val
  3692  000000                     _change_val  equ     47
  3693                           
  3694                           	DABS	1,47,1	;_change_val
  3695                           	global	_uart_in
  3696                           	global	_uart_in
  3697  000000                     _uart_in  equ     50
  3698                           
  3699                           	DABS	1,50,1	;_uart_in
  3700                           	global	_uart_out
  3701                           	global	_uart_out
  3702  000000                     _uart_out  equ     49
  3703                           
  3704                           	DABS	1,49,1	;_uart_out
  3705                           	global	_ADRES
  3706  000000                     _ADRES	equ	0xFC3
  3707                           	global	_ADCON0
  3708  000000                     _ADCON0	equ	0xFC2
  3709                           	global	_ADCON1
  3710  000000                     _ADCON1	equ	0xFC1
  3711                           	global	_ADCON2
  3712  000000                     _ADCON2	equ	0xFC0
  3713                           	global	_ADRESH
  3714  000000                     _ADRESH	equ	0xFC4
  3715                           	global	_ADRESL
  3716  000000                     _ADRESL	equ	0xFC3
  3717                           	global	_BAUDCON
  3718  000000                     _BAUDCON	equ	0xFB8
  3719                           	global	_LATA
  3720  000000                     _LATA	equ	0xF89
  3721                           	global	_LATB
  3722  000000                     _LATB	equ	0xF8A
  3723                           	global	_LATC
  3724  000000                     _LATC	equ	0xF8B
  3725                           	global	_OSCCON
  3726  000000                     _OSCCON	equ	0xFD3
  3727                           	global	_PIR1
  3728  000000                     _PIR1	equ	0xF9E
  3729                           	global	_RCREG
  3730  000000                     _RCREG	equ	0xFAE
  3731                           	global	_RCSTA
  3732  000000                     _RCSTA	equ	0xFAB
  3733                           	global	_SPBRG
  3734  000000                     _SPBRG	equ	0xFAF
  3735                           	global	_SPBRGH
  3736  000000                     _SPBRGH	equ	0xFB0
  3737                           	global	_TRISA
  3738  000000                     _TRISA	equ	0xF92
  3739                           	global	_TRISB
  3740  000000                     _TRISB	equ	0xF93
  3741                           	global	_TRISC
  3742  000000                     _TRISC	equ	0xF94
  3743                           	global	_TXREG
  3744  000000                     _TXREG	equ	0xFAD
  3745                           	global	_TXSTA
  3746  000000                     _TXSTA	equ	0xFAC
  3747                           	global	_ADON
  3748  000000                     _ADON	equ	0x7E10
  3749                           	global	_BRGH_x
  3750  000000                     _BRGH_x	equ	0x7D62
  3751                           	global	_CREN_x
  3752  000000                     _CREN_x	equ	0x7D5C
  3753                           	global	_CSRC_x
  3754  000000                     _CSRC_x	equ	0x7D67
  3755                           	global	_FERR
  3756  000000                     _FERR	equ	0x7D5A
  3757                           	global	_GODONE
  3758  000000                     _GODONE	equ	0x7E11
  3759                           	global	_OERR
  3760  000000                     _OERR	equ	0x7D59
  3761                           	global	_RCIE_x
  3762  000000                     _RCIE_x	equ	0x7CED
  3763                           	global	_RCIF
  3764  000000                     _RCIF	equ	0x7CF5
  3765                           	global	_RX9D
  3766  000000                     _RX9D	equ	0x7D58
  3767                           	global	_RX9_x
  3768  000000                     _RX9_x	equ	0x7D5E
  3769                           	global	_SENDB_x
  3770  000000                     _SENDB_x	equ	0x7D63
  3771                           	global	_SPEN_x
  3772  000000                     _SPEN_x	equ	0x7D5F
  3773                           	global	_SREN_x
  3774  000000                     _SREN_x	equ	0x7D5D
  3775                           	global	_SYNC_x
  3776  000000                     _SYNC_x	equ	0x7D64
  3777                           	global	_TRISC6
  3778  000000                     _TRISC6	equ	0x7CA6
  3779                           	global	_TRISC7
  3780  000000                     _TRISC7	equ	0x7CA7
  3781                           	global	_TRMT_x
  3782  000000                     _TRMT_x	equ	0x7D61
  3783                           	global	_TX9D
  3784  000000                     _TX9D	equ	0x7D60
  3785                           	global	_TX9_x
  3786  000000                     _TX9_x	equ	0x7D66
  3787                           	global	_TXEN_x
  3788  000000                     _TXEN_x	equ	0x7D65
  3789                           	global	_TXIE_x
  3790  000000                     _TXIE_x	equ	0x7CEC
  3791                           	global	_TXIF
  3792  000000                     _TXIF	equ	0x7CF4
  3793                           	psect	intsave_regs,class=BIGRAM,space=1
  3794                           	PSECT	param1,class=BANK1,space=1
  3795                           	GLOBAL	__Lparam1
  3796                           	FNCONF	param1,??,?
  3797                           	GLOBAL	__Labsbss0
  3798  000000                     __Labsbss0	EQU	0
  3799                           	GLOBAL	__Habsbss0
  3800  000000                     __Habsbss0	EQU	65
  3801                           GLOBAL	__Lparam, __Hparam
  3802                           GLOBAL	__Lparam1, __Hparam1
  3803  000000                     __Lparam	EQU	__Lparam1
  3804  000000                     __Hparam	EQU	__Hparam1


HI-TECH Software PICC-18 Macro Assembler V9.66 build 8870 
Symbol Table                                           Mon May 07 12:08:32 2012

                l900 30AC                  l902 30BA  
                l904 30F8                  l905 30E6  
                l914 3100                  l907 30F4  
                l924 3108                  l909 30FC  
                l934 3110                  l919 3104  
                l871 2F56                  l944 3118  
                l880 2FF6                  l929 310C  
                l881 2FCA                  l873 2F64  
                l954 3120                  l874 2F7A  
                l867 3212                  l939 3114  
                l891 303C                  l883 2FD8  
                l868 31D4                  l964 3128  
                l892 3048                  l884 2FE4  
                l876 2F88                  l949 311C  
                l877 2F94                  l869 2F3E  
                l990 325C                  l974 3130  
                l894 3056                  l886 2FF2  
                l991 3FFE                  l983 3212  
                l959 3124                  l887 3134  
                l879 2FA2                  l992 32A2  
                l896 30BE                  l888 305A  
                l993 3FFE                  l985 3212  
                l969 312C                  l897 3092  
                l889 302E                  l994 32E6  
                l986 31DC                  l995 3FFE  
                l987 31D8                  l899 30A0  
                l996 332A                  l988 31EC  
                l989 3FFE                  l997 3FFE  
                l998 336E                  l999 3FFE  
        main@channel 0106                 l1000 33B2  
               l1001 3FFE                 l1010 34C2  
               l1002 33F6                 l1003 3FFE  
               l1011 3FFE                 l1100 3EA0  
               l1020 35C0                 l1012 34F4  
               l1004 342A                 l1005 3FFE  
               l1013 3FFE                 l1021 3FFE  
               l1101 3FFE                 l1110 3F9E  
               l1102 3ED4                 l1030 36BA  
               l1022 35F2                 l1014 3526  
               l1006 345E                 l1007 3FFE  
               l1015 3FFE                 l1023 3FFE  
               l1031 3FFE                 l1103 3FFE  
               l1111 3FFE                 l1112 3FD0  
               l1104 3F08                 l1040 3812  
               l1032 3700                 l1024 3624  
               l1016 3558                 l1008 3490  
               l1009 3FFE                 l1017 3FFE  
               l1025 3FFE                 l1033 3FFE  
               l1041 3FFE                 l1105 3FFE  
               l1113 3FFE                 l1114 3FFE  
               l1106 3F3A                 l1050 3934  
               l1042 3856                 l1034 3746  
               l1026 3656                 l1018 358C  
               l1019 3FFE                 l1027 3FFE  
               l1035 3FFE                 l1043 3FFE  
               l1051 3FFE                 l1107 3FFE  
               l1108 3F6C                 l1060 3A30  
               l1052 3966                 l1044 389A  
               l1036 378A                 l1028 3688  
               l1029 3FFE                 l1037 3FFE  
               l1045 3FFE                 l1053 3FFE  
               l1061 3FFE                 l1109 3FFE  
               l1070 3B2C                 l1062 3A64  
               l1054 3998                 l1046 38CE  
               l1038 37CE                 l1039 3FFE  
               l1047 3FFE                 l1055 3FFE  
               l1063 3FFE                 l1071 3FFE  
               l1080 3C72                 l1072 3B5E  
               l1064 3A96                 l1056 39CA  
               l1048 3902                 l1049 3FFE  
               l1057 3FFE                 l1065 3FFE  
               l1073 3FFE                 l1081 3FFE  
               l1090 3DA6                 l1082 3CB6  
               l1074 3BA4                 l1066 3AC8  
               l1058 39FC                 l1059 3FFE  
               l1067 3FFE                 l1075 3FFE  
               l1083 3FFE                 l1091 3FFE  
               l1092 3DD8                 l1084 3CFA  
               l1076 3BEA                 l1068 3AFA  
               l1069 3FFE                 l1077 3FFE  
               l1085 3FFE                 l1093 3FFE  
               l1190 2EA4                 l1094 3E0A  
               l1086 3D3E                 l1078 3C2E  
               l1079 3FFE                 l1087 3FFE  
               l1095 3FFE                 l1192 2EE0  
               l1096 3E3C                 l1088 3D72  
               l1193 2EB4                 l1089 3FFE  
               l1097 3FFE                 l1194 2ECC  
               l1098 3E6E                 l1187 2EEA  
               l1195 2EC8                 l1099 3FFE  
               l1196 2ED6                 l1189 2EEA  
               _ADON 007E10                 _FERR 007D5A  
               _LATA 000F89                 _LATB 000F8A  
               _LATC 000F8B                 u5000 387A  
               u5001 3876                 u5010 388C  
               u5011 3888                 u5100 3978  
               u5020 38AC                 u5101 3974  
               u5021 38A8                 u5110 398A  
               u5030 38BE                 u5111 3986  
               u5031 38BA                 u5200 3A76  
               u5120 39AA                 u5040 38E0  
               u4400 32D8                 u4320 3228  
               u5201 3A72                 u5121 39A6  
               u5041 38DC                 u4401 32D4  
               u4321 3224                 u5210 3A88  
               u5130 39BC                 u5050 38F2  
               u4410 32F8                 u4330 323A  
               u5211 3A84                 u5131 39B8  
               u5051 38EE                 u4411 32F4  
               u4331 3236                 u5300 3B70  
               u5220 3AA8                 u5140 39DC  
               u5060 3914                 u4500 33C4  
               u4420 330A                 u4340 324C  
               u6100 31EC                 u5301 3B6C  
               u5221 3AA4                 u5141 39D8  
               u5061 3910                 u4501 33C0  
               u4421 3306                 u4341 3248  
               u6101 31E8                 u5310 3B82  
               u5230 3ABA                 u5150 39EE  
               u5070 3926                 u4510 33D6  
               u4430 331C                 u4350 326E  
               u5311 3B7E                 u5231 3AB6  
               u5151 39EA                 u5071 3922  
               u4511 33D2                 u4431 3318  
               u4351 326A                 u5400 3C52  
               u5320 3B94                 u5240 3ADA  
               u5160 3A0E                 u5080 3946  
               u4600 34B4                 u4520 33E8  
               u4440 333C                 u4360 3280  
               u5401 3C4E                 u5321 3B90  
               u5241 3AD6                 u5161 3A0A  
               u5081 3942                 u4601 34B0  
               u4521 33E4                 u4441 3338  
               u4361 327C                 u5410 3C64  
               u5330 3BB6                 u5250 3AEC  
               u5170 3A20                 u5090 3958  
               u4610 34D4                 u4530 3408  
               u4450 334E                 u4370 3292  
               u5411 3C60                 u5331 3BB2  
               u5251 3AE8                 u5171 3A1C  
               u5091 3954                 u4611 34D0  
               u4531 3404                 u4451 334A  
               u4371 328E                 u5500 3D30  
               u5420 3C84                 u5340 3BC8  
               u5260 3B0C                 u5180 3A42  
               u4700 35B0                 u4620 34E6  
               u4540 341A                 u4460 3360  
               u4380 32B4                 u5501 3D2C  
               u5421 3C80                 u5341 3BC4  
               u5261 3B08                 u5181 3A3E  
               u4701 35AC                 u4621 34E2  
               u4541 3416                 u4461 335C  
               u4381 32B0                 u5510 3D50  
               u5430 3C96                 u5350 3BDA  
               u5270 3B1E                 u5190 3A54  
               u4710 35D2                 u4630 3506  
               u4550 343C                 u4470 3380  
               u4390 32C6                 u5511 3D4C  
               u5431 3C92                 u5351 3BD6  
               u5271 3B1A                 u5191 3A50  
               u4711 35CE                 u4631 3502  
               u4551 3438                 u4471 337C  
               u4391 32C2                 u5600 3E2E  
               u5520 3D62                 u5440 3CA8  
               u5360 3BFC                 u5280 3B3E  
               u4800 36AC                 u4720 35E4  
               u4640 3518                 u4560 344E  
               u4480 3392                 u5601 3E2A  
               u5521 3D5E                 u5441 3CA4  
               u5361 3BF8                 u5281 3B3A  
               u4801 36A8                 u4721 35E0  
               u4641 3514                 u4561 344A  
               u4481 338E                 u5610 3E4E  
               u5530 3D84                 u5450 3CC8  
               u5370 3C0E                 u5290 3B50  
               u4810 36CC                 u4730 3604  
               u4650 3538                 u4570 3470  
               u4490 33A4                 u5611 3E4A  
               u5531 3D80                 u5451 3CC4  
               u5371 3C0A                 u5291 3B4C  
               u4811 36C8                 u4731 3600  
               u4651 3534                 u4571 346C  
               u4491 33A0                 _RCIF 007CF5  
               u5700 3F2C                 u5620 3E60  
               u5540 3D96                 u5460 3CDA  
               u5380 3C20                 u4900 379C  
               u4820 36DE                 u4740 3616  
               u4660 354A                 u4580 3482  
               u5701 3F28                 u5621 3E5C  
               u5541 3D92                 u5461 3CD6  
               u5381 3C1C                 u4901 3798  
               u4821 36DA                 u4741 3612  
               u4661 3546                 u4581 347E  
               u5710 3F4C                 u5630 3E80  
               u5550 3DB8                 u5470 3CEC  
               u5390 3C40                 u4910 37AE  
               u4830 36F0                 u4750 3636  
               u4670 356A                 u4590 34A2  
               u5711 3F48                 u5631 3E7C  
               u5551 3DB4                 u5471 3CE8  
               u5391 3C3C                 u4911 37AA  
               u4831 36EC                 u4751 3632  
               u4671 3566                 u4591 349E  
               u5720 3F5E                 u5640 3E92  
               u5560 3DCA                 u5480 3D0C  
               u4920 37C0                 u4840 3712  
               u4760 3648                 u4680 357C  
               u5800 2F88                 _PIR1 000F9E  
               u5721 3F5A                 u5641 3E8E  
               u5561 3DC6                 u5481 3D08  
               u4921 37BC                 u4841 370E  
               u4761 3644                 u4681 3578  
               u5801 2F84                 u5730 3F7E  
               u5650 3EB2                 u5570 3DEA  
               u5490 3D1E                 u4930 37E0  
               u4850 3724                 u4770 3668  
               u4690 359E                 u5810 2FA2  
               u5731 3F7A                 u5651 3EAE  
               u5571 3DE6                 u5491 3D1A  
               u4931 37DC                 u4851 3720  
               u4771 3664                 u4691 359A  
               u5811 2F9E                 u5740 3F90  
               u5660 3EC4                 u5580 3DFC  
               u4940 37F2                 u4860 3736  
               u4780 367A                 u5900 307A  
               u5820 2FB2                 u5741 3F8C  
               u5661 3EC0                 u5581 3DF8  
               u4941 37EE                 u4861 3732  
               u4781 3676                 u5901 3076  
               u5821 2FAE                 u5750 3FB0  
               u5670 3EE6                 u5590 3E1C  
               u4950 3804                 u4870 3758  
               u4790 369A                 u5910 30A0  
               u5830 2FD8                 u5751 3FAC  
               u5671 3EE2                 u5591 3E18  
               u4951 3800                 u4871 3754  
               u4791 3696                 u5911 309C  
               u5831 2FD4                 u5760 3FC2  
               u5680 3EF8                 u4960 3824  
               u4880 376A                 u5920 30BA  
               u5840 2FF2                 u5761 3FBE  
               u5681 3EF4                 u4961 3820  
               u4881 3766                 u5921 30B6  
               u5841 2FEE                 _OERR 007D59  
               u5770 3FE2                 u5690 3F1A  
               u4970 3836                 u4890 377C  
               u5930 30CE                 u5850 3006  
               u5771 3FDE                 u5691 3F16  
               u4971 3832                 u4891 3778  
               u5931 30CA                 u5851 3002  
               u5780 3FF4                 u4980 3848  
               u5940 30F4                 u5860 3016  
               u5781 3FF0                 u4981 3844  
               u5941 30F0                 u5861 3012  
               u4990 3868                 u5870 303C  
               u5790 2F64                 u4991 3864  
               u5871 3038                 u5791 2F60  
               u5880 3056                 u5881 3052  
               u5890 306A                 u5891 3066  
               _RX9D 007D58                 _TX9D 007D60  
               _TXIF 007CF4                 _main 2EEC  
               fsr0l 000FE9                 start 0000  
    __end_of_DelayMs 2EEC                ?_main 0100  
              _ADRES 000FC3                _RCREG 000FAE  
              _RCSTA 000FAB                _SPBRG 000FAF  
              _TRISA 000F92                _TRISB 000F93  
              _TRISC 000F94                _RX9_x 007D5E  
              _TXREG 000FAD                _TX9_x 007D66  
              _TXSTA 000FAC                _index 000028  
              status 000FD8         __end_of_main 3216  
             ??_main 0104        __activetblptr 000000  
             _ADCON0 000FC2               _ADCON1 000FC1  
             _ADCON2 000FC0               _ADRESH 000FC4  
             _ADRESL 000FC3               _BRGH_x 007D62  
             _GODONE 007E11               _CREN_x 007D5C  
             _CSRC_x 007D67            ??_DelayMs 010B  
             _RCIE_x 007CED               _OSCCON 000FD3  
             _SPBRGH 000FB0               _TRISC6 007CA6  
             _TRISC7 007CA7               _SPEN_x 007D5F  
             _SREN_x 007D5D               _TRMT_x 007D61  
             _TXIE_x 007CEC               _TXEN_x 007D65  
             _SYNC_x 007D64               __Ldata 000000  
         _ToggleLeds 3216         __mediumconst 0D00  
         __accesstop 0060           _change_val 00002F  
            _BAUDCON 000FB8          ?_ToggleLeds 010A  
            _SENDB_x 007D63              _DelayMs 2EA4  
            __Hparam 010E           _cur_inputs 00001A  
            __Lparam 0100              _adc_num 00002E  
            __ramtop 0D00              _uart_in 000032  
      __Lmediumconst 0D00              postdec0 000FED  
            postinc0 000FEE           main@result 0107  
       DelayMs@_dcnt 010C            __Habsbss0 000041  
          __Labsbss0 000000         ??_ToggleLeds 010A  
           ?_DelayMs 010A   __end_of_ToggleLeds 4000  
          _led_array 000000          __smallconst 0D00  
           DelayMs@i 010B            main@count 0104  
        _conv_result 00002A             __Hparam1 010E  
           __Lparam1 0100         __Lsmallconst 0D00  
           __config1 00F0FF             __config2 00FEFF  
           __config3 007FFF             __config4 00FFFB  
           __config5 00FFFF             __config6 00FFFF  
           __config7 00FFFF             _uart_out 000031  
           main@argc 0100             main@argv 0102  
           main@uout 0105           DelayMs@cnt 010A  
        _prev_inputs 000033         _USART_Status 000030  
