

HI-TECH Software LITE Macro Assembler (PIC18) V9.66 build 8870 
                                                       Mon May 07 22:27:26 2012

HI-TECH Software Omniscient Code Generator build 8870
     1  000000                     opt subtitle "HI-TECH Software Omniscient Code G
                                 enerator build 8870"
     2                           
     3                           	processor	18F2682
     4  000000                     porta	equ	0F80h
     5  000000                     portb	equ	0F81h
     6  000000                     portc	equ	0F82h
     7  000000                     portd	equ	0F83h
     8  000000                     porte	equ	0F84h
     9  000000                     lata	equ	0F89h
    10  000000                     latb	equ	0F8Ah
    11  000000                     latc	equ	0F8Bh
    12  000000                     latd	equ	0F8Ch
    13  000000                     late	equ	0F8Dh
    14  000000                     trisa	equ	0F92h
    15  000000                     trisb	equ	0F93h
    16  000000                     trisc	equ	0F94h
    17  000000                     trisd	equ	0F95h
    18  000000                     trise	equ	0F96h
    19  000000                     pie1	equ	0F9Dh
    20  000000                     pir1	equ	0F9Eh
    21  000000                     ipr1	equ	0F9Fh
    22  000000                     pie2	equ	0FA0h
    23  000000                     pir2	equ	0FA1h
    24  000000                     ipr2	equ	0FA2h
    25  000000                     t3con	equ	0FB1h
    26  000000                     tmr3l	equ	0FB2h
    27  000000                     tmr3h	equ	0FB3h
    28  000000                     ccp1con	equ	0FBDh
    29  000000                     ccpr1l	equ	0FBEh
    30  000000                     ccpr1h	equ	0FBFh
    31  000000                     adcon1	equ	0FC1h
    32  000000                     adcon0	equ	0FC2h
    33  000000                     adresl	equ	0FC3h
    34  000000                     adresh	equ	0FC4h
    35  000000                     sspcon2	equ	0FC5h
    36  000000                     sspcon1	equ	0FC6h
    37  000000                     sspstat	equ	0FC7h
    38  000000                     sspadd	equ	0FC8h
    39  000000                     sspbuf	equ	0FC9h
    40  000000                     t2con	equ	0FCAh
    41  000000                     pr2	equ	0FCBh
    42  000000                     tmr2	equ	0FCCh
    43  000000                     t1con	equ	0FCDh
    44  000000                     tmr1l	equ	0FCEh
    45  000000                     tmr1h	equ	0FCFh
    46  000000                     rcon	equ	0FD0h
    47  000000                     wdtcon	equ	0FD1h
    48  000000                     lvdcon	equ	0FD2h
    49  000000                     osccon	equ	0FD3h
    50  000000                     t0con	equ	0FD5h
    51  000000                     tmr0l	equ	0FD6h
    52  000000                     tmr0h	equ	0FD7h
    53  000000                     status	equ	0FD8h
    54  000000                     fsr2	equ	0FD9h
    55  000000                     fsr2l	equ	0FD9h
    56  000000                     fsr2h	equ	0FDAh
    57  000000                     plusw2	equ	0FDBh
    58  000000                     preinc2	equ	0FDCh
    59  000000                     postdec2	equ	0FDDh
    60  000000                     postinc2	equ	0FDEh
    61  000000                     indf2	equ	0FDFh
    62  000000                     bsr	equ	0FE0h
    63  000000                     fsr1	equ	0FE1h
    64  000000                     fsr1l	equ	0FE1h
    65  000000                     fsr1h	equ	0FE2h
    66  000000                     plusw1	equ	0FE3h
    67  000000                     preinc1	equ	0FE4h
    68  000000                     postdec1	equ	0FE5h
    69  000000                     postinc1	equ	0FE6h
    70  000000                     indf1	equ	0FE7h
    71  000000                     wreg	equ	0FE8h
    72  000000                     fsr0	equ	0FE9h
    73  000000                     fsr0l	equ	0FE9h
    74  000000                     fsr0h	equ	0FEAh
    75  000000                     plusw0	equ	0FEBh
    76  000000                     preinc0	equ	0FECh
    77  000000                     postdec0	equ	0FEDh
    78  000000                     postinc0	equ	0FEEh
    79  000000                     indf0	equ	0FEFh
    80  000000                     intcon3	equ	0FF0h
    81  000000                     intcon2	equ	0FF1h
    82  000000                     intcon	equ	0FF2h
    83  000000                     prod	equ	0FF3h
    84  000000                     prodl	equ	0FF3h
    85  000000                     prodh	equ	0FF4h
    86  000000                     tablat	equ	0FF5h
    87  000000                     tblptr	equ	0FF6h
    88  000000                     tblptrl	equ	0FF6h
    89  000000                     tblptrh	equ	0FF7h
    90  000000                     tblptru	equ	0FF8h
    91  000000                     pcl	equ	0FF9h
    92  000000                     pclat	equ	0FFAh
    93  000000                     pclath	equ	0FFAh
    94  000000                     pclatu	equ	0FFBh
    95  000000                     stkptr	equ	0FFCh
    96  000000                     tosl	equ	0FFDh
    97  000000                     tosh	equ	0FFEh
    98  000000                     tosu	equ	0FFFh
    99                           	global	__ramtop
   100                           	global	__accesstop
   101                           # 21 "../code/main.c"
   102                           	global __config1 ;#
   103                           # 21 "../code/main.c"
   104  000000                     	__config1 equ 0xF0FF ;#
   105                           # 22 "../code/main.c"
   106                           	global __config2 ;#
   107                           # 22 "../code/main.c"
   108  000000                     	__config2 equ 0xFEFF ;#
   109                           # 23 "../code/main.c"
   110                           	global __config3 ;#
   111                           # 23 "../code/main.c"
   112  000000                     	__config3 equ 0x7FFF ;#
   113                           # 24 "../code/main.c"
   114                           	global __config4 ;#
   115                           # 24 "../code/main.c"
   116  000000                     	__config4 equ 0xFFFB & 0xFFFF ;#
   117                           # 25 "../code/main.c"
   118                           	global __config5 ;#
   119                           # 25 "../code/main.c"
   120  000000                     	__config5 equ 0xFFFF ;#
   121                           # 26 "../code/main.c"
   122                           	global __config6 ;#
   123                           # 26 "../code/main.c"
   124  000000                     	__config6 equ 0xFFFF ;#
   125                           # 27 "../code/main.c"
   126                           	global __config7 ;#
   127                           # 27 "../code/main.c"
   128  000000                     	__config7 equ 0xFFFF ;#
   129                           	GLOBAL	__activetblptr
   130  000000                     __activetblptr	EQU	0
   131                           	GLOBAL	__smallconst,__Lsmallconst
   132  000000                     __smallconst	EQU	__Lsmallconst
   133                           	GLOBAL	__mediumconst,__Lmediumconst
   134  000000                     __mediumconst	EQU	__Lmediumconst
   135                           	GLOBAL	__Ldata
   136  000000                     __Ldata	EQU	0
   137  000000                     main@argc	equ	?_main+0
   138                           	global	main@argc
   139  000000                     main@argv	equ	?_main+2
   140                           	global	main@argv
   141  000000                     adc_conversion@hResult	equ	??_adc_conversion+0
   142                           	global	adc_conversion@hResult
   143  000000                     adc_conversion@lResult	equ	??_adc_conversion+1
   144                           	global	adc_conversion@lResult
   145  000000                     adc_conversion@note	equ	??_adc_conversion+2
   146                           	global	adc_conversion@note
   147  000000                     getNote@new_note	equ	??_getNote+0
   148                           	global	getNote@new_note
   149  000000                     getNote@hResult	equ	?_getNote+0
   150                           	global	getNote@hResult
   151  000000                     getNote@lResult	equ	?_getNote+1
   152                           	global	getNote@lResult
   153                           ;Data sizes: Strings 0, constant 0, data 0, bss 
                                 0, persistent 0 stack 25
   154                           	global	_main
   155                           	global	??_main
   156                           	global	?_main
   157                           
   158                           ; *************** function _main ***************
                                 **
   159                           ; Defined at:
   160                           ;		line 180 in file "../code/main.c"
   161                           ; Parameters:
   162                           ;		argc           size:   2offs:   0	type: int 
   163                           ;		argv           size:   2offs:   2	type: PTR P
                                 TR unsigned char 
   164                           ; Auto variables:
   165                           ;		None
   166                           ; Return value:
   167                           ;		type: int 
   168                           ;		size: 2
   169                           ; Registers used:
   170                           ;		wreg, status,2, status,0
   171                           ; Tracked objects:
   172                           ;		On entry : 0/0
   173                           ;		On exit  : 0/0
   174                           ;		Unchanged: 0/0
   175                           ; Data sizes:
   176                           ;		Autos:    0
   177                           ;		Params:   4
   178                           ;		Temp:     0
   179                           ;		Total:    4
   180                           ; This function calls:
   181                           ;		Nothing
   182                           ; This function is called by:
   183                           ;		Startup code after reset
   184                           ; This function uses a non-reentrant model
   185                           ; 
   186                                   psect   text0,class=CODE,space=0,reloc=2
   187                           
   188                           	opt lm
   189                           	file	"../code/main.c"
   190                           	line	180
   191  000000                     	__size_of_main	equ	__end_of_main-_main
   192                                   psect   text0
   193                           ;stdio.h: 12: typedef int ptrdiff_t;
   194                           ;stdio.h: 13: typedef unsigned size_t;
   195                           ;stdio.h: 14: typedef unsigned short wchar_t;
   196                           ;stdarg.h: 36: typedef void * va_list[1];
   197                           ;stdarg.h: 39: extern void * __va_start(void);
   198                           ;stdarg.h: 42: extern void * __va_arg(void *);
   199                           ;stdio.h: 27: extern int errno;
   200                           ;stdio.h: 58: struct __prbuf
   201                           ;stdio.h: 59: {
   202                           ;stdio.h: 60: char * ptr;
   203                           ;stdio.h: 61: void (* func)(char);
   204                           ;stdio.h: 62: };
   205                           ;conio.h: 17: extern int errno;
   206                           ;conio.h: 20: extern void init_uart(void);
   207                           ;conio.h: 22: extern char getch(void);
   208                           	
   209  00232C                     _main:		; BSR set to: ?
   210                           
   211                           	opt stack 28
   212                           	line	182
   213  00232C  0E72               	movlw	(072h)&0ffh
   214  00232E  12D3               	iorwf	((c:4051)),c	;volatile
   215                           	line	185
   216                           ;main.c: 185: TRISA = 0b10101111;
   217  002330  0EAF               	movlw	low(0AFh)
   218  002332  6E92               	movwf	((c:3986)),c	;volatile
   219+                          	line	186
   220+                          ;main.c: 186: TRISB = 0b00010010;
   221+ 002334  0E12               	movlw	low(012h)
   222+ 002336  6E93               	movwf	((c:3987)),c	;volatile
   223                           	line	187
   224                           ;main.c: 187: TRISC = 0b10000000;
   225  002338  0E80               	movlw	low(080h)
   226  00233A  6E94               	movwf	((c:3988)),c	;volatile
   227                           	line	190
   228                           ;main.c: 190: ADCON0 = 0b00000000;
   229  00233C  0E00               	movlw	low(0)
   230  00233E  6EC2               	movwf	((c:4034)),c	;volatile
   231                           	line	191
   232                           ;main.c: 191: ADCON1 = 0b00000101;
   233  002340  0E05               	movlw	low(05h)
   234  002342  6EC1               	movwf	((c:4033)),c	;volatile
   235                           	line	192
   236                           ;main.c: 192: ADCON2 = 0b10001101;
   237  002344  0E8D               	movlw	low(08Dh)
   238  002346  6EC0               	movwf	((c:4032)),c	;volatile
   239                           	line	193
   240                           ;main.c: 193: adc_num = 0;
   241  002348  0E00               	movlw	low(0)
   242  00234A  6E02               	movwf	((c:2)),c	;volatile
   243                           	line	198
   244                           ;main.c: 198: T0CON = 0b10000000;
   245  00234C  0E80               	movlw	low(080h)
   246  00234E  6ED5               	movwf	((c:4053)),c	;volatile
   247                           	line	201
   248                           ;main.c: 201: INTCON = 0b00100000;
   249  002350  0E20               	movlw	low(020h)
   250  002352  6EF2               	movwf	((c:4082)),c	;volatile
   251                           	line	204
   252                           ;main.c: 204: SPBRGH = (((8000000L/19200UL)/16) 
                                 - 1) >> 8;
   253  002354  0E00               	movlw	low(0)
   254  002356  6EB0               	movwf	((c:4016)),c	;volatile
   255                           	line	205
   256                           ;main.c: 205: SPBRG = (((8000000L/19200UL)/16) -
                                  1);
   257  002358  0E19               	movlw	low(019h)
   258  00235A  6EAF               	movwf	((c:4015)),c	;volatile
   259                           	line	206
   260                           ;main.c: 206: BAUDCON = 0b00001000;
   261  00235C  0E08               	movlw	low(08h)
   262  00235E  6EB8               	movwf	((c:4024)),c	;volatile
   263                           	line	207
   264                           ;main.c: 207: RCSTA = 0b10010000;
   265  002360  0E90               	movlw	low(090h)
   266  002362  6EAB               	movwf	((c:4011)),c	;volatile
   267                           	line	208
   268                           ;main.c: 208: TXSTA = 0b00100000;
   269  002364  0E20               	movlw	low(020h)
   270  002366  6EAC               	movwf	((c:4012)),c	;volatile
   271                           	line	211
   272                           ;main.c: 211: LATA = 0b11111111;
   273  002368  6889               	setf	((c:3977)),c	;volatile
   274                           	line	213
   275                           ;main.c: 213: LATB = 0b10000000;
   276  00236A  0E80               	movlw	low(080h)
   277  00236C  6E8A               	movwf	((c:3978)),c	;volatile
   278                           	line	215
   279                           ;main.c: 215: LATC = 0b00001111;
   280  00236E  0E0F               	movlw	low(0Fh)
   281  002370  6E8B               	movwf	((c:3979)),c	;volatile
   282                           	line	217
   283                           ;main.c: 217: INTCON |= 0b10000000;
   284  002372  8EF2               	bsf	(0+(7/8)+(c:4082)),c,(7)&7	;volatile
   285                           	line	232
   286                           ;main.c: 232: while (1);
   287                           	
   288  002374                     l869:		; BSR set to: ?
   289                           
   290                           	
   291  002374                     l868:		; BSR set to: ?
   292                           
   293  002374  EFBA  F011         	goto	l868
   294                           	global	start
   295  002378  EF0C  F000         	goto	start
   296                           	opt stack 0
   297                           GLOBAL __end_of_main
   298  00237C                     	__end_of_main:
   299                           	FNSIZE	_main,0,4
   300                           ; =============== function _main ends ==========
                                 ==
   301                           
   302                                   psect   text1,class=CODE,space=0,reloc=2
   303                           	line	235
   304                           
   305                           	opt lm
   306                           	signat	_main,8314
   307                           	global	_my_isr
   308                           	global	??_my_isr
   309                           	global	?_my_isr
   310                           
   311                           ; *************** function _my_isr *************
                                 ****
   312                           ; Defined at:
   313                           ;		line 909 in file "../code/main.c"
   314                           ; Parameters:
   315                           ;		None
   316                           ; Auto variables:
   317                           ;		None
   318                           ; Return value:
   319                           ;		type: void 
   320                           ;		size: 0
   321                           ; Registers used:
   322                           ;		wreg, status,2, status,0, cstack
   323                           ; Tracked objects:
   324                           ;		On entry : 0/0
   325                           ;		On exit  : 0/0
   326                           ;		Unchanged: 0/0
   327                           ; Data sizes:
   328                           ;		Autos:    0
   329                           ;		Params:   0
   330                           ;		Temp:    14
   331                           ;		Total:   14
   332                           ; This function calls:
   333                           ;		_adc_conversion
   334                           ;		_ToggleLeds
   335                           ; This function is called by:
   336                           ;		Interrupt level 2
   337                           ; This function uses a non-reentrant model
   338                           ; 
   339                           	file	"../code/main.c"
   340                           	line	909
   341  000000                     	__size_of_my_isr	equ	__end_of_my_isr-_my_isr
   342                           ;main.c: 909: void interrupt my_isr(void) {
   343                           	
   344  001FD0                     _my_isr:		; BSR set to: ?
   345                           
   346                           	opt stack 31
   347                                   psect   intcode,class=CODE,space=0,reloc
                                 =2
   348                           	global	int_func
   349  000008                     int_func:
   350                                   psect   intcode
   351  000008  CFFA F104          	movff	pclat+0,??_my_isr+0
   352  00000C  CFFB F105          	movff	pclat+1,??_my_isr+1
   353  000010  CFE9 F106          	movff	fsr0l+0,??_my_isr+2
   354  000014  EFE8  F00F         	goto	_my_isr
   355                                   psect   text1
   356  001FD0  CFEA F107          	movff	fsr0h+0,??_my_isr+3
   357  001FD4  CFE1 F108          	movff	fsr1l+0,??_my_isr+4
   358  001FD8  CFE2 F109          	movff	fsr1h+0,??_my_isr+5
   359  001FDC  CFD9 F10A          	movff	fsr2l+0,??_my_isr+6
   360  001FE0  CFDA F10B          	movff	fsr2h+0,??_my_isr+7
   361  001FE4  CFF3 F10C          	movff	prodl+0,??_my_isr+8
   362  001FE8  CFF4 F10D          	movff	prodh+0,??_my_isr+9
   363  001FEC  CFF6 F10E          	movff	tblptrl+0,??_my_isr+10
   364  001FF0  CFF7 F10F          	movff	tblptrh+0,??_my_isr+11
   365  001FF4  CFF8 F110          	movff	tblptru+0,??_my_isr+12
   366  001FF8  CFF5 F111          	movff	tablat+0,??_my_isr+13
   367                           	line	911
   368                           ;main.c: 911: INTCON &= 0b01111111;
   369  001FFC  9EF2               	bcf	(0+(7/8)+(c:4082)),c,(7)&7	;volatile
   370                           	line	913
   371                           ;main.c: 913: if (TMR0IE && TMR0IF && TMR0IP) {
   372  001FFE  AAF2               	btfss	c:(32661/8),(32661)&7	;volatile
   373  002000  EF04  F010         	goto	i2u8161
   374  002004  EF06  F010         	goto	i2u8160
   375  002008                     i2u8161:
   376  002008  EF1C  F011         	goto	i2l1053
   377  00200C                     i2u8160:
   378  00200C  A4F2               	btfss	c:(32658/8),(32658)&7	;volatile
   379  00200E  EF0B  F010         	goto	i2u8171
   380  002012  EF0D  F010         	goto	i2u8170
   381  002016                     i2u8171:
   382  002016  EF1C  F011         	goto	i2l1053
   383  00201A                     i2u8170:
   384  00201A  A4F1               	btfss	c:(32650/8),(32650)&7	;volatile
   385  00201C  EF12  F010         	goto	i2u8181
   386  002020  EF14  F010         	goto	i2u8180
   387  002024                     i2u8181:
   388  002024  EF1C  F011         	goto	i2l1053
   389  002028                     i2u8180:
   390                           	line	914
   391                           ;main.c: 914: adc_conversion ();
   392  002028  EC3A  F011         	call	_adc_conversion	;wreg free
   393                           	line	916
   394                           ;main.c: 916: if (conv_result.adc_channel == 0) 
                                 {
   395  00202C  6601               	tstfsz	(0+((c:0)+01h)),c
   396  00202E  EF1B  F010         	goto	i2u8191
   397  002032  EF1D  F010         	goto	i2u8190
   398  002036                     i2u8191:
   399  002036  EF3A  F010         	goto	i2l1054
   400  00203A                     i2u8190:
   401                           	line	917
   402                           ;main.c: 917: if ((chanA[0] & conv_result.result
                                 ) == conv_result.result) {
   403  00203A  500F               	movf	((c:15)),c,w
   404  00203C  1400               	andwf	((c:0)),c,w
   405  00203E  1800               	xorwf	((c:0)),c,w
   406  002040  A4D8               	btfss	status,2
   407  002042  EF25  F010         	goto	i2u8201
   408  002046  EF27  F010         	goto	i2u8200
   409  00204A                     i2u8201:
   410  00204A  EF36  F010         	goto	i2l1059
   411  00204E                     i2u8200:
   412                           	line	918
   413                           ;main.c: 918: TXREG = conv_result.result;
   414  00204E  C000 FFAD          	movff	(c:0),(c:4013)	;volatile
   415                           	line	919
   416                           ;main.c: 919: while((PIR1 & 0b00010000) == 0);
   417  002052  EF2B  F010         	goto	i2l1056
   418                           	
   419  002056                     i2l1056:		; BSR set to: ?
   420                           
   421                           	
   422  002056  A89E               	btfss	((c:3998)),c,(4)&7	;volatile
   423  002058  EF30  F010         	goto	i2u8211
   424  00205C  EF32  F010         	goto	i2u8210
   425  002060                     i2u8211:
   426  002060  EF2B  F010         	goto	i2l1056
   427  002064                     i2u8210:
   428                           	
   429  002064                     i2l1058:		; BSR set to: ?
   430                           
   431                           	line	920
   432                           ;main.c: 920: ToggleLeds();
   433  002064  ECCC  F009         	call	_ToggleLeds	;wreg free
   434                           	line	921
   435                           ;main.c: 921: } else {
   436  002068  EF36  F010         	goto	i2l1059
   437                           	line	923
   438                           	
   439  00206C                     i2l1059:		; BSR set to: ?
   440                           
   441                           	line	924
   442                           ;main.c: 923: }
   443                           ;main.c: 924: chanA[0] = conv_result.result;
   444  00206C  C000 F00F          	movff	(c:0),(c:15)
   445                           	line	925
   446                           ;main.c: 925: } else if (conv_result.adc_channel
                                  == 1) {
   447  002070  EF1B  F011         	goto	i2l1060
   448                           	
   449  002074                     i2l1054:		; BSR set to: ?
   450+                          
   451+ 002074  0401               	decf	(0+((c:0)+01h)),c,w
   452+                          
   453+ 002076  A4D8               	btfss	status,2
   454  002078  EF40  F010         	goto	i2u8221
   455  00207C  EF42  F010         	goto	i2u8220
   456  002080                     i2u8221:
   457  002080  EF5F  F010         	goto	i2l1061
   458  002084                     i2u8220:
   459                           	line	926
   460                           ;main.c: 926: if ((chanB[0] & conv_result.result
                                 ) == conv_result.result) {
   461  002084  5012               	movf	((c:18)),c,w
   462  002086  1400               	andwf	((c:0)),c,w
   463  002088  1800               	xorwf	((c:0)),c,w
   464  00208A  A4D8               	btfss	status,2
   465  00208C  EF4A  F010         	goto	i2u8231
   466  002090  EF4C  F010         	goto	i2u8230
   467  002094                     i2u8231:
   468  002094  EF5B  F010         	goto	i2l1066
   469  002098                     i2u8230:
   470                           	line	927
   471                           ;main.c: 927: TXREG = conv_result.result;
   472  002098  C000 FFAD          	movff	(c:0),(c:4013)	;volatile
   473                           	line	928
   474                           ;main.c: 928: while((PIR1 & 0b00010000) == 0);
   475  00209C  EF50  F010         	goto	i2l1063
   476                           	
   477  0020A0                     i2l1063:		; BSR set to: ?
   478                           
   479                           	
   480  0020A0  A89E               	btfss	((c:3998)),c,(4)&7	;volatile
   481  0020A2  EF55  F010         	goto	i2u8241
   482  0020A6  EF57  F010         	goto	i2u8240
   483  0020AA                     i2u8241:
   484  0020AA  EF50  F010         	goto	i2l1063
   485  0020AE                     i2u8240:
   486                           	
   487  0020AE                     i2l1065:		; BSR set to: ?
   488                           
   489                           	line	929
   490                           ;main.c: 929: ToggleLeds();
   491  0020AE  ECCC  F009         	call	_ToggleLeds	;wreg free
   492                           	line	930
   493                           ;main.c: 930: } else {
   494  0020B2  EF5B  F010         	goto	i2l1066
   495                           	line	932
   496                           	
   497  0020B6                     i2l1066:		; BSR set to: ?
   498                           
   499                           	line	933
   500                           ;main.c: 932: }
   501                           ;main.c: 933: chanB[0] = conv_result.result;
   502  0020B6  C000 F012          	movff	(c:0),(c:18)
   503                           	line	934
   504                           ;main.c: 934: } else if (conv_result.adc_channel
                                  == 2) {
   505  0020BA  EF1B  F011         	goto	i2l1060
   506                           	
   507  0020BE                     i2l1061:		; BSR set to: ?
   508                           
   509  0020BE  5001               	movf	(0+((c:0)+01h)),c,w
   510  0020C0  0A02               	xorlw	2
   511                           
   512  0020C2  A4D8               	btfss	status,2
   513  0020C4  EF66  F010         	goto	i2u8251
   514  0020C8  EF68  F010         	goto	i2u8250
   515  0020CC                     i2u8251:
   516  0020CC  EF85  F010         	goto	i2l1068
   517  0020D0                     i2u8250:
   518                           	line	935
   519                           ;main.c: 935: if ((chanC[0] & conv_result.result
                                 ) == conv_result.result) {
   520  0020D0  5015               	movf	((c:21)),c,w
   521  0020D2  1400               	andwf	((c:0)),c,w
   522  0020D4  1800               	xorwf	((c:0)),c,w
   523  0020D6  A4D8               	btfss	status,2
   524  0020D8  EF70  F010         	goto	i2u8261
   525  0020DC  EF72  F010         	goto	i2u8260
   526  0020E0                     i2u8261:
   527  0020E0  EF81  F010         	goto	i2l1073
   528  0020E4                     i2u8260:
   529                           	line	936
   530                           ;main.c: 936: TXREG = conv_result.result;
   531  0020E4  C000 FFAD          	movff	(c:0),(c:4013)	;volatile
   532                           	line	937
   533                           ;main.c: 937: while((PIR1 & 0b00010000) == 0);
   534  0020E8  EF76  F010         	goto	i2l1070
   535                           	
   536  0020EC                     i2l1070:		; BSR set to: ?
   537                           
   538                           	
   539  0020EC  A89E               	btfss	((c:3998)),c,(4)&7	;volatile
   540  0020EE  EF7B  F010         	goto	i2u8271
   541  0020F2  EF7D  F010         	goto	i2u8270
   542  0020F6                     i2u8271:
   543  0020F6  EF76  F010         	goto	i2l1070
   544  0020FA                     i2u8270:
   545                           	
   546  0020FA                     i2l1072:		; BSR set to: ?
   547                           
   548                           	line	938
   549                           ;main.c: 938: ToggleLeds();
   550  0020FA  ECCC  F009         	call	_ToggleLeds	;wreg free
   551                           	line	939
   552                           ;main.c: 939: } else {
   553  0020FE  EF81  F010         	goto	i2l1073
   554                           	line	941
   555                           	
   556  002102                     i2l1073:		; BSR set to: ?
   557                           
   558                           	line	942
   559                           ;main.c: 941: }
   560                           ;main.c: 942: chanC[0] = conv_result.result;
   561  002102  C000 F015          	movff	(c:0),(c:21)
   562                           	line	943
   563                           ;main.c: 943: } else if (conv_result.adc_channel
                                  == 3) {
   564  002106  EF1B  F011         	goto	i2l1060
   565                           	
   566  00210A                     i2l1068:		; BSR set to: ?
   567                           
   568  00210A  5001               	movf	(0+((c:0)+01h)),c,w
   569  00210C  0A03               	xorlw	3
   570                           
   571  00210E  A4D8               	btfss	status,2
   572  002110  EF8C  F010         	goto	i2u8281
   573  002114  EF8E  F010         	goto	i2u8280
   574  002118                     i2u8281:
   575  002118  EFAB  F010         	goto	i2l1075
   576  00211C                     i2u8280:
   577                           	line	944
   578                           ;main.c: 944: if ((chanD[0] & conv_result.result
                                 ) == conv_result.result) {
   579  00211C  5006               	movf	((c:6)),c,w
   580  00211E  1400               	andwf	((c:0)),c,w
   581  002120  1800               	xorwf	((c:0)),c,w
   582  002122  A4D8               	btfss	status,2
   583  002124  EF96  F010         	goto	i2u8291
   584  002128  EF98  F010         	goto	i2u8290
   585  00212C                     i2u8291:
   586  00212C  EFA7  F010         	goto	i2l1080
   587  002130                     i2u8290:
   588                           	line	945
   589                           ;main.c: 945: TXREG = conv_result.result;
   590  002130  C000 FFAD          	movff	(c:0),(c:4013)	;volatile
   591                           	line	946
   592                           ;main.c: 946: while((PIR1 & 0b00010000) == 0);
   593  002134  EF9C  F010         	goto	i2l1077
   594                           	
   595  002138                     i2l1077:		; BSR set to: ?
   596                           
   597                           	
   598  002138  A89E               	btfss	((c:3998)),c,(4)&7	;volatile
   599  00213A  EFA1  F010         	goto	i2u8301
   600  00213E  EFA3  F010         	goto	i2u8300
   601  002142                     i2u8301:
   602  002142  EF9C  F010         	goto	i2l1077
   603  002146                     i2u8300:
   604                           	
   605  002146                     i2l1079:		; BSR set to: ?
   606                           
   607                           	line	947
   608                           ;main.c: 947: ToggleLeds();
   609  002146  ECCC  F009         	call	_ToggleLeds	;wreg free
   610                           	line	948
   611                           ;main.c: 948: } else {
   612  00214A  EFA7  F010         	goto	i2l1080
   613                           	line	950
   614                           	
   615  00214E                     i2l1080:		; BSR set to: ?
   616                           
   617                           	line	951
   618                           ;main.c: 950: }
   619                           ;main.c: 951: chanD[0] = conv_result.result;
   620  00214E  C000 F006          	movff	(c:0),(c:6)
   621                           	line	952
   622                           ;main.c: 952: } else if (conv_result.adc_channel
                                  == 4) {
   623  002152  EF1B  F011         	goto	i2l1060
   624                           	
   625  002156                     i2l1075:		; BSR set to: ?
   626                           
   627  002156  5001               	movf	(0+((c:0)+01h)),c,w
   628  002158  0A04               	xorlw	4
   629                           
   630  00215A  A4D8               	btfss	status,2
   631  00215C  EFB2  F010         	goto	i2u8311
   632  002160  EFB4  F010         	goto	i2u8310
   633  002164                     i2u8311:
   634  002164  EFD1  F010         	goto	i2l1082
   635  002168                     i2u8310:
   636                           	line	953
   637                           ;main.c: 953: if ((chanE[0] & conv_result.result
                                 ) == conv_result.result) {
   638  002168  5003               	movf	((c:3)),c,w
   639  00216A  1400               	andwf	((c:0)),c,w
   640  00216C  1800               	xorwf	((c:0)),c,w
   641  00216E  A4D8               	btfss	status,2
   642  002170  EFBC  F010         	goto	i2u8321
   643  002174  EFBE  F010         	goto	i2u8320
   644  002178                     i2u8321:
   645  002178  EFCD  F010         	goto	i2l1087
   646  00217C                     i2u8320:
   647                           	line	954
   648                           ;main.c: 954: TXREG = conv_result.result;
   649  00217C  C000 FFAD          	movff	(c:0),(c:4013)	;volatile
   650                           	line	955
   651                           ;main.c: 955: while((PIR1 & 0b00010000) == 0);
   652  002180  EFC2  F010         	goto	i2l1084
   653                           	
   654  002184                     i2l1084:		; BSR set to: ?
   655                           
   656                           	
   657  002184  A89E               	btfss	((c:3998)),c,(4)&7	;volatile
   658  002186  EFC7  F010         	goto	i2u8331
   659  00218A  EFC9  F010         	goto	i2u8330
   660  00218E                     i2u8331:
   661  00218E  EFC2  F010         	goto	i2l1084
   662  002192                     i2u8330:
   663                           	
   664  002192                     i2l1086:		; BSR set to: ?
   665                           
   666                           	line	956
   667                           ;main.c: 956: ToggleLeds();
   668  002192  ECCC  F009         	call	_ToggleLeds	;wreg free
   669                           	line	957
   670                           ;main.c: 957: } else {
   671  002196  EFCD  F010         	goto	i2l1087
   672                           	line	959
   673                           	
   674  00219A                     i2l1087:		; BSR set to: ?
   675                           
   676                           	line	960
   677                           ;main.c: 959: }
   678                           ;main.c: 960: chanE[0] = conv_result.result;
   679  00219A  C000 F003          	movff	(c:0),(c:3)
   680                           	line	961
   681                           ;main.c: 961: } else if (conv_result.adc_channel
                                  == 5) {
   682  00219E  EF1B  F011         	goto	i2l1060
   683                           	
   684  0021A2                     i2l1082:		; BSR set to: ?
   685                           
   686  0021A2  5001               	movf	(0+((c:0)+01h)),c,w
   687  0021A4  0A05               	xorlw	5
   688                           
   689  0021A6  A4D8               	btfss	status,2
   690  0021A8  EFD8  F010         	goto	i2u8341
   691  0021AC  EFDA  F010         	goto	i2u8340
   692  0021B0                     i2u8341:
   693  0021B0  EFF7  F010         	goto	i2l1089
   694  0021B4                     i2u8340:
   695                           	line	962
   696                           ;main.c: 962: if ((chanF[0] & conv_result.result
                                 ) == conv_result.result) {
   697  0021B4  500C               	movf	((c:12)),c,w
   698  0021B6  1400               	andwf	((c:0)),c,w
   699  0021B8  1800               	xorwf	((c:0)),c,w
   700  0021BA  A4D8               	btfss	status,2
   701  0021BC  EFE2  F010         	goto	i2u8351
   702  0021C0  EFE4  F010         	goto	i2u8350
   703  0021C4                     i2u8351:
   704  0021C4  EFF3  F010         	goto	i2l1094
   705  0021C8                     i2u8350:
   706                           	line	963
   707                           ;main.c: 963: TXREG = conv_result.result;
   708  0021C8  C000 FFAD          	movff	(c:0),(c:4013)	;volatile
   709                           	line	964
   710                           ;main.c: 964: while((PIR1 & 0b00010000) == 0);
   711  0021CC  EFE8  F010         	goto	i2l1091
   712                           	
   713  0021D0                     i2l1091:		; BSR set to: ?
   714                           
   715                           	
   716  0021D0  A89E               	btfss	((c:3998)),c,(4)&7	;volatile
   717  0021D2  EFED  F010         	goto	i2u8361
   718  0021D6  EFEF  F010         	goto	i2u8360
   719  0021DA                     i2u8361:
   720  0021DA  EFE8  F010         	goto	i2l1091
   721  0021DE                     i2u8360:
   722                           	
   723  0021DE                     i2l1093:		; BSR set to: ?
   724                           
   725                           	line	965
   726                           ;main.c: 965: ToggleLeds();
   727  0021DE  ECCC  F009         	call	_ToggleLeds	;wreg free
   728                           	line	966
   729                           ;main.c: 966: } else {
   730  0021E2  EFF3  F010         	goto	i2l1094
   731                           	line	967
   732                           	
   733  0021E6                     i2l1094:		; BSR set to: ?
   734                           
   735                           	line	968
   736                           ;main.c: 967: }
   737                           ;main.c: 968: chanF[0] = conv_result.result;
   738  0021E6  C000 F00C          	movff	(c:0),(c:12)
   739                           	line	969
   740                           ;main.c: 969: } else if (conv_result.adc_channel
                                  == 6) {
   741  0021EA  EF1B  F011         	goto	i2l1060
   742                           	
   743  0021EE                     i2l1089:		; BSR set to: ?
   744                           
   745  0021EE  5001               	movf	(0+((c:0)+01h)),c,w
   746  0021F0  0A06               	xorlw	6
   747                           
   748  0021F2  A4D8               	btfss	status,2
   749  0021F4  EFFE  F010         	goto	i2u8371
   750  0021F8  EF00  F011         	goto	i2u8370
   751  0021FC                     i2u8371:
   752  0021FC  EF1B  F011         	goto	i2l1060
   753  002200                     i2u8370:
   754                           	line	970
   755                           ;main.c: 970: if ((chanG[0] & conv_result.result
                                 ) == conv_result.result) {
   756  002200  5009               	movf	((c:9)),c,w
   757  002202  1400               	andwf	((c:0)),c,w
   758  002204  1800               	xorwf	((c:0)),c,w
   759  002206  A4D8               	btfss	status,2
   760  002208  EF08  F011         	goto	i2u8381
   761  00220C  EF0A  F011         	goto	i2u8380
   762  002210                     i2u8381:
   763  002210  EF19  F011         	goto	i2l1101
   764  002214                     i2u8380:
   765                           	line	971
   766                           ;main.c: 971: TXREG = conv_result.result;
   767  002214  C000 FFAD          	movff	(c:0),(c:4013)	;volatile
   768                           	line	972
   769                           ;main.c: 972: while((PIR1 & 0b00010000) == 0);
   770  002218  EF0E  F011         	goto	i2l1098
   771                           	
   772  00221C                     i2l1098:		; BSR set to: ?
   773                           
   774                           	
   775  00221C  A89E               	btfss	((c:3998)),c,(4)&7	;volatile
   776  00221E  EF13  F011         	goto	i2u8391
   777  002222  EF15  F011         	goto	i2u8390
   778  002226                     i2u8391:
   779  002226  EF0E  F011         	goto	i2l1098
   780  00222A                     i2u8390:
   781                           	
   782  00222A                     i2l1100:		; BSR set to: ?
   783                           
   784                           	line	973
   785                           ;main.c: 973: ToggleLeds();
   786  00222A  ECCC  F009         	call	_ToggleLeds	;wreg free
   787                           	line	974
   788                           ;main.c: 974: } else {
   789  00222E  EF19  F011         	goto	i2l1101
   790                           	line	976
   791                           	
   792  002232                     i2l1101:		; BSR set to: ?
   793                           
   794                           	line	977
   795                           ;main.c: 976: }
   796                           ;main.c: 977: chanG[0] = conv_result.result;
   797  002232  C000 F009          	movff	(c:0),(c:9)
   798                           	line	978
   799                           	
   800  002236                     i2l1096:		; BSR set to: ?
   801                           
   802                           	line	980
   803                           	
   804  002236                     i2l1095:		; BSR set to: ?
   805                           
   806                           	
   807  002236                     i2l1088:		; BSR set to: ?
   808                           
   809                           	
   810  002236                     i2l1081:		; BSR set to: ?
   811                           
   812                           	
   813  002236                     i2l1074:		; BSR set to: ?
   814                           
   815                           	
   816  002236                     i2l1067:		; BSR set to: ?
   817                           
   818                           	
   819  002236                     i2l1060:		; BSR set to: ?
   820                           
   821                           ;main.c: 978: }
   822                           ;main.c: 980: TMR0IF = 0;
   823  002236  94F2               	bcf	c:(32658/8),(32658)&7	;volatile
   824                           	line	981
   825                           	
   826  002238                     i2l1053:		; BSR set to: ?
   827                           
   828                           	line	984
   829                           ;main.c: 981: }
   830                           ;main.c: 984: INTCON |= 0b10000000;
   831  002238  8EF2               	bsf	(0+(7/8)+(c:4082)),c,(7)&7	;volatile
   832                           	line	986
   833                           ;main.c: 986: }
   834  00223A                     i2l1052:
   835                           			; BSR set to: ?
   836                           
   837  00223A  C111  FFF5         	movff	??_my_isr+13,tablat+0
   838  00223E  C110  FFF8         	movff	??_my_isr+12,tblptru+0
   839  002242  C10F  FFF7         	movff	??_my_isr+11,tblptrh+0
   840  002246  C10E  FFF6         	movff	??_my_isr+10,tblptrl+0
   841  00224A  C10D  FFF4         	movff	??_my_isr+9,prodh+0
   842  00224E  C10C  FFF3         	movff	??_my_isr+8,prodl+0
   843  002252  C10B  FFDA         	movff	??_my_isr+7,fsr2h+0
   844  002256  C10A  FFD9         	movff	??_my_isr+6,fsr2l+0
   845  00225A  C109  FFE2         	movff	??_my_isr+5,fsr1h+0
   846  00225E  C108  FFE1         	movff	??_my_isr+4,fsr1l+0
   847  002262  C107  FFEA         	movff	??_my_isr+3,fsr0h+0
   848  002266  C106  FFE9         	movff	??_my_isr+2,fsr0l+0
   849  00226A  C105  FFFB         	movff	??_my_isr+1,pclat+1
   850  00226E  C104  FFFA         	movff	??_my_isr+0,pclat+0
   851  002272  0011               	retfie f
   852                           	opt stack 0
   853                           GLOBAL __end_of_my_isr
   854  002274                     	__end_of_my_isr:
   855                           	FNSIZE	_my_isr,14,0
   856                           ; =============== function _my_isr ends ========
                                 ====
   857                           
   858                           	signat	_my_isr,88
   859                                   psect   text2,class=CODE,space=0,reloc=2
   860                           	global	intlevel2
   861                           
   862                           	opt lm
   863                           	FNBREAK _ToggleLeds,intlevel2
   864                           	global	_ToggleLeds
   865                           	global	??_ToggleLeds
   866                           	global	?_ToggleLeds
   867                           
   868                           ; *************** function _ToggleLeds *********
                                 ********
   869                           ; Defined at:
   870                           ;		line 245 in file "../code/main.c"
   871                           ; Parameters:
   872                           ;		None
   873                           ; Auto variables:
   874                           ;		None
   875                           ; Return value:
   876                           ;		type: void 
   877                           ;		size: 0
   878                           ; Registers used:
   879                           ;		wreg, status,2, status,0
   880                           ; Tracked objects:
   881                           ;		On entry : 0/0
   882                           ;		On exit  : 0/0
   883                           ;		Unchanged: 0/0
   884                           ; Data sizes:
   885                           ;		Autos:    0
   886                           ;		Params:   0
   887                           ;		Temp:     0
   888                           ;		Total:    0
   889                           ; This function calls:
   890                           ;		Nothing
   891                           ; This function is called by:
   892                           ;		_my_isr
   893                           ; This function uses a non-reentrant model
   894                           ; 
   895                           	file	"../code/main.c"
   896                           	line	245
   897  000000                     	__size_of_ToggleLeds	equ	__end_of_ToggleLeds-_T
                                 oggleLeds
   898                           ;main.c: 245: void ToggleLeds () {
   899                           	
   900  001398                     _ToggleLeds:		; BSR set to: ?
   901                           
   902                           	opt stack 30
   903                           	line	250
   904                           ;main.c: 250: if (conv_result.adc_channel == 2 &
                                 & conv_result.result == 0x03) {
   905  001398  5001               	movf	(0+((c:0)+01h)),c,w
   906  00139A  0A02               	xorlw	2
   907                           
   908  00139C  A4D8               	btfss	status,2
   909  00139E  EFD3  F009         	goto	i2u6901
   910  0013A2  EFD5  F009         	goto	i2u6900
   911  0013A6                     i2u6901:
   912  0013A6  EFE6  F009         	goto	i2l872
   913  0013AA                     i2u6900:
   914  0013AA  5000               	movf	((c:0)),c,w
   915  0013AC  0A03               	xorlw	3
   916                           
   917  0013AE  A4D8               	btfss	status,2
   918  0013B0  EFDC  F009         	goto	i2u6911
   919  0013B4  EFDE  F009         	goto	i2u6910
   920  0013B8                     i2u6911:
   921  0013B8  EFE6  F009         	goto	i2l872
   922  0013BC                     i2u6910:
   923                           	line	253
   924                           ;main.c: 253: LATA = 0b11101111;
   925  0013BC  0EEF               	movlw	low(0EFh)
   926  0013BE  6E89               	movwf	((c:3977)),c	;volatile
   927                           	line	255
   928                           ;main.c: 255: LATB = 0b11100000;
   929  0013C0  0EE0               	movlw	low(0E0h)
   930  0013C2  6E8A               	movwf	((c:3978)),c	;volatile
   931                           	line	257
   932                           ;main.c: 257: LATC = 0b00001111;
   933  0013C4  0E0F               	movlw	low(0Fh)
   934  0013C6  6E8B               	movwf	((c:3979)),c	;volatile
   935                           	line	258
   936                           ;main.c: 258: } else if (conv_result.adc_channel
                                  == 3 && conv_result.result == 0x04) {
   937  0013C8  EFE7  F00F         	goto	i2l873
   938                           	
   939  0013CC                     i2l872:		; BSR set to: ?
   940                           
   941  0013CC  5001               	movf	(0+((c:0)+01h)),c,w
   942  0013CE  0A03               	xorlw	3
   943                           
   944  0013D0  A4D8               	btfss	status,2
   945  0013D2  EFED  F009         	goto	i2u6921
   946  0013D6  EFEF  F009         	goto	i2u6920
   947  0013DA                     i2u6921:
   948  0013DA  EF00  F00A         	goto	i2l874
   949  0013DE                     i2u6920:
   950  0013DE  5000               	movf	((c:0)),c,w
   951  0013E0  0A04               	xorlw	4
   952                           
   953  0013E2  A4D8               	btfss	status,2
   954  0013E4  EFF6  F009         	goto	i2u6931
   955  0013E8  EFF8  F009         	goto	i2u6930
   956  0013EC                     i2u6931:
   957  0013EC  EF00  F00A         	goto	i2l874
   958  0013F0                     i2u6930:
   959                           	line	261
   960                           ;main.c: 261: LATA = 0b10111111;
   961  0013F0  0EBF               	movlw	low(0BFh)
   962  0013F2  6E89               	movwf	((c:3977)),c	;volatile
   963                           	line	263
   964                           ;main.c: 263: LATB = 0b11100000;
   965  0013F4  0EE0               	movlw	low(0E0h)
   966  0013F6  6E8A               	movwf	((c:3978)),c	;volatile
   967                           	line	265
   968                           ;main.c: 265: LATC = 0b00001111;
   969  0013F8  0E0F               	movlw	low(0Fh)
   970  0013FA  6E8B               	movwf	((c:3979)),c	;volatile
   971                           	line	266
   972                           ;main.c: 266: } else if (conv_result.adc_channel
                                  == 4 && conv_result.result == 0x05) {
   973  0013FC  EFE7  F00F         	goto	i2l873
   974                           	
   975  001400                     i2l874:		; BSR set to: ?
   976                           
   977  001400  5001               	movf	(0+((c:0)+01h)),c,w
   978  001402  0A04               	xorlw	4
   979                           
   980  001404  A4D8               	btfss	status,2
   981  001406  EF07  F00A         	goto	i2u6941
   982  00140A  EF09  F00A         	goto	i2u6940
   983  00140E                     i2u6941:
   984  00140E  EF19  F00A         	goto	i2l876
   985  001412                     i2u6940:
   986  001412  5000               	movf	((c:0)),c,w
   987  001414  0A05               	xorlw	5
   988                           
   989  001416  A4D8               	btfss	status,2
   990  001418  EF10  F00A         	goto	i2u6951
   991  00141C  EF12  F00A         	goto	i2u6950
   992  001420                     i2u6951:
   993  001420  EF19  F00A         	goto	i2l876
   994  001424                     i2u6950:
   995                           	line	269
   996                           ;main.c: 269: LATA = 0b11111111;
   997  001424  6889               	setf	((c:3977)),c	;volatile
   998                           	line	271
   999                           ;main.c: 271: LATB = 0b11100000;
  1000  001426  0EE0               	movlw	low(0E0h)
  1001  001428  6E8A               	movwf	((c:3978)),c	;volatile
  1002                           	line	273
  1003                           ;main.c: 273: LATC = 0b00001110;
  1004  00142A  0E0E               	movlw	low(0Eh)
  1005  00142C  6E8B               	movwf	((c:3979)),c	;volatile
  1006                           	line	274
  1007                           ;main.c: 274: } else if (conv_result.adc_channel
                                  == 5 && conv_result.result == 0x06) {
  1008  00142E  EFE7  F00F         	goto	i2l873
  1009                           	
  1010  001432                     i2l876:		; BSR set to: ?
  1011                           
  1012  001432  5001               	movf	(0+((c:0)+01h)),c,w
  1013  001434  0A05               	xorlw	5
  1014                           
  1015  001436  A4D8               	btfss	status,2
  1016  001438  EF20  F00A         	goto	i2u6961
  1017  00143C  EF22  F00A         	goto	i2u6960
  1018  001440                     i2u6961:
  1019  001440  EF32  F00A         	goto	i2l878
  1020  001444                     i2u6960:
  1021  001444  5000               	movf	((c:0)),c,w
  1022  001446  0A06               	xorlw	6
  1023                           
  1024  001448  A4D8               	btfss	status,2
  1025  00144A  EF29  F00A         	goto	i2u6971
  1026  00144E  EF2B  F00A         	goto	i2u6970
  1027  001452                     i2u6971:
  1028  001452  EF32  F00A         	goto	i2l878
  1029  001456                     i2u6970:
  1030                           	line	277
  1031                           ;main.c: 277: LATA = 0b11111111;
  1032  001456  6889               	setf	((c:3977)),c	;volatile
  1033                           	line	279
  1034                           ;main.c: 279: LATB = 0b11100000;
  1035  001458  0EE0               	movlw	low(0E0h)
  1036  00145A  6E8A               	movwf	((c:3978)),c	;volatile
  1037                           	line	281
  1038                           ;main.c: 281: LATC = 0b00001101;
  1039  00145C  0E0D               	movlw	low(0Dh)
  1040  00145E  6E8B               	movwf	((c:3979)),c	;volatile
  1041                           	line	282
  1042                           ;main.c: 282: } else if (conv_result.adc_channel
                                  == 6 && conv_result.result == 0x07) {
  1043  001460  EFE7  F00F         	goto	i2l873
  1044                           	
  1045  001464                     i2l878:		; BSR set to: ?
  1046                           
  1047  001464  5001               	movf	(0+((c:0)+01h)),c,w
  1048  001466  0A06               	xorlw	6
  1049                           
  1050  001468  A4D8               	btfss	status,2
  1051  00146A  EF39  F00A         	goto	i2u6981
  1052  00146E  EF3B  F00A         	goto	i2u6980
  1053  001472                     i2u6981:
  1054  001472  EF4B  F00A         	goto	i2l880
  1055  001476                     i2u6980:
  1056  001476  5000               	movf	((c:0)),c,w
  1057  001478  0A07               	xorlw	7
  1058                           
  1059  00147A  A4D8               	btfss	status,2
  1060  00147C  EF42  F00A         	goto	i2u6991
  1061  001480  EF44  F00A         	goto	i2u6990
  1062  001484                     i2u6991:
  1063  001484  EF4B  F00A         	goto	i2l880
  1064  001488                     i2u6990:
  1065                           	line	285
  1066                           ;main.c: 285: LATA = 0b11111111;
  1067  001488  6889               	setf	((c:3977)),c	;volatile
  1068                           	line	287
  1069                           ;main.c: 287: LATB = 0b01100000;
  1070  00148A  0E60               	movlw	low(060h)
  1071  00148C  6E8A               	movwf	((c:3978)),c	;volatile
  1072                           	line	289
  1073                           ;main.c: 289: LATC = 0b00001111;
  1074  00148E  0E0F               	movlw	low(0Fh)
  1075  001490  6E8B               	movwf	((c:3979)),c	;volatile
  1076                           	line	290
  1077                           ;main.c: 290: } else if (conv_result.adc_channel
                                  == 0 && conv_result.result == 0x01) {
  1078  001492  EFE7  F00F         	goto	i2l873
  1079                           	
  1080  001496                     i2l880:		; BSR set to: ?
  1081                           
  1082  001496  6601               	tstfsz	(0+((c:0)+01h)),c
  1083  001498  EF50  F00A         	goto	i2u7001
  1084  00149C  EF52  F00A         	goto	i2u7000
  1085  0014A0                     i2u7001:
  1086  0014A0  EF61  F00A         	goto	i2l882
  1087  0014A4                     i2u7000:
  1088  0014A4  0400               	decf	((c:0)),c,w
  1089                           
  1090  0014A6  A4D8               	btfss	status,2
  1091  0014A8  EF58  F00A         	goto	i2u7011
  1092  0014AC  EF5A  F00A         	goto	i2u7010
  1093  0014B0                     i2u7011:
  1094  0014B0  EF61  F00A         	goto	i2l882
  1095  0014B4                     i2u7010:
  1096                           	line	293
  1097                           ;main.c: 293: LATA = 0b11111111;
  1098  0014B4  6889               	setf	((c:3977)),c	;volatile
  1099                           	line	295
  1100                           ;main.c: 295: LATB = 0b11100000;
  1101  0014B6  0EE0               	movlw	low(0E0h)
  1102  0014B8  6E8A               	movwf	((c:3978)),c	;volatile
  1103                           	line	297
  1104                           ;main.c: 297: LATC = 0b00001011;
  1105  0014BA  0E0B               	movlw	low(0Bh)
  1106  0014BC  6E8B               	movwf	((c:3979)),c	;volatile
  1107                           	line	298
  1108                           ;main.c: 298: } else if (conv_result.adc_channel
                                  == 1 && conv_result.result == 0x02) {
  1109  0014BE  EFE7  F00F         	goto	i2l873
  1110                           	
  1111  0014C2                     i2l882:		; BSR set to: ?
  1112                           
  1113  0014C2  0401               	decf	(0+((c:0)+01h)),c,w
  1114                           
  1115  0014C4  A4D8               	btfss	status,2
  1116  0014C6  EF67  F00A         	goto	i2u7021
  1117  0014CA  EF69  F00A         	goto	i2u7020
  1118  0014CE                     i2u7021:
  1119  0014CE  EF79  F00A         	goto	i2l884
  1120  0014D2                     i2u7020:
  1121  0014D2  5000               	movf	((c:0)),c,w
  1122  0014D4  0A02               	xorlw	2
  1123                           
  1124  0014D6  A4D8               	btfss	status,2
  1125  0014D8  EF70  F00A         	goto	i2u7031
  1126  0014DC  EF72  F00A         	goto	i2u7030
  1127  0014E0                     i2u7031:
  1128  0014E0  EF79  F00A         	goto	i2l884
  1129  0014E4                     i2u7030:
  1130                           	line	301
  1131                           ;main.c: 301: LATA = 0b11111111;
  1132  0014E4  6889               	setf	((c:3977)),c	;volatile
  1133                           	line	303
  1134                           ;main.c: 303: LATB = 0b11100000;
  1135  0014E6  0EE0               	movlw	low(0E0h)
  1136  0014E8  6E8A               	movwf	((c:3978)),c	;volatile
  1137                           	line	305
  1138                           ;main.c: 305: LATC = 0b00000111;
  1139  0014EA  0E07               	movlw	low(07h)
  1140  0014EC  6E8B               	movwf	((c:3979)),c	;volatile
  1141                           	line	307
  1142                           ;main.c: 307: } else if (conv_result.adc_channel
                                  == 2 && conv_result.result == 0x0b) {
  1143  0014EE  EFE7  F00F         	goto	i2l873
  1144                           	
  1145  0014F2                     i2l884:		; BSR set to: ?
  1146                           
  1147  0014F2  5001               	movf	(0+((c:0)+01h)),c,w
  1148  0014F4  0A02               	xorlw	2
  1149                           
  1150  0014F6  A4D8               	btfss	status,2
  1151  0014F8  EF80  F00A         	goto	i2u7041
  1152  0014FC  EF82  F00A         	goto	i2u7040
  1153  001500                     i2u7041:
  1154  001500  EF93  F00A         	goto	i2l886
  1155  001504                     i2u7040:
  1156  001504  5000               	movf	((c:0)),c,w
  1157  001506  0A0B               	xorlw	11
  1158                           
  1159  001508  A4D8               	btfss	status,2
  1160  00150A  EF89  F00A         	goto	i2u7051
  1161  00150E  EF8B  F00A         	goto	i2u7050
  1162  001512                     i2u7051:
  1163  001512  EF93  F00A         	goto	i2l886
  1164  001516                     i2u7050:
  1165                           	line	310
  1166                           ;main.c: 310: LATA = 0b11101111;
  1167  001516  0EEF               	movlw	low(0EFh)
  1168  001518  6E89               	movwf	((c:3977)),c	;volatile
  1169                           	line	312
  1170                           ;main.c: 312: LATB = 0b11000000;
  1171  00151A  0EC0               	movlw	low(0C0h)
  1172  00151C  6E8A               	movwf	((c:3978)),c	;volatile
  1173                           	line	314
  1174                           ;main.c: 314: LATC = 0b00001111;
  1175  00151E  0E0F               	movlw	low(0Fh)
  1176  001520  6E8B               	movwf	((c:3979)),c	;volatile
  1177                           	line	315
  1178                           ;main.c: 315: } else if (conv_result.adc_channel
                                  == 3 && conv_result.result == 0x0c) {
  1179  001522  EFE7  F00F         	goto	i2l873
  1180                           	
  1181  001526                     i2l886:		; BSR set to: ?
  1182                           
  1183  001526  5001               	movf	(0+((c:0)+01h)),c,w
  1184  001528  0A03               	xorlw	3
  1185                           
  1186  00152A  A4D8               	btfss	status,2
  1187  00152C  EF9A  F00A         	goto	i2u7061
  1188  001530  EF9C  F00A         	goto	i2u7060
  1189  001534                     i2u7061:
  1190  001534  EFAD  F00A         	goto	i2l888
  1191  001538                     i2u7060:
  1192  001538  5000               	movf	((c:0)),c,w
  1193  00153A  0A0C               	xorlw	12
  1194                           
  1195  00153C  A4D8               	btfss	status,2
  1196  00153E  EFA3  F00A         	goto	i2u7071
  1197  001542  EFA5  F00A         	goto	i2u7070
  1198  001546                     i2u7071:
  1199  001546  EFAD  F00A         	goto	i2l888
  1200  00154A                     i2u7070:
  1201                           	line	318
  1202                           ;main.c: 318: LATA = 0b10111111;
  1203  00154A  0EBF               	movlw	low(0BFh)
  1204  00154C  6E89               	movwf	((c:3977)),c	;volatile
  1205                           	line	320
  1206                           ;main.c: 320: LATB = 0b11000000;
  1207  00154E  0EC0               	movlw	low(0C0h)
  1208  001550  6E8A               	movwf	((c:3978)),c	;volatile
  1209                           	line	322
  1210                           ;main.c: 322: LATC = 0b00001111;
  1211  001552  0E0F               	movlw	low(0Fh)
  1212  001554  6E8B               	movwf	((c:3979)),c	;volatile
  1213                           	line	323
  1214                           ;main.c: 323: } else if (conv_result.adc_channel
                                  == 4 && conv_result.result == 0x0d) {
  1215  001556  EFE7  F00F         	goto	i2l873
  1216                           	
  1217  00155A                     i2l888:		; BSR set to: ?
  1218                           
  1219  00155A  5001               	movf	(0+((c:0)+01h)),c,w
  1220  00155C  0A04               	xorlw	4
  1221                           
  1222  00155E  A4D8               	btfss	status,2
  1223  001560  EFB4  F00A         	goto	i2u7081
  1224  001564  EFB6  F00A         	goto	i2u7080
  1225  001568                     i2u7081:
  1226  001568  EFC6  F00A         	goto	i2l890
  1227  00156C                     i2u7080:
  1228  00156C  5000               	movf	((c:0)),c,w
  1229  00156E  0A0D               	xorlw	13
  1230                           
  1231  001570  A4D8               	btfss	status,2
  1232  001572  EFBD  F00A         	goto	i2u7091
  1233  001576  EFBF  F00A         	goto	i2u7090
  1234  00157A                     i2u7091:
  1235  00157A  EFC6  F00A         	goto	i2l890
  1236  00157E                     i2u7090:
  1237                           	line	326
  1238                           ;main.c: 326: LATA = 0b11111111;
  1239  00157E  6889               	setf	((c:3977)),c	;volatile
  1240                           	line	328
  1241                           ;main.c: 328: LATB = 0b11000000;
  1242  001580  0EC0               	movlw	low(0C0h)
  1243  001582  6E8A               	movwf	((c:3978)),c	;volatile
  1244                           	line	330
  1245                           ;main.c: 330: LATC = 0b00001110;
  1246  001584  0E0E               	movlw	low(0Eh)
  1247  001586  6E8B               	movwf	((c:3979)),c	;volatile
  1248                           	line	331
  1249                           ;main.c: 331: } else if (conv_result.adc_channel
                                  == 5 && conv_result.result == 0x16) {
  1250  001588  EFE7  F00F         	goto	i2l873
  1251                           	
  1252  00158C                     i2l890:		; BSR set to: ?
  1253                           
  1254  00158C  5001               	movf	(0+((c:0)+01h)),c,w
  1255  00158E  0A05               	xorlw	5
  1256                           
  1257  001590  A4D8               	btfss	status,2
  1258  001592  EFCD  F00A         	goto	i2u7101
  1259  001596  EFCF  F00A         	goto	i2u7100
  1260  00159A                     i2u7101:
  1261  00159A  EFDF  F00A         	goto	i2l892
  1262  00159E                     i2u7100:
  1263  00159E  5000               	movf	((c:0)),c,w
  1264  0015A0  0A16               	xorlw	22
  1265                           
  1266  0015A2  A4D8               	btfss	status,2
  1267  0015A4  EFD6  F00A         	goto	i2u7111
  1268  0015A8  EFD8  F00A         	goto	i2u7110
  1269  0015AC                     i2u7111:
  1270  0015AC  EFDF  F00A         	goto	i2l892
  1271  0015B0                     i2u7110:
  1272                           	line	334
  1273                           ;main.c: 334: LATA = 0b11111111;
  1274  0015B0  6889               	setf	((c:3977)),c	;volatile
  1275                           	line	336
  1276                           ;main.c: 336: LATB = 0b11000000;
  1277  0015B2  0EC0               	movlw	low(0C0h)
  1278  0015B4  6E8A               	movwf	((c:3978)),c	;volatile
  1279                           	line	338
  1280                           ;main.c: 338: LATC = 0b00001101;
  1281  0015B6  0E0D               	movlw	low(0Dh)
  1282  0015B8  6E8B               	movwf	((c:3979)),c	;volatile
  1283                           	line	340
  1284                           ;main.c: 340: } else if (conv_result.adc_channel
                                  == 6 && conv_result.result == 0x0f) {
  1285  0015BA  EFE7  F00F         	goto	i2l873
  1286                           	
  1287  0015BE                     i2l892:		; BSR set to: ?
  1288                           
  1289  0015BE  5001               	movf	(0+((c:0)+01h)),c,w
  1290  0015C0  0A06               	xorlw	6
  1291                           
  1292  0015C2  A4D8               	btfss	status,2
  1293  0015C4  EFE6  F00A         	goto	i2u7121
  1294  0015C8  EFE8  F00A         	goto	i2u7120
  1295  0015CC                     i2u7121:
  1296  0015CC  EFF8  F00A         	goto	i2l894
  1297  0015D0                     i2u7120:
  1298  0015D0  5000               	movf	((c:0)),c,w
  1299  0015D2  0A0F               	xorlw	15
  1300                           
  1301  0015D4  A4D8               	btfss	status,2
  1302  0015D6  EFEF  F00A         	goto	i2u7131
  1303  0015DA  EFF1  F00A         	goto	i2u7130
  1304  0015DE                     i2u7131:
  1305  0015DE  EFF8  F00A         	goto	i2l894
  1306  0015E2                     i2u7130:
  1307                           	line	343
  1308                           ;main.c: 343: LATA = 0b11111111;
  1309  0015E2  6889               	setf	((c:3977)),c	;volatile
  1310                           	line	345
  1311                           ;main.c: 345: LATB = 0b01000000;
  1312  0015E4  0E40               	movlw	low(040h)
  1313  0015E6  6E8A               	movwf	((c:3978)),c	;volatile
  1314                           	line	347
  1315                           ;main.c: 347: LATC = 0b00001111;
  1316  0015E8  0E0F               	movlw	low(0Fh)
  1317  0015EA  6E8B               	movwf	((c:3979)),c	;volatile
  1318                           	line	349
  1319                           ;main.c: 349: } else if (conv_result.adc_channel
                                  == 0 && conv_result.result == 0x09) {
  1320  0015EC  EFE7  F00F         	goto	i2l873
  1321                           	
  1322  0015F0                     i2l894:		; BSR set to: ?
  1323                           
  1324  0015F0  6601               	tstfsz	(0+((c:0)+01h)),c
  1325  0015F2  EFFD  F00A         	goto	i2u7141
  1326  0015F6  EFFF  F00A         	goto	i2u7140
  1327  0015FA                     i2u7141:
  1328  0015FA  EF0F  F00B         	goto	i2l896
  1329  0015FE                     i2u7140:
  1330  0015FE  5000               	movf	((c:0)),c,w
  1331  001600  0A09               	xorlw	9
  1332                           
  1333  001602  A4D8               	btfss	status,2
  1334  001604  EF06  F00B         	goto	i2u7151
  1335  001608  EF08  F00B         	goto	i2u7150
  1336  00160C                     i2u7151:
  1337  00160C  EF0F  F00B         	goto	i2l896
  1338  001610                     i2u7150:
  1339                           	line	352
  1340                           ;main.c: 352: LATA = 0b11111111;
  1341  001610  6889               	setf	((c:3977)),c	;volatile
  1342                           	line	354
  1343                           ;main.c: 354: LATB = 0b11000000;
  1344  001612  0EC0               	movlw	low(0C0h)
  1345  001614  6E8A               	movwf	((c:3978)),c	;volatile
  1346                           	line	356
  1347                           ;main.c: 356: LATC = 0b00001011;
  1348  001616  0E0B               	movlw	low(0Bh)
  1349  001618  6E8B               	movwf	((c:3979)),c	;volatile
  1350                           	line	358
  1351                           ;main.c: 358: } else if (conv_result.adc_channel
                                  == 1 && conv_result.result == 0x0a) {
  1352  00161A  EFE7  F00F         	goto	i2l873
  1353                           	
  1354  00161E                     i2l896:		; BSR set to: ?
  1355                           
  1356  00161E  0401               	decf	(0+((c:0)+01h)),c,w
  1357                           
  1358  001620  A4D8               	btfss	status,2
  1359  001622  EF15  F00B         	goto	i2u7161
  1360  001626  EF17  F00B         	goto	i2u7160
  1361  00162A                     i2u7161:
  1362  00162A  EF27  F00B         	goto	i2l898
  1363  00162E                     i2u7160:
  1364  00162E  5000               	movf	((c:0)),c,w
  1365  001630  0A0A               	xorlw	10
  1366                           
  1367  001632  A4D8               	btfss	status,2
  1368  001634  EF1E  F00B         	goto	i2u7171
  1369  001638  EF20  F00B         	goto	i2u7170
  1370  00163C                     i2u7171:
  1371  00163C  EF27  F00B         	goto	i2l898
  1372  001640                     i2u7170:
  1373                           	line	361
  1374                           ;main.c: 361: LATA = 0b11111111;
  1375  001640  6889               	setf	((c:3977)),c	;volatile
  1376                           	line	363
  1377                           ;main.c: 363: LATB = 0b11000000;
  1378  001642  0EC0               	movlw	low(0C0h)
  1379  001644  6E8A               	movwf	((c:3978)),c	;volatile
  1380                           	line	365
  1381                           ;main.c: 365: LATC = 0b00000111;
  1382  001646  0E07               	movlw	low(07h)
  1383  001648  6E8B               	movwf	((c:3979)),c	;volatile
  1384                           	line	367
  1385                           ;main.c: 367: } else if (conv_result.adc_channel
                                  == 2 && conv_result.result == 0x13) {
  1386  00164A  EFE7  F00F         	goto	i2l873
  1387                           	
  1388  00164E                     i2l898:		; BSR set to: ?
  1389                           
  1390  00164E  5001               	movf	(0+((c:0)+01h)),c,w
  1391  001650  0A02               	xorlw	2
  1392                           
  1393  001652  A4D8               	btfss	status,2
  1394  001654  EF2E  F00B         	goto	i2u7181
  1395  001658  EF30  F00B         	goto	i2u7180
  1396  00165C                     i2u7181:
  1397  00165C  EF41  F00B         	goto	i2l900
  1398  001660                     i2u7180:
  1399  001660  5000               	movf	((c:0)),c,w
  1400  001662  0A13               	xorlw	19
  1401                           
  1402  001664  A4D8               	btfss	status,2
  1403  001666  EF37  F00B         	goto	i2u7191
  1404  00166A  EF39  F00B         	goto	i2u7190
  1405  00166E                     i2u7191:
  1406  00166E  EF41  F00B         	goto	i2l900
  1407  001672                     i2u7190:
  1408                           	line	370
  1409                           ;main.c: 370: LATA = 0b11101111;
  1410  001672  0EEF               	movlw	low(0EFh)
  1411  001674  6E89               	movwf	((c:3977)),c	;volatile
  1412                           	line	372
  1413                           ;main.c: 372: LATB = 0b10100000;
  1414  001676  0EA0               	movlw	low(0A0h)
  1415  001678  6E8A               	movwf	((c:3978)),c	;volatile
  1416                           	line	374
  1417                           ;main.c: 374: LATC = 0b00001111;
  1418  00167A  0E0F               	movlw	low(0Fh)
  1419  00167C  6E8B               	movwf	((c:3979)),c	;volatile
  1420                           	line	376
  1421                           ;main.c: 376: } else if (conv_result.adc_channel
                                  == 3 && conv_result.result == 0x14) {
  1422  00167E  EFE7  F00F         	goto	i2l873
  1423                           	
  1424  001682                     i2l900:		; BSR set to: ?
  1425                           
  1426  001682  5001               	movf	(0+((c:0)+01h)),c,w
  1427  001684  0A03               	xorlw	3
  1428                           
  1429  001686  A4D8               	btfss	status,2
  1430  001688  EF48  F00B         	goto	i2u7201
  1431  00168C  EF4A  F00B         	goto	i2u7200
  1432  001690                     i2u7201:
  1433  001690  EF5B  F00B         	goto	i2l902
  1434  001694                     i2u7200:
  1435  001694  5000               	movf	((c:0)),c,w
  1436  001696  0A14               	xorlw	20
  1437                           
  1438  001698  A4D8               	btfss	status,2
  1439  00169A  EF51  F00B         	goto	i2u7211
  1440  00169E  EF53  F00B         	goto	i2u7210
  1441  0016A2                     i2u7211:
  1442  0016A2  EF5B  F00B         	goto	i2l902
  1443  0016A6                     i2u7210:
  1444                           	line	379
  1445                           ;main.c: 379: LATA = 0b10111111;
  1446  0016A6  0EBF               	movlw	low(0BFh)
  1447  0016A8  6E89               	movwf	((c:3977)),c	;volatile
  1448                           	line	381
  1449                           ;main.c: 381: LATB = 0b10100000;
  1450  0016AA  0EA0               	movlw	low(0A0h)
  1451  0016AC  6E8A               	movwf	((c:3978)),c	;volatile
  1452                           	line	383
  1453                           ;main.c: 383: LATC = 0b00001111;
  1454  0016AE  0E0F               	movlw	low(0Fh)
  1455  0016B0  6E8B               	movwf	((c:3979)),c	;volatile
  1456                           	line	385
  1457                           ;main.c: 385: } else if (conv_result.adc_channel
                                  == 4 && conv_result.result == 0x15) {
  1458  0016B2  EFE7  F00F         	goto	i2l873
  1459                           	
  1460  0016B6                     i2l902:		; BSR set to: ?
  1461                           
  1462  0016B6  5001               	movf	(0+((c:0)+01h)),c,w
  1463  0016B8  0A04               	xorlw	4
  1464                           
  1465  0016BA  A4D8               	btfss	status,2
  1466  0016BC  EF62  F00B         	goto	i2u7221
  1467  0016C0  EF64  F00B         	goto	i2u7220
  1468  0016C4                     i2u7221:
  1469  0016C4  EF74  F00B         	goto	i2l904
  1470  0016C8                     i2u7220:
  1471  0016C8  5000               	movf	((c:0)),c,w
  1472  0016CA  0A15               	xorlw	21
  1473                           
  1474  0016CC  A4D8               	btfss	status,2
  1475  0016CE  EF6B  F00B         	goto	i2u7231
  1476  0016D2  EF6D  F00B         	goto	i2u7230
  1477  0016D6                     i2u7231:
  1478  0016D6  EF74  F00B         	goto	i2l904
  1479  0016DA                     i2u7230:
  1480                           	line	388
  1481                           ;main.c: 388: LATA = 0b11111111;
  1482  0016DA  6889               	setf	((c:3977)),c	;volatile
  1483                           	line	390
  1484                           ;main.c: 390: LATB = 0b10100000;
  1485  0016DC  0EA0               	movlw	low(0A0h)
  1486  0016DE  6E8A               	movwf	((c:3978)),c	;volatile
  1487                           	line	392
  1488                           ;main.c: 392: LATC = 0b00001110;
  1489  0016E0  0E0E               	movlw	low(0Eh)
  1490  0016E2  6E8B               	movwf	((c:3979)),c	;volatile
  1491                           	line	394
  1492                           ;main.c: 394: } else if (conv_result.adc_channel
                                  == 5 && conv_result.result == 0x0e) {
  1493  0016E4  EFE7  F00F         	goto	i2l873
  1494                           	
  1495  0016E8                     i2l904:		; BSR set to: ?
  1496                           
  1497  0016E8  5001               	movf	(0+((c:0)+01h)),c,w
  1498  0016EA  0A05               	xorlw	5
  1499                           
  1500  0016EC  A4D8               	btfss	status,2
  1501  0016EE  EF7B  F00B         	goto	i2u7241
  1502  0016F2  EF7D  F00B         	goto	i2u7240
  1503  0016F6                     i2u7241:
  1504  0016F6  EF8D  F00B         	goto	i2l906
  1505  0016FA                     i2u7240:
  1506  0016FA  5000               	movf	((c:0)),c,w
  1507  0016FC  0A0E               	xorlw	14
  1508                           
  1509  0016FE  A4D8               	btfss	status,2
  1510  001700  EF84  F00B         	goto	i2u7251
  1511  001704  EF86  F00B         	goto	i2u7250
  1512  001708                     i2u7251:
  1513  001708  EF8D  F00B         	goto	i2l906
  1514  00170C                     i2u7250:
  1515                           	line	397
  1516                           ;main.c: 397: LATA = 0b11111111;
  1517  00170C  6889               	setf	((c:3977)),c	;volatile
  1518                           	line	399
  1519                           ;main.c: 399: LATB = 0b10100000;
  1520  00170E  0EA0               	movlw	low(0A0h)
  1521  001710  6E8A               	movwf	((c:3978)),c	;volatile
  1522                           	line	401
  1523                           ;main.c: 401: LATC = 0b00001101;
  1524  001712  0E0D               	movlw	low(0Dh)
  1525  001714  6E8B               	movwf	((c:3979)),c	;volatile
  1526                           	line	403
  1527                           ;main.c: 403: } else if (conv_result.adc_channel
                                  == 6 && conv_result.result == 0x17) {
  1528  001716  EFE7  F00F         	goto	i2l873
  1529                           	
  1530  00171A                     i2l906:		; BSR set to: ?
  1531                           
  1532  00171A  5001               	movf	(0+((c:0)+01h)),c,w
  1533  00171C  0A06               	xorlw	6
  1534                           
  1535  00171E  A4D8               	btfss	status,2
  1536  001720  EF94  F00B         	goto	i2u7261
  1537  001724  EF96  F00B         	goto	i2u7260
  1538  001728                     i2u7261:
  1539  001728  EFA6  F00B         	goto	i2l908
  1540  00172C                     i2u7260:
  1541  00172C  5000               	movf	((c:0)),c,w
  1542  00172E  0A17               	xorlw	23
  1543                           
  1544  001730  A4D8               	btfss	status,2
  1545  001732  EF9D  F00B         	goto	i2u7271
  1546  001736  EF9F  F00B         	goto	i2u7270
  1547  00173A                     i2u7271:
  1548  00173A  EFA6  F00B         	goto	i2l908
  1549  00173E                     i2u7270:
  1550                           	line	406
  1551                           ;main.c: 406: LATA = 0b11111111;
  1552  00173E  6889               	setf	((c:3977)),c	;volatile
  1553                           	line	408
  1554                           ;main.c: 408: LATB = 0b00100000;
  1555  001740  0E20               	movlw	low(020h)
  1556  001742  6E8A               	movwf	((c:3978)),c	;volatile
  1557                           	line	410
  1558                           ;main.c: 410: LATC = 0b00001111;
  1559  001744  0E0F               	movlw	low(0Fh)
  1560  001746  6E8B               	movwf	((c:3979)),c	;volatile
  1561                           	line	412
  1562                           ;main.c: 412: } else if (conv_result.adc_channel
                                  == 0 && conv_result.result == 0x11) {
  1563  001748  EFE7  F00F         	goto	i2l873
  1564                           	
  1565  00174C                     i2l908:		; BSR set to: ?
  1566                           
  1567  00174C  6601               	tstfsz	(0+((c:0)+01h)),c
  1568  00174E  EFAB  F00B         	goto	i2u7281
  1569  001752  EFAD  F00B         	goto	i2u7280
  1570  001756                     i2u7281:
  1571  001756  EFBD  F00B         	goto	i2l910
  1572  00175A                     i2u7280:
  1573  00175A  5000               	movf	((c:0)),c,w
  1574  00175C  0A11               	xorlw	17
  1575                           
  1576  00175E  A4D8               	btfss	status,2
  1577  001760  EFB4  F00B         	goto	i2u7291
  1578  001764  EFB6  F00B         	goto	i2u7290
  1579  001768                     i2u7291:
  1580  001768  EFBD  F00B         	goto	i2l910
  1581  00176C                     i2u7290:
  1582                           	line	415
  1583                           ;main.c: 415: LATA = 0b11111111;
  1584  00176C  6889               	setf	((c:3977)),c	;volatile
  1585                           	line	417
  1586                           ;main.c: 417: LATB = 0b10100000;
  1587  00176E  0EA0               	movlw	low(0A0h)
  1588  001770  6E8A               	movwf	((c:3978)),c	;volatile
  1589                           	line	419
  1590                           ;main.c: 419: LATC = 0b00001011;
  1591  001772  0E0B               	movlw	low(0Bh)
  1592  001774  6E8B               	movwf	((c:3979)),c	;volatile
  1593                           	line	421
  1594                           ;main.c: 421: } else if (conv_result.adc_channel
                                  == 1 && conv_result.result == 0x12) {
  1595  001776  EFE7  F00F         	goto	i2l873
  1596                           	
  1597  00177A                     i2l910:		; BSR set to: ?
  1598                           
  1599  00177A  0401               	decf	(0+((c:0)+01h)),c,w
  1600                           
  1601  00177C  A4D8               	btfss	status,2
  1602  00177E  EFC3  F00B         	goto	i2u7301
  1603  001782  EFC5  F00B         	goto	i2u7300
  1604  001786                     i2u7301:
  1605  001786  EFD5  F00B         	goto	i2l912
  1606  00178A                     i2u7300:
  1607  00178A  5000               	movf	((c:0)),c,w
  1608  00178C  0A12               	xorlw	18
  1609                           
  1610  00178E  A4D8               	btfss	status,2
  1611  001790  EFCC  F00B         	goto	i2u7311
  1612  001794  EFCE  F00B         	goto	i2u7310
  1613  001798                     i2u7311:
  1614  001798  EFD5  F00B         	goto	i2l912
  1615  00179C                     i2u7310:
  1616                           	line	424
  1617                           ;main.c: 424: LATA = 0b11111111;
  1618  00179C  6889               	setf	((c:3977)),c	;volatile
  1619                           	line	426
  1620                           ;main.c: 426: LATB = 0b10100000;
  1621  00179E  0EA0               	movlw	low(0A0h)
  1622  0017A0  6E8A               	movwf	((c:3978)),c	;volatile
  1623                           	line	428
  1624                           ;main.c: 428: LATC = 0b00000111;
  1625  0017A2  0E07               	movlw	low(07h)
  1626  0017A4  6E8B               	movwf	((c:3979)),c	;volatile
  1627                           	line	429
  1628                           ;main.c: 429: }
  1629  0017A6  EFE7  F00F         	goto	i2l873
  1630                           	line	432
  1631                           	
  1632  0017AA                     i2l912:		; BSR set to: ?
  1633                           
  1634                           ;main.c: 432: else if (conv_result.adc_channel =
                                 = 2 && conv_result.result == 0x23) {
  1635  0017AA  5001               	movf	(0+((c:0)+01h)),c,w
  1636  0017AC  0A02               	xorlw	2
  1637                           
  1638  0017AE  A4D8               	btfss	status,2
  1639  0017B0  EFDC  F00B         	goto	i2u7321
  1640  0017B4  EFDE  F00B         	goto	i2u7320
  1641  0017B8                     i2u7321:
  1642  0017B8  EFEF  F00B         	goto	i2l914
  1643  0017BC                     i2u7320:
  1644  0017BC  5000               	movf	((c:0)),c,w
  1645  0017BE  0A23               	xorlw	35
  1646                           
  1647  0017C0  A4D8               	btfss	status,2
  1648  0017C2  EFE5  F00B         	goto	i2u7331
  1649  0017C6  EFE7  F00B         	goto	i2u7330
  1650  0017CA                     i2u7331:
  1651  0017CA  EFEF  F00B         	goto	i2l914
  1652  0017CE                     i2u7330:
  1653                           	line	435
  1654                           ;main.c: 435: LATA = 0b11101111;
  1655  0017CE  0EEF               	movlw	low(0EFh)
  1656  0017D0  6E89               	movwf	((c:3977)),c	;volatile
  1657                           	line	437
  1658                           ;main.c: 437: LATB = 0b10001100;
  1659  0017D2  0E8C               	movlw	low(08Ch)
  1660  0017D4  6E8A               	movwf	((c:3978)),c	;volatile
  1661                           	line	439
  1662                           ;main.c: 439: LATC = 0b00001111;
  1663  0017D6  0E0F               	movlw	low(0Fh)
  1664  0017D8  6E8B               	movwf	((c:3979)),c	;volatile
  1665                           	line	441
  1666                           ;main.c: 441: } else if (conv_result.adc_channel
                                  == 3 && conv_result.result == 0x24) {
  1667  0017DA  EFE7  F00F         	goto	i2l873
  1668                           	
  1669  0017DE                     i2l914:		; BSR set to: ?
  1670                           
  1671  0017DE  5001               	movf	(0+((c:0)+01h)),c,w
  1672  0017E0  0A03               	xorlw	3
  1673                           
  1674  0017E2  A4D8               	btfss	status,2
  1675  0017E4  EFF6  F00B         	goto	i2u7341
  1676  0017E8  EFF8  F00B         	goto	i2u7340
  1677  0017EC                     i2u7341:
  1678  0017EC  EF09  F00C         	goto	i2l916
  1679  0017F0                     i2u7340:
  1680  0017F0  5000               	movf	((c:0)),c,w
  1681  0017F2  0A24               	xorlw	36
  1682                           
  1683  0017F4  A4D8               	btfss	status,2
  1684  0017F6  EFFF  F00B         	goto	i2u7351
  1685  0017FA  EF01  F00C         	goto	i2u7350
  1686  0017FE                     i2u7351:
  1687  0017FE  EF09  F00C         	goto	i2l916
  1688  001802                     i2u7350:
  1689                           	line	444
  1690                           ;main.c: 444: LATA = 0b10111111;
  1691  001802  0EBF               	movlw	low(0BFh)
  1692  001804  6E89               	movwf	((c:3977)),c	;volatile
  1693                           	line	446
  1694                           ;main.c: 446: LATB = 0b10001100;
  1695  001806  0E8C               	movlw	low(08Ch)
  1696  001808  6E8A               	movwf	((c:3978)),c	;volatile
  1697                           	line	448
  1698                           ;main.c: 448: LATC = 0b00001111;
  1699  00180A  0E0F               	movlw	low(0Fh)
  1700  00180C  6E8B               	movwf	((c:3979)),c	;volatile
  1701                           	line	450
  1702                           ;main.c: 450: } else if (conv_result.adc_channel
                                  == 4 && conv_result.result == 0x25) {
  1703  00180E  EFE7  F00F         	goto	i2l873
  1704                           	
  1705  001812                     i2l916:		; BSR set to: ?
  1706                           
  1707  001812  5001               	movf	(0+((c:0)+01h)),c,w
  1708  001814  0A04               	xorlw	4
  1709                           
  1710  001816  A4D8               	btfss	status,2
  1711  001818  EF10  F00C         	goto	i2u7361
  1712  00181C  EF12  F00C         	goto	i2u7360
  1713  001820                     i2u7361:
  1714  001820  EF22  F00C         	goto	i2l918
  1715  001824                     i2u7360:
  1716  001824  5000               	movf	((c:0)),c,w
  1717  001826  0A25               	xorlw	37
  1718                           
  1719  001828  A4D8               	btfss	status,2
  1720  00182A  EF19  F00C         	goto	i2u7371
  1721  00182E  EF1B  F00C         	goto	i2u7370
  1722  001832                     i2u7371:
  1723  001832  EF22  F00C         	goto	i2l918
  1724  001836                     i2u7370:
  1725                           	line	453
  1726                           ;main.c: 453: LATA = 0b11111111;
  1727  001836  6889               	setf	((c:3977)),c	;volatile
  1728                           	line	455
  1729                           ;main.c: 455: LATB = 0b10001100;
  1730  001838  0E8C               	movlw	low(08Ch)
  1731  00183A  6E8A               	movwf	((c:3978)),c	;volatile
  1732                           	line	457
  1733                           ;main.c: 457: LATC = 0b00001110;
  1734  00183C  0E0E               	movlw	low(0Eh)
  1735  00183E  6E8B               	movwf	((c:3979)),c	;volatile
  1736                           	line	459
  1737                           ;main.c: 459: } else if (conv_result.adc_channel
                                  == 5 && conv_result.result == 0x26) {
  1738  001840  EFE7  F00F         	goto	i2l873
  1739                           	
  1740  001844                     i2l918:		; BSR set to: ?
  1741                           
  1742  001844  5001               	movf	(0+((c:0)+01h)),c,w
  1743  001846  0A05               	xorlw	5
  1744                           
  1745  001848  A4D8               	btfss	status,2
  1746  00184A  EF29  F00C         	goto	i2u7381
  1747  00184E  EF2B  F00C         	goto	i2u7380
  1748  001852                     i2u7381:
  1749  001852  EF3B  F00C         	goto	i2l920
  1750  001856                     i2u7380:
  1751  001856  5000               	movf	((c:0)),c,w
  1752  001858  0A26               	xorlw	38
  1753                           
  1754  00185A  A4D8               	btfss	status,2
  1755  00185C  EF32  F00C         	goto	i2u7391
  1756  001860  EF34  F00C         	goto	i2u7390
  1757  001864                     i2u7391:
  1758  001864  EF3B  F00C         	goto	i2l920
  1759  001868                     i2u7390:
  1760                           	line	462
  1761                           ;main.c: 462: LATA = 0b11111111;
  1762  001868  6889               	setf	((c:3977)),c	;volatile
  1763                           	line	464
  1764                           ;main.c: 464: LATB = 0b10001100;
  1765  00186A  0E8C               	movlw	low(08Ch)
  1766  00186C  6E8A               	movwf	((c:3978)),c	;volatile
  1767                           	line	466
  1768                           ;main.c: 466: LATC = 0b00001101;
  1769  00186E  0E0D               	movlw	low(0Dh)
  1770  001870  6E8B               	movwf	((c:3979)),c	;volatile
  1771                           	line	467
  1772                           ;main.c: 467: } else if (conv_result.adc_channel
                                  == 6 && conv_result.result == 0x27) {
  1773  001872  EFE7  F00F         	goto	i2l873
  1774                           	
  1775  001876                     i2l920:		; BSR set to: ?
  1776                           
  1777  001876  5001               	movf	(0+((c:0)+01h)),c,w
  1778  001878  0A06               	xorlw	6
  1779                           
  1780  00187A  A4D8               	btfss	status,2
  1781  00187C  EF42  F00C         	goto	i2u7401
  1782  001880  EF44  F00C         	goto	i2u7400
  1783  001884                     i2u7401:
  1784  001884  EF54  F00C         	goto	i2l922
  1785  001888                     i2u7400:
  1786  001888  5000               	movf	((c:0)),c,w
  1787  00188A  0A27               	xorlw	39
  1788                           
  1789  00188C  A4D8               	btfss	status,2
  1790  00188E  EF4B  F00C         	goto	i2u7411
  1791  001892  EF4D  F00C         	goto	i2u7410
  1792  001896                     i2u7411:
  1793  001896  EF54  F00C         	goto	i2l922
  1794  00189A                     i2u7410:
  1795                           	line	470
  1796                           ;main.c: 470: LATA = 0b11111111;
  1797  00189A  6889               	setf	((c:3977)),c	;volatile
  1798                           	line	472
  1799                           ;main.c: 472: LATB = 0b00001100;
  1800  00189C  0E0C               	movlw	low(0Ch)
  1801  00189E  6E8A               	movwf	((c:3978)),c	;volatile
  1802                           	line	474
  1803                           ;main.c: 474: LATC = 0b00001111;
  1804  0018A0  0E0F               	movlw	low(0Fh)
  1805  0018A2  6E8B               	movwf	((c:3979)),c	;volatile
  1806                           	line	475
  1807                           ;main.c: 475: } else if (conv_result.adc_channel
                                  == 0 && conv_result.result == 0x21) {
  1808  0018A4  EFE7  F00F         	goto	i2l873
  1809                           	
  1810  0018A8                     i2l922:		; BSR set to: ?
  1811                           
  1812  0018A8  6601               	tstfsz	(0+((c:0)+01h)),c
  1813  0018AA  EF59  F00C         	goto	i2u7421
  1814  0018AE  EF5B  F00C         	goto	i2u7420
  1815  0018B2                     i2u7421:
  1816  0018B2  EF6B  F00C         	goto	i2l924
  1817  0018B6                     i2u7420:
  1818  0018B6  5000               	movf	((c:0)),c,w
  1819  0018B8  0A21               	xorlw	33
  1820                           
  1821  0018BA  A4D8               	btfss	status,2
  1822  0018BC  EF62  F00C         	goto	i2u7431
  1823  0018C0  EF64  F00C         	goto	i2u7430
  1824  0018C4                     i2u7431:
  1825  0018C4  EF6B  F00C         	goto	i2l924
  1826  0018C8                     i2u7430:
  1827                           	line	478
  1828                           ;main.c: 478: LATA = 0b11111111;
  1829  0018C8  6889               	setf	((c:3977)),c	;volatile
  1830                           	line	480
  1831                           ;main.c: 480: LATB = 0b10001100;
  1832  0018CA  0E8C               	movlw	low(08Ch)
  1833  0018CC  6E8A               	movwf	((c:3978)),c	;volatile
  1834                           	line	482
  1835                           ;main.c: 482: LATC = 0b00001011;
  1836  0018CE  0E0B               	movlw	low(0Bh)
  1837  0018D0  6E8B               	movwf	((c:3979)),c	;volatile
  1838                           	line	483
  1839                           ;main.c: 483: } else if (conv_result.adc_channel
                                  == 1 && conv_result.result == 0x22) {
  1840  0018D2  EFE7  F00F         	goto	i2l873
  1841                           	
  1842  0018D6                     i2l924:		; BSR set to: ?
  1843                           
  1844  0018D6  0401               	decf	(0+((c:0)+01h)),c,w
  1845                           
  1846  0018D8  A4D8               	btfss	status,2
  1847  0018DA  EF71  F00C         	goto	i2u7441
  1848  0018DE  EF73  F00C         	goto	i2u7440
  1849  0018E2                     i2u7441:
  1850  0018E2  EF83  F00C         	goto	i2l926
  1851  0018E6                     i2u7440:
  1852  0018E6  5000               	movf	((c:0)),c,w
  1853  0018E8  0A22               	xorlw	34
  1854                           
  1855  0018EA  A4D8               	btfss	status,2
  1856  0018EC  EF7A  F00C         	goto	i2u7451
  1857  0018F0  EF7C  F00C         	goto	i2u7450
  1858  0018F4                     i2u7451:
  1859  0018F4  EF83  F00C         	goto	i2l926
  1860  0018F8                     i2u7450:
  1861                           	line	486
  1862                           ;main.c: 486: LATA = 0b11111111;
  1863  0018F8  6889               	setf	((c:3977)),c	;volatile
  1864                           	line	488
  1865                           ;main.c: 488: LATB = 0b10001100;
  1866  0018FA  0E8C               	movlw	low(08Ch)
  1867  0018FC  6E8A               	movwf	((c:3978)),c	;volatile
  1868                           	line	490
  1869                           ;main.c: 490: LATC = 0b00000111;
  1870  0018FE  0E07               	movlw	low(07h)
  1871  001900  6E8B               	movwf	((c:3979)),c	;volatile
  1872                           	line	491
  1873                           ;main.c: 491: } else if (conv_result.adc_channel
                                  == 2 && conv_result.result == 0x2b) {
  1874  001902  EFE7  F00F         	goto	i2l873
  1875                           	
  1876  001906                     i2l926:		; BSR set to: ?
  1877                           
  1878  001906  5001               	movf	(0+((c:0)+01h)),c,w
  1879  001908  0A02               	xorlw	2
  1880                           
  1881  00190A  A4D8               	btfss	status,2
  1882  00190C  EF8A  F00C         	goto	i2u7461
  1883  001910  EF8C  F00C         	goto	i2u7460
  1884  001914                     i2u7461:
  1885  001914  EF9D  F00C         	goto	i2l928
  1886  001918                     i2u7460:
  1887  001918  5000               	movf	((c:0)),c,w
  1888  00191A  0A2B               	xorlw	43
  1889                           
  1890  00191C  A4D8               	btfss	status,2
  1891  00191E  EF93  F00C         	goto	i2u7471
  1892  001922  EF95  F00C         	goto	i2u7470
  1893  001926                     i2u7471:
  1894  001926  EF9D  F00C         	goto	i2l928
  1895  00192A                     i2u7470:
  1896                           	line	494
  1897                           ;main.c: 494: LATA = 0b11101111;
  1898  00192A  0EEF               	movlw	low(0EFh)
  1899  00192C  6E89               	movwf	((c:3977)),c	;volatile
  1900                           	line	496
  1901                           ;main.c: 496: LATB = 0b10000100;
  1902  00192E  0E84               	movlw	low(084h)
  1903  001930  6E8A               	movwf	((c:3978)),c	;volatile
  1904                           	line	498
  1905                           ;main.c: 498: LATC = 0b00001111;
  1906  001932  0E0F               	movlw	low(0Fh)
  1907  001934  6E8B               	movwf	((c:3979)),c	;volatile
  1908                           	line	500
  1909                           ;main.c: 500: } else if (conv_result.adc_channel
                                  == 3 && conv_result.result == 0x2c) {
  1910  001936  EFE7  F00F         	goto	i2l873
  1911                           	
  1912  00193A                     i2l928:		; BSR set to: ?
  1913                           
  1914  00193A  5001               	movf	(0+((c:0)+01h)),c,w
  1915  00193C  0A03               	xorlw	3
  1916                           
  1917  00193E  A4D8               	btfss	status,2
  1918  001940  EFA4  F00C         	goto	i2u7481
  1919  001944  EFA6  F00C         	goto	i2u7480
  1920  001948                     i2u7481:
  1921  001948  EFB7  F00C         	goto	i2l930
  1922  00194C                     i2u7480:
  1923  00194C  5000               	movf	((c:0)),c,w
  1924  00194E  0A2C               	xorlw	44
  1925                           
  1926  001950  A4D8               	btfss	status,2
  1927  001952  EFAD  F00C         	goto	i2u7491
  1928  001956  EFAF  F00C         	goto	i2u7490
  1929  00195A                     i2u7491:
  1930  00195A  EFB7  F00C         	goto	i2l930
  1931  00195E                     i2u7490:
  1932                           	line	503
  1933                           ;main.c: 503: LATA = 0b10111111;
  1934  00195E  0EBF               	movlw	low(0BFh)
  1935  001960  6E89               	movwf	((c:3977)),c	;volatile
  1936                           	line	505
  1937                           ;main.c: 505: LATB = 0b10000100;
  1938  001962  0E84               	movlw	low(084h)
  1939  001964  6E8A               	movwf	((c:3978)),c	;volatile
  1940                           	line	507
  1941                           ;main.c: 507: LATC = 0b00001111;
  1942  001966  0E0F               	movlw	low(0Fh)
  1943  001968  6E8B               	movwf	((c:3979)),c	;volatile
  1944                           	line	509
  1945                           ;main.c: 509: } else if (conv_result.adc_channel
                                  == 4 && conv_result.result == 0x2d) {
  1946  00196A  EFE7  F00F         	goto	i2l873
  1947                           	
  1948  00196E                     i2l930:		; BSR set to: ?
  1949                           
  1950  00196E  5001               	movf	(0+((c:0)+01h)),c,w
  1951  001970  0A04               	xorlw	4
  1952                           
  1953  001972  A4D8               	btfss	status,2
  1954  001974  EFBE  F00C         	goto	i2u7501
  1955  001978  EFC0  F00C         	goto	i2u7500
  1956  00197C                     i2u7501:
  1957  00197C  EFD0  F00C         	goto	i2l932
  1958  001980                     i2u7500:
  1959  001980  5000               	movf	((c:0)),c,w
  1960  001982  0A2D               	xorlw	45
  1961                           
  1962  001984  A4D8               	btfss	status,2
  1963  001986  EFC7  F00C         	goto	i2u7511
  1964  00198A  EFC9  F00C         	goto	i2u7510
  1965  00198E                     i2u7511:
  1966  00198E  EFD0  F00C         	goto	i2l932
  1967  001992                     i2u7510:
  1968                           	line	512
  1969                           ;main.c: 512: LATA = 0b11111111;
  1970  001992  6889               	setf	((c:3977)),c	;volatile
  1971                           	line	514
  1972                           ;main.c: 514: LATB = 0b10000100;
  1973  001994  0E84               	movlw	low(084h)
  1974  001996  6E8A               	movwf	((c:3978)),c	;volatile
  1975                           	line	516
  1976                           ;main.c: 516: LATC = 0b00001110;
  1977  001998  0E0E               	movlw	low(0Eh)
  1978  00199A  6E8B               	movwf	((c:3979)),c	;volatile
  1979                           	line	518
  1980                           ;main.c: 518: } else if (conv_result.adc_channel
                                  == 5 && conv_result.result == 0x2e) {
  1981  00199C  EFE7  F00F         	goto	i2l873
  1982                           	
  1983  0019A0                     i2l932:		; BSR set to: ?
  1984                           
  1985  0019A0  5001               	movf	(0+((c:0)+01h)),c,w
  1986  0019A2  0A05               	xorlw	5
  1987                           
  1988  0019A4  A4D8               	btfss	status,2
  1989  0019A6  EFD7  F00C         	goto	i2u7521
  1990  0019AA  EFD9  F00C         	goto	i2u7520
  1991  0019AE                     i2u7521:
  1992  0019AE  EFE9  F00C         	goto	i2l934
  1993  0019B2                     i2u7520:
  1994  0019B2  5000               	movf	((c:0)),c,w
  1995  0019B4  0A2E               	xorlw	46
  1996                           
  1997  0019B6  A4D8               	btfss	status,2
  1998  0019B8  EFE0  F00C         	goto	i2u7531
  1999  0019BC  EFE2  F00C         	goto	i2u7530
  2000  0019C0                     i2u7531:
  2001  0019C0  EFE9  F00C         	goto	i2l934
  2002  0019C4                     i2u7530:
  2003                           	line	521
  2004                           ;main.c: 521: LATA = 0b11111111;
  2005  0019C4  6889               	setf	((c:3977)),c	;volatile
  2006                           	line	523
  2007                           ;main.c: 523: LATB = 0b10000100;
  2008  0019C6  0E84               	movlw	low(084h)
  2009  0019C8  6E8A               	movwf	((c:3978)),c	;volatile
  2010                           	line	525
  2011                           ;main.c: 525: LATC = 0b00001101;
  2012  0019CA  0E0D               	movlw	low(0Dh)
  2013  0019CC  6E8B               	movwf	((c:3979)),c	;volatile
  2014                           	line	527
  2015                           ;main.c: 527: } else if (conv_result.adc_channel
                                  == 6 && conv_result.result == 0x2f) {
  2016  0019CE  EFE7  F00F         	goto	i2l873
  2017                           	
  2018  0019D2                     i2l934:		; BSR set to: ?
  2019                           
  2020  0019D2  5001               	movf	(0+((c:0)+01h)),c,w
  2021  0019D4  0A06               	xorlw	6
  2022                           
  2023  0019D6  A4D8               	btfss	status,2
  2024  0019D8  EFF0  F00C         	goto	i2u7541
  2025  0019DC  EFF2  F00C         	goto	i2u7540
  2026  0019E0                     i2u7541:
  2027  0019E0  EF02  F00D         	goto	i2l936
  2028  0019E4                     i2u7540:
  2029  0019E4  5000               	movf	((c:0)),c,w
  2030  0019E6  0A2F               	xorlw	47
  2031                           
  2032  0019E8  A4D8               	btfss	status,2
  2033  0019EA  EFF9  F00C         	goto	i2u7551
  2034  0019EE  EFFB  F00C         	goto	i2u7550
  2035  0019F2                     i2u7551:
  2036  0019F2  EF02  F00D         	goto	i2l936
  2037  0019F6                     i2u7550:
  2038                           	line	530
  2039                           ;main.c: 530: LATA = 0b11111111;
  2040  0019F6  6889               	setf	((c:3977)),c	;volatile
  2041                           	line	532
  2042                           ;main.c: 532: LATB = 0b00000100;
  2043  0019F8  0E04               	movlw	low(04h)
  2044  0019FA  6E8A               	movwf	((c:3978)),c	;volatile
  2045                           	line	534
  2046                           ;main.c: 534: LATC = 0b00001111;
  2047  0019FC  0E0F               	movlw	low(0Fh)
  2048  0019FE  6E8B               	movwf	((c:3979)),c	;volatile
  2049                           	line	536
  2050                           ;main.c: 536: } else if (conv_result.adc_channel
                                  == 0 && conv_result.result == 0x29) {
  2051  001A00  EFE7  F00F         	goto	i2l873
  2052                           	
  2053  001A04                     i2l936:		; BSR set to: ?
  2054                           
  2055  001A04  6601               	tstfsz	(0+((c:0)+01h)),c
  2056  001A06  EF07  F00D         	goto	i2u7561
  2057  001A0A  EF09  F00D         	goto	i2u7560
  2058  001A0E                     i2u7561:
  2059  001A0E  EF19  F00D         	goto	i2l938
  2060  001A12                     i2u7560:
  2061  001A12  5000               	movf	((c:0)),c,w
  2062  001A14  0A29               	xorlw	41
  2063                           
  2064  001A16  A4D8               	btfss	status,2
  2065  001A18  EF10  F00D         	goto	i2u7571
  2066  001A1C  EF12  F00D         	goto	i2u7570
  2067  001A20                     i2u7571:
  2068  001A20  EF19  F00D         	goto	i2l938
  2069  001A24                     i2u7570:
  2070                           	line	539
  2071                           ;main.c: 539: LATA = 0b11111111;
  2072  001A24  6889               	setf	((c:3977)),c	;volatile
  2073                           	line	541
  2074                           ;main.c: 541: LATB = 0b10000100;
  2075  001A26  0E84               	movlw	low(084h)
  2076  001A28  6E8A               	movwf	((c:3978)),c	;volatile
  2077                           	line	543
  2078                           ;main.c: 543: LATC = 0b00001011;
  2079  001A2A  0E0B               	movlw	low(0Bh)
  2080  001A2C  6E8B               	movwf	((c:3979)),c	;volatile
  2081                           	line	545
  2082                           ;main.c: 545: } else if (conv_result.adc_channel
                                  == 1 && conv_result.result == 0x2a) {
  2083  001A2E  EFE7  F00F         	goto	i2l873
  2084                           	
  2085  001A32                     i2l938:		; BSR set to: ?
  2086                           
  2087  001A32  0401               	decf	(0+((c:0)+01h)),c,w
  2088                           
  2089  001A34  A4D8               	btfss	status,2
  2090  001A36  EF1F  F00D         	goto	i2u7581
  2091  001A3A  EF21  F00D         	goto	i2u7580
  2092  001A3E                     i2u7581:
  2093  001A3E  EF31  F00D         	goto	i2l940
  2094  001A42                     i2u7580:
  2095  001A42  5000               	movf	((c:0)),c,w
  2096  001A44  0A2A               	xorlw	42
  2097                           
  2098  001A46  A4D8               	btfss	status,2
  2099  001A48  EF28  F00D         	goto	i2u7591
  2100  001A4C  EF2A  F00D         	goto	i2u7590
  2101  001A50                     i2u7591:
  2102  001A50  EF31  F00D         	goto	i2l940
  2103  001A54                     i2u7590:
  2104                           	line	548
  2105                           ;main.c: 548: LATA = 0b11111111;
  2106  001A54  6889               	setf	((c:3977)),c	;volatile
  2107                           	line	550
  2108                           ;main.c: 550: LATB = 0b10000100;
  2109  001A56  0E84               	movlw	low(084h)
  2110  001A58  6E8A               	movwf	((c:3978)),c	;volatile
  2111                           	line	552
  2112                           ;main.c: 552: LATC = 0b00000111;
  2113  001A5A  0E07               	movlw	low(07h)
  2114  001A5C  6E8B               	movwf	((c:3979)),c	;volatile
  2115                           	line	554
  2116                           ;main.c: 554: } else if (conv_result.adc_channel
                                  == 2 && conv_result.result == 0x33) {
  2117  001A5E  EFE7  F00F         	goto	i2l873
  2118                           	
  2119  001A62                     i2l940:		; BSR set to: ?
  2120                           
  2121  001A62  5001               	movf	(0+((c:0)+01h)),c,w
  2122  001A64  0A02               	xorlw	2
  2123                           
  2124  001A66  A4D8               	btfss	status,2
  2125  001A68  EF38  F00D         	goto	i2u7601
  2126  001A6C  EF3A  F00D         	goto	i2u7600
  2127  001A70                     i2u7601:
  2128  001A70  EF4B  F00D         	goto	i2l942
  2129  001A74                     i2u7600:
  2130  001A74  5000               	movf	((c:0)),c,w
  2131  001A76  0A33               	xorlw	51
  2132                           
  2133  001A78  A4D8               	btfss	status,2
  2134  001A7A  EF41  F00D         	goto	i2u7611
  2135  001A7E  EF43  F00D         	goto	i2u7610
  2136  001A82                     i2u7611:
  2137  001A82  EF4B  F00D         	goto	i2l942
  2138  001A86                     i2u7610:
  2139                           	line	557
  2140                           ;main.c: 557: LATA = 0b11101111;
  2141  001A86  0EEF               	movlw	low(0EFh)
  2142  001A88  6E89               	movwf	((c:3977)),c	;volatile
  2143                           	line	559
  2144                           ;main.c: 559: LATB = 0b10001000;
  2145  001A8A  0E88               	movlw	low(088h)
  2146  001A8C  6E8A               	movwf	((c:3978)),c	;volatile
  2147                           	line	561
  2148                           ;main.c: 561: LATC = 0b00001111;
  2149  001A8E  0E0F               	movlw	low(0Fh)
  2150  001A90  6E8B               	movwf	((c:3979)),c	;volatile
  2151                           	line	563
  2152                           ;main.c: 563: } else if (conv_result.adc_channel
                                  == 3 && conv_result.result == 0x34) {
  2153  001A92  EFE7  F00F         	goto	i2l873
  2154                           	
  2155  001A96                     i2l942:		; BSR set to: ?
  2156                           
  2157  001A96  5001               	movf	(0+((c:0)+01h)),c,w
  2158  001A98  0A03               	xorlw	3
  2159                           
  2160  001A9A  A4D8               	btfss	status,2
  2161  001A9C  EF52  F00D         	goto	i2u7621
  2162  001AA0  EF54  F00D         	goto	i2u7620
  2163  001AA4                     i2u7621:
  2164  001AA4  EF65  F00D         	goto	i2l944
  2165  001AA8                     i2u7620:
  2166  001AA8  5000               	movf	((c:0)),c,w
  2167  001AAA  0A34               	xorlw	52
  2168                           
  2169  001AAC  A4D8               	btfss	status,2
  2170  001AAE  EF5B  F00D         	goto	i2u7631
  2171  001AB2  EF5D  F00D         	goto	i2u7630
  2172  001AB6                     i2u7631:
  2173  001AB6  EF65  F00D         	goto	i2l944
  2174  001ABA                     i2u7630:
  2175                           	line	566
  2176                           ;main.c: 566: LATA = 0b10111111;
  2177  001ABA  0EBF               	movlw	low(0BFh)
  2178  001ABC  6E89               	movwf	((c:3977)),c	;volatile
  2179                           	line	568
  2180                           ;main.c: 568: LATB = 0b10001000;
  2181  001ABE  0E88               	movlw	low(088h)
  2182  001AC0  6E8A               	movwf	((c:3978)),c	;volatile
  2183                           	line	570
  2184                           ;main.c: 570: LATC = 0b00001111;
  2185  001AC2  0E0F               	movlw	low(0Fh)
  2186  001AC4  6E8B               	movwf	((c:3979)),c	;volatile
  2187                           	line	572
  2188                           ;main.c: 572: } else if (conv_result.adc_channel
                                  == 4 && conv_result.result == 0x35) {
  2189  001AC6  EFE7  F00F         	goto	i2l873
  2190                           	
  2191  001ACA                     i2l944:		; BSR set to: ?
  2192                           
  2193  001ACA  5001               	movf	(0+((c:0)+01h)),c,w
  2194  001ACC  0A04               	xorlw	4
  2195                           
  2196  001ACE  A4D8               	btfss	status,2
  2197  001AD0  EF6C  F00D         	goto	i2u7641
  2198  001AD4  EF6E  F00D         	goto	i2u7640
  2199  001AD8                     i2u7641:
  2200  001AD8  EF7E  F00D         	goto	i2l946
  2201  001ADC                     i2u7640:
  2202  001ADC  5000               	movf	((c:0)),c,w
  2203  001ADE  0A35               	xorlw	53
  2204                           
  2205  001AE0  A4D8               	btfss	status,2
  2206  001AE2  EF75  F00D         	goto	i2u7651
  2207  001AE6  EF77  F00D         	goto	i2u7650
  2208  001AEA                     i2u7651:
  2209  001AEA  EF7E  F00D         	goto	i2l946
  2210  001AEE                     i2u7650:
  2211                           	line	575
  2212                           ;main.c: 575: LATA = 0b11111111;
  2213  001AEE  6889               	setf	((c:3977)),c	;volatile
  2214                           	line	577
  2215                           ;main.c: 577: LATB = 0b10001000;
  2216  001AF0  0E88               	movlw	low(088h)
  2217  001AF2  6E8A               	movwf	((c:3978)),c	;volatile
  2218                           	line	579
  2219                           ;main.c: 579: LATC = 0b00001110;
  2220  001AF4  0E0E               	movlw	low(0Eh)
  2221  001AF6  6E8B               	movwf	((c:3979)),c	;volatile
  2222                           	line	581
  2223                           ;main.c: 581: } else if (conv_result.adc_channel
                                  == 5 && conv_result.result == 0x36) {
  2224  001AF8  EFE7  F00F         	goto	i2l873
  2225                           	
  2226  001AFC                     i2l946:		; BSR set to: ?
  2227                           
  2228  001AFC  5001               	movf	(0+((c:0)+01h)),c,w
  2229  001AFE  0A05               	xorlw	5
  2230                           
  2231  001B00  A4D8               	btfss	status,2
  2232  001B02  EF85  F00D         	goto	i2u7661
  2233  001B06  EF87  F00D         	goto	i2u7660
  2234  001B0A                     i2u7661:
  2235  001B0A  EF97  F00D         	goto	i2l948
  2236  001B0E                     i2u7660:
  2237  001B0E  5000               	movf	((c:0)),c,w
  2238  001B10  0A36               	xorlw	54
  2239                           
  2240  001B12  A4D8               	btfss	status,2
  2241  001B14  EF8E  F00D         	goto	i2u7671
  2242  001B18  EF90  F00D         	goto	i2u7670
  2243  001B1C                     i2u7671:
  2244  001B1C  EF97  F00D         	goto	i2l948
  2245  001B20                     i2u7670:
  2246                           	line	584
  2247                           ;main.c: 584: LATA = 0b11111111;
  2248  001B20  6889               	setf	((c:3977)),c	;volatile
  2249                           	line	586
  2250                           ;main.c: 586: LATB = 0b10001000;
  2251  001B22  0E88               	movlw	low(088h)
  2252  001B24  6E8A               	movwf	((c:3978)),c	;volatile
  2253                           	line	588
  2254                           ;main.c: 588: LATC = 0b00001101;
  2255  001B26  0E0D               	movlw	low(0Dh)
  2256  001B28  6E8B               	movwf	((c:3979)),c	;volatile
  2257                           	line	590
  2258                           ;main.c: 590: } else if (conv_result.adc_channel
                                  == 6 && conv_result.result == 0x37) {
  2259  001B2A  EFE7  F00F         	goto	i2l873
  2260                           	
  2261  001B2E                     i2l948:		; BSR set to: ?
  2262                           
  2263  001B2E  5001               	movf	(0+((c:0)+01h)),c,w
  2264  001B30  0A06               	xorlw	6
  2265                           
  2266  001B32  A4D8               	btfss	status,2
  2267  001B34  EF9E  F00D         	goto	i2u7681
  2268  001B38  EFA0  F00D         	goto	i2u7680
  2269  001B3C                     i2u7681:
  2270  001B3C  EFB0  F00D         	goto	i2l950
  2271  001B40                     i2u7680:
  2272  001B40  5000               	movf	((c:0)),c,w
  2273  001B42  0A37               	xorlw	55
  2274                           
  2275  001B44  A4D8               	btfss	status,2
  2276  001B46  EFA7  F00D         	goto	i2u7691
  2277  001B4A  EFA9  F00D         	goto	i2u7690
  2278  001B4E                     i2u7691:
  2279  001B4E  EFB0  F00D         	goto	i2l950
  2280  001B52                     i2u7690:
  2281                           	line	593
  2282                           ;main.c: 593: LATA = 0b11111111;
  2283  001B52  6889               	setf	((c:3977)),c	;volatile
  2284                           	line	595
  2285                           ;main.c: 595: LATB = 0b00001000;
  2286  001B54  0E08               	movlw	low(08h)
  2287  001B56  6E8A               	movwf	((c:3978)),c	;volatile
  2288                           	line	597
  2289                           ;main.c: 597: LATC = 0b00001111;
  2290  001B58  0E0F               	movlw	low(0Fh)
  2291  001B5A  6E8B               	movwf	((c:3979)),c	;volatile
  2292                           	line	599
  2293                           ;main.c: 599: } else if (conv_result.adc_channel
                                  == 0 && conv_result.result == 0x31) {
  2294  001B5C  EFE7  F00F         	goto	i2l873
  2295                           	
  2296  001B60                     i2l950:		; BSR set to: ?
  2297                           
  2298  001B60  6601               	tstfsz	(0+((c:0)+01h)),c
  2299  001B62  EFB5  F00D         	goto	i2u7701
  2300  001B66  EFB7  F00D         	goto	i2u7700
  2301  001B6A                     i2u7701:
  2302  001B6A  EFC7  F00D         	goto	i2l952
  2303  001B6E                     i2u7700:
  2304  001B6E  5000               	movf	((c:0)),c,w
  2305  001B70  0A31               	xorlw	49
  2306                           
  2307  001B72  A4D8               	btfss	status,2
  2308  001B74  EFBE  F00D         	goto	i2u7711
  2309  001B78  EFC0  F00D         	goto	i2u7710
  2310  001B7C                     i2u7711:
  2311  001B7C  EFC7  F00D         	goto	i2l952
  2312  001B80                     i2u7710:
  2313                           	line	602
  2314                           ;main.c: 602: LATA = 0b11111111;
  2315  001B80  6889               	setf	((c:3977)),c	;volatile
  2316                           	line	604
  2317                           ;main.c: 604: LATB = 0b10001000;
  2318  001B82  0E88               	movlw	low(088h)
  2319  001B84  6E8A               	movwf	((c:3978)),c	;volatile
  2320                           	line	606
  2321                           ;main.c: 606: LATC = 0b00001011;
  2322  001B86  0E0B               	movlw	low(0Bh)
  2323  001B88  6E8B               	movwf	((c:3979)),c	;volatile
  2324                           	line	608
  2325                           ;main.c: 608: } else if (conv_result.adc_channel
                                  == 1 && conv_result.result == 0x32) {
  2326  001B8A  EFE7  F00F         	goto	i2l873
  2327                           	
  2328  001B8E                     i2l952:		; BSR set to: ?
  2329                           
  2330  001B8E  0401               	decf	(0+((c:0)+01h)),c,w
  2331                           
  2332  001B90  A4D8               	btfss	status,2
  2333  001B92  EFCD  F00D         	goto	i2u7721
  2334  001B96  EFCF  F00D         	goto	i2u7720
  2335  001B9A                     i2u7721:
  2336  001B9A  EFDF  F00D         	goto	i2l954
  2337  001B9E                     i2u7720:
  2338  001B9E  5000               	movf	((c:0)),c,w
  2339  001BA0  0A32               	xorlw	50
  2340                           
  2341  001BA2  A4D8               	btfss	status,2
  2342  001BA4  EFD6  F00D         	goto	i2u7731
  2343  001BA8  EFD8  F00D         	goto	i2u7730
  2344  001BAC                     i2u7731:
  2345  001BAC  EFDF  F00D         	goto	i2l954
  2346  001BB0                     i2u7730:
  2347                           	line	611
  2348                           ;main.c: 611: LATA = 0b11111111;
  2349  001BB0  6889               	setf	((c:3977)),c	;volatile
  2350                           	line	613
  2351                           ;main.c: 613: LATB = 0b10001000;
  2352  001BB2  0E88               	movlw	low(088h)
  2353  001BB4  6E8A               	movwf	((c:3978)),c	;volatile
  2354                           	line	615
  2355                           ;main.c: 615: LATC = 0b00000111;
  2356  001BB6  0E07               	movlw	low(07h)
  2357  001BB8  6E8B               	movwf	((c:3979)),c	;volatile
  2358                           	line	616
  2359                           ;main.c: 616: }
  2360  001BBA  EFE7  F00F         	goto	i2l873
  2361                           	line	619
  2362                           	
  2363  001BBE                     i2l954:		; BSR set to: ?
  2364                           
  2365                           ;main.c: 619: else if (conv_result.adc_channel =
                                 = 2 && conv_result.result == 0x43) {
  2366  001BBE  5001               	movf	(0+((c:0)+01h)),c,w
  2367  001BC0  0A02               	xorlw	2
  2368                           
  2369  001BC2  A4D8               	btfss	status,2
  2370  001BC4  EFE6  F00D         	goto	i2u7741
  2371  001BC8  EFE8  F00D         	goto	i2u7740
  2372  001BCC                     i2u7741:
  2373  001BCC  EFF9  F00D         	goto	i2l956
  2374  001BD0                     i2u7740:
  2375  001BD0  5000               	movf	((c:0)),c,w
  2376  001BD2  0A43               	xorlw	67
  2377                           
  2378  001BD4  A4D8               	btfss	status,2
  2379  001BD6  EFEF  F00D         	goto	i2u7751
  2380  001BDA  EFF1  F00D         	goto	i2u7750
  2381  001BDE                     i2u7751:
  2382  001BDE  EFF9  F00D         	goto	i2l956
  2383  001BE2                     i2u7750:
  2384                           	line	622
  2385                           ;main.c: 622: LATA = 0b11101111;
  2386  001BE2  0EEF               	movlw	low(0EFh)
  2387  001BE4  6E89               	movwf	((c:3977)),c	;volatile
  2388                           	line	624
  2389                           ;main.c: 624: LATB = 0b10000000;
  2390  001BE6  0E80               	movlw	low(080h)
  2391  001BE8  6E8A               	movwf	((c:3978)),c	;volatile
  2392                           	line	626
  2393                           ;main.c: 626: LATC = 0b00111111;
  2394  001BEA  0E3F               	movlw	low(03Fh)
  2395  001BEC  6E8B               	movwf	((c:3979)),c	;volatile
  2396                           	line	628
  2397                           ;main.c: 628: } else if (conv_result.adc_channel
                                  == 3 && conv_result.result == 0x44) {
  2398  001BEE  EFE7  F00F         	goto	i2l873
  2399                           	
  2400  001BF2                     i2l956:		; BSR set to: ?
  2401                           
  2402  001BF2  5001               	movf	(0+((c:0)+01h)),c,w
  2403  001BF4  0A03               	xorlw	3
  2404                           
  2405  001BF6  A4D8               	btfss	status,2
  2406  001BF8  EF00  F00E         	goto	i2u7761
  2407  001BFC  EF02  F00E         	goto	i2u7760
  2408  001C00                     i2u7761:
  2409  001C00  EF13  F00E         	goto	i2l958
  2410  001C04                     i2u7760:
  2411  001C04  5000               	movf	((c:0)),c,w
  2412  001C06  0A44               	xorlw	68
  2413                           
  2414  001C08  A4D8               	btfss	status,2
  2415  001C0A  EF09  F00E         	goto	i2u7771
  2416  001C0E  EF0B  F00E         	goto	i2u7770
  2417  001C12                     i2u7771:
  2418  001C12  EF13  F00E         	goto	i2l958
  2419  001C16                     i2u7770:
  2420                           	line	631
  2421                           ;main.c: 631: LATA = 0b10111111;
  2422  001C16  0EBF               	movlw	low(0BFh)
  2423  001C18  6E89               	movwf	((c:3977)),c	;volatile
  2424                           	line	633
  2425                           ;main.c: 633: LATB = 0b10000000;
  2426  001C1A  0E80               	movlw	low(080h)
  2427  001C1C  6E8A               	movwf	((c:3978)),c	;volatile
  2428                           	line	635
  2429                           ;main.c: 635: LATC = 0b00111111;
  2430  001C1E  0E3F               	movlw	low(03Fh)
  2431  001C20  6E8B               	movwf	((c:3979)),c	;volatile
  2432                           	line	637
  2433                           ;main.c: 637: } else if (conv_result.adc_channel
                                  == 4 && conv_result.result == 0x45) {
  2434  001C22  EFE7  F00F         	goto	i2l873
  2435                           	
  2436  001C26                     i2l958:		; BSR set to: ?
  2437                           
  2438  001C26  5001               	movf	(0+((c:0)+01h)),c,w
  2439  001C28  0A04               	xorlw	4
  2440                           
  2441  001C2A  A4D8               	btfss	status,2
  2442  001C2C  EF1A  F00E         	goto	i2u7781
  2443  001C30  EF1C  F00E         	goto	i2u7780
  2444  001C34                     i2u7781:
  2445  001C34  EF2C  F00E         	goto	i2l960
  2446  001C38                     i2u7780:
  2447  001C38  5000               	movf	((c:0)),c,w
  2448  001C3A  0A45               	xorlw	69
  2449                           
  2450  001C3C  A4D8               	btfss	status,2
  2451  001C3E  EF23  F00E         	goto	i2u7791
  2452  001C42  EF25  F00E         	goto	i2u7790
  2453  001C46                     i2u7791:
  2454  001C46  EF2C  F00E         	goto	i2l960
  2455  001C4A                     i2u7790:
  2456                           	line	640
  2457                           ;main.c: 640: LATA = 0b11111111;
  2458  001C4A  6889               	setf	((c:3977)),c	;volatile
  2459                           	line	642
  2460                           ;main.c: 642: LATB = 0b10000000;
  2461  001C4C  0E80               	movlw	low(080h)
  2462  001C4E  6E8A               	movwf	((c:3978)),c	;volatile
  2463                           	line	644
  2464                           ;main.c: 644: LATC = 0b00111110;
  2465  001C50  0E3E               	movlw	low(03Eh)
  2466  001C52  6E8B               	movwf	((c:3979)),c	;volatile
  2467                           	line	646
  2468                           ;main.c: 646: } else if (conv_result.adc_channel
                                  == 5 && conv_result.result == 0x46) {
  2469  001C54  EFE7  F00F         	goto	i2l873
  2470                           	
  2471  001C58                     i2l960:		; BSR set to: ?
  2472                           
  2473  001C58  5001               	movf	(0+((c:0)+01h)),c,w
  2474  001C5A  0A05               	xorlw	5
  2475                           
  2476  001C5C  A4D8               	btfss	status,2
  2477  001C5E  EF33  F00E         	goto	i2u7801
  2478  001C62  EF35  F00E         	goto	i2u7800
  2479  001C66                     i2u7801:
  2480  001C66  EF45  F00E         	goto	i2l962
  2481  001C6A                     i2u7800:
  2482  001C6A  5000               	movf	((c:0)),c,w
  2483  001C6C  0A46               	xorlw	70
  2484                           
  2485  001C6E  A4D8               	btfss	status,2
  2486  001C70  EF3C  F00E         	goto	i2u7811
  2487  001C74  EF3E  F00E         	goto	i2u7810
  2488  001C78                     i2u7811:
  2489  001C78  EF45  F00E         	goto	i2l962
  2490  001C7C                     i2u7810:
  2491                           	line	649
  2492                           ;main.c: 649: LATA = 0b11111111;
  2493  001C7C  6889               	setf	((c:3977)),c	;volatile
  2494                           	line	651
  2495                           ;main.c: 651: LATB = 0b10000000;
  2496  001C7E  0E80               	movlw	low(080h)
  2497  001C80  6E8A               	movwf	((c:3978)),c	;volatile
  2498+                          	line	653
  2499+                          ;main.c: 653: LATC = 0b00111101;
  2500+ 001C82  0E3D               	movlw	low(03Dh)
  2501+ 001C84  6E8B               	movwf	((c:3979)),c	;volatile
  2502+                          	line	654
  2503+                          ;main.c: 654: } else if (conv_result.adc_channel
      +                           == 6 && conv_result.result == 0x47) {
  2504+ 001C86  EFE7  F00F         	goto	i2l873
  2505+                          	
  2506+ 001C8A                     i2l962:		; BSR set to: ?
  2507+                          
  2508+ 001C8A  5001               	movf	(0+((c:0)+01h)),c,w
  2509+ 001C8C  0A06               	xorlw	6
  2510+                          
  2511+ 001C8E  A4D8               	btfss	status,2
  2512+ 001C90  EF4C  F00E         	goto	i2u7821
  2513+ 001C94  EF4E  F00E         	goto	i2u7820
  2514+ 001C98                     i2u7821:
  2515+ 001C98  EF5E  F00E         	goto	i2l964
  2516+ 001C9C                     i2u7820:
  2517+ 001C9C  5000               	movf	((c:0)),c,w
  2518+ 001C9E  0A47               	xorlw	71
  2519+                          
  2520+ 001CA0  A4D8               	btfss	status,2
  2521+ 001CA2  EF55  F00E         	goto	i2u7831
  2522+ 001CA6  EF57  F00E         	goto	i2u7830
  2523+ 001CAA                     i2u7831:
  2524+ 001CAA  EF5E  F00E         	goto	i2l964
  2525+ 001CAE                     i2u7830:
  2526+                          	line	657
  2527+                          ;main.c: 657: LATA = 0b11111111;
  2528+ 001CAE  6889               	setf	((c:3977)),c	;volatile
  2529+                          	line	659
  2530+                          ;main.c: 659: LATB = 0b00000000;
  2531+ 001CB0  0E00               	movlw	low(0)
  2532+ 001CB2  6E8A               	movwf	((c:3978)),c	;volatile
  2533+                          	line	661
  2534+                          ;main.c: 661: LATC = 0b00111111;
  2535+ 001CB4  0E3F               	movlw	low(03Fh)
  2536+ 001CB6  6E8B               	movwf	((c:3979)),c	;volatile
  2537+                          	line	662
  2538+                          ;main.c: 662: } else if (conv_result.adc_channel
      +                           == 0 && conv_result.result == 0x41) {
  2539+ 001CB8  EFE7  F00F         	goto	i2l873
  2540+                          	
  2541+ 001CBC                     i2l964:		; BSR set to: ?
  2542+                          
  2543+ 001CBC  6601               	tstfsz	(0+((c:0)+01h)),c
  2544+ 001CBE  EF63  F00E         	goto	i2u7841
  2545+ 001CC2  EF65  F00E         	goto	i2u7840
  2546+ 001CC6                     i2u7841:
  2547+ 001CC6  EF75  F00E         	goto	i2l966
  2548+ 001CCA                     i2u7840:
  2549+ 001CCA  5000               	movf	((c:0)),c,w
  2550+ 001CCC  0A41               	xorlw	65
  2551+                          
  2552+ 001CCE  A4D8               	btfss	status,2
  2553+ 001CD0  EF6C  F00E         	goto	i2u7851
  2554+ 001CD4  EF6E  F00E         	goto	i2u7850
  2555+ 001CD8                     i2u7851:
  2556+ 001CD8  EF75  F00E         	goto	i2l966
  2557+ 001CDC                     i2u7850:
  2558+                          	line	665
  2559+                          ;main.c: 665: LATA = 0b11111111;
  2560+ 001CDC  6889               	setf	((c:3977)),c	;volatile
  2561+                          	line	667
  2562+                          ;main.c: 667: LATB = 0b10000000;
  2563+ 001CDE  0E80               	movlw	low(080h)
  2564+ 001CE0  6E8A               	movwf	((c:3978)),c	;volatile
  2565+                          	line	669
  2566+                          ;main.c: 669: LATC = 0b00111011;
  2567+ 001CE2  0E3B               	movlw	low(03Bh)
  2568+ 001CE4  6E8B               	movwf	((c:3979)),c	;volatile
  2569+                          	line	670
  2570+                          ;main.c: 670: } else if (conv_result.adc_channel
      +                           == 1 && conv_result.result == 0x42) {
  2571+ 001CE6  EFE7  F00F         	goto	i2l873
  2572+                          	
  2573+ 001CEA                     i2l966:		; BSR set to: ?
  2574+                          
  2575+ 001CEA  0401               	decf	(0+((c:0)+01h)),c,w
  2576+                          
  2577+ 001CEC  A4D8               	btfss	status,2
  2578+ 001CEE  EF7B  F00E         	goto	i2u7861
  2579+ 001CF2  EF7D  F00E         	goto	i2u7860
  2580+ 001CF6                     i2u7861:
  2581+ 001CF6  EF8D  F00E         	goto	i2l968
  2582+ 001CFA                     i2u7860:
  2583+ 001CFA  5000               	movf	((c:0)),c,w
  2584+ 001CFC  0A42               	xorlw	66
  2585+                          
  2586+ 001CFE  A4D8               	btfss	status,2
  2587+ 001D00  EF84  F00E         	goto	i2u7871
  2588+ 001D04  EF86  F00E         	goto	i2u7870
  2589+ 001D08                     i2u7871:
  2590+ 001D08  EF8D  F00E         	goto	i2l968
  2591+ 001D0C                     i2u7870:
  2592+                          	line	673
  2593+                          ;main.c: 673: LATA = 0b11111111;
  2594+ 001D0C  6889               	setf	((c:3977)),c	;volatile
  2595+                          	line	675
  2596+                          ;main.c: 675: LATB = 0b10000000;
  2597+ 001D0E  0E80               	movlw	low(080h)
  2598+ 001D10  6E8A               	movwf	((c:3978)),c	;volatile
  2599+                          	line	677
  2600+                          ;main.c: 677: LATC = 0b00110111;
  2601+ 001D12  0E37               	movlw	low(037h)
  2602+ 001D14  6E8B               	movwf	((c:3979)),c	;volatile
  2603+                          	line	679
  2604+                          ;main.c: 679: } else if (conv_result.adc_channel
      +                           == 2 && conv_result.result == 0x4b) {
  2605+ 001D16  EFE7  F00F         	goto	i2l873
  2606+                          	
  2607+ 001D1A                     i2l968:		; BSR set to: ?
  2608+                          
  2609+ 001D1A  5001               	movf	(0+((c:0)+01h)),c,w
  2610+ 001D1C  0A02               	xorlw	2
  2611+                          
  2612+ 001D1E  A4D8               	btfss	status,2
  2613+ 001D20  EF94  F00E         	goto	i2u7881
  2614+ 001D24  EF96  F00E         	goto	i2u7880
  2615+ 001D28                     i2u7881:
  2616+ 001D28  EFA7  F00E         	goto	i2l970
  2617+ 001D2C                     i2u7880:
  2618+ 001D2C  5000               	movf	((c:0)),c,w
  2619+ 001D2E  0A4B               	xorlw	75
  2620+                          
  2621+ 001D30  A4D8               	btfss	status,2
  2622+ 001D32  EF9D  F00E         	goto	i2u7891
  2623+ 001D36  EF9F  F00E         	goto	i2u7890
  2624+ 001D3A                     i2u7891:
  2625+ 001D3A  EFA7  F00E         	goto	i2l970
  2626+ 001D3E                     i2u7890:
  2627+                          	line	682
  2628+                          ;main.c: 682: LATA = 0b11101111;
  2629+ 001D3E  0EEF               	movlw	low(0EFh)
  2630+ 001D40  6E89               	movwf	((c:3977)),c	;volatile
  2631+                          	line	684
  2632+                          ;main.c: 684: LATB = 0b10000000;
  2633+ 001D42  0E80               	movlw	low(080h)
  2634+ 001D44  6E8A               	movwf	((c:3978)),c	;volatile
  2635+                          	line	686
  2636+                          ;main.c: 686: LATC = 0b00011111;
  2637+ 001D46  0E1F               	movlw	low(01Fh)
  2638+ 001D48  6E8B               	movwf	((c:3979)),c	;volatile
  2639+                          	line	688
  2640+                          ;main.c: 688: } else if (conv_result.adc_channel
      +                           == 3 && conv_result.result == 0x4c) {
  2641+ 001D4A  EFE7  F00F         	goto	i2l873
  2642+                          	
  2643+ 001D4E                     i2l970:		; BSR set to: ?
  2644+                          
  2645+ 001D4E  5001               	movf	(0+((c:0)+01h)),c,w
  2646+ 001D50  0A03               	xorlw	3
  2647+                          
  2648+ 001D52  A4D8               	btfss	status,2
  2649+ 001D54  EFAE  F00E         	goto	i2u7901
  2650+ 001D58  EFB0  F00E         	goto	i2u7900
  2651+ 001D5C                     i2u7901:
  2652+ 001D5C  EFC1  F00E         	goto	i2l972
  2653+ 001D60                     i2u7900:
  2654+ 001D60  5000               	movf	((c:0)),c,w
  2655+ 001D62  0A4C               	xorlw	76
  2656+                          
  2657+ 001D64  A4D8               	btfss	status,2
  2658+ 001D66  EFB7  F00E         	goto	i2u7911
  2659+ 001D6A  EFB9  F00E         	goto	i2u7910
  2660+ 001D6E                     i2u7911:
  2661+ 001D6E  EFC1  F00E         	goto	i2l972
  2662+ 001D72                     i2u7910:
  2663+                          	line	691
  2664+                          ;main.c: 691: LATA = 0b10111111;
  2665+ 001D72  0EBF               	movlw	low(0BFh)
  2666+ 001D74  6E89               	movwf	((c:3977)),c	;volatile
  2667+                          	line	693
  2668+                          ;main.c: 693: LATB = 0b10000000;
  2669+ 001D76  0E80               	movlw	low(080h)
  2670+ 001D78  6E8A               	movwf	((c:3978)),c	;volatile
  2671+                          	line	695
  2672+                          ;main.c: 695: LATC = 0b00011111;
  2673+ 001D7A  0E1F               	movlw	low(01Fh)
  2674+ 001D7C  6E8B               	movwf	((c:3979)),c	;volatile
  2675+                          	line	697
  2676+                          ;main.c: 697: } else if (conv_result.adc_channel
      +                           == 4 && conv_result.result == 0x4d) {
  2677+ 001D7E  EFE7  F00F         	goto	i2l873
  2678+                          	
  2679+ 001D82                     i2l972:		; BSR set to: ?
  2680+                          
  2681+ 001D82  5001               	movf	(0+((c:0)+01h)),c,w
  2682+ 001D84  0A04               	xorlw	4
  2683+                          
  2684+ 001D86  A4D8               	btfss	status,2
  2685+ 001D88  EFC8  F00E         	goto	i2u7921
  2686+ 001D8C  EFCA  F00E         	goto	i2u7920
  2687+ 001D90                     i2u7921:
  2688+ 001D90  EFDA  F00E         	goto	i2l974
  2689+ 001D94                     i2u7920:
  2690+ 001D94  5000               	movf	((c:0)),c,w
  2691+ 001D96  0A4D               	xorlw	77
  2692+                          
  2693+ 001D98  A4D8               	btfss	status,2
  2694+ 001D9A  EFD1  F00E         	goto	i2u7931
  2695+ 001D9E  EFD3  F00E         	goto	i2u7930
  2696+ 001DA2                     i2u7931:
  2697+ 001DA2  EFDA  F00E         	goto	i2l974
  2698+ 001DA6                     i2u7930:
  2699+                          	line	700
  2700+                          ;main.c: 700: LATA = 0b11111111;
  2701+ 001DA6  6889               	setf	((c:3977)),c	;volatile
  2702+                          	line	702
  2703+                          ;main.c: 702: LATB = 0b10000000;
  2704+ 001DA8  0E80               	movlw	low(080h)
  2705+ 001DAA  6E8A               	movwf	((c:3978)),c	;volatile
  2706+                          	line	704
  2707+                          ;main.c: 704: LATC = 0b00011110;
  2708+ 001DAC  0E1E               	movlw	low(01Eh)
  2709+ 001DAE  6E8B               	movwf	((c:3979)),c	;volatile
  2710+                          	line	706
  2711+                          ;main.c: 706: } else if (conv_result.adc_channel
      +                           == 5 && conv_result.result == 0x4e) {
  2712+ 001DB0  EFE7  F00F         	goto	i2l873
  2713+                          	
  2714+ 001DB4                     i2l974:		; BSR set to: ?
  2715+                          
  2716+ 001DB4  5001               	movf	(0+((c:0)+01h)),c,w
  2717+ 001DB6  0A05               	xorlw	5
  2718+                          
  2719+ 001DB8  A4D8               	btfss	status,2
  2720+ 001DBA  EFE1  F00E         	goto	i2u7941
  2721+ 001DBE  EFE3  F00E         	goto	i2u7940
  2722+ 001DC2                     i2u7941:
  2723+ 001DC2  EFF3  F00E         	goto	i2l976
  2724+ 001DC6                     i2u7940:
  2725+ 001DC6  5000               	movf	((c:0)),c,w
  2726+ 001DC8  0A4E               	xorlw	78
  2727+                          
  2728+ 001DCA  A4D8               	btfss	status,2
  2729+ 001DCC  EFEA  F00E         	goto	i2u7951
  2730+ 001DD0  EFEC  F00E         	goto	i2u7950
  2731+ 001DD4                     i2u7951:
  2732+ 001DD4  EFF3  F00E         	goto	i2l976
  2733+ 001DD8                     i2u7950:
  2734+                          	line	709
  2735+                          ;main.c: 709: LATA = 0b11111111;
  2736+ 001DD8  6889               	setf	((c:3977)),c	;volatile
  2737+                          	line	711
  2738+                          ;main.c: 711: LATB = 0b10000000;
  2739+ 001DDA  0E80               	movlw	low(080h)
  2740+ 001DDC  6E8A               	movwf	((c:3978)),c	;volatile
  2741+                          	line	713
  2742+                          ;main.c: 713: LATC = 0b00011101;
  2743+ 001DDE  0E1D               	movlw	low(01Dh)
  2744+ 001DE0  6E8B               	movwf	((c:3979)),c	;volatile
  2745+                          	line	715
  2746+                          ;main.c: 715: } else if (conv_result.adc_channel
      +                           == 6 && conv_result.result == 0x4f) {
  2747+ 001DE2  EFE7  F00F         	goto	i2l873
  2748+                          	
  2749+ 001DE6                     i2l976:		; BSR set to: ?
  2750+                          
  2751+ 001DE6  5001               	movf	(0+((c:0)+01h)),c,w
  2752+ 001DE8  0A06               	xorlw	6
  2753+                          
  2754+ 001DEA  A4D8               	btfss	status,2
  2755+ 001DEC  EFFA  F00E         	goto	i2u7961
  2756+ 001DF0  EFFC  F00E         	goto	i2u7960
  2757+ 001DF4                     i2u7961:
  2758+ 001DF4  EF0C  F00F         	goto	i2l978
  2759+ 001DF8                     i2u7960:
  2760+ 001DF8  5000               	movf	((c:0)),c,w
  2761+ 001DFA  0A4F               	xorlw	79
  2762+                          
  2763+ 001DFC  A4D8               	btfss	status,2
  2764+ 001DFE  EF03  F00F         	goto	i2u7971
  2765+ 001E02  EF05  F00F         	goto	i2u7970
  2766+ 001E06                     i2u7971:
  2767+ 001E06  EF0C  F00F         	goto	i2l978
  2768+ 001E0A                     i2u7970:
  2769+                          	line	718
  2770+                          ;main.c: 718: LATA = 0b11111111;
  2771+ 001E0A  6889               	setf	((c:3977)),c	;volatile
  2772+                          	line	720
  2773+                          ;main.c: 720: LATB = 0b00000000;
  2774+ 001E0C  0E00               	movlw	low(0)
  2775+ 001E0E  6E8A               	movwf	((c:3978)),c	;volatile
  2776+                          	line	722
  2777+                          ;main.c: 722: LATC = 0b00011111;
  2778+ 001E10  0E1F               	movlw	low(01Fh)
  2779+ 001E12  6E8B               	movwf	((c:3979)),c	;volatile
  2780+                          	line	724
  2781+                          ;main.c: 724: } else if (conv_result.adc_channel
      +                           == 0 && conv_result.result == 0x49) {
  2782+ 001E14  EFE7  F00F         	goto	i2l873
  2783+                          	
  2784+ 001E18                     i2l978:		; BSR set to: ?
  2785+                          
  2786+ 001E18  6601               	tstfsz	(0+((c:0)+01h)),c
  2787+ 001E1A  EF11  F00F         	goto	i2u7981
  2788+ 001E1E  EF13  F00F         	goto	i2u7980
  2789+ 001E22                     i2u7981:
  2790+ 001E22  EF23  F00F         	goto	i2l980
  2791+ 001E26                     i2u7980:
  2792+ 001E26  5000               	movf	((c:0)),c,w
  2793+ 001E28  0A49               	xorlw	73
  2794+                          
  2795+ 001E2A  A4D8               	btfss	status,2
  2796+ 001E2C  EF1A  F00F         	goto	i2u7991
  2797+ 001E30  EF1C  F00F         	goto	i2u7990
  2798+ 001E34                     i2u7991:
  2799+ 001E34  EF23  F00F         	goto	i2l980
  2800  001E38                     i2u7990:
  2801                           	line	727
  2802                           ;main.c: 727: LATA = 0b11111111;
  2803  001E38  6889               	setf	((c:3977)),c	;volatile
  2804                           	line	729
  2805                           ;main.c: 729: LATB = 0b10000000;
  2806  001E3A  0E80               	movlw	low(080h)
  2807  001E3C  6E8A               	movwf	((c:3978)),c	;volatile
  2808                           	line	731
  2809                           ;main.c: 731: LATC = 0b00011011;
  2810  001E3E  0E1B               	movlw	low(01Bh)
  2811  001E40  6E8B               	movwf	((c:3979)),c	;volatile
  2812                           	line	733
  2813                           ;main.c: 733: } else if (conv_result.adc_channel
                                  == 1 && conv_result.result == 0x4a) {
  2814  001E42  EFE7  F00F         	goto	i2l873
  2815                           	
  2816  001E46                     i2l980:		; BSR set to: ?
  2817                           
  2818  001E46  0401               	decf	(0+((c:0)+01h)),c,w
  2819                           
  2820  001E48  A4D8               	btfss	status,2
  2821  001E4A  EF29  F00F         	goto	i2u8001
  2822  001E4E  EF2B  F00F         	goto	i2u8000
  2823  001E52                     i2u8001:
  2824  001E52  EF3B  F00F         	goto	i2l982
  2825  001E56                     i2u8000:
  2826  001E56  5000               	movf	((c:0)),c,w
  2827  001E58  0A4A               	xorlw	74
  2828                           
  2829  001E5A  A4D8               	btfss	status,2
  2830  001E5C  EF32  F00F         	goto	i2u8011
  2831  001E60  EF34  F00F         	goto	i2u8010
  2832  001E64                     i2u8011:
  2833  001E64  EF3B  F00F         	goto	i2l982
  2834  001E68                     i2u8010:
  2835                           	line	736
  2836                           ;main.c: 736: LATA = 0b11111111;
  2837  001E68  6889               	setf	((c:3977)),c	;volatile
  2838                           	line	738
  2839                           ;main.c: 738: LATB = 0b10000000;
  2840  001E6A  0E80               	movlw	low(080h)
  2841  001E6C  6E8A               	movwf	((c:3978)),c	;volatile
  2842                           	line	740
  2843                           ;main.c: 740: LATC = 0b00010111;
  2844  001E6E  0E17               	movlw	low(017h)
  2845  001E70  6E8B               	movwf	((c:3979)),c	;volatile
  2846                           	line	742
  2847                           ;main.c: 742: } else if (conv_result.adc_channel
                                  == 2 && conv_result.result == 0x53) {
  2848  001E72  EFE7  F00F         	goto	i2l873
  2849                           	
  2850  001E76                     i2l982:		; BSR set to: ?
  2851                           
  2852  001E76  5001               	movf	(0+((c:0)+01h)),c,w
  2853  001E78  0A02               	xorlw	2
  2854                           
  2855  001E7A  A4D8               	btfss	status,2
  2856  001E7C  EF42  F00F         	goto	i2u8021
  2857  001E80  EF44  F00F         	goto	i2u8020
  2858  001E84                     i2u8021:
  2859  001E84  EF55  F00F         	goto	i2l984
  2860  001E88                     i2u8020:
  2861  001E88  5000               	movf	((c:0)),c,w
  2862  001E8A  0A53               	xorlw	83
  2863                           
  2864  001E8C  A4D8               	btfss	status,2
  2865  001E8E  EF4B  F00F         	goto	i2u8031
  2866  001E92  EF4D  F00F         	goto	i2u8030
  2867  001E96                     i2u8031:
  2868  001E96  EF55  F00F         	goto	i2l984
  2869  001E9A                     i2u8030:
  2870                           	line	745
  2871                           ;main.c: 745: LATA = 0b11101111;
  2872  001E9A  0EEF               	movlw	low(0EFh)
  2873  001E9C  6E89               	movwf	((c:3977)),c	;volatile
  2874                           	line	747
  2875                           ;main.c: 747: LATB = 0b10000000;
  2876  001E9E  0E80               	movlw	low(080h)
  2877  001EA0  6E8A               	movwf	((c:3978)),c	;volatile
  2878                           	line	749
  2879                           ;main.c: 749: LATC = 0b00101111;
  2880  001EA2  0E2F               	movlw	low(02Fh)
  2881  001EA4  6E8B               	movwf	((c:3979)),c	;volatile
  2882                           	line	751
  2883                           ;main.c: 751: } else if (conv_result.adc_channel
                                  == 3 && conv_result.result == 0x54) {
  2884  001EA6  EFE7  F00F         	goto	i2l873
  2885                           	
  2886  001EAA                     i2l984:		; BSR set to: ?
  2887                           
  2888  001EAA  5001               	movf	(0+((c:0)+01h)),c,w
  2889  001EAC  0A03               	xorlw	3
  2890                           
  2891  001EAE  A4D8               	btfss	status,2
  2892  001EB0  EF5C  F00F         	goto	i2u8041
  2893  001EB4  EF5E  F00F         	goto	i2u8040
  2894  001EB8                     i2u8041:
  2895  001EB8  EF6F  F00F         	goto	i2l986
  2896  001EBC                     i2u8040:
  2897  001EBC  5000               	movf	((c:0)),c,w
  2898  001EBE  0A54               	xorlw	84
  2899                           
  2900  001EC0  A4D8               	btfss	status,2
  2901  001EC2  EF65  F00F         	goto	i2u8051
  2902  001EC6  EF67  F00F         	goto	i2u8050
  2903  001ECA                     i2u8051:
  2904  001ECA  EF6F  F00F         	goto	i2l986
  2905  001ECE                     i2u8050:
  2906                           	line	754
  2907                           ;main.c: 754: LATA = 0b10111111;
  2908  001ECE  0EBF               	movlw	low(0BFh)
  2909  001ED0  6E89               	movwf	((c:3977)),c	;volatile
  2910                           	line	756
  2911                           ;main.c: 756: LATB = 0b10000000;
  2912  001ED2  0E80               	movlw	low(080h)
  2913  001ED4  6E8A               	movwf	((c:3978)),c	;volatile
  2914                           	line	758
  2915                           ;main.c: 758: LATC = 0b00101111;
  2916  001ED6  0E2F               	movlw	low(02Fh)
  2917  001ED8  6E8B               	movwf	((c:3979)),c	;volatile
  2918                           	line	760
  2919                           ;main.c: 760: } else if (conv_result.adc_channel
                                  == 4 && conv_result.result == 0x55) {
  2920  001EDA  EFE7  F00F         	goto	i2l873
  2921                           	
  2922  001EDE                     i2l986:		; BSR set to: ?
  2923                           
  2924  001EDE  5001               	movf	(0+((c:0)+01h)),c,w
  2925  001EE0  0A04               	xorlw	4
  2926                           
  2927  001EE2  A4D8               	btfss	status,2
  2928  001EE4  EF76  F00F         	goto	i2u8061
  2929  001EE8  EF78  F00F         	goto	i2u8060
  2930  001EEC                     i2u8061:
  2931  001EEC  EF88  F00F         	goto	i2l988
  2932  001EF0                     i2u8060:
  2933  001EF0  5000               	movf	((c:0)),c,w
  2934  001EF2  0A55               	xorlw	85
  2935                           
  2936  001EF4  A4D8               	btfss	status,2
  2937  001EF6  EF7F  F00F         	goto	i2u8071
  2938  001EFA  EF81  F00F         	goto	i2u8070
  2939  001EFE                     i2u8071:
  2940  001EFE  EF88  F00F         	goto	i2l988
  2941  001F02                     i2u8070:
  2942                           	line	763
  2943                           ;main.c: 763: LATA = 0b11111111;
  2944  001F02  6889               	setf	((c:3977)),c	;volatile
  2945                           	line	765
  2946                           ;main.c: 765: LATB = 0b10000000;
  2947  001F04  0E80               	movlw	low(080h)
  2948  001F06  6E8A               	movwf	((c:3978)),c	;volatile
  2949                           	line	767
  2950                           ;main.c: 767: LATC = 0b00101110;
  2951  001F08  0E2E               	movlw	low(02Eh)
  2952  001F0A  6E8B               	movwf	((c:3979)),c	;volatile
  2953                           	line	769
  2954                           ;main.c: 769: } else if (conv_result.adc_channel
                                  == 5 && conv_result.result == 0x56) {
  2955  001F0C  EFE7  F00F         	goto	i2l873
  2956                           	
  2957  001F10                     i2l988:		; BSR set to: ?
  2958                           
  2959  001F10  5001               	movf	(0+((c:0)+01h)),c,w
  2960  001F12  0A05               	xorlw	5
  2961                           
  2962  001F14  A4D8               	btfss	status,2
  2963  001F16  EF8F  F00F         	goto	i2u8081
  2964  001F1A  EF91  F00F         	goto	i2u8080
  2965  001F1E                     i2u8081:
  2966  001F1E  EFA1  F00F         	goto	i2l990
  2967  001F22                     i2u8080:
  2968  001F22  5000               	movf	((c:0)),c,w
  2969  001F24  0A56               	xorlw	86
  2970                           
  2971  001F26  A4D8               	btfss	status,2
  2972  001F28  EF98  F00F         	goto	i2u8091
  2973  001F2C  EF9A  F00F         	goto	i2u8090
  2974  001F30                     i2u8091:
  2975  001F30  EFA1  F00F         	goto	i2l990
  2976  001F34                     i2u8090:
  2977                           	line	772
  2978                           ;main.c: 772: LATA = 0b11111111;
  2979  001F34  6889               	setf	((c:3977)),c	;volatile
  2980                           	line	774
  2981                           ;main.c: 774: LATB = 0b10000000;
  2982  001F36  0E80               	movlw	low(080h)
  2983  001F38  6E8A               	movwf	((c:3978)),c	;volatile
  2984                           	line	776
  2985                           ;main.c: 776: LATC = 0b00101101;
  2986  001F3A  0E2D               	movlw	low(02Dh)
  2987  001F3C  6E8B               	movwf	((c:3979)),c	;volatile
  2988                           	line	778
  2989                           ;main.c: 778: } else if (conv_result.adc_channel
                                  == 6 && conv_result.result == 0x57) {
  2990  001F3E  EFE7  F00F         	goto	i2l873
  2991                           	
  2992  001F42                     i2l990:		; BSR set to: ?
  2993                           
  2994  001F42  5001               	movf	(0+((c:0)+01h)),c,w
  2995  001F44  0A06               	xorlw	6
  2996                           
  2997  001F46  A4D8               	btfss	status,2
  2998  001F48  EFA8  F00F         	goto	i2u8101
  2999  001F4C  EFAA  F00F         	goto	i2u8100
  3000  001F50                     i2u8101:
  3001  001F50  EFBA  F00F         	goto	i2l992
  3002  001F54                     i2u8100:
  3003  001F54  5000               	movf	((c:0)),c,w
  3004  001F56  0A57               	xorlw	87
  3005                           
  3006  001F58  A4D8               	btfss	status,2
  3007  001F5A  EFB1  F00F         	goto	i2u8111
  3008  001F5E  EFB3  F00F         	goto	i2u8110
  3009  001F62                     i2u8111:
  3010  001F62  EFBA  F00F         	goto	i2l992
  3011  001F66                     i2u8110:
  3012                           	line	781
  3013                           ;main.c: 781: LATA = 0b11111111;
  3014  001F66  6889               	setf	((c:3977)),c	;volatile
  3015                           	line	783
  3016                           ;main.c: 783: LATB = 0b00000000;
  3017  001F68  0E00               	movlw	low(0)
  3018  001F6A  6E8A               	movwf	((c:3978)),c	;volatile
  3019                           	line	785
  3020                           ;main.c: 785: LATC = 0b00101111;
  3021  001F6C  0E2F               	movlw	low(02Fh)
  3022  001F6E  6E8B               	movwf	((c:3979)),c	;volatile
  3023                           	line	787
  3024                           ;main.c: 787: } else if (conv_result.adc_channel
                                  == 0 && conv_result.result == 0x51) {
  3025  001F70  EFE7  F00F         	goto	i2l873
  3026                           	
  3027  001F74                     i2l992:		; BSR set to: ?
  3028                           
  3029  001F74  6601               	tstfsz	(0+((c:0)+01h)),c
  3030  001F76  EFBF  F00F         	goto	i2u8121
  3031  001F7A  EFC1  F00F         	goto	i2u8120
  3032  001F7E                     i2u8121:
  3033  001F7E  EFD1  F00F         	goto	i2l994
  3034  001F82                     i2u8120:
  3035  001F82  5000               	movf	((c:0)),c,w
  3036  001F84  0A51               	xorlw	81
  3037                           
  3038  001F86  A4D8               	btfss	status,2
  3039  001F88  EFC8  F00F         	goto	i2u8131
  3040  001F8C  EFCA  F00F         	goto	i2u8130
  3041  001F90                     i2u8131:
  3042  001F90  EFD1  F00F         	goto	i2l994
  3043  001F94                     i2u8130:
  3044                           	line	790
  3045                           ;main.c: 790: LATA = 0b11111111;
  3046  001F94  6889               	setf	((c:3977)),c	;volatile
  3047                           	line	792
  3048                           ;main.c: 792: LATB = 0b10000000;
  3049  001F96  0E80               	movlw	low(080h)
  3050  001F98  6E8A               	movwf	((c:3978)),c	;volatile
  3051                           	line	794
  3052                           ;main.c: 794: LATC = 0b00101011;
  3053  001F9A  0E2B               	movlw	low(02Bh)
  3054  001F9C  6E8B               	movwf	((c:3979)),c	;volatile
  3055                           	line	796
  3056                           ;main.c: 796: } else if (conv_result.adc_channel
                                  == 1 && conv_result.result == 0x52) {
  3057  001F9E  EFE7  F00F         	goto	i2l873
  3058                           	
  3059  001FA2                     i2l994:		; BSR set to: ?
  3060                           
  3061  001FA2  0401               	decf	(0+((c:0)+01h)),c,w
  3062                           
  3063  001FA4  A4D8               	btfss	status,2
  3064  001FA6  EFD7  F00F         	goto	i2u8141
  3065  001FAA  EFD9  F00F         	goto	i2u8140
  3066  001FAE                     i2u8141:
  3067  001FAE  EFE7  F00F         	goto	i2l873
  3068  001FB2                     i2u8140:
  3069  001FB2  5000               	movf	((c:0)),c,w
  3070  001FB4  0A52               	xorlw	82
  3071                           
  3072  001FB6  A4D8               	btfss	status,2
  3073  001FB8  EFE0  F00F         	goto	i2u8151
  3074  001FBC  EFE2  F00F         	goto	i2u8150
  3075  001FC0                     i2u8151:
  3076  001FC0  EFE7  F00F         	goto	i2l873
  3077  001FC4                     i2u8150:
  3078                           	line	799
  3079                           ;main.c: 799: LATA = 0b11111111;
  3080  001FC4  6889               	setf	((c:3977)),c	;volatile
  3081                           	line	801
  3082                           ;main.c: 801: LATB = 0b10000000;
  3083  001FC6  0E80               	movlw	low(080h)
  3084  001FC8  6E8A               	movwf	((c:3978)),c	;volatile
  3085                           	line	803
  3086                           ;main.c: 803: LATC = 0b00100111;
  3087  001FCA  0E27               	movlw	low(027h)
  3088  001FCC  6E8B               	movwf	((c:3979)),c	;volatile
  3089                           	line	804
  3090                           	
  3091  001FCE                     i2l996:		; BSR set to: ?
  3092                           
  3093                           	line	805
  3094                           	
  3095  001FCE                     i2l995:		; BSR set to: ?
  3096                           
  3097                           	
  3098  001FCE                     i2l993:		; BSR set to: ?
  3099                           
  3100                           	
  3101  001FCE                     i2l991:		; BSR set to: ?
  3102                           
  3103                           	
  3104  001FCE                     i2l989:		; BSR set to: ?
  3105                           
  3106                           	
  3107  001FCE                     i2l987:		; BSR set to: ?
  3108                           
  3109                           	
  3110  001FCE                     i2l985:		; BSR set to: ?
  3111                           
  3112                           	
  3113  001FCE                     i2l983:		; BSR set to: ?
  3114                           
  3115                           	
  3116  001FCE                     i2l981:		; BSR set to: ?
  3117                           
  3118                           	
  3119  001FCE                     i2l979:		; BSR set to: ?
  3120                           
  3121                           	
  3122  001FCE                     i2l977:		; BSR set to: ?
  3123                           
  3124                           	
  3125  001FCE                     i2l975:		; BSR set to: ?
  3126                           
  3127                           	
  3128  001FCE                     i2l973:		; BSR set to: ?
  3129                           
  3130                           	
  3131  001FCE                     i2l971:		; BSR set to: ?
  3132                           
  3133                           	
  3134  001FCE                     i2l969:		; BSR set to: ?
  3135                           
  3136                           	
  3137  001FCE                     i2l967:		; BSR set to: ?
  3138                           
  3139                           	
  3140  001FCE                     i2l965:		; BSR set to: ?
  3141                           
  3142                           	
  3143  001FCE                     i2l963:		; BSR set to: ?
  3144                           
  3145                           	
  3146  001FCE                     i2l961:		; BSR set to: ?
  3147                           
  3148                           	
  3149  001FCE                     i2l959:		; BSR set to: ?
  3150                           
  3151                           	
  3152  001FCE                     i2l957:		; BSR set to: ?
  3153                           
  3154                           	
  3155  001FCE                     i2l955:		; BSR set to: ?
  3156                           
  3157                           	
  3158  001FCE                     i2l953:		; BSR set to: ?
  3159                           
  3160                           	
  3161  001FCE                     i2l951:		; BSR set to: ?
  3162                           
  3163                           	
  3164  001FCE                     i2l949:		; BSR set to: ?
  3165                           
  3166                           	
  3167  001FCE                     i2l947:		; BSR set to: ?
  3168                           
  3169                           	
  3170  001FCE                     i2l945:		; BSR set to: ?
  3171                           
  3172                           	
  3173  001FCE                     i2l943:		; BSR set to: ?
  3174                           
  3175                           	
  3176  001FCE                     i2l941:		; BSR set to: ?
  3177                           
  3178                           	
  3179  001FCE                     i2l939:		; BSR set to: ?
  3180                           
  3181                           	
  3182  001FCE                     i2l937:		; BSR set to: ?
  3183                           
  3184                           	
  3185  001FCE                     i2l935:		; BSR set to: ?
  3186                           
  3187                           	
  3188  001FCE                     i2l933:		; BSR set to: ?
  3189                           
  3190                           	
  3191  001FCE                     i2l931:		; BSR set to: ?
  3192                           
  3193                           	
  3194  001FCE                     i2l929:		; BSR set to: ?
  3195                           
  3196                           	
  3197  001FCE                     i2l927:		; BSR set to: ?
  3198                           
  3199                           	
  3200  001FCE                     i2l925:		; BSR set to: ?
  3201                           
  3202                           	
  3203  001FCE                     i2l923:		; BSR set to: ?
  3204                           
  3205                           	
  3206  001FCE                     i2l921:		; BSR set to: ?
  3207                           
  3208                           	
  3209  001FCE                     i2l919:		; BSR set to: ?
  3210                           
  3211                           	
  3212  001FCE                     i2l917:		; BSR set to: ?
  3213                           
  3214                           	
  3215  001FCE                     i2l915:		; BSR set to: ?
  3216                           
  3217                           	
  3218  001FCE                     i2l913:		; BSR set to: ?
  3219                           
  3220                           	
  3221  001FCE                     i2l911:		; BSR set to: ?
  3222                           
  3223                           	
  3224  001FCE                     i2l909:		; BSR set to: ?
  3225                           
  3226                           	
  3227  001FCE                     i2l907:		; BSR set to: ?
  3228                           
  3229                           	
  3230  001FCE                     i2l905:		; BSR set to: ?
  3231                           
  3232                           	
  3233  001FCE                     i2l903:		; BSR set to: ?
  3234                           
  3235                           	
  3236  001FCE                     i2l901:		; BSR set to: ?
  3237                           
  3238                           	
  3239  001FCE                     i2l899:		; BSR set to: ?
  3240                           
  3241                           	
  3242  001FCE                     i2l897:		; BSR set to: ?
  3243                           
  3244                           	
  3245  001FCE                     i2l895:		; BSR set to: ?
  3246                           
  3247                           	
  3248  001FCE                     i2l893:		; BSR set to: ?
  3249                           
  3250                           	
  3251  001FCE                     i2l891:		; BSR set to: ?
  3252                           
  3253                           	
  3254  001FCE                     i2l889:		; BSR set to: ?
  3255                           
  3256                           	
  3257  001FCE                     i2l887:		; BSR set to: ?
  3258                           
  3259                           	
  3260  001FCE                     i2l885:		; BSR set to: ?
  3261                           
  3262                           	
  3263  001FCE                     i2l883:		; BSR set to: ?
  3264                           
  3265                           	
  3266  001FCE                     i2l881:		; BSR set to: ?
  3267                           
  3268                           	
  3269  001FCE                     i2l879:		; BSR set to: ?
  3270                           
  3271                           	
  3272  001FCE                     i2l877:		; BSR set to: ?
  3273                           
  3274                           	
  3275  001FCE                     i2l875:		; BSR set to: ?
  3276                           
  3277                           	
  3278  001FCE                     i2l873:		; BSR set to: ?
  3279                           
  3280                           ;main.c: 804: }
  3281                           ;main.c: 805: }
  3282  001FCE                     i2l871:
  3283                           			; BSR set to: ?
  3284                           
  3285  001FCE  0012               	return
  3286                           	opt stack 0
  3287                           GLOBAL __end_of_ToggleLeds
  3288  001FD0                     	__end_of_ToggleLeds:
  3289                           	FNSIZE	_ToggleLeds,0,0
  3290                           ; =============== function _ToggleLeds ends ====
                                 ========
  3291                           
  3292                           	signat	_ToggleLeds,88
  3293                                   psect   text3,class=CODE,space=0,reloc=2
  3294                           	global	intlevel2
  3295                           
  3296                           	opt lm
  3297                           	FNBREAK _adc_conversion,intlevel2
  3298                           	global	_adc_conversion
  3299                           	global	??_adc_conversion
  3300                           	global	?_adc_conversion
  3301                           
  3302                           ; *************** function _adc_conversion *****
                                 ************
  3303                           ; Defined at:
  3304                           ;		line 994 in file "../code/main.c"
  3305                           ; Parameters:
  3306                           ;		None
  3307                           ; Auto variables:
  3308                           ;		hResult     	       	type: unsigned char 
  3309                           ;		lResult     	       	type: unsigned char 
  3310                           ;		note        	       	type: unsigned char 
  3311                           ; Return value:
  3312                           ;		type: void 
  3313                           ;		size: 0
  3314                           ; Registers used:
  3315                           ;		wreg, status,2, status,0, cstack
  3316                           ; Tracked objects:
  3317                           ;		On entry : 0/0
  3318                           ;		On exit  : 0/0
  3319                           ;		Unchanged: 0/0
  3320                           ; Data sizes:
  3321                           ;		Autos:    3
  3322                           ;		Params:   0
  3323                           ;		Temp:     0
  3324                           ;		Total:    3
  3325                           ; This function calls:
  3326                           ;		_getNote
  3327                           ; This function is called by:
  3328                           ;		_my_isr
  3329                           ; This function uses a non-reentrant model
  3330                           ; 
  3331                           	file	"../code/main.c"
  3332                           	line	994
  3333  000000                     	__size_of_adc_conversion	equ	__end_of_adc_conve
                                 rsion-_adc_conversion
  3334                           ;main.c: 994: void adc_conversion() {
  3335                           	
  3336  002274                     _adc_conversion:		; BSR set to: ?
  3337                           
  3338                           	opt stack 30
  3339                           	line	996
  3340                           ;main.c: 996: ADON = 0;
  3341  002274  90C2               	bcf	c:(32272/8),(32272)&7	;volatile
  3342                           	line	998
  3343                           ;main.c: 998: ADRESH = 0;
  3344  002276  0E00               	movlw	low(0)
  3345  002278  6EC4               	movwf	((c:4036)),c	;volatile
  3346                           	line	999
  3347                           ;main.c: 999: ADRESL = 0;
  3348  00227A  0E00               	movlw	low(0)
  3349  00227C  6EC3               	movwf	((c:4035)),c	;volatile
  3350                           	line	1002
  3351                           ;main.c: 1002: switch (adc_num) {
  3352  00227E  EF5D  F011         	goto	i2l1104
  3353                           	line	1003
  3354                           ;main.c: 1003: case 0 :
  3355                           	
  3356  002282                     i2l1105:		; BSR set to: ?
  3357                           
  3358                           	line	1004
  3359                           ;main.c: 1004: ADCON0 = 0b00100000;
  3360  002282  0E20               	movlw	low(020h)
  3361  002284  6EC2               	movwf	((c:4034)),c	;volatile
  3362                           	line	1005
  3363                           ;main.c: 1005: break;
  3364  002286  EF6E  F011         	goto	i2l1103
  3365                           	line	1006
  3366                           ;main.c: 1006: case 1 :
  3367                           	
  3368  00228A                     i2l1106:		; BSR set to: ?
  3369                           
  3370                           	line	1007
  3371                           ;main.c: 1007: ADCON0 = 0b00100100;
  3372  00228A  0E24               	movlw	low(024h)
  3373  00228C  6EC2               	movwf	((c:4034)),c	;volatile
  3374                           	line	1008
  3375                           ;main.c: 1008: break;
  3376  00228E  EF6E  F011         	goto	i2l1103
  3377                           	line	1009
  3378                           ;main.c: 1009: case 2 :
  3379                           	
  3380  002292                     i2l1107:		; BSR set to: ?
  3381                           
  3382                           	line	1010
  3383                           ;main.c: 1010: ADCON0 = 0b00000000;
  3384  002292  0E00               	movlw	low(0)
  3385  002294  6EC2               	movwf	((c:4034)),c	;volatile
  3386                           	line	1011
  3387                           ;main.c: 1011: break;
  3388  002296  EF6E  F011         	goto	i2l1103
  3389                           	line	1012
  3390                           ;main.c: 1012: case 3 :
  3391                           	
  3392  00229A                     i2l1108:		; BSR set to: ?
  3393                           
  3394                           	line	1013
  3395                           ;main.c: 1013: ADCON0 = 0b00000100;
  3396  00229A  0E04               	movlw	low(04h)
  3397  00229C  6EC2               	movwf	((c:4034)),c	;volatile
  3398                           	line	1014
  3399                           ;main.c: 1014: break;
  3400  00229E  EF6E  F011         	goto	i2l1103
  3401                           	line	1015
  3402                           ;main.c: 1015: case 4 :
  3403                           	
  3404  0022A2                     i2l1109:		; BSR set to: ?
  3405                           
  3406                           	line	1016
  3407                           ;main.c: 1016: ADCON0 = 0b00001000;
  3408  0022A2  0E08               	movlw	low(08h)
  3409  0022A4  6EC2               	movwf	((c:4034)),c	;volatile
  3410                           	line	1017
  3411                           ;main.c: 1017: break;
  3412  0022A6  EF6E  F011         	goto	i2l1103
  3413                           	line	1018
  3414                           ;main.c: 1018: case 5 :
  3415                           	
  3416  0022AA                     i2l1110:		; BSR set to: ?
  3417                           
  3418                           	line	1019
  3419                           ;main.c: 1019: ADCON0 = 0b00001100;
  3420  0022AA  0E0C               	movlw	low(0Ch)
  3421  0022AC  6EC2               	movwf	((c:4034)),c	;volatile
  3422                           	line	1020
  3423                           ;main.c: 1020: break;
  3424  0022AE  EF6E  F011         	goto	i2l1103
  3425                           	line	1021
  3426                           ;main.c: 1021: case 6 :
  3427                           	
  3428  0022B2                     i2l1111:		; BSR set to: ?
  3429                           
  3430                           	line	1022
  3431                           ;main.c: 1022: ADCON0 = 0b00010000;
  3432  0022B2  0E10               	movlw	low(010h)
  3433  0022B4  6EC2               	movwf	((c:4034)),c	;volatile
  3434                           	line	1023
  3435                           ;main.c: 1023: break;
  3436  0022B6  EF6E  F011         	goto	i2l1103
  3437                           	line	1002
  3438                           	
  3439  0022BA                     i2l1104:		; BSR set to: ?
  3440                           
  3441  0022BA  5002               	movf	((c:2)),c,w	;volatile
  3442  0022BC  0A00               	xorlw	0 ^ 0
  3443  0022BE  E0E1               	bz	i2l1105
  3444  0022C0  0A01               	xorlw	1 ^ 0
  3445  0022C2  E0E3               	bz	i2l1106
  3446  0022C4  0A03               	xorlw	2 ^ 1
  3447  0022C6  E0E5               	bz	i2l1107
  3448  0022C8  0A01               	xorlw	3 ^ 2
  3449  0022CA  E0E7               	bz	i2l1108
  3450  0022CC  0A07               	xorlw	4 ^ 3
  3451  0022CE  E0E9               	bz	i2l1109
  3452  0022D0  0A01               	xorlw	5 ^ 4
  3453  0022D2  E0EB               	bz	i2l1110
  3454  0022D4  0A03               	xorlw	6 ^ 5
  3455  0022D6  E0ED               	bz	i2l1111
  3456  0022D8  EF6E  F011         	goto	i2l1103
  3457                           
  3458                           	line	1024
  3459                           	
  3460  0022DC                     i2l1103:		; BSR set to: ?
  3461                           
  3462                           	line	1028
  3463                           ;main.c: 1028: ADON = 1;
  3464  0022DC  80C2               	bsf	c:(32272/8),(32272)&7	;volatile
  3465                           	line	1029
  3466                           ;main.c: 1029: GODONE = 1;
  3467  0022DE  82C2               	bsf	c:(32273/8),(32273)&7	;volatile
  3468                           	line	1032
  3469                           ;main.c: 1032: while (GODONE);
  3470  0022E0  EF72  F011         	goto	i2l1112
  3471                           	
  3472  0022E4                     i2l1112:		; BSR set to: ?
  3473                           
  3474  0022E4  B2C2               	btfsc	c:(32273/8),(32273)&7	;volatile
  3475  0022E6  EF77  F011         	goto	i2u8401
  3476  0022EA  EF79  F011         	goto	i2u8400
  3477  0022EE                     i2u8401:
  3478  0022EE  EF72  F011         	goto	i2l1112
  3479  0022F2                     i2u8400:
  3480                           	
  3481  0022F2                     i2l1114:		; BSR set to: ?
  3482                           
  3483                           	line	1033
  3484                           ;main.c: 1033: unsigned char hResult = ADRESH;
  3485  0022F2  CFC4 F112          	movff	(c:4036),(adc_conversion@hResult)	;volati
                                 le
  3486                           	line	1034
  3487                           ;main.c: 1034: unsigned char lResult = ADRESL;
  3488  0022F6  CFC3 F113          	movff	(c:4035),(adc_conversion@lResult)	;volati
                                 le
  3489                           	line	1035
  3490                           ;main.c: 1035: unsigned char note = getNote(hRes
                                 ult, lResult);
  3491  0022FA  C113  F116         	movff	(adc_conversion@lResult),0+(?_getNote+01h
                                 )
  3492  0022FE  C112  F115         	movff	(adc_conversion@hResult),(?_getNote)
  3493  002302  EC1B  F000         	call	_getNote	;wreg free
  3494  002306  0101               	movlb	1	; () banked
  3495  002308  0101               	movlb	1	; () banked
  3496  00230A  6F14               	movwf	((adc_conversion@note))&0ffh
  3497                           	line	1038
  3498                           ;main.c: 1038: conv_result.result = note;
  3499  00230C  C114  F000         	movff	(adc_conversion@note),(c:0)
  3500                           	line	1039
  3501                           ;main.c: 1039: conv_result.adc_channel = adc_num
                                 ;
  3502  002310  C002 F001          	movff	(c:2),0+((c:0)+01h)	;volatile
  3503                           	line	1042
  3504                           ;main.c: 1042: adc_num++;
  3505  002314  2A02               	incf	((c:2)),c	;volatile
  3506                           	line	1043
  3507                           ;main.c: 1043: if (adc_num >= 7) {
  3508  002316  0E06               	movlw	(07h-1)
  3509  002318  6402               	cpfsgt	((c:2)),c	;volatile
  3510  00231A  EF91  F011         	goto	i2u8411
  3511  00231E  EF93  F011         	goto	i2u8410
  3512  002322                     i2u8411:
  3513  002322  EF95  F011         	goto	i2l1115
  3514  002326                     i2u8410:
  3515                           	line	1044
  3516                           ;main.c: 1044: adc_num = 0;
  3517  002326  0E00               	movlw	low(0)
  3518  002328  6E02               	movwf	((c:2)),c	;volatile
  3519                           	line	1045
  3520                           	
  3521  00232A                     i2l1115:		; BSR set to: ?
  3522                           
  3523                           	line	1046
  3524                           ;main.c: 1045: }
  3525                           ;main.c: 1046: }
  3526  00232A                     i2l1102:
  3527                           			; BSR set to: ?
  3528                           
  3529  00232A  0012               	return
  3530                           	opt stack 0
  3531                           GLOBAL __end_of_adc_conversion
  3532  00232C                     	__end_of_adc_conversion:
  3533                           	FNSIZE	_adc_conversion,3,0
  3534                           ; =============== function _adc_conversion ends 
                                 ============
  3535                           
  3536                           	signat	_adc_conversion,88
  3537                                   psect   text4,class=CODE,space=0,reloc=2
  3538                           	global	intlevel2
  3539                           
  3540                           	opt lm
  3541                           	FNBREAK _getNote,intlevel2
  3542                           	global	_getNote
  3543                           	global	??_getNote
  3544                           	global	?_getNote
  3545                           
  3546                           ; *************** function _getNote ************
                                 *****
  3547                           ; Defined at:
  3548                           ;		line 1054 in file "../code/main.c"
  3549                           ; Parameters:
  3550                           ;		hResult        size:   1offs:   0	type: unsig
                                 ned char 
  3551                           ;		lResult        size:   1offs:   1	type: unsig
                                 ned char 
  3552                           ; Auto variables:
  3553                           ;		new_note    	       	type: unsigned char 
  3554                           ; Return value:
  3555                           ;		type: unsigned char 
  3556                           ;		size: 1
  3557                           ; Registers used:
  3558                           ;		wreg, status,2, status,0
  3559                           ; Tracked objects:
  3560                           ;		On entry : 0/0
  3561                           ;		On exit  : 0/0
  3562                           ;		Unchanged: 0/0
  3563                           ; Data sizes:
  3564                           ;		Autos:    1
  3565                           ;		Params:   2
  3566                           ;		Temp:     1
  3567                           ;		Total:    4
  3568                           ; This function calls:
  3569                           ;		Nothing
  3570                           ; This function is called by:
  3571                           ;		_adc_conversion
  3572                           ; This function uses a non-reentrant model
  3573                           ; 
  3574                           	file	"../code/main.c"
  3575                           	line	1054
  3576  000000                     	__size_of_getNote	equ	__end_of_getNote-_getNote
  3577                           ;main.c: 1054: unsigned char getNote (unsigned c
                                 har hResult, unsigned char lResult) {
  3578                           	
  3579  000036                     _getNote:		; BSR set to: ?
  3580                           
  3581                           	opt stack 29
  3582                           	line	1057
  3583                           ;main.c: 1055: unsigned char new_note;
  3584                           ;main.c: 1057: if (adc_num == 0) {
  3585  000036  6602               	tstfsz	((c:2)),c	;volatile
  3586  000038  EF20  F000         	goto	i2u8421
  3587  00003C  EF22  F000         	goto	i2u8420
  3588  000040                     i2u8421:
  3589  000040  EF81  F001         	goto	i2l1117
  3590  000044                     i2u8420:
  3591                           	line	1058
  3592                           ;main.c: 1058: if (hResult == 0x00) {
  3593  000044  0101               	movlb	1	; () banked
  3594  000046  0101               	movlb	1	; () banked
  3595  000048  6715               	tstfsz	((getNote@hResult))&0ffh
  3596  00004A  EF29  F000         	goto	i2u8431
  3597  00004E  EF2B  F000         	goto	i2u8430
  3598  000052                     i2u8431:
  3599  000052  EF35  F000         	goto	i2l1118
  3600  000056                     i2u8430:
  3601                           	line	1060
  3602                           ;main.c: 1060: new_note = 0x00;
  3603  000056  0101               	movlb	1	; () banked
  3604  000058  6F18               	movwf	(??_getNote+1+0)&0ffh
  3605  00005A  0E00               	movlw	low(0)
  3606  00005C  0101               	movlb	1	; () banked
  3607  00005E  0101               	movlb	1	; () banked
  3608  000060  6F17               	movwf	((getNote@new_note))&0ffh
  3609  000062  0101               	movlb	1	; () banked
  3610  000064  5118               	movf	(??_getNote+1+0)&0ffh,w
  3611                           	line	1062
  3612                           ;main.c: 1062: } else if (hResult == 0x01) {
  3613  000066  EF7F  F001         	goto	i2l1119
  3614                           	
  3615  00006A                     i2l1118:		; BSR set to: ?
  3616                           
  3617  00006A  0101               	movlb	1	; () banked
  3618  00006C  0101               	movlb	1	; () banked
  3619  00006E  0515               	decf	((getNote@hResult))&0ffh,w
  3620                           
  3621  000070  A4D8               	btfss	status,2
  3622  000072  EF3D  F000         	goto	i2u8441
  3623  000076  EF3F  F000         	goto	i2u8440
  3624  00007A                     i2u8441:
  3625  00007A  EFA3  F000         	goto	i2l1120
  3626  00007E                     i2u8440:
  3627                           	line	1063
  3628                           ;main.c: 1063: if (lResult >= 190 && lResult <= 
                                 210) {
  3629  00007E  0EBD               	movlw	(0BEh-1)
  3630  000080  0101               	movlb	1	; () banked
  3631  000082  0101               	movlb	1	; () banked
  3632  000084  6516               	cpfsgt	((getNote@lResult))&0ffh
  3633  000086  EF47  F000         	goto	i2u8451
  3634  00008A  EF49  F000         	goto	i2u8450
  3635  00008E                     i2u8451:
  3636  00008E  EF5D  F000         	goto	i2l1121
  3637  000092                     i2u8450:
  3638  000092  0ED3               	movlw	(0D3h)&0ffh
  3639  000094  0101               	movlb	1	; () banked
  3640  000096  0101               	movlb	1	; () banked
  3641  000098  6116               	cpfslt	((getNote@lResult))&0ffh
  3642  00009A  EF51  F000         	goto	i2u8461
  3643  00009E  EF53  F000         	goto	i2u8460
  3644  0000A2                     i2u8461:
  3645  0000A2  EF5D  F000         	goto	i2l1121
  3646  0000A6                     i2u8460:
  3647                           	line	1065
  3648                           ;main.c: 1065: new_note = 0x51;
  3649  0000A6  0101               	movlb	1	; () banked
  3650  0000A8  6F18               	movwf	(??_getNote+1+0)&0ffh
  3651  0000AA  0E51               	movlw	low(051h)
  3652  0000AC  0101               	movlb	1	; () banked
  3653  0000AE  0101               	movlb	1	; () banked
  3654  0000B0  6F17               	movwf	((getNote@new_note))&0ffh
  3655  0000B2  0101               	movlb	1	; () banked
  3656  0000B4  5118               	movf	(??_getNote+1+0)&0ffh,w
  3657                           	line	1066
  3658                           ;main.c: 1066: } else if (lResult >= 195 && lRes
                                 ult <= 216) {
  3659  0000B6  EFA1  F000         	goto	i2l1122
  3660                           	
  3661  0000BA                     i2l1121:		; BSR set to: ?
  3662                           
  3663  0000BA  0EC2               	movlw	(0C3h-1)
  3664  0000BC  0101               	movlb	1	; () banked
  3665  0000BE  0101               	movlb	1	; () banked
  3666  0000C0  6516               	cpfsgt	((getNote@lResult))&0ffh
  3667  0000C2  EF65  F000         	goto	i2u8471
  3668  0000C6  EF67  F000         	goto	i2u8470
  3669  0000CA                     i2u8471:
  3670  0000CA  EF7B  F000         	goto	i2l1123
  3671  0000CE                     i2u8470:
  3672  0000CE  0ED9               	movlw	(0D9h)&0ffh
  3673  0000D0  0101               	movlb	1	; () banked
  3674  0000D2  0101               	movlb	1	; () banked
  3675  0000D4  6116               	cpfslt	((getNote@lResult))&0ffh
  3676  0000D6  EF6F  F000         	goto	i2u8481
  3677  0000DA  EF71  F000         	goto	i2u8480
  3678  0000DE                     i2u8481:
  3679  0000DE  EF7B  F000         	goto	i2l1123
  3680  0000E2                     i2u8480:
  3681                           	line	1068
  3682                           ;main.c: 1068: new_note = 0x41;
  3683  0000E2  0101               	movlb	1	; () banked
  3684  0000E4  6F18               	movwf	(??_getNote+1+0)&0ffh
  3685  0000E6  0E41               	movlw	low(041h)
  3686  0000E8  0101               	movlb	1	; () banked
  3687  0000EA  0101               	movlb	1	; () banked
  3688  0000EC  6F17               	movwf	((getNote@new_note))&0ffh
  3689  0000EE  0101               	movlb	1	; () banked
  3690  0000F0  5118               	movf	(??_getNote+1+0)&0ffh,w
  3691                           	line	1069
  3692                           ;main.c: 1069: } else if (lResult >= 128 && lRes
                                 ult <= 154) {
  3693  0000F2  EFA1  F000         	goto	i2l1122
  3694                           	
  3695  0000F6                     i2l1123:		; BSR set to: ?
  3696                           
  3697  0000F6  0E7F               	movlw	(080h-1)
  3698  0000F8  0101               	movlb	1	; () banked
  3699  0000FA  0101               	movlb	1	; () banked
  3700  0000FC  6516               	cpfsgt	((getNote@lResult))&0ffh
  3701  0000FE  EF83  F000         	goto	i2u8491
  3702  000102  EF85  F000         	goto	i2u8490
  3703  000106                     i2u8491:
  3704  000106  EF99  F000         	goto	i2l1125
  3705  00010A                     i2u8490:
  3706  00010A  0E9B               	movlw	(09Bh)&0ffh
  3707  00010C  0101               	movlb	1	; () banked
  3708  00010E  0101               	movlb	1	; () banked
  3709  000110  6116               	cpfslt	((getNote@lResult))&0ffh
  3710  000112  EF8D  F000         	goto	i2u8501
  3711  000116  EF8F  F000         	goto	i2u8500
  3712  00011A                     i2u8501:
  3713  00011A  EF99  F000         	goto	i2l1125
  3714  00011E                     i2u8500:
  3715                           	line	1071
  3716                           ;main.c: 1071: new_note = 0x49;
  3717  00011E  0101               	movlb	1	; () banked
  3718  000120  6F18               	movwf	(??_getNote+1+0)&0ffh
  3719  000122  0E49               	movlw	low(049h)
  3720  000124  0101               	movlb	1	; () banked
  3721  000126  0101               	movlb	1	; () banked
  3722  000128  6F17               	movwf	((getNote@new_note))&0ffh
  3723  00012A  0101               	movlb	1	; () banked
  3724  00012C  5118               	movf	(??_getNote+1+0)&0ffh,w
  3725                           	line	1072
  3726                           ;main.c: 1072: } else {
  3727  00012E  EFA1  F000         	goto	i2l1122
  3728                           	
  3729  000132                     i2l1125:		; BSR set to: ?
  3730                           
  3731                           	line	1074
  3732                           ;main.c: 1074: new_note = 0x00;
  3733  000132  0101               	movlb	1	; () banked
  3734  000134  6F18               	movwf	(??_getNote+1+0)&0ffh
  3735  000136  0E00               	movlw	low(0)
  3736  000138  0101               	movlb	1	; () banked
  3737  00013A  0101               	movlb	1	; () banked
  3738  00013C  6F17               	movwf	((getNote@new_note))&0ffh
  3739  00013E  0101               	movlb	1	; () banked
  3740  000140  5118               	movf	(??_getNote+1+0)&0ffh,w
  3741                           	line	1075
  3742                           	
  3743  000142                     i2l1126:		; BSR set to: ?
  3744                           
  3745                           	
  3746  000142                     i2l1124:		; BSR set to: ?
  3747                           
  3748                           	
  3749  000142                     i2l1122:		; BSR set to: ?
  3750                           
  3751                           	line	1077
  3752                           ;main.c: 1075: }
  3753                           ;main.c: 1077: } else if (hResult == 0x02) {
  3754  000142  EF7F  F001         	goto	i2l1119
  3755                           	
  3756  000146                     i2l1120:		; BSR set to: ?
  3757                           
  3758  000146  0101               	movlb	1	; () banked
  3759  000148  0101               	movlb	1	; () banked
  3760  00014A  5115               	movf	((getNote@hResult))&0ffh,w
  3761  00014C  0A02               	xorlw	2
  3762                           
  3763  00014E  A4D8               	btfss	status,2
  3764  000150  EFAC  F000         	goto	i2u8511
  3765  000154  EFAE  F000         	goto	i2u8510
  3766  000158                     i2u8511:
  3767  000158  EF12  F001         	goto	i2l1128
  3768  00015C                     i2u8510:
  3769                           	line	1078
  3770                           ;main.c: 1078: if (lResult >= 222 && lResult <= 
                                 252) {
  3771  00015C  0EDD               	movlw	(0DEh-1)
  3772  00015E  0101               	movlb	1	; () banked
  3773  000160  0101               	movlb	1	; () banked
  3774  000162  6516               	cpfsgt	((getNote@lResult))&0ffh
  3775  000164  EFB6  F000         	goto	i2u8521
  3776  000168  EFB8  F000         	goto	i2u8520
  3777  00016C                     i2u8521:
  3778  00016C  EFCC  F000         	goto	i2l1129
  3779  000170                     i2u8520:
  3780  000170  0EFD               	movlw	(0FDh)&0ffh
  3781  000172  0101               	movlb	1	; () banked
  3782  000174  0101               	movlb	1	; () banked
  3783  000176  6116               	cpfslt	((getNote@lResult))&0ffh
  3784  000178  EFC0  F000         	goto	i2u8531
  3785  00017C  EFC2  F000         	goto	i2u8530
  3786+ 000180                     i2u8531:
  3787+ 000180  EFCC  F000         	goto	i2l1129
  3788+ 000184                     i2u8530:
  3789+                          	line	1080
  3790+                          ;main.c: 1080: new_note = 0x31;
  3791+ 000184  0101               	movlb	1	; () banked
  3792+ 000186  6F18               	movwf	(??_getNote+1+0)&0ffh
  3793+ 000188  0E31               	movlw	low(031h)
  3794+ 00018A  0101               	movlb	1	; () banked
  3795+ 00018C  0101               	movlb	1	; () banked
  3796+ 00018E  6F17               	movwf	((getNote@new_note))&0ffh
  3797+ 000190  0101               	movlb	1	; () banked
  3798+ 000192  5118               	movf	(??_getNote+1+0)&0ffh,w
  3799+                          	line	1081
  3800+                          ;main.c: 1081: } else if (lResult >= 105 && lRes
      +                          ult <= 175) {
  3801+ 000194  EF10  F001         	goto	i2l1130
  3802+                          	
  3803+ 000198                     i2l1129:		; BSR set to: ?
  3804+                          
  3805+ 000198  0E68               	movlw	(069h-1)
  3806+ 00019A  0101               	movlb	1	; () banked
  3807+ 00019C  0101               	movlb	1	; () banked
  3808+ 00019E  6516               	cpfsgt	((getNote@lResult))&0ffh
  3809+ 0001A0  EFD4  F000         	goto	i2u8541
  3810+ 0001A4  EFD6  F000         	goto	i2u8540
  3811+ 0001A8                     i2u8541:
  3812+ 0001A8  EFEA  F000         	goto	i2l1131
  3813+ 0001AC                     i2u8540:
  3814+ 0001AC  0EB0               	movlw	(0B0h)&0ffh
  3815+ 0001AE  0101               	movlb	1	; () banked
  3816+ 0001B0  0101               	movlb	1	; () banked
  3817+ 0001B2  6116               	cpfslt	((getNote@lResult))&0ffh
  3818+ 0001B4  EFDE  F000         	goto	i2u8551
  3819+ 0001B8  EFE0  F000         	goto	i2u8550
  3820+ 0001BC                     i2u8551:
  3821+ 0001BC  EFEA  F000         	goto	i2l1131
  3822+ 0001C0                     i2u8550:
  3823+                          	line	1083
  3824+                          ;main.c: 1083: new_note = 0x21;
  3825+ 0001C0  0101               	movlb	1	; () banked
  3826+ 0001C2  6F18               	movwf	(??_getNote+1+0)&0ffh
  3827+ 0001C4  0E21               	movlw	low(021h)
  3828+ 0001C6  0101               	movlb	1	; () banked
  3829+ 0001C8  0101               	movlb	1	; () banked
  3830+ 0001CA  6F17               	movwf	((getNote@new_note))&0ffh
  3831+ 0001CC  0101               	movlb	1	; () banked
  3832+ 0001CE  5118               	movf	(??_getNote+1+0)&0ffh,w
  3833+                          	line	1084
  3834+                          ;main.c: 1084: } else if (lResult >= 105 && lRes
      +                          ult <= 148) {
  3835+ 0001D0  EF10  F001         	goto	i2l1130
  3836+                          	
  3837+ 0001D4                     i2l1131:		; BSR set to: ?
  3838+                          
  3839+ 0001D4  0E68               	movlw	(069h-1)
  3840+ 0001D6  0101               	movlb	1	; () banked
  3841+ 0001D8  0101               	movlb	1	; () banked
  3842+ 0001DA  6516               	cpfsgt	((getNote@lResult))&0ffh
  3843+ 0001DC  EFF2  F000         	goto	i2u8561
  3844+ 0001E0  EFF4  F000         	goto	i2u8560
  3845+ 0001E4                     i2u8561:
  3846+ 0001E4  EF08  F001         	goto	i2l1133
  3847+ 0001E8                     i2u8560:
  3848+ 0001E8  0E95               	movlw	(095h)&0ffh
  3849+ 0001EA  0101               	movlb	1	; () banked
  3850+ 0001EC  0101               	movlb	1	; () banked
  3851+ 0001EE  6116               	cpfslt	((getNote@lResult))&0ffh
  3852+ 0001F0  EFFC  F000         	goto	i2u8571
  3853+ 0001F4  EFFE  F000         	goto	i2u8570
  3854+ 0001F8                     i2u8571:
  3855+ 0001F8  EF08  F001         	goto	i2l1133
  3856+ 0001FC                     i2u8570:
  3857+                          	line	1086
  3858+                          ;main.c: 1086: new_note = 0x29;
  3859+ 0001FC  0101               	movlb	1	; () banked
  3860+ 0001FE  6F18               	movwf	(??_getNote+1+0)&0ffh
  3861+ 000200  0E29               	movlw	low(029h)
  3862+ 000202  0101               	movlb	1	; () banked
  3863+ 000204  0101               	movlb	1	; () banked
  3864+ 000206  6F17               	movwf	((getNote@new_note))&0ffh
  3865+ 000208  0101               	movlb	1	; () banked
  3866+ 00020A  5118               	movf	(??_getNote+1+0)&0ffh,w
  3867+                          	line	1087
  3868+                          ;main.c: 1087: } else {
  3869+ 00020C  EF10  F001         	goto	i2l1130
  3870+                          	
  3871+ 000210                     i2l1133:		; BSR set to: ?
  3872+                          
  3873+                          	line	1089
  3874+                          ;main.c: 1089: new_note = 0x00;
  3875+ 000210  0101               	movlb	1	; () banked
  3876+ 000212  6F18               	movwf	(??_getNote+1+0)&0ffh
  3877+ 000214  0E00               	movlw	low(0)
  3878+ 000216  0101               	movlb	1	; () banked
  3879+ 000218  0101               	movlb	1	; () banked
  3880+ 00021A  6F17               	movwf	((getNote@new_note))&0ffh
  3881+ 00021C  0101               	movlb	1	; () banked
  3882+ 00021E  5118               	movf	(??_getNote+1+0)&0ffh,w
  3883+                          	line	1090
  3884+                          	
  3885+ 000220                     i2l1134:		; BSR set to: ?
  3886+                          
  3887+                          	
  3888+ 000220                     i2l1132:		; BSR set to: ?
  3889+                          
  3890+                          	
  3891+ 000220                     i2l1130:		; BSR set to: ?
  3892+                          
  3893+                          	line	1092
  3894+                          ;main.c: 1090: }
  3895+                          ;main.c: 1092: } else if (hResult == 0x03) {
  3896+ 000220  EF7F  F001         	goto	i2l1119
  3897+                          	
  3898+ 000224                     i2l1128:		; BSR set to: ?
  3899+                          
  3900+ 000224  0101               	movlb	1	; () banked
  3901+ 000226  0101               	movlb	1	; () banked
  3902+ 000228  5115               	movf	((getNote@hResult))&0ffh,w
  3903+ 00022A  0A03               	xorlw	3
  3904+                          
  3905+ 00022C  A4D8               	btfss	status,2
  3906+ 00022E  EF1B  F001         	goto	i2u8581
  3907+ 000232  EF1D  F001         	goto	i2u8580
  3908+ 000236                     i2u8581:
  3909+ 000236  EF7F  F001         	goto	i2l1119
  3910+ 00023A                     i2u8580:
  3911+                          	line	1093
  3912+                          ;main.c: 1093: if (lResult >= 15 && lResult <= 1
      +                          08) {
  3913+ 00023A  0E0E               	movlw	(0Fh-1)
  3914+ 00023C  0101               	movlb	1	; () banked
  3915+ 00023E  0101               	movlb	1	; () banked
  3916+ 000240  6516               	cpfsgt	((getNote@lResult))&0ffh
  3917+ 000242  EF25  F001         	goto	i2u8591
  3918+ 000246  EF27  F001         	goto	i2u8590
  3919+ 00024A                     i2u8591:
  3920+ 00024A  EF3B  F001         	goto	i2l1137
  3921+ 00024E                     i2u8590:
  3922+ 00024E  0E6D               	movlw	(06Dh)&0ffh
  3923+ 000250  0101               	movlb	1	; () banked
  3924+ 000252  0101               	movlb	1	; () banked
  3925+ 000254  6116               	cpfslt	((getNote@lResult))&0ffh
  3926+ 000256  EF2F  F001         	goto	i2u8601
  3927+ 00025A  EF31  F001         	goto	i2u8600
  3928+ 00025E                     i2u8601:
  3929+ 00025E  EF3B  F001         	goto	i2l1137
  3930+ 000262                     i2u8600:
  3931+                          	line	1095
  3932+                          ;main.c: 1095: new_note = 0x11;
  3933+ 000262  0101               	movlb	1	; () banked
  3934+ 000264  6F18               	movwf	(??_getNote+1+0)&0ffh
  3935+ 000266  0E11               	movlw	low(011h)
  3936+ 000268  0101               	movlb	1	; () banked
  3937+ 00026A  0101               	movlb	1	; () banked
  3938+ 00026C  6F17               	movwf	((getNote@new_note))&0ffh
  3939+ 00026E  0101               	movlb	1	; () banked
  3940+ 000270  5118               	movf	(??_getNote+1+0)&0ffh,w
  3941+                          	line	1096
  3942+                          ;main.c: 1096: } else if (lResult >= 116 && lRes
      +                          ult <= 183) {
  3943+ 000272  EF7F  F001         	goto	i2l1119
  3944+                          	
  3945+ 000276                     i2l1137:		; BSR set to: ?
  3946+                          
  3947+ 000276  0E73               	movlw	(074h-1)
  3948+ 000278  0101               	movlb	1	; () banked
  3949+ 00027A  0101               	movlb	1	; () banked
  3950+ 00027C  6516               	cpfsgt	((getNote@lResult))&0ffh
  3951+ 00027E  EF43  F001         	goto	i2u8611
  3952+ 000282  EF45  F001         	goto	i2u8610
  3953+ 000286                     i2u8611:
  3954+ 000286  EF59  F001         	goto	i2l1139
  3955+ 00028A                     i2u8610:
  3956+ 00028A  0EB8               	movlw	(0B8h)&0ffh
  3957+ 00028C  0101               	movlb	1	; () banked
  3958+ 00028E  0101               	movlb	1	; () banked
  3959+ 000290  6116               	cpfslt	((getNote@lResult))&0ffh
  3960+ 000292  EF4D  F001         	goto	i2u8621
  3961+ 000296  EF4F  F001         	goto	i2u8620
  3962+ 00029A                     i2u8621:
  3963+ 00029A  EF59  F001         	goto	i2l1139
  3964+ 00029E                     i2u8620:
  3965+                          	line	1098
  3966+                          ;main.c: 1098: new_note = 0x01;
  3967+ 00029E  0101               	movlb	1	; () banked
  3968+ 0002A0  6F18               	movwf	(??_getNote+1+0)&0ffh
  3969+ 0002A2  0E01               	movlw	low(01h)
  3970+ 0002A4  0101               	movlb	1	; () banked
  3971+ 0002A6  0101               	movlb	1	; () banked
  3972+ 0002A8  6F17               	movwf	((getNote@new_note))&0ffh
  3973+ 0002AA  0101               	movlb	1	; () banked
  3974+ 0002AC  5118               	movf	(??_getNote+1+0)&0ffh,w
  3975+                          	line	1099
  3976+                          ;main.c: 1099: } else if (lResult >= 192 && lRes
      +                          ult <= 227) {
  3977+ 0002AE  EF7F  F001         	goto	i2l1119
  3978+                          	
  3979+ 0002B2                     i2l1139:		; BSR set to: ?
  3980+                          
  3981+ 0002B2  0EBF               	movlw	(0C0h-1)
  3982+ 0002B4  0101               	movlb	1	; () banked
  3983+ 0002B6  0101               	movlb	1	; () banked
  3984+ 0002B8  6516               	cpfsgt	((getNote@lResult))&0ffh
  3985+ 0002BA  EF61  F001         	goto	i2u8631
  3986+ 0002BE  EF63  F001         	goto	i2u8630
  3987+ 0002C2                     i2u8631:
  3988+ 0002C2  EF77  F001         	goto	i2l1141
  3989+ 0002C6                     i2u8630:
  3990+ 0002C6  0EE4               	movlw	(0E4h)&0ffh
  3991+ 0002C8  0101               	movlb	1	; () banked
  3992+ 0002CA  0101               	movlb	1	; () banked
  3993+ 0002CC  6116               	cpfslt	((getNote@lResult))&0ffh
  3994+ 0002CE  EF6B  F001         	goto	i2u8641
  3995+ 0002D2  EF6D  F001         	goto	i2u8640
  3996+ 0002D6                     i2u8641:
  3997+ 0002D6  EF77  F001         	goto	i2l1141
  3998+ 0002DA                     i2u8640:
  3999+                          	line	1101
  4000+                          ;main.c: 1101: new_note = 0x09;
  4001+ 0002DA  0101               	movlb	1	; () banked
  4002+ 0002DC  6F18               	movwf	(??_getNote+1+0)&0ffh
  4003+ 0002DE  0E09               	movlw	low(09h)
  4004+ 0002E0  0101               	movlb	1	; () banked
  4005+ 0002E2  0101               	movlb	1	; () banked
  4006+ 0002E4  6F17               	movwf	((getNote@new_note))&0ffh
  4007+ 0002E6  0101               	movlb	1	; () banked
  4008+ 0002E8  5118               	movf	(??_getNote+1+0)&0ffh,w
  4009+                          	line	1102
  4010+                          ;main.c: 1102: } else {
  4011+ 0002EA  EF7F  F001         	goto	i2l1119
  4012+                          	
  4013+ 0002EE                     i2l1141:		; BSR set to: ?
  4014+                          
  4015+                          	line	1104
  4016+                          ;main.c: 1104: new_note = 0x00;
  4017+ 0002EE  0101               	movlb	1	; () banked
  4018+ 0002F0  6F18               	movwf	(??_getNote+1+0)&0ffh
  4019+ 0002F2  0E00               	movlw	low(0)
  4020+ 0002F4  0101               	movlb	1	; () banked
  4021+ 0002F6  0101               	movlb	1	; () banked
  4022+ 0002F8  6F17               	movwf	((getNote@new_note))&0ffh
  4023+ 0002FA  0101               	movlb	1	; () banked
  4024+ 0002FC  5118               	movf	(??_getNote+1+0)&0ffh,w
  4025+                          	line	1105
  4026+                          	
  4027+ 0002FE                     i2l1142:		; BSR set to: ?
  4028+                          
  4029+                          	
  4030+ 0002FE                     i2l1140:		; BSR set to: ?
  4031+                          
  4032+                          	
  4033+ 0002FE                     i2l1138:		; BSR set to: ?
  4034+                          
  4035+                          	line	1106
  4036+                          	
  4037+ 0002FE                     i2l1136:		; BSR set to: ?
  4038+                          
  4039+                          	line	1108
  4040+                          	
  4041+ 0002FE                     i2l1135:		; BSR set to: ?
  4042+                          
  4043+                          	
  4044+ 0002FE                     i2l1127:		; BSR set to: ?
  4045+                          
  4046+                          	
  4047+ 0002FE                     i2l1119:		; BSR set to: ?
  4048+                          
  4049+                          ;main.c: 1105: }
  4050+                          ;main.c: 1106: }
  4051+                          ;main.c: 1108: } else if (adc_num == 1) {
  4052+ 0002FE  EFC6  F009         	goto	i2l1143
  4053+                          	
  4054+ 000302                     i2l1117:		; BSR set to: ?
  4055+                          
  4056+ 000302  0402               	decf	((c:2)),c,w	;volatile
  4057+                          
  4058+ 000304  A4D8               	btfss	status,2
  4059+ 000306  EF87  F001         	goto	i2u8651
  4060+ 00030A  EF89  F001         	goto	i2u8650
  4061+ 00030E                     i2u8651:
  4062+ 00030E  EFDE  F002         	goto	i2l1144
  4063+ 000312                     i2u8650:
  4064                           	line	1109
  4065                           ;main.c: 1109: if (hResult == 0x00) {
  4066  000312  0101               	movlb	1	; () banked
  4067  000314  0101               	movlb	1	; () banked
  4068  000316  6715               	tstfsz	((getNote@hResult))&0ffh
  4069  000318  EF90  F001         	goto	i2u8661
  4070  00031C  EF92  F001         	goto	i2u8660
  4071  000320                     i2u8661:
  4072  000320  EF9C  F001         	goto	i2l1145
  4073  000324                     i2u8660:
  4074                           	line	1111
  4075                           ;main.c: 1111: new_note = 0x00;
  4076  000324  0101               	movlb	1	; () banked
  4077  000326  6F18               	movwf	(??_getNote+1+0)&0ffh
  4078  000328  0E00               	movlw	low(0)
  4079  00032A  0101               	movlb	1	; () banked
  4080  00032C  0101               	movlb	1	; () banked
  4081  00032E  6F17               	movwf	((getNote@new_note))&0ffh
  4082  000330  0101               	movlb	1	; () banked
  4083  000332  5118               	movf	(??_getNote+1+0)&0ffh,w
  4084                           	line	1112
  4085                           ;main.c: 1112: } else if (hResult == 0x01) {
  4086  000334  EFDC  F002         	goto	i2l1146
  4087                           	
  4088  000338                     i2l1145:		; BSR set to: ?
  4089                           
  4090  000338  0101               	movlb	1	; () banked
  4091  00033A  0101               	movlb	1	; () banked
  4092  00033C  0515               	decf	((getNote@hResult))&0ffh,w
  4093                           
  4094  00033E  A4D8               	btfss	status,2
  4095  000340  EFA4  F001         	goto	i2u8671
  4096  000344  EFA6  F001         	goto	i2u8670
  4097  000348                     i2u8671:
  4098  000348  EF0A  F002         	goto	i2l1147
  4099  00034C                     i2u8670:
  4100                           	line	1113
  4101                           ;main.c: 1113: if (lResult >= 187 && lResult <= 
                                 213) {
  4102  00034C  0EBA               	movlw	(0BBh-1)
  4103  00034E  0101               	movlb	1	; () banked
  4104  000350  0101               	movlb	1	; () banked
  4105  000352  6516               	cpfsgt	((getNote@lResult))&0ffh
  4106  000354  EFAE  F001         	goto	i2u8681
  4107  000358  EFB0  F001         	goto	i2u8680
  4108  00035C                     i2u8681:
  4109  00035C  EFC4  F001         	goto	i2l1148
  4110  000360                     i2u8680:
  4111  000360  0ED6               	movlw	(0D6h)&0ffh
  4112  000362  0101               	movlb	1	; () banked
  4113  000364  0101               	movlb	1	; () banked
  4114  000366  6116               	cpfslt	((getNote@lResult))&0ffh
  4115  000368  EFB8  F001         	goto	i2u8691
  4116  00036C  EFBA  F001         	goto	i2u8690
  4117  000370                     i2u8691:
  4118  000370  EFC4  F001         	goto	i2l1148
  4119  000374                     i2u8690:
  4120                           	line	1115
  4121                           ;main.c: 1115: new_note = 0x52;
  4122  000374  0101               	movlb	1	; () banked
  4123  000376  6F18               	movwf	(??_getNote+1+0)&0ffh
  4124  000378  0E52               	movlw	low(052h)
  4125  00037A  0101               	movlb	1	; () banked
  4126  00037C  0101               	movlb	1	; () banked
  4127  00037E  6F17               	movwf	((getNote@new_note))&0ffh
  4128  000380  0101               	movlb	1	; () banked
  4129  000382  5118               	movf	(??_getNote+1+0)&0ffh,w
  4130                           	line	1116
  4131                           ;main.c: 1116: } else if (lResult >= 161 && lRes
                                 ult <= 182) {
  4132  000384  EF08  F002         	goto	i2l1149
  4133                           	
  4134  000388                     i2l1148:		; BSR set to: ?
  4135                           
  4136  000388  0EA0               	movlw	(0A1h-1)
  4137  00038A  0101               	movlb	1	; () banked
  4138  00038C  0101               	movlb	1	; () banked
  4139  00038E  6516               	cpfsgt	((getNote@lResult))&0ffh
  4140  000390  EFCC  F001         	goto	i2u8701
  4141  000394  EFCE  F001         	goto	i2u8700
  4142  000398                     i2u8701:
  4143  000398  EFE2  F001         	goto	i2l1150
  4144  00039C                     i2u8700:
  4145  00039C  0EB7               	movlw	(0B7h)&0ffh
  4146  00039E  0101               	movlb	1	; () banked
  4147  0003A0  0101               	movlb	1	; () banked
  4148  0003A2  6116               	cpfslt	((getNote@lResult))&0ffh
  4149  0003A4  EFD6  F001         	goto	i2u8711
  4150  0003A8  EFD8  F001         	goto	i2u8710
  4151  0003AC                     i2u8711:
  4152  0003AC  EFE2  F001         	goto	i2l1150
  4153  0003B0                     i2u8710:
  4154                           	line	1118
  4155                           ;main.c: 1118: new_note = 0x42;
  4156  0003B0  0101               	movlb	1	; () banked
  4157  0003B2  6F18               	movwf	(??_getNote+1+0)&0ffh
  4158  0003B4  0E42               	movlw	low(042h)
  4159  0003B6  0101               	movlb	1	; () banked
  4160  0003B8  0101               	movlb	1	; () banked
  4161  0003BA  6F17               	movwf	((getNote@new_note))&0ffh
  4162  0003BC  0101               	movlb	1	; () banked
  4163  0003BE  5118               	movf	(??_getNote+1+0)&0ffh,w
  4164                           	line	1119
  4165                           ;main.c: 1119: } else if (lResult >= 120 && lRes
                                 ult <= 150) {
  4166  0003C0  EF08  F002         	goto	i2l1149
  4167                           	
  4168  0003C4                     i2l1150:		; BSR set to: ?
  4169                           
  4170  0003C4  0E77               	movlw	(078h-1)
  4171  0003C6  0101               	movlb	1	; () banked
  4172  0003C8  0101               	movlb	1	; () banked
  4173  0003CA  6516               	cpfsgt	((getNote@lResult))&0ffh
  4174  0003CC  EFEA  F001         	goto	i2u8721
  4175  0003D0  EFEC  F001         	goto	i2u8720
  4176  0003D4                     i2u8721:
  4177  0003D4  EF00  F002         	goto	i2l1152
  4178  0003D8                     i2u8720:
  4179  0003D8  0E97               	movlw	(097h)&0ffh
  4180  0003DA  0101               	movlb	1	; () banked
  4181  0003DC  0101               	movlb	1	; () banked
  4182  0003DE  6116               	cpfslt	((getNote@lResult))&0ffh
  4183  0003E0  EFF4  F001         	goto	i2u8731
  4184  0003E4  EFF6  F001         	goto	i2u8730
  4185  0003E8                     i2u8731:
  4186  0003E8  EF00  F002         	goto	i2l1152
  4187  0003EC                     i2u8730:
  4188                           	line	1121
  4189                           ;main.c: 1121: new_note = 0x4a;
  4190  0003EC  0101               	movlb	1	; () banked
  4191  0003EE  6F18               	movwf	(??_getNote+1+0)&0ffh
  4192  0003F0  0E4A               	movlw	low(04Ah)
  4193  0003F2  0101               	movlb	1	; () banked
  4194  0003F4  0101               	movlb	1	; () banked
  4195  0003F6  6F17               	movwf	((getNote@new_note))&0ffh
  4196  0003F8  0101               	movlb	1	; () banked
  4197  0003FA  5118               	movf	(??_getNote+1+0)&0ffh,w
  4198                           	line	1122
  4199                           ;main.c: 1122: } else {
  4200  0003FC  EF08  F002         	goto	i2l1149
  4201                           	
  4202  000400                     i2l1152:		; BSR set to: ?
  4203                           
  4204                           	line	1124
  4205                           ;main.c: 1124: new_note = 0x00;
  4206  000400  0101               	movlb	1	; () banked
  4207  000402  6F18               	movwf	(??_getNote+1+0)&0ffh
  4208  000404  0E00               	movlw	low(0)
  4209  000406  0101               	movlb	1	; () banked
  4210  000408  0101               	movlb	1	; () banked
  4211  00040A  6F17               	movwf	((getNote@new_note))&0ffh
  4212  00040C  0101               	movlb	1	; () banked
  4213  00040E  5118               	movf	(??_getNote+1+0)&0ffh,w
  4214                           	line	1125
  4215                           	
  4216  000410                     i2l1153:		; BSR set to: ?
  4217                           
  4218                           	
  4219  000410                     i2l1151:		; BSR set to: ?
  4220                           
  4221                           	
  4222  000410                     i2l1149:		; BSR set to: ?
  4223                           
  4224                           	line	1127
  4225                           ;main.c: 1125: }
  4226                           ;main.c: 1127: } else if (hResult == 0x02) {
  4227  000410  EFDC  F002         	goto	i2l1146
  4228                           	
  4229  000414                     i2l1147:		; BSR set to: ?
  4230                           
  4231  000414  0101               	movlb	1	; () banked
  4232  000416  0101               	movlb	1	; () banked
  4233  000418  5115               	movf	((getNote@hResult))&0ffh,w
  4234  00041A  0A02               	xorlw	2
  4235                           
  4236  00041C  A4D8               	btfss	status,2
  4237  00041E  EF13  F002         	goto	i2u8741
  4238  000422  EF15  F002         	goto	i2u8740
  4239  000426                     i2u8741:
  4240  000426  EF79  F002         	goto	i2l1155
  4241  00042A                     i2u8740:
  4242                           	line	1128
  4243                           ;main.c: 1128: if (lResult >= 206 && lResult <= 
                                 232) {
  4244  00042A  0ECD               	movlw	(0CEh-1)
  4245  00042C  0101               	movlb	1	; () banked
  4246  00042E  0101               	movlb	1	; () banked
  4247  000430  6516               	cpfsgt	((getNote@lResult))&0ffh
  4248  000432  EF1D  F002         	goto	i2u8751
  4249  000436  EF1F  F002         	goto	i2u8750
  4250  00043A                     i2u8751:
  4251  00043A  EF33  F002         	goto	i2l1156
  4252  00043E                     i2u8750:
  4253  00043E  0EE9               	movlw	(0E9h)&0ffh
  4254  000440  0101               	movlb	1	; () banked
  4255  000442  0101               	movlb	1	; () banked
  4256  000444  6116               	cpfslt	((getNote@lResult))&0ffh
  4257  000446  EF27  F002         	goto	i2u8761
  4258  00044A  EF29  F002         	goto	i2u8760
  4259  00044E                     i2u8761:
  4260  00044E  EF33  F002         	goto	i2l1156
  4261  000452                     i2u8760:
  4262                           	line	1130
  4263                           ;main.c: 1130: new_note = 0x32;
  4264  000452  0101               	movlb	1	; () banked
  4265  000454  6F18               	movwf	(??_getNote+1+0)&0ffh
  4266  000456  0E32               	movlw	low(032h)
  4267  000458  0101               	movlb	1	; () banked
  4268  00045A  0101               	movlb	1	; () banked
  4269  00045C  6F17               	movwf	((getNote@new_note))&0ffh
  4270  00045E  0101               	movlb	1	; () banked
  4271  000460  5118               	movf	(??_getNote+1+0)&0ffh,w
  4272                           	line	1131
  4273                           ;main.c: 1131: } else if (lResult >= 165 && lRes
                                 ult <= 238) {
  4274  000462  EF77  F002         	goto	i2l1157
  4275                           	
  4276  000466                     i2l1156:		; BSR set to: ?
  4277                           
  4278  000466  0EA4               	movlw	(0A5h-1)
  4279  000468  0101               	movlb	1	; () banked
  4280  00046A  0101               	movlb	1	; () banked
  4281  00046C  6516               	cpfsgt	((getNote@lResult))&0ffh
  4282  00046E  EF3B  F002         	goto	i2u8771
  4283  000472  EF3D  F002         	goto	i2u8770
  4284  000476                     i2u8771:
  4285  000476  EF51  F002         	goto	i2l1158
  4286  00047A                     i2u8770:
  4287  00047A  0EEF               	movlw	(0EFh)&0ffh
  4288  00047C  0101               	movlb	1	; () banked
  4289  00047E  0101               	movlb	1	; () banked
  4290  000480  6116               	cpfslt	((getNote@lResult))&0ffh
  4291  000482  EF45  F002         	goto	i2u8781
  4292  000486  EF47  F002         	goto	i2u8780
  4293  00048A                     i2u8781:
  4294  00048A  EF51  F002         	goto	i2l1158
  4295  00048E                     i2u8780:
  4296                           	line	1133
  4297                           ;main.c: 1133: new_note = 0x22;
  4298  00048E  0101               	movlb	1	; () banked
  4299  000490  6F18               	movwf	(??_getNote+1+0)&0ffh
  4300  000492  0E22               	movlw	low(022h)
  4301  000494  0101               	movlb	1	; () banked
  4302  000496  0101               	movlb	1	; () banked
  4303  000498  6F17               	movwf	((getNote@new_note))&0ffh
  4304  00049A  0101               	movlb	1	; () banked
  4305  00049C  5118               	movf	(??_getNote+1+0)&0ffh,w
  4306                           	line	1134
  4307                           ;main.c: 1134: } else if (lResult >= 109 && lRes
                                 ult <= 140) {
  4308  00049E  EF77  F002         	goto	i2l1157
  4309                           	
  4310  0004A2                     i2l1158:		; BSR set to: ?
  4311                           
  4312  0004A2  0E6C               	movlw	(06Dh-1)
  4313  0004A4  0101               	movlb	1	; () banked
  4314  0004A6  0101               	movlb	1	; () banked
  4315  0004A8  6516               	cpfsgt	((getNote@lResult))&0ffh
  4316  0004AA  EF59  F002         	goto	i2u8791
  4317  0004AE  EF5B  F002         	goto	i2u8790
  4318  0004B2                     i2u8791:
  4319  0004B2  EF6F  F002         	goto	i2l1160
  4320  0004B6                     i2u8790:
  4321  0004B6  0E8D               	movlw	(08Dh)&0ffh
  4322  0004B8  0101               	movlb	1	; () banked
  4323  0004BA  0101               	movlb	1	; () banked
  4324  0004BC  6116               	cpfslt	((getNote@lResult))&0ffh
  4325  0004BE  EF63  F002         	goto	i2u8801
  4326  0004C2  EF65  F002         	goto	i2u8800
  4327  0004C6                     i2u8801:
  4328  0004C6  EF6F  F002         	goto	i2l1160
  4329  0004CA                     i2u8800:
  4330                           	line	1136
  4331                           ;main.c: 1136: new_note = 0x2a;
  4332  0004CA  0101               	movlb	1	; () banked
  4333  0004CC  6F18               	movwf	(??_getNote+1+0)&0ffh
  4334  0004CE  0E2A               	movlw	low(02Ah)
  4335  0004D0  0101               	movlb	1	; () banked
  4336  0004D2  0101               	movlb	1	; () banked
  4337  0004D4  6F17               	movwf	((getNote@new_note))&0ffh
  4338  0004D6  0101               	movlb	1	; () banked
  4339  0004D8  5118               	movf	(??_getNote+1+0)&0ffh,w
  4340                           	line	1137
  4341                           ;main.c: 1137: } else {
  4342  0004DA  EF77  F002         	goto	i2l1157
  4343                           	
  4344  0004DE                     i2l1160:		; BSR set to: ?
  4345                           
  4346                           	line	1139
  4347                           ;main.c: 1139: new_note = 0x00;
  4348  0004DE  0101               	movlb	1	; () banked
  4349  0004E0  6F18               	movwf	(??_getNote+1+0)&0ffh
  4350  0004E2  0E00               	movlw	low(0)
  4351  0004E4  0101               	movlb	1	; () banked
  4352  0004E6  0101               	movlb	1	; () banked
  4353  0004E8  6F17               	movwf	((getNote@new_note))&0ffh
  4354  0004EA  0101               	movlb	1	; () banked
  4355  0004EC  5118               	movf	(??_getNote+1+0)&0ffh,w
  4356                           	line	1140
  4357                           	
  4358  0004EE                     i2l1161:		; BSR set to: ?
  4359                           
  4360                           	
  4361  0004EE                     i2l1159:		; BSR set to: ?
  4362                           
  4363                           	
  4364  0004EE                     i2l1157:		; BSR set to: ?
  4365                           
  4366                           	line	1142
  4367                           ;main.c: 1140: }
  4368                           ;main.c: 1142: } else if (hResult == 0x03) {
  4369  0004EE  EFDC  F002         	goto	i2l1146
  4370                           	
  4371  0004F2                     i2l1155:		; BSR set to: ?
  4372                           
  4373  0004F2  0101               	movlb	1	; () banked
  4374  0004F4  0101               	movlb	1	; () banked
  4375  0004F6  5115               	movf	((getNote@hResult))&0ffh,w
  4376  0004F8  0A03               	xorlw	3
  4377                           
  4378  0004FA  A4D8               	btfss	status,2
  4379  0004FC  EF82  F002         	goto	i2u8811
  4380  000500  EF84  F002         	goto	i2u8810
  4381  000504                     i2u8811:
  4382  000504  EFDC  F002         	goto	i2l1146
  4383  000508                     i2u8810:
  4384                           	line	1143
  4385                           ;main.c: 1143: if (lResult >= 0 && lResult <= 17
                                 4) {
  4386  000508  0EAF               	movlw	(0AFh)&0ffh
  4387  00050A  0101               	movlb	1	; () banked
  4388  00050C  0101               	movlb	1	; () banked
  4389  00050E  6116               	cpfslt	((getNote@lResult))&0ffh
  4390  000510  EF8C  F002         	goto	i2u8821
  4391  000514  EF8E  F002         	goto	i2u8820
  4392  000518                     i2u8821:
  4393  000518  EF98  F002         	goto	i2l1164
  4394  00051C                     i2u8820:
  4395                           	line	1145
  4396                           ;main.c: 1145: new_note = 0x12;
  4397  00051C  0101               	movlb	1	; () banked
  4398  00051E  6F18               	movwf	(??_getNote+1+0)&0ffh
  4399  000520  0E12               	movlw	low(012h)
  4400  000522  0101               	movlb	1	; () banked
  4401  000524  0101               	movlb	1	; () banked
  4402  000526  6F17               	movwf	((getNote@new_note))&0ffh
  4403  000528  0101               	movlb	1	; () banked
  4404  00052A  5118               	movf	(??_getNote+1+0)&0ffh,w
  4405                           	line	1146
  4406                           ;main.c: 1146: } else if (lResult >= 193 && lRes
                                 ult <= 210) {
  4407  00052C  EFDC  F002         	goto	i2l1146
  4408                           	
  4409  000530                     i2l1164:		; BSR set to: ?
  4410                           
  4411  000530  0EC0               	movlw	(0C1h-1)
  4412  000532  0101               	movlb	1	; () banked
  4413  000534  0101               	movlb	1	; () banked
  4414  000536  6516               	cpfsgt	((getNote@lResult))&0ffh
  4415  000538  EFA0  F002         	goto	i2u8831
  4416  00053C  EFA2  F002         	goto	i2u8830
  4417  000540                     i2u8831:
  4418  000540  EFB6  F002         	goto	i2l1166
  4419  000544                     i2u8830:
  4420  000544  0ED3               	movlw	(0D3h)&0ffh
  4421  000546  0101               	movlb	1	; () banked
  4422  000548  0101               	movlb	1	; () banked
  4423  00054A  6116               	cpfslt	((getNote@lResult))&0ffh
  4424  00054C  EFAA  F002         	goto	i2u8841
  4425  000550  EFAC  F002         	goto	i2u8840
  4426  000554                     i2u8841:
  4427  000554  EFB6  F002         	goto	i2l1166
  4428  000558                     i2u8840:
  4429                           	line	1148
  4430                           ;main.c: 1148: new_note = 0x02;
  4431  000558  0101               	movlb	1	; () banked
  4432  00055A  6F18               	movwf	(??_getNote+1+0)&0ffh
  4433  00055C  0E02               	movlw	low(02h)
  4434  00055E  0101               	movlb	1	; () banked
  4435  000560  0101               	movlb	1	; () banked
  4436  000562  6F17               	movwf	((getNote@new_note))&0ffh
  4437  000564  0101               	movlb	1	; () banked
  4438  000566  5118               	movf	(??_getNote+1+0)&0ffh,w
  4439                           	line	1149
  4440                           ;main.c: 1149: } else if (lResult >= 221 && lRes
                                 ult <= 229) {
  4441  000568  EFDC  F002         	goto	i2l1146
  4442                           	
  4443  00056C                     i2l1166:		; BSR set to: ?
  4444                           
  4445  00056C  0EDC               	movlw	(0DDh-1)
  4446  00056E  0101               	movlb	1	; () banked
  4447  000570  0101               	movlb	1	; () banked
  4448  000572  6516               	cpfsgt	((getNote@lResult))&0ffh
  4449  000574  EFBE  F002         	goto	i2u8851
  4450  000578  EFC0  F002         	goto	i2u8850
  4451  00057C                     i2u8851:
  4452  00057C  EFD4  F002         	goto	i2l1168
  4453  000580                     i2u8850:
  4454  000580  0EE6               	movlw	(0E6h)&0ffh
  4455  000582  0101               	movlb	1	; () banked
  4456  000584  0101               	movlb	1	; () banked
  4457  000586  6116               	cpfslt	((getNote@lResult))&0ffh
  4458  000588  EFC8  F002         	goto	i2u8861
  4459  00058C  EFCA  F002         	goto	i2u8860
  4460  000590                     i2u8861:
  4461  000590  EFD4  F002         	goto	i2l1168
  4462  000594                     i2u8860:
  4463                           	line	1151
  4464                           ;main.c: 1151: new_note = 0x0a;
  4465  000594  0101               	movlb	1	; () banked
  4466  000596  6F18               	movwf	(??_getNote+1+0)&0ffh
  4467  000598  0E0A               	movlw	low(0Ah)
  4468  00059A  0101               	movlb	1	; () banked
  4469  00059C  0101               	movlb	1	; () banked
  4470  00059E  6F17               	movwf	((getNote@new_note))&0ffh
  4471  0005A0  0101               	movlb	1	; () banked
  4472  0005A2  5118               	movf	(??_getNote+1+0)&0ffh,w
  4473                           	line	1152
  4474                           ;main.c: 1152: } else {
  4475  0005A4  EFDC  F002         	goto	i2l1146
  4476                           	
  4477  0005A8                     i2l1168:		; BSR set to: ?
  4478                           
  4479                           	line	1154
  4480                           ;main.c: 1154: new_note = 0x00;
  4481  0005A8  0101               	movlb	1	; () banked
  4482  0005AA  6F18               	movwf	(??_getNote+1+0)&0ffh
  4483  0005AC  0E00               	movlw	low(0)
  4484  0005AE  0101               	movlb	1	; () banked
  4485  0005B0  0101               	movlb	1	; () banked
  4486  0005B2  6F17               	movwf	((getNote@new_note))&0ffh
  4487  0005B4  0101               	movlb	1	; () banked
  4488  0005B6  5118               	movf	(??_getNote+1+0)&0ffh,w
  4489                           	line	1155
  4490                           	
  4491  0005B8                     i2l1169:		; BSR set to: ?
  4492                           
  4493                           	
  4494  0005B8                     i2l1167:		; BSR set to: ?
  4495                           
  4496                           	
  4497  0005B8                     i2l1165:		; BSR set to: ?
  4498                           
  4499                           	line	1156
  4500                           	
  4501  0005B8                     i2l1163:		; BSR set to: ?
  4502                           
  4503                           	line	1158
  4504                           	
  4505  0005B8                     i2l1162:		; BSR set to: ?
  4506                           
  4507                           	
  4508  0005B8                     i2l1154:		; BSR set to: ?
  4509                           
  4510                           	
  4511  0005B8                     i2l1146:		; BSR set to: ?
  4512                           
  4513                           ;main.c: 1155: }
  4514                           ;main.c: 1156: }
  4515                           ;main.c: 1158: } else if (adc_num == 2) {
  4516  0005B8  EFC6  F009         	goto	i2l1143
  4517                           	
  4518  0005BC                     i2l1144:		; BSR set to: ?
  4519                           
  4520  0005BC  5002               	movf	((c:2)),c,w	;volatile
  4521  0005BE  0A02               	xorlw	2
  4522                           
  4523  0005C0  A4D8               	btfss	status,2
  4524  0005C2  EFE5  F002         	goto	i2u8871
  4525  0005C6  EFE7  F002         	goto	i2u8870
  4526  0005CA                     i2u8871:
  4527  0005CA  EF46  F004         	goto	i2l1171
  4528  0005CE                     i2u8870:
  4529                           	line	1159
  4530                           ;main.c: 1159: if (hResult == 0x00) {
  4531  0005CE  0101               	movlb	1	; () banked
  4532  0005D0  0101               	movlb	1	; () banked
  4533  0005D2  6715               	tstfsz	((getNote@hResult))&0ffh
  4534  0005D4  EFEE  F002         	goto	i2u8881
  4535  0005D8  EFF0  F002         	goto	i2u8880
  4536  0005DC                     i2u8881:
  4537  0005DC  EFFA  F002         	goto	i2l1172
  4538  0005E0                     i2u8880:
  4539                           	line	1161
  4540                           ;main.c: 1161: new_note = 0x00;
  4541  0005E0  0101               	movlb	1	; () banked
  4542  0005E2  6F18               	movwf	(??_getNote+1+0)&0ffh
  4543  0005E4  0E00               	movlw	low(0)
  4544  0005E6  0101               	movlb	1	; () banked
  4545  0005E8  0101               	movlb	1	; () banked
  4546  0005EA  6F17               	movwf	((getNote@new_note))&0ffh
  4547  0005EC  0101               	movlb	1	; () banked
  4548  0005EE  5118               	movf	(??_getNote+1+0)&0ffh,w
  4549                           	line	1162
  4550                           ;main.c: 1162: } else if (hResult == 0x01) {
  4551  0005F0  EF44  F004         	goto	i2l1173
  4552                           	
  4553  0005F4                     i2l1172:		; BSR set to: ?
  4554                           
  4555  0005F4  0101               	movlb	1	; () banked
  4556  0005F6  0101               	movlb	1	; () banked
  4557  0005F8  0515               	decf	((getNote@hResult))&0ffh,w
  4558                           
  4559  0005FA  A4D8               	btfss	status,2
  4560  0005FC  EF02  F003         	goto	i2u8891
  4561  000600  EF04  F003         	goto	i2u8890
  4562  000604                     i2u8891:
  4563  000604  EF68  F003         	goto	i2l1174
  4564  000608                     i2u8890:
  4565                           	line	1163
  4566                           ;main.c: 1163: if (lResult >= 218 && lResult <= 
                                 242) {
  4567  000608  0ED9               	movlw	(0DAh-1)
  4568  00060A  0101               	movlb	1	; () banked
  4569  00060C  0101               	movlb	1	; () banked
  4570  00060E  6516               	cpfsgt	((getNote@lResult))&0ffh
  4571  000610  EF0C  F003         	goto	i2u8901
  4572  000614  EF0E  F003         	goto	i2u8900
  4573  000618                     i2u8901:
  4574  000618  EF22  F003         	goto	i2l1175
  4575  00061C                     i2u8900:
  4576  00061C  0EF3               	movlw	(0F3h)&0ffh
  4577  00061E  0101               	movlb	1	; () banked
  4578  000620  0101               	movlb	1	; () banked
  4579  000622  6116               	cpfslt	((getNote@lResult))&0ffh
  4580  000624  EF16  F003         	goto	i2u8911
  4581  000628  EF18  F003         	goto	i2u8910
  4582  00062C                     i2u8911:
  4583  00062C  EF22  F003         	goto	i2l1175
  4584  000630                     i2u8910:
  4585                           	line	1165
  4586                           ;main.c: 1165: new_note = 0x53;
  4587  000630  0101               	movlb	1	; () banked
  4588  000632  6F18               	movwf	(??_getNote+1+0)&0ffh
  4589  000634  0E53               	movlw	low(053h)
  4590  000636  0101               	movlb	1	; () banked
  4591  000638  0101               	movlb	1	; () banked
  4592  00063A  6F17               	movwf	((getNote@new_note))&0ffh
  4593  00063C  0101               	movlb	1	; () banked
  4594  00063E  5118               	movf	(??_getNote+1+0)&0ffh,w
  4595                           	line	1166
  4596                           ;main.c: 1166: } else if (lResult >= 167 && lRes
                                 ult <= 200) {
  4597  000640  EF66  F003         	goto	i2l1176
  4598                           	
  4599  000644                     i2l1175:		; BSR set to: ?
  4600                           
  4601  000644  0EA6               	movlw	(0A7h-1)
  4602  000646  0101               	movlb	1	; () banked
  4603  000648  0101               	movlb	1	; () banked
  4604  00064A  6516               	cpfsgt	((getNote@lResult))&0ffh
  4605  00064C  EF2A  F003         	goto	i2u8921
  4606  000650  EF2C  F003         	goto	i2u8920
  4607  000654                     i2u8921:
  4608  000654  EF40  F003         	goto	i2l1177
  4609  000658                     i2u8920:
  4610  000658  0EC9               	movlw	(0C9h)&0ffh
  4611  00065A  0101               	movlb	1	; () banked
  4612  00065C  0101               	movlb	1	; () banked
  4613  00065E  6116               	cpfslt	((getNote@lResult))&0ffh
  4614  000660  EF34  F003         	goto	i2u8931
  4615  000664  EF36  F003         	goto	i2u8930
  4616  000668                     i2u8931:
  4617  000668  EF40  F003         	goto	i2l1177
  4618  00066C                     i2u8930:
  4619                           	line	1168
  4620                           ;main.c: 1168: new_note = 0x43;
  4621  00066C  0101               	movlb	1	; () banked
  4622  00066E  6F18               	movwf	(??_getNote+1+0)&0ffh
  4623  000670  0E43               	movlw	low(043h)
  4624  000672  0101               	movlb	1	; () banked
  4625  000674  0101               	movlb	1	; () banked
  4626  000676  6F17               	movwf	((getNote@new_note))&0ffh
  4627  000678  0101               	movlb	1	; () banked
  4628  00067A  5118               	movf	(??_getNote+1+0)&0ffh,w
  4629                           	line	1169
  4630                           ;main.c: 1169: } else if (lResult >= 38 && lResu
                                 lt <= 160) {
  4631  00067C  EF66  F003         	goto	i2l1176
  4632                           	
  4633  000680                     i2l1177:		; BSR set to: ?
  4634                           
  4635  000680  0E25               	movlw	(026h-1)
  4636  000682  0101               	movlb	1	; () banked
  4637  000684  0101               	movlb	1	; () banked
  4638  000686  6516               	cpfsgt	((getNote@lResult))&0ffh
  4639  000688  EF48  F003         	goto	i2u8941
  4640  00068C  EF4A  F003         	goto	i2u8940
  4641  000690                     i2u8941:
  4642  000690  EF5E  F003         	goto	i2l1179
  4643  000694                     i2u8940:
  4644  000694  0EA1               	movlw	(0A1h)&0ffh
  4645  000696  0101               	movlb	1	; () banked
  4646  000698  0101               	movlb	1	; () banked
  4647  00069A  6116               	cpfslt	((getNote@lResult))&0ffh
  4648  00069C  EF52  F003         	goto	i2u8951
  4649  0006A0  EF54  F003         	goto	i2u8950
  4650  0006A4                     i2u8951:
  4651  0006A4  EF5E  F003         	goto	i2l1179
  4652  0006A8                     i2u8950:
  4653                           	line	1171
  4654                           ;main.c: 1171: new_note = 0x4b;
  4655  0006A8  0101               	movlb	1	; () banked
  4656  0006AA  6F18               	movwf	(??_getNote+1+0)&0ffh
  4657  0006AC  0E4B               	movlw	low(04Bh)
  4658  0006AE  0101               	movlb	1	; () banked
  4659  0006B0  0101               	movlb	1	; () banked
  4660  0006B2  6F17               	movwf	((getNote@new_note))&0ffh
  4661  0006B4  0101               	movlb	1	; () banked
  4662  0006B6  5118               	movf	(??_getNote+1+0)&0ffh,w
  4663                           	line	1172
  4664                           ;main.c: 1172: } else {
  4665  0006B8  EF66  F003         	goto	i2l1176
  4666                           	
  4667  0006BC                     i2l1179:		; BSR set to: ?
  4668                           
  4669                           	line	1174
  4670                           ;main.c: 1174: new_note = 0x00;
  4671  0006BC  0101               	movlb	1	; () banked
  4672  0006BE  6F18               	movwf	(??_getNote+1+0)&0ffh
  4673  0006C0  0E00               	movlw	low(0)
  4674  0006C2  0101               	movlb	1	; () banked
  4675  0006C4  0101               	movlb	1	; () banked
  4676  0006C6  6F17               	movwf	((getNote@new_note))&0ffh
  4677  0006C8  0101               	movlb	1	; () banked
  4678  0006CA  5118               	movf	(??_getNote+1+0)&0ffh,w
  4679                           	line	1175
  4680                           	
  4681  0006CC                     i2l1180:		; BSR set to: ?
  4682                           
  4683                           	
  4684  0006CC                     i2l1178:		; BSR set to: ?
  4685                           
  4686                           	
  4687  0006CC                     i2l1176:		; BSR set to: ?
  4688                           
  4689                           	line	1177
  4690                           ;main.c: 1175: }
  4691                           ;main.c: 1177: } else if (hResult == 0x02) {
  4692  0006CC  EF44  F004         	goto	i2l1173
  4693                           	
  4694  0006D0                     i2l1174:		; BSR set to: ?
  4695                           
  4696  0006D0  0101               	movlb	1	; () banked
  4697  0006D2  0101               	movlb	1	; () banked
  4698  0006D4  5115               	movf	((getNote@hResult))&0ffh,w
  4699  0006D6  0A02               	xorlw	2
  4700                           
  4701  0006D8  A4D8               	btfss	status,2
  4702  0006DA  EF71  F003         	goto	i2u8961
  4703  0006DE  EF73  F003         	goto	i2u8960
  4704  0006E2                     i2u8961:
  4705  0006E2  EFD7  F003         	goto	i2l1182
  4706  0006E6                     i2u8960:
  4707                           	line	1178
  4708                           ;main.c: 1178: if (lResult >= 201 && lResult <= 
                                 235) {
  4709  0006E6  0EC8               	movlw	(0C9h-1)
  4710  0006E8  0101               	movlb	1	; () banked
  4711  0006EA  0101               	movlb	1	; () banked
  4712  0006EC  6516               	cpfsgt	((getNote@lResult))&0ffh
  4713  0006EE  EF7B  F003         	goto	i2u8971
  4714  0006F2  EF7D  F003         	goto	i2u8970
  4715  0006F6                     i2u8971:
  4716  0006F6  EF91  F003         	goto	i2l1183
  4717  0006FA                     i2u8970:
  4718  0006FA  0EEC               	movlw	(0ECh)&0ffh
  4719  0006FC  0101               	movlb	1	; () banked
  4720  0006FE  0101               	movlb	1	; () banked
  4721  000700  6116               	cpfslt	((getNote@lResult))&0ffh
  4722  000702  EF85  F003         	goto	i2u8981
  4723  000706  EF87  F003         	goto	i2u8980
  4724  00070A                     i2u8981:
  4725  00070A  EF91  F003         	goto	i2l1183
  4726  00070E                     i2u8980:
  4727                           	line	1180
  4728                           ;main.c: 1180: new_note = 0x33;
  4729  00070E  0101               	movlb	1	; () banked
  4730  000710  6F18               	movwf	(??_getNote+1+0)&0ffh
  4731  000712  0E33               	movlw	low(033h)
  4732  000714  0101               	movlb	1	; () banked
  4733  000716  0101               	movlb	1	; () banked
  4734  000718  6F17               	movwf	((getNote@new_note))&0ffh
  4735  00071A  0101               	movlb	1	; () banked
  4736  00071C  5118               	movf	(??_getNote+1+0)&0ffh,w
  4737                           	line	1181
  4738                           ;main.c: 1181: } else if (lResult >= 124 && lRes
                                 ult <= 183) {
  4739  00071E  EFD5  F003         	goto	i2l1184
  4740                           	
  4741  000722                     i2l1183:		; BSR set to: ?
  4742                           
  4743  000722  0E7B               	movlw	(07Ch-1)
  4744  000724  0101               	movlb	1	; () banked
  4745  000726  0101               	movlb	1	; () banked
  4746  000728  6516               	cpfsgt	((getNote@lResult))&0ffh
  4747  00072A  EF99  F003         	goto	i2u8991
  4748  00072E  EF9B  F003         	goto	i2u8990
  4749  000732                     i2u8991:
  4750  000732  EFAF  F003         	goto	i2l1185
  4751  000736                     i2u8990:
  4752  000736  0EB8               	movlw	(0B8h)&0ffh
  4753  000738  0101               	movlb	1	; () banked
  4754  00073A  0101               	movlb	1	; () banked
  4755  00073C  6116               	cpfslt	((getNote@lResult))&0ffh
  4756  00073E  EFA3  F003         	goto	i2u9001
  4757  000742  EFA5  F003         	goto	i2u9000
  4758  000746                     i2u9001:
  4759  000746  EFAF  F003         	goto	i2l1185
  4760  00074A                     i2u9000:
  4761                           	line	1183
  4762                           ;main.c: 1183: new_note = 0x23;
  4763  00074A  0101               	movlb	1	; () banked
  4764  00074C  6F18               	movwf	(??_getNote+1+0)&0ffh
  4765  00074E  0E23               	movlw	low(023h)
  4766  000750  0101               	movlb	1	; () banked
  4767  000752  0101               	movlb	1	; () banked
  4768  000754  6F17               	movwf	((getNote@new_note))&0ffh
  4769  000756  0101               	movlb	1	; () banked
  4770  000758  5118               	movf	(??_getNote+1+0)&0ffh,w
  4771                           	line	1184
  4772                           ;main.c: 1184: } else if (lResult >= 70 && lResu
                                 lt <= 110) {
  4773  00075A  EFD5  F003         	goto	i2l1184
  4774                           	
  4775  00075E                     i2l1185:		; BSR set to: ?
  4776                           
  4777  00075E  0E45               	movlw	(046h-1)
  4778  000760  0101               	movlb	1	; () banked
  4779  000762  0101               	movlb	1	; () banked
  4780  000764  6516               	cpfsgt	((getNote@lResult))&0ffh
  4781  000766  EFB7  F003         	goto	i2u9011
  4782  00076A  EFB9  F003         	goto	i2u9010
  4783  00076E                     i2u9011:
  4784  00076E  EFCD  F003         	goto	i2l1187
  4785  000772                     i2u9010:
  4786  000772  0E6F               	movlw	(06Fh)&0ffh
  4787  000774  0101               	movlb	1	; () banked
  4788  000776  0101               	movlb	1	; () banked
  4789  000778  6116               	cpfslt	((getNote@lResult))&0ffh
  4790  00077A  EFC1  F003         	goto	i2u9021
  4791  00077E  EFC3  F003         	goto	i2u9020
  4792  000782                     i2u9021:
  4793  000782  EFCD  F003         	goto	i2l1187
  4794  000786                     i2u9020:
  4795                           	line	1186
  4796                           ;main.c: 1186: new_note = 0x2b;
  4797  000786  0101               	movlb	1	; () banked
  4798  000788  6F18               	movwf	(??_getNote+1+0)&0ffh
  4799  00078A  0E2B               	movlw	low(02Bh)
  4800  00078C  0101               	movlb	1	; () banked
  4801  00078E  0101               	movlb	1	; () banked
  4802  000790  6F17               	movwf	((getNote@new_note))&0ffh
  4803  000792  0101               	movlb	1	; () banked
  4804  000794  5118               	movf	(??_getNote+1+0)&0ffh,w
  4805                           	line	1187
  4806                           ;main.c: 1187: } else {
  4807  000796  EFD5  F003         	goto	i2l1184
  4808                           	
  4809  00079A                     i2l1187:		; BSR set to: ?
  4810                           
  4811                           	line	1189
  4812                           ;main.c: 1189: new_note = 0x00;
  4813  00079A  0101               	movlb	1	; () banked
  4814  00079C  6F18               	movwf	(??_getNote+1+0)&0ffh
  4815  00079E  0E00               	movlw	low(0)
  4816  0007A0  0101               	movlb	1	; () banked
  4817  0007A2  0101               	movlb	1	; () banked
  4818  0007A4  6F17               	movwf	((getNote@new_note))&0ffh
  4819  0007A6  0101               	movlb	1	; () banked
  4820  0007A8  5118               	movf	(??_getNote+1+0)&0ffh,w
  4821                           	line	1190
  4822                           	
  4823  0007AA                     i2l1188:		; BSR set to: ?
  4824                           
  4825                           	
  4826  0007AA                     i2l1186:		; BSR set to: ?
  4827                           
  4828                           	
  4829  0007AA                     i2l1184:		; BSR set to: ?
  4830                           
  4831                           	line	1192
  4832                           ;main.c: 1190: }
  4833                           ;main.c: 1192: } else if (hResult == 0x03) {
  4834  0007AA  EF44  F004         	goto	i2l1173
  4835                           	
  4836  0007AE                     i2l1182:		; BSR set to: ?
  4837                           
  4838  0007AE  0101               	movlb	1	; () banked
  4839  0007B0  0101               	movlb	1	; () banked
  4840  0007B2  5115               	movf	((getNote@hResult))&0ffh,w
  4841  0007B4  0A03               	xorlw	3
  4842                           
  4843  0007B6  A4D8               	btfss	status,2
  4844  0007B8  EFE0  F003         	goto	i2u9031
  4845  0007BC  EFE2  F003         	goto	i2u9030
  4846  0007C0                     i2u9031:
  4847  0007C0  EF44  F004         	goto	i2l1173
  4848  0007C4                     i2u9030:
  4849                           	line	1193
  4850                           ;main.c: 1193: if (lResult >= 60 && lResult <= 8
                                 7) {
  4851  0007C4  0E3B               	movlw	(03Ch-1)
  4852  0007C6  0101               	movlb	1	; () banked
  4853  0007C8  0101               	movlb	1	; () banked
  4854  0007CA  6516               	cpfsgt	((getNote@lResult))&0ffh
  4855  0007CC  EFEA  F003         	goto	i2u9041
  4856  0007D0  EFEC  F003         	goto	i2u9040
  4857  0007D4                     i2u9041:
  4858  0007D4  EF00  F004         	goto	i2l1191
  4859  0007D8                     i2u9040:
  4860  0007D8  0E58               	movlw	(058h)&0ffh
  4861  0007DA  0101               	movlb	1	; () banked
  4862  0007DC  0101               	movlb	1	; () banked
  4863  0007DE  6116               	cpfslt	((getNote@lResult))&0ffh
  4864  0007E0  EFF4  F003         	goto	i2u9051
  4865  0007E4  EFF6  F003         	goto	i2u9050
  4866  0007E8                     i2u9051:
  4867  0007E8  EF00  F004         	goto	i2l1191
  4868  0007EC                     i2u9050:
  4869                           	line	1195
  4870                           ;main.c: 1195: new_note = 0x13;
  4871  0007EC  0101               	movlb	1	; () banked
  4872  0007EE  6F18               	movwf	(??_getNote+1+0)&0ffh
  4873  0007F0  0E13               	movlw	low(013h)
  4874  0007F2  0101               	movlb	1	; () banked
  4875  0007F4  0101               	movlb	1	; () banked
  4876  0007F6  6F17               	movwf	((getNote@new_note))&0ffh
  4877  0007F8  0101               	movlb	1	; () banked
  4878  0007FA  5118               	movf	(??_getNote+1+0)&0ffh,w
  4879                           	line	1196
  4880                           ;main.c: 1196: } else if (lResult >= 138 && lRes
                                 ult <= 200) {
  4881  0007FC  EF44  F004         	goto	i2l1173
  4882                           	
  4883  000800                     i2l1191:		; BSR set to: ?
  4884                           
  4885  000800  0E89               	movlw	(08Ah-1)
  4886  000802  0101               	movlb	1	; () banked
  4887  000804  0101               	movlb	1	; () banked
  4888  000806  6516               	cpfsgt	((getNote@lResult))&0ffh
  4889  000808  EF08  F004         	goto	i2u9061
  4890  00080C  EF0A  F004         	goto	i2u9060
  4891  000810                     i2u9061:
  4892  000810  EF1E  F004         	goto	i2l1193
  4893  000814                     i2u9060:
  4894  000814  0EC9               	movlw	(0C9h)&0ffh
  4895  000816  0101               	movlb	1	; () banked
  4896  000818  0101               	movlb	1	; () banked
  4897  00081A  6116               	cpfslt	((getNote@lResult))&0ffh
  4898  00081C  EF12  F004         	goto	i2u9071
  4899  000820  EF14  F004         	goto	i2u9070
  4900  000824                     i2u9071:
  4901  000824  EF1E  F004         	goto	i2l1193
  4902  000828                     i2u9070:
  4903                           	line	1198
  4904                           ;main.c: 1198: new_note = 0x03;
  4905  000828  0101               	movlb	1	; () banked
  4906  00082A  6F18               	movwf	(??_getNote+1+0)&0ffh
  4907  00082C  0E03               	movlw	low(03h)
  4908  00082E  0101               	movlb	1	; () banked
  4909  000830  0101               	movlb	1	; () banked
  4910  000832  6F17               	movwf	((getNote@new_note))&0ffh
  4911  000834  0101               	movlb	1	; () banked
  4912  000836  5118               	movf	(??_getNote+1+0)&0ffh,w
  4913                           	line	1199
  4914                           ;main.c: 1199: } else if (lResult >= 212 && lRes
                                 ult <= 232) {
  4915  000838  EF44  F004         	goto	i2l1173
  4916                           	
  4917  00083C                     i2l1193:		; BSR set to: ?
  4918                           
  4919  00083C  0ED3               	movlw	(0D4h-1)
  4920  00083E  0101               	movlb	1	; () banked
  4921  000840  0101               	movlb	1	; () banked
  4922  000842  6516               	cpfsgt	((getNote@lResult))&0ffh
  4923  000844  EF26  F004         	goto	i2u9081
  4924  000848  EF28  F004         	goto	i2u9080
  4925  00084C                     i2u9081:
  4926  00084C  EF3C  F004         	goto	i2l1195
  4927  000850                     i2u9080:
  4928  000850  0EE9               	movlw	(0E9h)&0ffh
  4929  000852  0101               	movlb	1	; () banked
  4930  000854  0101               	movlb	1	; () banked
  4931  000856  6116               	cpfslt	((getNote@lResult))&0ffh
  4932  000858  EF30  F004         	goto	i2u9091
  4933  00085C  EF32  F004         	goto	i2u9090
  4934  000860                     i2u9091:
  4935  000860  EF3C  F004         	goto	i2l1195
  4936  000864                     i2u9090:
  4937                           	line	1201
  4938                           ;main.c: 1201: new_note = 0x0b;
  4939  000864  0101               	movlb	1	; () banked
  4940  000866  6F18               	movwf	(??_getNote+1+0)&0ffh
  4941  000868  0E0B               	movlw	low(0Bh)
  4942  00086A  0101               	movlb	1	; () banked
  4943  00086C  0101               	movlb	1	; () banked
  4944  00086E  6F17               	movwf	((getNote@new_note))&0ffh
  4945  000870  0101               	movlb	1	; () banked
  4946  000872  5118               	movf	(??_getNote+1+0)&0ffh,w
  4947                           	line	1202
  4948                           ;main.c: 1202: } else {
  4949  000874  EF44  F004         	goto	i2l1173
  4950                           	
  4951  000878                     i2l1195:		; BSR set to: ?
  4952                           
  4953                           	line	1204
  4954                           ;main.c: 1204: new_note = 0x00;
  4955  000878  0101               	movlb	1	; () banked
  4956  00087A  6F18               	movwf	(??_getNote+1+0)&0ffh
  4957  00087C  0E00               	movlw	low(0)
  4958  00087E  0101               	movlb	1	; () banked
  4959  000880  0101               	movlb	1	; () banked
  4960  000882  6F17               	movwf	((getNote@new_note))&0ffh
  4961  000884  0101               	movlb	1	; () banked
  4962  000886  5118               	movf	(??_getNote+1+0)&0ffh,w
  4963                           	line	1205
  4964                           	
  4965  000888                     i2l1196:		; BSR set to: ?
  4966                           
  4967                           	
  4968  000888                     i2l1194:		; BSR set to: ?
  4969                           
  4970                           	
  4971  000888                     i2l1192:		; BSR set to: ?
  4972                           
  4973                           	line	1206
  4974                           	
  4975  000888                     i2l1190:		; BSR set to: ?
  4976                           
  4977                           	line	1208
  4978                           	
  4979  000888                     i2l1189:		; BSR set to: ?
  4980                           
  4981                           	
  4982  000888                     i2l1181:		; BSR set to: ?
  4983                           
  4984                           	
  4985  000888                     i2l1173:		; BSR set to: ?
  4986                           
  4987                           ;main.c: 1205: }
  4988                           ;main.c: 1206: }
  4989                           ;main.c: 1208: } else if (adc_num == 3) {
  4990  000888  EFC6  F009         	goto	i2l1143
  4991                           	
  4992  00088C                     i2l1171:		; BSR set to: ?
  4993                           
  4994  00088C  5002               	movf	((c:2)),c,w	;volatile
  4995  00088E  0A03               	xorlw	3
  4996                           
  4997  000890  A4D8               	btfss	status,2
  4998  000892  EF4D  F004         	goto	i2u9101
  4999  000896  EF4F  F004         	goto	i2u9100
  5000  00089A                     i2u9101:
  5001  00089A  EFA4  F005         	goto	i2l1198
  5002  00089E                     i2u9100:
  5003                           	line	1209
  5004                           ;main.c: 1209: if (hResult == 0x00) {
  5005  00089E  0101               	movlb	1	; () banked
  5006  0008A0  0101               	movlb	1	; () banked
  5007  0008A2  6715               	tstfsz	((getNote@hResult))&0ffh
  5008  0008A4  EF56  F004         	goto	i2u9111
  5009  0008A8  EF58  F004         	goto	i2u9110
  5010  0008AC                     i2u9111:
  5011  0008AC  EF62  F004         	goto	i2l1199
  5012  0008B0                     i2u9110:
  5013                           	line	1211
  5014                           ;main.c: 1211: new_note = 0x00;
  5015  0008B0  0101               	movlb	1	; () banked
  5016  0008B2  6F18               	movwf	(??_getNote+1+0)&0ffh
  5017  0008B4  0E00               	movlw	low(0)
  5018  0008B6  0101               	movlb	1	; () banked
  5019  0008B8  0101               	movlb	1	; () banked
  5020  0008BA  6F17               	movwf	((getNote@new_note))&0ffh
  5021  0008BC  0101               	movlb	1	; () banked
  5022  0008BE  5118               	movf	(??_getNote+1+0)&0ffh,w
  5023                           	line	1213
  5024                           ;main.c: 1213: } else if (hResult == 0x01) {
  5025  0008C0  EFA2  F005         	goto	i2l1200
  5026                           	
  5027  0008C4                     i2l1199:		; BSR set to: ?
  5028                           
  5029  0008C4  0101               	movlb	1	; () banked
  5030  0008C6  0101               	movlb	1	; () banked
  5031  0008C8  0515               	decf	((getNote@hResult))&0ffh,w
  5032                           
  5033  0008CA  A4D8               	btfss	status,2
  5034  0008CC  EF6A  F004         	goto	i2u9121
  5035  0008D0  EF6C  F004         	goto	i2u9120
  5036  0008D4                     i2u9121:
  5037  0008D4  EFD0  F004         	goto	i2l1201
  5038  0008D8                     i2u9120:
  5039                           	line	1214
  5040                           ;main.c: 1214: if (lResult >= 200 && lResult <= 
                                 230) {
  5041  0008D8  0EC7               	movlw	(0C8h-1)
  5042  0008DA  0101               	movlb	1	; () banked
  5043  0008DC  0101               	movlb	1	; () banked
  5044  0008DE  6516               	cpfsgt	((getNote@lResult))&0ffh
  5045  0008E0  EF74  F004         	goto	i2u9131
  5046  0008E4  EF76  F004         	goto	i2u9130
  5047  0008E8                     i2u9131:
  5048  0008E8  EF8A  F004         	goto	i2l1202
  5049  0008EC                     i2u9130:
  5050  0008EC  0EE7               	movlw	(0E7h)&0ffh
  5051  0008EE  0101               	movlb	1	; () banked
  5052  0008F0  0101               	movlb	1	; () banked
  5053  0008F2  6116               	cpfslt	((getNote@lResult))&0ffh
  5054  0008F4  EF7E  F004         	goto	i2u9141
  5055  0008F8  EF80  F004         	goto	i2u9140
  5056  0008FC                     i2u9141:
  5057  0008FC  EF8A  F004         	goto	i2l1202
  5058  000900                     i2u9140:
  5059                           	line	1216
  5060                           ;main.c: 1216: new_note = 0x54;
  5061  000900  0101               	movlb	1	; () banked
  5062  000902  6F18               	movwf	(??_getNote+1+0)&0ffh
  5063  000904  0E54               	movlw	low(054h)
  5064  000906  0101               	movlb	1	; () banked
  5065  000908  0101               	movlb	1	; () banked
  5066  00090A  6F17               	movwf	((getNote@new_note))&0ffh
  5067  00090C  0101               	movlb	1	; () banked
  5068  00090E  5118               	movf	(??_getNote+1+0)&0ffh,w
  5069                           	line	1217
  5070                           ;main.c: 1217: } else if (lResult >= 130 && lRes
                                 ult <= 180) {
  5071  000910  EFCE  F004         	goto	i2l1203
  5072                           	
  5073  000914                     i2l1202:		; BSR set to: ?
  5074                           
  5075  000914  0E81               	movlw	(082h-1)
  5076  000916  0101               	movlb	1	; () banked
  5077  000918  0101               	movlb	1	; () banked
  5078  00091A  6516               	cpfsgt	((getNote@lResult))&0ffh
  5079  00091C  EF92  F004         	goto	i2u9151
  5080  000920  EF94  F004         	goto	i2u9150
  5081  000924                     i2u9151:
  5082  000924  EFA8  F004         	goto	i2l1204
  5083  000928                     i2u9150:
  5084  000928  0EB5               	movlw	(0B5h)&0ffh
  5085  00092A  0101               	movlb	1	; () banked
  5086  00092C  0101               	movlb	1	; () banked
  5087  00092E  6116               	cpfslt	((getNote@lResult))&0ffh
  5088  000930  EF9C  F004         	goto	i2u9161
  5089  000934  EF9E  F004         	goto	i2u9160
  5090  000938                     i2u9161:
  5091  000938  EFA8  F004         	goto	i2l1204
  5092  00093C                     i2u9160:
  5093                           	line	1219
  5094                           ;main.c: 1219: new_note = 0x44;
  5095  00093C  0101               	movlb	1	; () banked
  5096  00093E  6F18               	movwf	(??_getNote+1+0)&0ffh
  5097  000940  0E44               	movlw	low(044h)
  5098  000942  0101               	movlb	1	; () banked
  5099  000944  0101               	movlb	1	; () banked
  5100  000946  6F17               	movwf	((getNote@new_note))&0ffh
  5101  000948  0101               	movlb	1	; () banked
  5102  00094A  5118               	movf	(??_getNote+1+0)&0ffh,w
  5103                           	line	1220
  5104                           ;main.c: 1220: } else if (lResult >= 90 && lResu
                                 lt <= 120) {
  5105  00094C  EFCE  F004         	goto	i2l1203
  5106                           	
  5107  000950                     i2l1204:		; BSR set to: ?
  5108                           
  5109  000950  0E59               	movlw	(05Ah-1)
  5110  000952  0101               	movlb	1	; () banked
  5111  000954  0101               	movlb	1	; () banked
  5112  000956  6516               	cpfsgt	((getNote@lResult))&0ffh
  5113  000958  EFB0  F004         	goto	i2u9171
  5114  00095C  EFB2  F004         	goto	i2u9170
  5115  000960                     i2u9171:
  5116  000960  EFC6  F004         	goto	i2l1206
  5117  000964                     i2u9170:
  5118  000964  0E79               	movlw	(079h)&0ffh
  5119  000966  0101               	movlb	1	; () banked
  5120  000968  0101               	movlb	1	; () banked
  5121  00096A  6116               	cpfslt	((getNote@lResult))&0ffh
  5122  00096C  EFBA  F004         	goto	i2u9181
  5123  000970  EFBC  F004         	goto	i2u9180
  5124  000974                     i2u9181:
  5125  000974  EFC6  F004         	goto	i2l1206
  5126  000978                     i2u9180:
  5127                           	line	1222
  5128                           ;main.c: 1222: new_note = 0x4c;
  5129  000978  0101               	movlb	1	; () banked
  5130  00097A  6F18               	movwf	(??_getNote+1+0)&0ffh
  5131  00097C  0E4C               	movlw	low(04Ch)
  5132  00097E  0101               	movlb	1	; () banked
  5133  000980  0101               	movlb	1	; () banked
  5134  000982  6F17               	movwf	((getNote@new_note))&0ffh
  5135  000984  0101               	movlb	1	; () banked
  5136  000986  5118               	movf	(??_getNote+1+0)&0ffh,w
  5137                           	line	1223
  5138                           ;main.c: 1223: } else {
  5139  000988  EFCE  F004         	goto	i2l1203
  5140                           	
  5141  00098C                     i2l1206:		; BSR set to: ?
  5142                           
  5143                           	line	1225
  5144                           ;main.c: 1225: new_note = 0x00;
  5145  00098C  0101               	movlb	1	; () banked
  5146  00098E  6F18               	movwf	(??_getNote+1+0)&0ffh
  5147  000990  0E00               	movlw	low(0)
  5148  000992  0101               	movlb	1	; () banked
  5149  000994  0101               	movlb	1	; () banked
  5150  000996  6F17               	movwf	((getNote@new_note))&0ffh
  5151  000998  0101               	movlb	1	; () banked
  5152  00099A  5118               	movf	(??_getNote+1+0)&0ffh,w
  5153                           	line	1226
  5154                           	
  5155  00099C                     i2l1207:		; BSR set to: ?
  5156                           
  5157                           	
  5158  00099C                     i2l1205:		; BSR set to: ?
  5159                           
  5160                           	
  5161  00099C                     i2l1203:		; BSR set to: ?
  5162                           
  5163                           	line	1228
  5164                           ;main.c: 1226: }
  5165                           ;main.c: 1228: } else if (hResult == 0x02) {
  5166  00099C  EFA2  F005         	goto	i2l1200
  5167                           	
  5168  0009A0                     i2l1201:		; BSR set to: ?
  5169                           
  5170  0009A0  0101               	movlb	1	; () banked
  5171  0009A2  0101               	movlb	1	; () banked
  5172  0009A4  5115               	movf	((getNote@hResult))&0ffh,w
  5173  0009A6  0A02               	xorlw	2
  5174                           
  5175  0009A8  A4D8               	btfss	status,2
  5176  0009AA  EFD9  F004         	goto	i2u9191
  5177  0009AE  EFDB  F004         	goto	i2u9190
  5178  0009B2                     i2u9191:
  5179  0009B2  EF35  F005         	goto	i2l1209
  5180  0009B6                     i2u9190:
  5181                           	line	1229
  5182                           ;main.c: 1229: if (lResult >= 203 && lResult <= 
                                 255) {
  5183  0009B6  0ECA               	movlw	(0CBh-1)
  5184  0009B8  0101               	movlb	1	; () banked
  5185  0009BA  0101               	movlb	1	; () banked
  5186  0009BC  6516               	cpfsgt	((getNote@lResult))&0ffh
  5187  0009BE  EFE3  F004         	goto	i2u9201
  5188  0009C2  EFE5  F004         	goto	i2u9200
  5189  0009C6                     i2u9201:
  5190  0009C6  EFEF  F004         	goto	i2l1210
  5191  0009CA                     i2u9200:
  5192                           	line	1231
  5193                           ;main.c: 1231: new_note = 0x34;
  5194  0009CA  0101               	movlb	1	; () banked
  5195  0009CC  6F18               	movwf	(??_getNote+1+0)&0ffh
  5196  0009CE  0E34               	movlw	low(034h)
  5197  0009D0  0101               	movlb	1	; () banked
  5198  0009D2  0101               	movlb	1	; () banked
  5199  0009D4  6F17               	movwf	((getNote@new_note))&0ffh
  5200  0009D6  0101               	movlb	1	; () banked
  5201  0009D8  5118               	movf	(??_getNote+1+0)&0ffh,w
  5202                           	line	1232
  5203                           ;main.c: 1232: } else if (lResult >= 130 && lRes
                                 ult <= 167) {
  5204  0009DA  EF33  F005         	goto	i2l1211
  5205                           	
  5206  0009DE                     i2l1210:		; BSR set to: ?
  5207                           
  5208  0009DE  0E81               	movlw	(082h-1)
  5209  0009E0  0101               	movlb	1	; () banked
  5210  0009E2  0101               	movlb	1	; () banked
  5211  0009E4  6516               	cpfsgt	((getNote@lResult))&0ffh
  5212  0009E6  EFF7  F004         	goto	i2u9211
  5213  0009EA  EFF9  F004         	goto	i2u9210
  5214  0009EE                     i2u9211:
  5215  0009EE  EF0D  F005         	goto	i2l1212
  5216  0009F2                     i2u9210:
  5217  0009F2  0EA8               	movlw	(0A8h)&0ffh
  5218  0009F4  0101               	movlb	1	; () banked
  5219  0009F6  0101               	movlb	1	; () banked
  5220  0009F8  6116               	cpfslt	((getNote@lResult))&0ffh
  5221  0009FA  EF01  F005         	goto	i2u9221
  5222  0009FE  EF03  F005         	goto	i2u9220
  5223  000A02                     i2u9221:
  5224  000A02  EF0D  F005         	goto	i2l1212
  5225  000A06                     i2u9220:
  5226                           	line	1234
  5227                           ;main.c: 1234: new_note = 0x24;
  5228  000A06  0101               	movlb	1	; () banked
  5229  000A08  6F18               	movwf	(??_getNote+1+0)&0ffh
  5230  000A0A  0E24               	movlw	low(024h)
  5231  000A0C  0101               	movlb	1	; () banked
  5232  000A0E  0101               	movlb	1	; () banked
  5233  000A10  6F17               	movwf	((getNote@new_note))&0ffh
  5234  000A12  0101               	movlb	1	; () banked
  5235  000A14  5118               	movf	(??_getNote+1+0)&0ffh,w
  5236                           	line	1235
  5237                           ;main.c: 1235: } else if (lResult >= 87 && lResu
                                 lt <= 124) {
  5238  000A16  EF33  F005         	goto	i2l1211
  5239                           	
  5240  000A1A                     i2l1212:		; BSR set to: ?
  5241                           
  5242  000A1A  0E56               	movlw	(057h-1)
  5243  000A1C  0101               	movlb	1	; () banked
  5244  000A1E  0101               	movlb	1	; () banked
  5245  000A20  6516               	cpfsgt	((getNote@lResult))&0ffh
  5246  000A22  EF15  F005         	goto	i2u9231
  5247  000A26  EF17  F005         	goto	i2u9230
  5248  000A2A                     i2u9231:
  5249  000A2A  EF2B  F005         	goto	i2l1214
  5250  000A2E                     i2u9230:
  5251  000A2E  0E7D               	movlw	(07Dh)&0ffh
  5252  000A30  0101               	movlb	1	; () banked
  5253  000A32  0101               	movlb	1	; () banked
  5254  000A34  6116               	cpfslt	((getNote@lResult))&0ffh
  5255  000A36  EF1F  F005         	goto	i2u9241
  5256  000A3A  EF21  F005         	goto	i2u9240
  5257  000A3E                     i2u9241:
  5258  000A3E  EF2B  F005         	goto	i2l1214
  5259  000A42                     i2u9240:
  5260                           	line	1237
  5261                           ;main.c: 1237: new_note = 0x2c;
  5262  000A42  0101               	movlb	1	; () banked
  5263  000A44  6F18               	movwf	(??_getNote+1+0)&0ffh
  5264  000A46  0E2C               	movlw	low(02Ch)
  5265  000A48  0101               	movlb	1	; () banked
  5266  000A4A  0101               	movlb	1	; () banked
  5267  000A4C  6F17               	movwf	((getNote@new_note))&0ffh
  5268  000A4E  0101               	movlb	1	; () banked
  5269  000A50  5118               	movf	(??_getNote+1+0)&0ffh,w
  5270                           	line	1238
  5271                           ;main.c: 1238: } else {
  5272  000A52  EF33  F005         	goto	i2l1211
  5273                           	
  5274  000A56                     i2l1214:		; BSR set to: ?
  5275                           
  5276                           	line	1240
  5277                           ;main.c: 1240: new_note = 0x00;
  5278  000A56  0101               	movlb	1	; () banked
  5279  000A58  6F18               	movwf	(??_getNote+1+0)&0ffh
  5280  000A5A  0E00               	movlw	low(0)
  5281  000A5C  0101               	movlb	1	; () banked
  5282  000A5E  0101               	movlb	1	; () banked
  5283  000A60  6F17               	movwf	((getNote@new_note))&0ffh
  5284  000A62  0101               	movlb	1	; () banked
  5285  000A64  5118               	movf	(??_getNote+1+0)&0ffh,w
  5286                           	line	1241
  5287                           	
  5288  000A66                     i2l1215:		; BSR set to: ?
  5289                           
  5290                           	
  5291  000A66                     i2l1213:		; BSR set to: ?
  5292                           
  5293                           	
  5294  000A66                     i2l1211:		; BSR set to: ?
  5295                           
  5296                           	line	1243
  5297                           ;main.c: 1241: }
  5298                           ;main.c: 1243: } else if (hResult == 0x03) {
  5299  000A66  EFA2  F005         	goto	i2l1200
  5300                           	
  5301  000A6A                     i2l1209:		; BSR set to: ?
  5302                           
  5303  000A6A  0101               	movlb	1	; () banked
  5304  000A6C  0101               	movlb	1	; () banked
  5305  000A6E  5115               	movf	((getNote@hResult))&0ffh,w
  5306  000A70  0A03               	xorlw	3
  5307                           
  5308  000A72  A4D8               	btfss	status,2
  5309  000A74  EF3E  F005         	goto	i2u9251
  5310  000A78  EF40  F005         	goto	i2u9250
  5311  000A7C                     i2u9251:
  5312  000A7C  EFA2  F005         	goto	i2l1200
  5313  000A80                     i2u9250:
  5314                           	line	1244
  5315                           ;main.c: 1244: if (lResult >= 60 && lResult <= 1
                                 60) {
  5316  000A80  0E3B               	movlw	(03Ch-1)
  5317  000A82  0101               	movlb	1	; () banked
  5318  000A84  0101               	movlb	1	; () banked
  5319  000A86  6516               	cpfsgt	((getNote@lResult))&0ffh
  5320  000A88  EF48  F005         	goto	i2u9261
  5321  000A8C  EF4A  F005         	goto	i2u9260
  5322  000A90                     i2u9261:
  5323  000A90  EF5E  F005         	goto	i2l1218
  5324  000A94                     i2u9260:
  5325  000A94  0EA1               	movlw	(0A1h)&0ffh
  5326  000A96  0101               	movlb	1	; () banked
  5327  000A98  0101               	movlb	1	; () banked
  5328  000A9A  6116               	cpfslt	((getNote@lResult))&0ffh
  5329  000A9C  EF52  F005         	goto	i2u9271
  5330  000AA0  EF54  F005         	goto	i2u9270
  5331  000AA4                     i2u9271:
  5332  000AA4  EF5E  F005         	goto	i2l1218
  5333  000AA8                     i2u9270:
  5334                           	line	1246
  5335                           ;main.c: 1246: new_note = 0x14;
  5336  000AA8  0101               	movlb	1	; () banked
  5337  000AAA  6F18               	movwf	(??_getNote+1+0)&0ffh
  5338  000AAC  0E14               	movlw	low(014h)
  5339  000AAE  0101               	movlb	1	; () banked
  5340  000AB0  0101               	movlb	1	; () banked
  5341  000AB2  6F17               	movwf	((getNote@new_note))&0ffh
  5342  000AB4  0101               	movlb	1	; () banked
  5343  000AB6  5118               	movf	(??_getNote+1+0)&0ffh,w
  5344                           	line	1247
  5345                           ;main.c: 1247: } else if (lResult >= 145 && lRes
                                 ult <= 205) {
  5346  000AB8  EFA2  F005         	goto	i2l1200
  5347                           	
  5348  000ABC                     i2l1218:		; BSR set to: ?
  5349                           
  5350  000ABC  0E90               	movlw	(091h-1)
  5351  000ABE  0101               	movlb	1	; () banked
  5352  000AC0  0101               	movlb	1	; () banked
  5353  000AC2  6516               	cpfsgt	((getNote@lResult))&0ffh
  5354  000AC4  EF66  F005         	goto	i2u9281
  5355  000AC8  EF68  F005         	goto	i2u9280
  5356  000ACC                     i2u9281:
  5357  000ACC  EF7C  F005         	goto	i2l1220
  5358  000AD0                     i2u9280:
  5359  000AD0  0ECE               	movlw	(0CEh)&0ffh
  5360  000AD2  0101               	movlb	1	; () banked
  5361  000AD4  0101               	movlb	1	; () banked
  5362  000AD6  6116               	cpfslt	((getNote@lResult))&0ffh
  5363  000AD8  EF70  F005         	goto	i2u9291
  5364  000ADC  EF72  F005         	goto	i2u9290
  5365  000AE0                     i2u9291:
  5366  000AE0  EF7C  F005         	goto	i2l1220
  5367  000AE4                     i2u9290:
  5368                           	line	1249
  5369                           ;main.c: 1249: new_note = 0x04;
  5370  000AE4  0101               	movlb	1	; () banked
  5371  000AE6  6F18               	movwf	(??_getNote+1+0)&0ffh
  5372  000AE8  0E04               	movlw	low(04h)
  5373  000AEA  0101               	movlb	1	; () banked
  5374  000AEC  0101               	movlb	1	; () banked
  5375  000AEE  6F17               	movwf	((getNote@new_note))&0ffh
  5376  000AF0  0101               	movlb	1	; () banked
  5377  000AF2  5118               	movf	(??_getNote+1+0)&0ffh,w
  5378                           	line	1250
  5379                           ;main.c: 1250: } else if (lResult >= 227 && lRes
                                 ult <= 239) {
  5380  000AF4  EFA2  F005         	goto	i2l1200
  5381                           	
  5382  000AF8                     i2l1220:		; BSR set to: ?
  5383                           
  5384  000AF8  0EE2               	movlw	(0E3h-1)
  5385  000AFA  0101               	movlb	1	; () banked
  5386  000AFC  0101               	movlb	1	; () banked
  5387  000AFE  6516               	cpfsgt	((getNote@lResult))&0ffh
  5388  000B00  EF84  F005         	goto	i2u9301
  5389  000B04  EF86  F005         	goto	i2u9300
  5390  000B08                     i2u9301:
  5391  000B08  EF9A  F005         	goto	i2l1222
  5392  000B0C                     i2u9300:
  5393  000B0C  0EF0               	movlw	(0F0h)&0ffh
  5394  000B0E  0101               	movlb	1	; () banked
  5395  000B10  0101               	movlb	1	; () banked
  5396  000B12  6116               	cpfslt	((getNote@lResult))&0ffh
  5397  000B14  EF8E  F005         	goto	i2u9311
  5398  000B18  EF90  F005         	goto	i2u9310
  5399  000B1C                     i2u9311:
  5400  000B1C  EF9A  F005         	goto	i2l1222
  5401  000B20                     i2u9310:
  5402                           	line	1252
  5403                           ;main.c: 1252: new_note = 0x0c;
  5404  000B20  0101               	movlb	1	; () banked
  5405  000B22  6F18               	movwf	(??_getNote+1+0)&0ffh
  5406  000B24  0E0C               	movlw	low(0Ch)
  5407  000B26  0101               	movlb	1	; () banked
  5408  000B28  0101               	movlb	1	; () banked
  5409  000B2A  6F17               	movwf	((getNote@new_note))&0ffh
  5410  000B2C  0101               	movlb	1	; () banked
  5411  000B2E  5118               	movf	(??_getNote+1+0)&0ffh,w
  5412                           	line	1253
  5413                           ;main.c: 1253: } else {
  5414  000B30  EFA2  F005         	goto	i2l1200
  5415                           	
  5416  000B34                     i2l1222:		; BSR set to: ?
  5417                           
  5418                           	line	1255
  5419                           ;main.c: 1255: new_note = 0x00;
  5420  000B34  0101               	movlb	1	; () banked
  5421  000B36  6F18               	movwf	(??_getNote+1+0)&0ffh
  5422  000B38  0E00               	movlw	low(0)
  5423  000B3A  0101               	movlb	1	; () banked
  5424  000B3C  0101               	movlb	1	; () banked
  5425  000B3E  6F17               	movwf	((getNote@new_note))&0ffh
  5426  000B40  0101               	movlb	1	; () banked
  5427  000B42  5118               	movf	(??_getNote+1+0)&0ffh,w
  5428                           	line	1256
  5429                           	
  5430  000B44                     i2l1223:		; BSR set to: ?
  5431                           
  5432                           	
  5433  000B44                     i2l1221:		; BSR set to: ?
  5434                           
  5435                           	
  5436  000B44                     i2l1219:		; BSR set to: ?
  5437                           
  5438                           	line	1258
  5439                           	
  5440  000B44                     i2l1217:		; BSR set to: ?
  5441                           
  5442                           	line	1260
  5443                           	
  5444  000B44                     i2l1216:		; BSR set to: ?
  5445                           
  5446                           	
  5447  000B44                     i2l1208:		; BSR set to: ?
  5448                           
  5449                           	
  5450  000B44                     i2l1200:		; BSR set to: ?
  5451                           
  5452                           ;main.c: 1256: }
  5453                           ;main.c: 1258: }
  5454                           ;main.c: 1260: } else if (adc_num == 4) {
  5455  000B44  EFC6  F009         	goto	i2l1143
  5456                           	
  5457  000B48                     i2l1198:		; BSR set to: ?
  5458                           
  5459  000B48  5002               	movf	((c:2)),c,w	;volatile
  5460  000B4A  0A04               	xorlw	4
  5461                           
  5462  000B4C  A4D8               	btfss	status,2
  5463  000B4E  EFAB  F005         	goto	i2u9321
  5464  000B52  EFAD  F005         	goto	i2u9320
  5465  000B56                     i2u9321:
  5466  000B56  EF02  F007         	goto	i2l1225
  5467  000B5A                     i2u9320:
  5468                           	line	1261
  5469                           ;main.c: 1261: if (hResult == 0x00) {
  5470  000B5A  0101               	movlb	1	; () banked
  5471  000B5C  0101               	movlb	1	; () banked
  5472  000B5E  6715               	tstfsz	((getNote@hResult))&0ffh
  5473  000B60  EFB4  F005         	goto	i2u9331
  5474  000B64  EFB6  F005         	goto	i2u9330
  5475  000B68                     i2u9331:
  5476  000B68  EFC0  F005         	goto	i2l1226
  5477  000B6C                     i2u9330:
  5478                           	line	1263
  5479                           ;main.c: 1263: new_note = 0x00;
  5480  000B6C  0101               	movlb	1	; () banked
  5481  000B6E  6F18               	movwf	(??_getNote+1+0)&0ffh
  5482  000B70  0E00               	movlw	low(0)
  5483  000B72  0101               	movlb	1	; () banked
  5484  000B74  0101               	movlb	1	; () banked
  5485  000B76  6F17               	movwf	((getNote@new_note))&0ffh
  5486  000B78  0101               	movlb	1	; () banked
  5487  000B7A  5118               	movf	(??_getNote+1+0)&0ffh,w
  5488                           	line	1265
  5489                           ;main.c: 1265: } else if (hResult == 0x01) {
  5490  000B7C  EF00  F007         	goto	i2l1227
  5491                           	
  5492  000B80                     i2l1226:		; BSR set to: ?
  5493                           
  5494  000B80  0101               	movlb	1	; () banked
  5495  000B82  0101               	movlb	1	; () banked
  5496  000B84  0515               	decf	((getNote@hResult))&0ffh,w
  5497                           
  5498  000B86  A4D8               	btfss	status,2
  5499  000B88  EFC8  F005         	goto	i2u9341
  5500  000B8C  EFCA  F005         	goto	i2u9340
  5501  000B90                     i2u9341:
  5502  000B90  EF2E  F006         	goto	i2l1228
  5503  000B94                     i2u9340:
  5504                           	line	1266
  5505                           ;main.c: 1266: if (lResult >= 8 && lResult <= 69
                                 ) {
  5506  000B94  0E07               	movlw	(08h-1)
  5507  000B96  0101               	movlb	1	; () banked
  5508  000B98  0101               	movlb	1	; () banked
  5509  000B9A  6516               	cpfsgt	((getNote@lResult))&0ffh
  5510  000B9C  EFD2  F005         	goto	i2u9351
  5511  000BA0  EFD4  F005         	goto	i2u9350
  5512  000BA4                     i2u9351:
  5513  000BA4  EFE8  F005         	goto	i2l1229
  5514  000BA8                     i2u9350:
  5515  000BA8  0E46               	movlw	(046h)&0ffh
  5516  000BAA  0101               	movlb	1	; () banked
  5517  000BAC  0101               	movlb	1	; () banked
  5518  000BAE  6116               	cpfslt	((getNote@lResult))&0ffh
  5519  000BB0  EFDC  F005         	goto	i2u9361
  5520  000BB4  EFDE  F005         	goto	i2u9360
  5521  000BB8                     i2u9361:
  5522  000BB8  EFE8  F005         	goto	i2l1229
  5523  000BBC                     i2u9360:
  5524                           	line	1268
  5525                           ;main.c: 1268: new_note = 0x55;
  5526  000BBC  0101               	movlb	1	; () banked
  5527  000BBE  6F18               	movwf	(??_getNote+1+0)&0ffh
  5528  000BC0  0E55               	movlw	low(055h)
  5529  000BC2  0101               	movlb	1	; () banked
  5530  000BC4  0101               	movlb	1	; () banked
  5531  000BC6  6F17               	movwf	((getNote@new_note))&0ffh
  5532  000BC8  0101               	movlb	1	; () banked
  5533  000BCA  5118               	movf	(??_getNote+1+0)&0ffh,w
  5534                           	line	1269
  5535                           ;main.c: 1269: } else if (lResult >= 96 && lResu
                                 lt <= 210) {
  5536  000BCC  EF2C  F006         	goto	i2l1230
  5537                           	
  5538  000BD0                     i2l1229:		; BSR set to: ?
  5539                           
  5540  000BD0  0E5F               	movlw	(060h-1)
  5541  000BD2  0101               	movlb	1	; () banked
  5542  000BD4  0101               	movlb	1	; () banked
  5543  000BD6  6516               	cpfsgt	((getNote@lResult))&0ffh
  5544  000BD8  EFF0  F005         	goto	i2u9371
  5545  000BDC  EFF2  F005         	goto	i2u9370
  5546  000BE0                     i2u9371:
  5547  000BE0  EF06  F006         	goto	i2l1231
  5548  000BE4                     i2u9370:
  5549  000BE4  0ED3               	movlw	(0D3h)&0ffh
  5550  000BE6  0101               	movlb	1	; () banked
  5551  000BE8  0101               	movlb	1	; () banked
  5552  000BEA  6116               	cpfslt	((getNote@lResult))&0ffh
  5553  000BEC  EFFA  F005         	goto	i2u9381
  5554  000BF0  EFFC  F005         	goto	i2u9380
  5555  000BF4                     i2u9381:
  5556  000BF4  EF06  F006         	goto	i2l1231
  5557  000BF8                     i2u9380:
  5558                           	line	1271
  5559                           ;main.c: 1271: new_note = 0x45;
  5560  000BF8  0101               	movlb	1	; () banked
  5561  000BFA  6F18               	movwf	(??_getNote+1+0)&0ffh
  5562  000BFC  0E45               	movlw	low(045h)
  5563  000BFE  0101               	movlb	1	; () banked
  5564  000C00  0101               	movlb	1	; () banked
  5565  000C02  6F17               	movwf	((getNote@new_note))&0ffh
  5566  000C04  0101               	movlb	1	; () banked
  5567  000C06  5118               	movf	(??_getNote+1+0)&0ffh,w
  5568                           	line	1272
  5569                           ;main.c: 1272: } else if (lResult >= 214 && lRes
                                 ult <= 227) {
  5570  000C08  EF2C  F006         	goto	i2l1230
  5571                           	
  5572  000C0C                     i2l1231:		; BSR set to: ?
  5573                           
  5574  000C0C  0ED5               	movlw	(0D6h-1)
  5575  000C0E  0101               	movlb	1	; () banked
  5576  000C10  0101               	movlb	1	; () banked
  5577  000C12  6516               	cpfsgt	((getNote@lResult))&0ffh
  5578  000C14  EF0E  F006         	goto	i2u9391
  5579  000C18  EF10  F006         	goto	i2u9390
  5580  000C1C                     i2u9391:
  5581  000C1C  EF24  F006         	goto	i2l1233
  5582  000C20                     i2u9390:
  5583  000C20  0EE4               	movlw	(0E4h)&0ffh
  5584  000C22  0101               	movlb	1	; () banked
  5585  000C24  0101               	movlb	1	; () banked
  5586  000C26  6116               	cpfslt	((getNote@lResult))&0ffh
  5587  000C28  EF18  F006         	goto	i2u9401
  5588  000C2C  EF1A  F006         	goto	i2u9400
  5589  000C30                     i2u9401:
  5590  000C30  EF24  F006         	goto	i2l1233
  5591  000C34                     i2u9400:
  5592                           	line	1274
  5593                           ;main.c: 1274: new_note = 0x4d;
  5594  000C34  0101               	movlb	1	; () banked
  5595  000C36  6F18               	movwf	(??_getNote+1+0)&0ffh
  5596  000C38  0E4D               	movlw	low(04Dh)
  5597  000C3A  0101               	movlb	1	; () banked
  5598  000C3C  0101               	movlb	1	; () banked
  5599  000C3E  6F17               	movwf	((getNote@new_note))&0ffh
  5600  000C40  0101               	movlb	1	; () banked
  5601  000C42  5118               	movf	(??_getNote+1+0)&0ffh,w
  5602                           	line	1275
  5603                           ;main.c: 1275: } else {
  5604  000C44  EF2C  F006         	goto	i2l1230
  5605                           	
  5606  000C48                     i2l1233:		; BSR set to: ?
  5607                           
  5608                           	line	1277
  5609                           ;main.c: 1277: new_note = 0x00;
  5610  000C48  0101               	movlb	1	; () banked
  5611  000C4A  6F18               	movwf	(??_getNote+1+0)&0ffh
  5612  000C4C  0E00               	movlw	low(0)
  5613  000C4E  0101               	movlb	1	; () banked
  5614  000C50  0101               	movlb	1	; () banked
  5615  000C52  6F17               	movwf	((getNote@new_note))&0ffh
  5616  000C54  0101               	movlb	1	; () banked
  5617  000C56  5118               	movf	(??_getNote+1+0)&0ffh,w
  5618                           	line	1278
  5619                           	
  5620  000C58                     i2l1234:		; BSR set to: ?
  5621                           
  5622                           	
  5623  000C58                     i2l1232:		; BSR set to: ?
  5624                           
  5625                           	
  5626  000C58                     i2l1230:		; BSR set to: ?
  5627                           
  5628                           	line	1280
  5629                           ;main.c: 1278: }
  5630                           ;main.c: 1280: } else if (hResult == 0x02) {
  5631  000C58  EF00  F007         	goto	i2l1227
  5632                           	
  5633  000C5C                     i2l1228:		; BSR set to: ?
  5634                           
  5635  000C5C  0101               	movlb	1	; () banked
  5636  000C5E  0101               	movlb	1	; () banked
  5637  000C60  5115               	movf	((getNote@hResult))&0ffh,w
  5638  000C62  0A02               	xorlw	2
  5639                           
  5640  000C64  A4D8               	btfss	status,2
  5641  000C66  EF37  F006         	goto	i2u9411
  5642  000C6A  EF39  F006         	goto	i2u9410
  5643  000C6E                     i2u9411:
  5644  000C6E  EF93  F006         	goto	i2l1236
  5645  000C72                     i2u9410:
  5646                           	line	1281
  5647                           ;main.c: 1281: if (lResult >= 217 && lResult <= 
                                 255) {
  5648  000C72  0ED8               	movlw	(0D9h-1)
  5649  000C74  0101               	movlb	1	; () banked
  5650  000C76  0101               	movlb	1	; () banked
  5651  000C78  6516               	cpfsgt	((getNote@lResult))&0ffh
  5652  000C7A  EF41  F006         	goto	i2u9421
  5653  000C7E  EF43  F006         	goto	i2u9420
  5654  000C82                     i2u9421:
  5655  000C82  EF4D  F006         	goto	i2l1237
  5656  000C86                     i2u9420:
  5657                           	line	1283
  5658                           ;main.c: 1283: new_note = 0x35;
  5659  000C86  0101               	movlb	1	; () banked
  5660  000C88  6F18               	movwf	(??_getNote+1+0)&0ffh
  5661  000C8A  0E35               	movlw	low(035h)
  5662  000C8C  0101               	movlb	1	; () banked
  5663  000C8E  0101               	movlb	1	; () banked
  5664  000C90  6F17               	movwf	((getNote@new_note))&0ffh
  5665  000C92  0101               	movlb	1	; () banked
  5666  000C94  5118               	movf	(??_getNote+1+0)&0ffh,w
  5667                           	line	1284
  5668                           ;main.c: 1284: } else if (lResult >= 154 && lRes
                                 ult <= 202) {
  5669  000C96  EF91  F006         	goto	i2l1238
  5670                           	
  5671  000C9A                     i2l1237:		; BSR set to: ?
  5672                           
  5673  000C9A  0E99               	movlw	(09Ah-1)
  5674  000C9C  0101               	movlb	1	; () banked
  5675  000C9E  0101               	movlb	1	; () banked
  5676  000CA0  6516               	cpfsgt	((getNote@lResult))&0ffh
  5677  000CA2  EF55  F006         	goto	i2u9431
  5678  000CA6  EF57  F006         	goto	i2u9430
  5679  000CAA                     i2u9431:
  5680  000CAA  EF6B  F006         	goto	i2l1239
  5681  000CAE                     i2u9430:
  5682  000CAE  0ECB               	movlw	(0CBh)&0ffh
  5683  000CB0  0101               	movlb	1	; () banked
  5684  000CB2  0101               	movlb	1	; () banked
  5685  000CB4  6116               	cpfslt	((getNote@lResult))&0ffh
  5686  000CB6  EF5F  F006         	goto	i2u9441
  5687  000CBA  EF61  F006         	goto	i2u9440
  5688  000CBE                     i2u9441:
  5689  000CBE  EF6B  F006         	goto	i2l1239
  5690  000CC2                     i2u9440:
  5691                           	line	1286
  5692                           ;main.c: 1286: new_note = 0x25;
  5693  000CC2  0101               	movlb	1	; () banked
  5694  000CC4  6F18               	movwf	(??_getNote+1+0)&0ffh
  5695  000CC6  0E25               	movlw	low(025h)
  5696  000CC8  0101               	movlb	1	; () banked
  5697  000CCA  0101               	movlb	1	; () banked
  5698  000CCC  6F17               	movwf	((getNote@new_note))&0ffh
  5699  000CCE  0101               	movlb	1	; () banked
  5700  000CD0  5118               	movf	(??_getNote+1+0)&0ffh,w
  5701                           	line	1287
  5702                           ;main.c: 1287: } else if (lResult >= 115 && lRes
                                 ult <= 145) {
  5703  000CD2  EF91  F006         	goto	i2l1238
  5704                           	
  5705  000CD6                     i2l1239:		; BSR set to: ?
  5706                           
  5707  000CD6  0E72               	movlw	(073h-1)
  5708  000CD8  0101               	movlb	1	; () banked
  5709  000CDA  0101               	movlb	1	; () banked
  5710  000CDC  6516               	cpfsgt	((getNote@lResult))&0ffh
  5711  000CDE  EF73  F006         	goto	i2u9451
  5712  000CE2  EF75  F006         	goto	i2u9450
  5713  000CE6                     i2u9451:
  5714  000CE6  EF89  F006         	goto	i2l1241
  5715  000CEA                     i2u9450:
  5716  000CEA  0E92               	movlw	(092h)&0ffh
  5717  000CEC  0101               	movlb	1	; () banked
  5718  000CEE  0101               	movlb	1	; () banked
  5719  000CF0  6116               	cpfslt	((getNote@lResult))&0ffh
  5720  000CF2  EF7D  F006         	goto	i2u9461
  5721  000CF6  EF7F  F006         	goto	i2u9460
  5722  000CFA                     i2u9461:
  5723  000CFA  EF89  F006         	goto	i2l1241
  5724  000CFE                     i2u9460:
  5725                           	line	1289
  5726                           ;main.c: 1289: new_note = 0x2d;
  5727  000CFE  0101               	movlb	1	; () banked
  5728  000D00  6F18               	movwf	(??_getNote+1+0)&0ffh
  5729  000D02  0E2D               	movlw	low(02Dh)
  5730  000D04  0101               	movlb	1	; () banked
  5731  000D06  0101               	movlb	1	; () banked
  5732  000D08  6F17               	movwf	((getNote@new_note))&0ffh
  5733  000D0A  0101               	movlb	1	; () banked
  5734  000D0C  5118               	movf	(??_getNote+1+0)&0ffh,w
  5735                           	line	1290
  5736                           ;main.c: 1290: } else {
  5737  000D0E  EF91  F006         	goto	i2l1238
  5738                           	
  5739  000D12                     i2l1241:		; BSR set to: ?
  5740                           
  5741                           	line	1292
  5742                           ;main.c: 1292: new_note = 0x00;
  5743  000D12  0101               	movlb	1	; () banked
  5744  000D14  6F18               	movwf	(??_getNote+1+0)&0ffh
  5745  000D16  0E00               	movlw	low(0)
  5746  000D18  0101               	movlb	1	; () banked
  5747  000D1A  0101               	movlb	1	; () banked
  5748  000D1C  6F17               	movwf	((getNote@new_note))&0ffh
  5749  000D1E  0101               	movlb	1	; () banked
  5750  000D20  5118               	movf	(??_getNote+1+0)&0ffh,w
  5751                           	line	1293
  5752                           	
  5753  000D22                     i2l1242:		; BSR set to: ?
  5754                           
  5755                           	
  5756  000D22                     i2l1240:		; BSR set to: ?
  5757                           
  5758                           	
  5759  000D22                     i2l1238:		; BSR set to: ?
  5760                           
  5761                           	line	1295
  5762                           ;main.c: 1293: }
  5763                           ;main.c: 1295: } else if (hResult == 0x03) {
  5764  000D22  EF00  F007         	goto	i2l1227
  5765                           	
  5766  000D26                     i2l1236:		; BSR set to: ?
  5767                           
  5768  000D26  0101               	movlb	1	; () banked
  5769  000D28  0101               	movlb	1	; () banked
  5770  000D2A  5115               	movf	((getNote@hResult))&0ffh,w
  5771  000D2C  0A03               	xorlw	3
  5772                           
  5773  000D2E  A4D8               	btfss	status,2
  5774  000D30  EF9C  F006         	goto	i2u9471
  5775  000D34  EF9E  F006         	goto	i2u9470
  5776  000D38                     i2u9471:
  5777  000D38  EF00  F007         	goto	i2l1227
  5778  000D3C                     i2u9470:
  5779                           	line	1296
  5780                           ;main.c: 1296: if (lResult >= 227 && lResult <= 
                                 240) {
  5781  000D3C  0EE2               	movlw	(0E3h-1)
  5782  000D3E  0101               	movlb	1	; () banked
  5783  000D40  0101               	movlb	1	; () banked
  5784  000D42  6516               	cpfsgt	((getNote@lResult))&0ffh
  5785  000D44  EFA6  F006         	goto	i2u9481
  5786  000D48  EFA8  F006         	goto	i2u9480
  5787  000D4C                     i2u9481:
  5788  000D4C  EFBC  F006         	goto	i2l1245
  5789  000D50                     i2u9480:
  5790  000D50  0EF1               	movlw	(0F1h)&0ffh
  5791  000D52  0101               	movlb	1	; () banked
  5792  000D54  0101               	movlb	1	; () banked
  5793  000D56  6116               	cpfslt	((getNote@lResult))&0ffh
  5794  000D58  EFB0  F006         	goto	i2u9491
  5795  000D5C  EFB2  F006         	goto	i2u9490
  5796  000D60                     i2u9491:
  5797  000D60  EFBC  F006         	goto	i2l1245
  5798  000D64                     i2u9490:
  5799                           	line	1298
  5800                           ;main.c: 1298: new_note = 0x15;
  5801  000D64  0101               	movlb	1	; () banked
  5802  000D66  6F18               	movwf	(??_getNote+1+0)&0ffh
  5803  000D68  0E15               	movlw	low(015h)
  5804  000D6A  0101               	movlb	1	; () banked
  5805  000D6C  0101               	movlb	1	; () banked
  5806  000D6E  6F17               	movwf	((getNote@new_note))&0ffh
  5807  000D70  0101               	movlb	1	; () banked
  5808  000D72  5118               	movf	(??_getNote+1+0)&0ffh,w
  5809                           	line	1299
  5810                           ;main.c: 1299: } else if (lResult >= 180 && lRes
                                 ult <= 210) {
  5811  000D74  EF00  F007         	goto	i2l1227
  5812                           	
  5813  000D78                     i2l1245:		; BSR set to: ?
  5814                           
  5815  000D78  0EB3               	movlw	(0B4h-1)
  5816  000D7A  0101               	movlb	1	; () banked
  5817  000D7C  0101               	movlb	1	; () banked
  5818  000D7E  6516               	cpfsgt	((getNote@lResult))&0ffh
  5819  000D80  EFC4  F006         	goto	i2u9501
  5820  000D84  EFC6  F006         	goto	i2u9500
  5821  000D88                     i2u9501:
  5822  000D88  EFDA  F006         	goto	i2l1247
  5823  000D8C                     i2u9500:
  5824  000D8C  0ED3               	movlw	(0D3h)&0ffh
  5825  000D8E  0101               	movlb	1	; () banked
  5826  000D90  0101               	movlb	1	; () banked
  5827  000D92  6116               	cpfslt	((getNote@lResult))&0ffh
  5828  000D94  EFCE  F006         	goto	i2u9511
  5829  000D98  EFD0  F006         	goto	i2u9510
  5830  000D9C                     i2u9511:
  5831  000D9C  EFDA  F006         	goto	i2l1247
  5832  000DA0                     i2u9510:
  5833                           	line	1301
  5834                           ;main.c: 1301: new_note = 0x05;
  5835  000DA0  0101               	movlb	1	; () banked
  5836  000DA2  6F18               	movwf	(??_getNote+1+0)&0ffh
  5837  000DA4  0E05               	movlw	low(05h)
  5838  000DA6  0101               	movlb	1	; () banked
  5839  000DA8  0101               	movlb	1	; () banked
  5840  000DAA  6F17               	movwf	((getNote@new_note))&0ffh
  5841  000DAC  0101               	movlb	1	; () banked
  5842  000DAE  5118               	movf	(??_getNote+1+0)&0ffh,w
  5843                           	line	1302
  5844                           ;main.c: 1302: } else if (lResult >= 90 && lResu
                                 lt <= 165) {
  5845  000DB0  EF00  F007         	goto	i2l1227
  5846                           	
  5847  000DB4                     i2l1247:		; BSR set to: ?
  5848                           
  5849  000DB4  0E59               	movlw	(05Ah-1)
  5850  000DB6  0101               	movlb	1	; () banked
  5851  000DB8  0101               	movlb	1	; () banked
  5852  000DBA  6516               	cpfsgt	((getNote@lResult))&0ffh
  5853  000DBC  EFE2  F006         	goto	i2u9521
  5854  000DC0  EFE4  F006         	goto	i2u9520
  5855  000DC4                     i2u9521:
  5856  000DC4  EFF8  F006         	goto	i2l1249
  5857  000DC8                     i2u9520:
  5858  000DC8  0EA6               	movlw	(0A6h)&0ffh
  5859  000DCA  0101               	movlb	1	; () banked
  5860  000DCC  0101               	movlb	1	; () banked
  5861  000DCE  6116               	cpfslt	((getNote@lResult))&0ffh
  5862  000DD0  EFEC  F006         	goto	i2u9531
  5863  000DD4  EFEE  F006         	goto	i2u9530
  5864  000DD8                     i2u9531:
  5865  000DD8  EFF8  F006         	goto	i2l1249
  5866  000DDC                     i2u9530:
  5867                           	line	1304
  5868                           ;main.c: 1304: new_note = 0x0d;
  5869  000DDC  0101               	movlb	1	; () banked
  5870  000DDE  6F18               	movwf	(??_getNote+1+0)&0ffh
  5871  000DE0  0E0D               	movlw	low(0Dh)
  5872  000DE2  0101               	movlb	1	; () banked
  5873  000DE4  0101               	movlb	1	; () banked
  5874  000DE6  6F17               	movwf	((getNote@new_note))&0ffh
  5875  000DE8  0101               	movlb	1	; () banked
  5876  000DEA  5118               	movf	(??_getNote+1+0)&0ffh,w
  5877                           	line	1305
  5878                           ;main.c: 1305: } else {
  5879  000DEC  EF00  F007         	goto	i2l1227
  5880                           	
  5881  000DF0                     i2l1249:		; BSR set to: ?
  5882                           
  5883                           	line	1307
  5884                           ;main.c: 1307: new_note = 0x00;
  5885  000DF0  0101               	movlb	1	; () banked
  5886  000DF2  6F18               	movwf	(??_getNote+1+0)&0ffh
  5887  000DF4  0E00               	movlw	low(0)
  5888  000DF6  0101               	movlb	1	; () banked
  5889  000DF8  0101               	movlb	1	; () banked
  5890  000DFA  6F17               	movwf	((getNote@new_note))&0ffh
  5891  000DFC  0101               	movlb	1	; () banked
  5892  000DFE  5118               	movf	(??_getNote+1+0)&0ffh,w
  5893                           	line	1308
  5894                           	
  5895  000E00                     i2l1250:		; BSR set to: ?
  5896                           
  5897                           	
  5898  000E00                     i2l1248:		; BSR set to: ?
  5899                           
  5900                           	
  5901  000E00                     i2l1246:		; BSR set to: ?
  5902                           
  5903                           	line	1310
  5904                           	
  5905  000E00                     i2l1244:		; BSR set to: ?
  5906                           
  5907                           	line	1312
  5908                           	
  5909  000E00                     i2l1243:		; BSR set to: ?
  5910                           
  5911                           	
  5912  000E00                     i2l1235:		; BSR set to: ?
  5913                           
  5914                           	
  5915  000E00                     i2l1227:		; BSR set to: ?
  5916                           
  5917                           ;main.c: 1308: }
  5918                           ;main.c: 1310: }
  5919                           ;main.c: 1312: } else if (adc_num == 5) {
  5920  000E00  EFC6  F009         	goto	i2l1143
  5921                           	
  5922  000E04                     i2l1225:		; BSR set to: ?
  5923                           
  5924  000E04  5002               	movf	((c:2)),c,w	;volatile
  5925  000E06  0A05               	xorlw	5
  5926                           
  5927  000E08  A4D8               	btfss	status,2
  5928  000E0A  EF09  F007         	goto	i2u9541
  5929  000E0E  EF0B  F007         	goto	i2u9540
  5930  000E12                     i2u9541:
  5931  000E12  EF60  F008         	goto	i2l1252
  5932  000E16                     i2u9540:
  5933                           	line	1313
  5934                           ;main.c: 1313: if (hResult == 0x00) {
  5935  000E16  0101               	movlb	1	; () banked
  5936  000E18  0101               	movlb	1	; () banked
  5937  000E1A  6715               	tstfsz	((getNote@hResult))&0ffh
  5938  000E1C  EF12  F007         	goto	i2u9551
  5939  000E20  EF14  F007         	goto	i2u9550
  5940  000E24                     i2u9551:
  5941  000E24  EF1E  F007         	goto	i2l1253
  5942  000E28                     i2u9550:
  5943                           	line	1315
  5944                           ;main.c: 1315: new_note = 0x00;
  5945  000E28  0101               	movlb	1	; () banked
  5946  000E2A  6F18               	movwf	(??_getNote+1+0)&0ffh
  5947  000E2C  0E00               	movlw	low(0)
  5948  000E2E  0101               	movlb	1	; () banked
  5949  000E30  0101               	movlb	1	; () banked
  5950  000E32  6F17               	movwf	((getNote@new_note))&0ffh
  5951  000E34  0101               	movlb	1	; () banked
  5952  000E36  5118               	movf	(??_getNote+1+0)&0ffh,w
  5953                           	line	1317
  5954                           ;main.c: 1317: } else if (hResult == 0x01) {
  5955  000E38  EF5E  F008         	goto	i2l1254
  5956                           	
  5957  000E3C                     i2l1253:		; BSR set to: ?
  5958                           
  5959  000E3C  0101               	movlb	1	; () banked
  5960  000E3E  0101               	movlb	1	; () banked
  5961  000E40  0515               	decf	((getNote@hResult))&0ffh,w
  5962                           
  5963  000E42  A4D8               	btfss	status,2
  5964  000E44  EF26  F007         	goto	i2u9561
  5965  000E48  EF28  F007         	goto	i2u9560
  5966  000E4C                     i2u9561:
  5967  000E4C  EF8C  F007         	goto	i2l1255
  5968  000E50                     i2u9560:
  5969                           	line	1318
  5970                           ;main.c: 1318: if (lResult >= 148 && lResult <= 
                                 174) {
  5971  000E50  0E93               	movlw	(094h-1)
  5972  000E52  0101               	movlb	1	; () banked
  5973  000E54  0101               	movlb	1	; () banked
  5974  000E56  6516               	cpfsgt	((getNote@lResult))&0ffh
  5975  000E58  EF30  F007         	goto	i2u9571
  5976  000E5C  EF32  F007         	goto	i2u9570
  5977  000E60                     i2u9571:
  5978  000E60  EF46  F007         	goto	i2l1256
  5979  000E64                     i2u9570:
  5980  000E64  0EAF               	movlw	(0AFh)&0ffh
  5981  000E66  0101               	movlb	1	; () banked
  5982  000E68  0101               	movlb	1	; () banked
  5983  000E6A  6116               	cpfslt	((getNote@lResult))&0ffh
  5984  000E6C  EF3A  F007         	goto	i2u9581
  5985  000E70  EF3C  F007         	goto	i2u9580
  5986  000E74                     i2u9581:
  5987  000E74  EF46  F007         	goto	i2l1256
  5988  000E78                     i2u9580:
  5989                           	line	1320
  5990                           ;main.c: 1320: new_note = 0x56;
  5991  000E78  0101               	movlb	1	; () banked
  5992  000E7A  6F18               	movwf	(??_getNote+1+0)&0ffh
  5993  000E7C  0E56               	movlw	low(056h)
  5994  000E7E  0101               	movlb	1	; () banked
  5995  000E80  0101               	movlb	1	; () banked
  5996  000E82  6F17               	movwf	((getNote@new_note))&0ffh
  5997  000E84  0101               	movlb	1	; () banked
  5998  000E86  5118               	movf	(??_getNote+1+0)&0ffh,w
  5999                           	line	1321
  6000                           ;main.c: 1321: } else if (lResult >= 89 && lResu
                                 lt <= 120) {
  6001  000E88  EF8A  F007         	goto	i2l1257
  6002                           	
  6003  000E8C                     i2l1256:		; BSR set to: ?
  6004                           
  6005  000E8C  0E58               	movlw	(059h-1)
  6006  000E8E  0101               	movlb	1	; () banked
  6007  000E90  0101               	movlb	1	; () banked
  6008  000E92  6516               	cpfsgt	((getNote@lResult))&0ffh
  6009  000E94  EF4E  F007         	goto	i2u9591
  6010  000E98  EF50  F007         	goto	i2u9590
  6011  000E9C                     i2u9591:
  6012  000E9C  EF64  F007         	goto	i2l1258
  6013  000EA0                     i2u9590:
  6014  000EA0  0E79               	movlw	(079h)&0ffh
  6015  000EA2  0101               	movlb	1	; () banked
  6016  000EA4  0101               	movlb	1	; () banked
  6017  000EA6  6116               	cpfslt	((getNote@lResult))&0ffh
  6018  000EA8  EF58  F007         	goto	i2u9601
  6019  000EAC  EF5A  F007         	goto	i2u9600
  6020  000EB0                     i2u9601:
  6021  000EB0  EF64  F007         	goto	i2l1258
  6022  000EB4                     i2u9600:
  6023                           	line	1323
  6024                           ;main.c: 1323: new_note = 0x46;
  6025  000EB4  0101               	movlb	1	; () banked
  6026  000EB6  6F18               	movwf	(??_getNote+1+0)&0ffh
  6027  000EB8  0E46               	movlw	low(046h)
  6028  000EBA  0101               	movlb	1	; () banked
  6029  000EBC  0101               	movlb	1	; () banked
  6030  000EBE  6F17               	movwf	((getNote@new_note))&0ffh
  6031  000EC0  0101               	movlb	1	; () banked
  6032  000EC2  5118               	movf	(??_getNote+1+0)&0ffh,w
  6033                           	line	1324
  6034                           ;main.c: 1324: } else if (lResult >= 20 && lResu
                                 lt <= 72) {
  6035  000EC4  EF8A  F007         	goto	i2l1257
  6036                           	
  6037  000EC8                     i2l1258:		; BSR set to: ?
  6038                           
  6039  000EC8  0E13               	movlw	(014h-1)
  6040  000ECA  0101               	movlb	1	; () banked
  6041  000ECC  0101               	movlb	1	; () banked
  6042  000ECE  6516               	cpfsgt	((getNote@lResult))&0ffh
  6043  000ED0  EF6C  F007         	goto	i2u9611
  6044  000ED4  EF6E  F007         	goto	i2u9610
  6045  000ED8                     i2u9611:
  6046  000ED8  EF82  F007         	goto	i2l1260
  6047  000EDC                     i2u9610:
  6048  000EDC  0E49               	movlw	(049h)&0ffh
  6049  000EDE  0101               	movlb	1	; () banked
  6050  000EE0  0101               	movlb	1	; () banked
  6051  000EE2  6116               	cpfslt	((getNote@lResult))&0ffh
  6052  000EE4  EF76  F007         	goto	i2u9621
  6053  000EE8  EF78  F007         	goto	i2u9620
  6054  000EEC                     i2u9621:
  6055  000EEC  EF82  F007         	goto	i2l1260
  6056  000EF0                     i2u9620:
  6057                           	line	1326
  6058                           ;main.c: 1326: new_note = 0x4e;
  6059  000EF0  0101               	movlb	1	; () banked
  6060  000EF2  6F18               	movwf	(??_getNote+1+0)&0ffh
  6061  000EF4  0E4E               	movlw	low(04Eh)
  6062  000EF6  0101               	movlb	1	; () banked
  6063  000EF8  0101               	movlb	1	; () banked
  6064  000EFA  6F17               	movwf	((getNote@new_note))&0ffh
  6065  000EFC  0101               	movlb	1	; () banked
  6066  000EFE  5118               	movf	(??_getNote+1+0)&0ffh,w
  6067                           	line	1327
  6068                           ;main.c: 1327: } else {
  6069  000F00  EF8A  F007         	goto	i2l1257
  6070                           	
  6071  000F04                     i2l1260:		; BSR set to: ?
  6072                           
  6073                           	line	1329
  6074                           ;main.c: 1329: new_note = 0x00;
  6075  000F04  0101               	movlb	1	; () banked
  6076  000F06  6F18               	movwf	(??_getNote+1+0)&0ffh
  6077  000F08  0E00               	movlw	low(0)
  6078  000F0A  0101               	movlb	1	; () banked
  6079  000F0C  0101               	movlb	1	; () banked
  6080  000F0E  6F17               	movwf	((getNote@new_note))&0ffh
  6081  000F10  0101               	movlb	1	; () banked
  6082  000F12  5118               	movf	(??_getNote+1+0)&0ffh,w
  6083                           	line	1330
  6084                           	
  6085  000F14                     i2l1261:		; BSR set to: ?
  6086                           
  6087                           	
  6088  000F14                     i2l1259:		; BSR set to: ?
  6089                           
  6090                           	
  6091  000F14                     i2l1257:		; BSR set to: ?
  6092                           
  6093                           	line	1332
  6094                           ;main.c: 1330: }
  6095                           ;main.c: 1332: } else if (hResult == 0x02) {
  6096  000F14  EF5E  F008         	goto	i2l1254
  6097                           	
  6098  000F18                     i2l1255:		; BSR set to: ?
  6099                           
  6100  000F18  0101               	movlb	1	; () banked
  6101  000F1A  0101               	movlb	1	; () banked
  6102  000F1C  5115               	movf	((getNote@hResult))&0ffh,w
  6103  000F1E  0A02               	xorlw	2
  6104                           
  6105  000F20  A4D8               	btfss	status,2
  6106  000F22  EF95  F007         	goto	i2u9631
  6107  000F26  EF97  F007         	goto	i2u9630
  6108  000F2A                     i2u9631:
  6109  000F2A  EFF1  F007         	goto	i2l1263
  6110  000F2E                     i2u9630:
  6111                           	line	1333
  6112                           ;main.c: 1333: if (lResult >= 223 && lResult <= 
                                 256) {
  6113  000F2E  0EDE               	movlw	(0DFh-1)
  6114  000F30  0101               	movlb	1	; () banked
  6115  000F32  0101               	movlb	1	; () banked
  6116  000F34  6516               	cpfsgt	((getNote@lResult))&0ffh
  6117  000F36  EF9F  F007         	goto	i2u9641
  6118  000F3A  EFA1  F007         	goto	i2u9640
  6119  000F3E                     i2u9641:
  6120  000F3E  EFAB  F007         	goto	i2l1264
  6121  000F42                     i2u9640:
  6122                           	line	1335
  6123                           ;main.c: 1335: new_note = 0x36;
  6124  000F42  0101               	movlb	1	; () banked
  6125  000F44  6F18               	movwf	(??_getNote+1+0)&0ffh
  6126  000F46  0E36               	movlw	low(036h)
  6127  000F48  0101               	movlb	1	; () banked
  6128  000F4A  0101               	movlb	1	; () banked
  6129  000F4C  6F17               	movwf	((getNote@new_note))&0ffh
  6130  000F4E  0101               	movlb	1	; () banked
  6131  000F50  5118               	movf	(??_getNote+1+0)&0ffh,w
  6132                           	line	1336
  6133                           ;main.c: 1336: } else if (lResult >= 165 && lRes
                                 ult <= 207) {
  6134  000F52  EFEF  F007         	goto	i2l1265
  6135                           	
  6136  000F56                     i2l1264:		; BSR set to: ?
  6137                           
  6138  000F56  0EA4               	movlw	(0A5h-1)
  6139  000F58  0101               	movlb	1	; () banked
  6140  000F5A  0101               	movlb	1	; () banked
  6141  000F5C  6516               	cpfsgt	((getNote@lResult))&0ffh
  6142  000F5E  EFB3  F007         	goto	i2u9651
  6143  000F62  EFB5  F007         	goto	i2u9650
  6144  000F66                     i2u9651:
  6145  000F66  EFC9  F007         	goto	i2l1266
  6146  000F6A                     i2u9650:
  6147  000F6A  0ED0               	movlw	(0D0h)&0ffh
  6148  000F6C  0101               	movlb	1	; () banked
  6149  000F6E  0101               	movlb	1	; () banked
  6150  000F70  6116               	cpfslt	((getNote@lResult))&0ffh
  6151  000F72  EFBD  F007         	goto	i2u9661
  6152  000F76  EFBF  F007         	goto	i2u9660
  6153  000F7A                     i2u9661:
  6154  000F7A  EFC9  F007         	goto	i2l1266
  6155  000F7E                     i2u9660:
  6156                           	line	1338
  6157                           ;main.c: 1338: new_note = 0x26;
  6158  000F7E  0101               	movlb	1	; () banked
  6159  000F80  6F18               	movwf	(??_getNote+1+0)&0ffh
  6160  000F82  0E26               	movlw	low(026h)
  6161  000F84  0101               	movlb	1	; () banked
  6162  000F86  0101               	movlb	1	; () banked
  6163  000F88  6F17               	movwf	((getNote@new_note))&0ffh
  6164  000F8A  0101               	movlb	1	; () banked
  6165  000F8C  5118               	movf	(??_getNote+1+0)&0ffh,w
  6166                           	line	1339
  6167                           ;main.c: 1339: } else if (lResult >= 132 && lRes
                                 ult <= 160) {
  6168  000F8E  EFEF  F007         	goto	i2l1265
  6169                           	
  6170  000F92                     i2l1266:		; BSR set to: ?
  6171                           
  6172  000F92  0E83               	movlw	(084h-1)
  6173  000F94  0101               	movlb	1	; () banked
  6174  000F96  0101               	movlb	1	; () banked
  6175  000F98  6516               	cpfsgt	((getNote@lResult))&0ffh
  6176  000F9A  EFD1  F007         	goto	i2u9671
  6177  000F9E  EFD3  F007         	goto	i2u9670
  6178  000FA2                     i2u9671:
  6179  000FA2  EFE7  F007         	goto	i2l1268
  6180  000FA6                     i2u9670:
  6181  000FA6  0EA1               	movlw	(0A1h)&0ffh
  6182  000FA8  0101               	movlb	1	; () banked
  6183  000FAA  0101               	movlb	1	; () banked
  6184  000FAC  6116               	cpfslt	((getNote@lResult))&0ffh
  6185  000FAE  EFDB  F007         	goto	i2u9681
  6186  000FB2  EFDD  F007         	goto	i2u9680
  6187  000FB6                     i2u9681:
  6188  000FB6  EFE7  F007         	goto	i2l1268
  6189  000FBA                     i2u9680:
  6190                           	line	1341
  6191                           ;main.c: 1341: new_note = 0x2e;
  6192  000FBA  0101               	movlb	1	; () banked
  6193  000FBC  6F18               	movwf	(??_getNote+1+0)&0ffh
  6194  000FBE  0E2E               	movlw	low(02Eh)
  6195  000FC0  0101               	movlb	1	; () banked
  6196  000FC2  0101               	movlb	1	; () banked
  6197  000FC4  6F17               	movwf	((getNote@new_note))&0ffh
  6198  000FC6  0101               	movlb	1	; () banked
  6199  000FC8  5118               	movf	(??_getNote+1+0)&0ffh,w
  6200                           	line	1342
  6201                           ;main.c: 1342: } else {
  6202  000FCA  EFEF  F007         	goto	i2l1265
  6203                           	
  6204  000FCE                     i2l1268:		; BSR set to: ?
  6205                           
  6206                           	line	1344
  6207                           ;main.c: 1344: new_note = 0x00;
  6208  000FCE  0101               	movlb	1	; () banked
  6209  000FD0  6F18               	movwf	(??_getNote+1+0)&0ffh
  6210  000FD2  0E00               	movlw	low(0)
  6211  000FD4  0101               	movlb	1	; () banked
  6212  000FD6  0101               	movlb	1	; () banked
  6213  000FD8  6F17               	movwf	((getNote@new_note))&0ffh
  6214  000FDA  0101               	movlb	1	; () banked
  6215  000FDC  5118               	movf	(??_getNote+1+0)&0ffh,w
  6216                           	line	1345
  6217                           	
  6218  000FDE                     i2l1269:		; BSR set to: ?
  6219                           
  6220                           	
  6221  000FDE                     i2l1267:		; BSR set to: ?
  6222                           
  6223                           	
  6224  000FDE                     i2l1265:		; BSR set to: ?
  6225                           
  6226                           	line	1347
  6227                           ;main.c: 1345: }
  6228                           ;main.c: 1347: } else if (hResult == 0x03) {
  6229  000FDE  EF5E  F008         	goto	i2l1254
  6230                           	
  6231  000FE2                     i2l1263:		; BSR set to: ?
  6232                           
  6233  000FE2  0101               	movlb	1	; () banked
  6234  000FE4  0101               	movlb	1	; () banked
  6235  000FE6  5115               	movf	((getNote@hResult))&0ffh,w
  6236  000FE8  0A03               	xorlw	3
  6237                           
  6238  000FEA  A4D8               	btfss	status,2
  6239  000FEC  EFFA  F007         	goto	i2u9691
  6240  000FF0  EFFC  F007         	goto	i2u9690
  6241  000FF4                     i2u9691:
  6242  000FF4  EF5E  F008         	goto	i2l1254
  6243  000FF8                     i2u9690:
  6244                           	line	1348
  6245                           ;main.c: 1348: if (lResult >= 148 && lResult <= 
                                 174) {
  6246  000FF8  0E93               	movlw	(094h-1)
  6247  000FFA  0101               	movlb	1	; () banked
  6248  000FFC  0101               	movlb	1	; () banked
  6249  000FFE  6516               	cpfsgt	((getNote@lResult))&0ffh
  6250  001000  EF04  F008         	goto	i2u9701
  6251  001004  EF06  F008         	goto	i2u9700
  6252  001008                     i2u9701:
  6253  001008  EF1A  F008         	goto	i2l1272
  6254  00100C                     i2u9700:
  6255  00100C  0EAF               	movlw	(0AFh)&0ffh
  6256  00100E  0101               	movlb	1	; () banked
  6257  001010  0101               	movlb	1	; () banked
  6258  001012  6116               	cpfslt	((getNote@lResult))&0ffh
  6259  001014  EF0E  F008         	goto	i2u9711
  6260  001018  EF10  F008         	goto	i2u9710
  6261  00101C                     i2u9711:
  6262  00101C  EF1A  F008         	goto	i2l1272
  6263  001020                     i2u9710:
  6264                           	line	1350
  6265                           ;main.c: 1350: new_note = 0x16;
  6266  001020  0101               	movlb	1	; () banked
  6267  001022  6F18               	movwf	(??_getNote+1+0)&0ffh
  6268  001024  0E16               	movlw	low(016h)
  6269  001026  0101               	movlb	1	; () banked
  6270  001028  0101               	movlb	1	; () banked
  6271  00102A  6F17               	movwf	((getNote@new_note))&0ffh
  6272  00102C  0101               	movlb	1	; () banked
  6273  00102E  5118               	movf	(??_getNote+1+0)&0ffh,w
  6274                           	line	1351
  6275                           ;main.c: 1351: } else if (lResult >= 89 && lResu
                                 lt <= 120) {
  6276  001030  EF5E  F008         	goto	i2l1254
  6277                           	
  6278  001034                     i2l1272:		; BSR set to: ?
  6279                           
  6280  001034  0E58               	movlw	(059h-1)
  6281  001036  0101               	movlb	1	; () banked
  6282  001038  0101               	movlb	1	; () banked
  6283  00103A  6516               	cpfsgt	((getNote@lResult))&0ffh
  6284  00103C  EF22  F008         	goto	i2u9721
  6285  001040  EF24  F008         	goto	i2u9720
  6286  001044                     i2u9721:
  6287  001044  EF38  F008         	goto	i2l1274
  6288  001048                     i2u9720:
  6289  001048  0E79               	movlw	(079h)&0ffh
  6290  00104A  0101               	movlb	1	; () banked
  6291  00104C  0101               	movlb	1	; () banked
  6292  00104E  6116               	cpfslt	((getNote@lResult))&0ffh
  6293  001050  EF2C  F008         	goto	i2u9731
  6294  001054  EF2E  F008         	goto	i2u9730
  6295  001058                     i2u9731:
  6296  001058  EF38  F008         	goto	i2l1274
  6297  00105C                     i2u9730:
  6298                           	line	1353
  6299                           ;main.c: 1353: new_note = 0x06;
  6300  00105C  0101               	movlb	1	; () banked
  6301  00105E  6F18               	movwf	(??_getNote+1+0)&0ffh
  6302  001060  0E06               	movlw	low(06h)
  6303  001062  0101               	movlb	1	; () banked
  6304  001064  0101               	movlb	1	; () banked
  6305  001066  6F17               	movwf	((getNote@new_note))&0ffh
  6306  001068  0101               	movlb	1	; () banked
  6307  00106A  5118               	movf	(??_getNote+1+0)&0ffh,w
  6308                           	line	1354
  6309                           ;main.c: 1354: } else if (lResult >= 20 && lResu
                                 lt <= 72) {
  6310  00106C  EF5E  F008         	goto	i2l1254
  6311                           	
  6312  001070                     i2l1274:		; BSR set to: ?
  6313                           
  6314  001070  0E13               	movlw	(014h-1)
  6315  001072  0101               	movlb	1	; () banked
  6316  001074  0101               	movlb	1	; () banked
  6317  001076  6516               	cpfsgt	((getNote@lResult))&0ffh
  6318  001078  EF40  F008         	goto	i2u9741
  6319  00107C  EF42  F008         	goto	i2u9740
  6320  001080                     i2u9741:
  6321  001080  EF56  F008         	goto	i2l1276
  6322  001084                     i2u9740:
  6323  001084  0E49               	movlw	(049h)&0ffh
  6324  001086  0101               	movlb	1	; () banked
  6325  001088  0101               	movlb	1	; () banked
  6326  00108A  6116               	cpfslt	((getNote@lResult))&0ffh
  6327  00108C  EF4A  F008         	goto	i2u9751
  6328  001090  EF4C  F008         	goto	i2u9750
  6329  001094                     i2u9751:
  6330  001094  EF56  F008         	goto	i2l1276
  6331  001098                     i2u9750:
  6332                           	line	1356
  6333                           ;main.c: 1356: new_note = 0x0e;
  6334  001098  0101               	movlb	1	; () banked
  6335  00109A  6F18               	movwf	(??_getNote+1+0)&0ffh
  6336  00109C  0E0E               	movlw	low(0Eh)
  6337  00109E  0101               	movlb	1	; () banked
  6338  0010A0  0101               	movlb	1	; () banked
  6339  0010A2  6F17               	movwf	((getNote@new_note))&0ffh
  6340  0010A4  0101               	movlb	1	; () banked
  6341  0010A6  5118               	movf	(??_getNote+1+0)&0ffh,w
  6342                           	line	1357
  6343                           ;main.c: 1357: } else {
  6344  0010A8  EF5E  F008         	goto	i2l1254
  6345                           	
  6346  0010AC                     i2l1276:		; BSR set to: ?
  6347                           
  6348                           	line	1359
  6349                           ;main.c: 1359: new_note = 0x00;
  6350  0010AC  0101               	movlb	1	; () banked
  6351  0010AE  6F18               	movwf	(??_getNote+1+0)&0ffh
  6352  0010B0  0E00               	movlw	low(0)
  6353  0010B2  0101               	movlb	1	; () banked
  6354  0010B4  0101               	movlb	1	; () banked
  6355  0010B6  6F17               	movwf	((getNote@new_note))&0ffh
  6356  0010B8  0101               	movlb	1	; () banked
  6357  0010BA  5118               	movf	(??_getNote+1+0)&0ffh,w
  6358                           	line	1360
  6359                           	
  6360  0010BC                     i2l1277:		; BSR set to: ?
  6361                           
  6362                           	
  6363  0010BC                     i2l1275:		; BSR set to: ?
  6364                           
  6365                           	
  6366  0010BC                     i2l1273:		; BSR set to: ?
  6367                           
  6368                           	line	1361
  6369                           	
  6370  0010BC                     i2l1271:		; BSR set to: ?
  6371                           
  6372                           	line	1363
  6373                           	
  6374  0010BC                     i2l1270:		; BSR set to: ?
  6375                           
  6376                           	
  6377  0010BC                     i2l1262:		; BSR set to: ?
  6378                           
  6379                           	
  6380  0010BC                     i2l1254:		; BSR set to: ?
  6381                           
  6382                           ;main.c: 1360: }
  6383                           ;main.c: 1361: }
  6384                           ;main.c: 1363: } else if (adc_num == 6) {
  6385  0010BC  EFC6  F009         	goto	i2l1143
  6386                           	
  6387  0010C0                     i2l1252:		; BSR set to: ?
  6388                           
  6389  0010C0  5002               	movf	((c:2)),c,w	;volatile
  6390  0010C2  0A06               	xorlw	6
  6391                           
  6392  0010C4  A4D8               	btfss	status,2
  6393  0010C6  EF67  F008         	goto	i2u9761
  6394  0010CA  EF69  F008         	goto	i2u9760
  6395  0010CE                     i2u9761:
  6396  0010CE  EFC6  F009         	goto	i2l1143
  6397  0010D2                     i2u9760:
  6398                           	line	1364
  6399                           ;main.c: 1364: if (hResult == 0x00) {
  6400  0010D2  0101               	movlb	1	; () banked
  6401  0010D4  0101               	movlb	1	; () banked
  6402  0010D6  6715               	tstfsz	((getNote@hResult))&0ffh
  6403  0010D8  EF70  F008         	goto	i2u9771
  6404  0010DC  EF72  F008         	goto	i2u9770
  6405  0010E0                     i2u9771:
  6406  0010E0  EF7C  F008         	goto	i2l1280
  6407  0010E4                     i2u9770:
  6408                           	line	1366
  6409                           ;main.c: 1366: new_note = 0x00;
  6410  0010E4  0101               	movlb	1	; () banked
  6411  0010E6  6F18               	movwf	(??_getNote+1+0)&0ffh
  6412  0010E8  0E00               	movlw	low(0)
  6413  0010EA  0101               	movlb	1	; () banked
  6414  0010EC  0101               	movlb	1	; () banked
  6415  0010EE  6F17               	movwf	((getNote@new_note))&0ffh
  6416  0010F0  0101               	movlb	1	; () banked
  6417  0010F2  5118               	movf	(??_getNote+1+0)&0ffh,w
  6418                           	line	1368
  6419                           ;main.c: 1368: } else if (hResult == 0x01) {
  6420  0010F4  EFC6  F009         	goto	i2l1143
  6421                           	
  6422  0010F8                     i2l1280:		; BSR set to: ?
  6423                           
  6424  0010F8  0101               	movlb	1	; () banked
  6425  0010FA  0101               	movlb	1	; () banked
  6426  0010FC  0515               	decf	((getNote@hResult))&0ffh,w
  6427                           
  6428  0010FE  A4D8               	btfss	status,2
  6429  001100  EF84  F008         	goto	i2u9781
  6430  001104  EF86  F008         	goto	i2u9780
  6431  001108                     i2u9781:
  6432  001108  EFEA  F008         	goto	i2l1282
  6433  00110C                     i2u9780:
  6434                           	line	1369
  6435                           ;main.c: 1369: if (lResult >= 87 && lResult <= 1
                                 60) {
  6436  00110C  0E56               	movlw	(057h-1)
  6437  00110E  0101               	movlb	1	; () banked
  6438  001110  0101               	movlb	1	; () banked
  6439  001112  6516               	cpfsgt	((getNote@lResult))&0ffh
  6440  001114  EF8E  F008         	goto	i2u9791
  6441  001118  EF90  F008         	goto	i2u9790
  6442  00111C                     i2u9791:
  6443  00111C  EFA4  F008         	goto	i2l1283
  6444  001120                     i2u9790:
  6445  001120  0EA1               	movlw	(0A1h)&0ffh
  6446  001122  0101               	movlb	1	; () banked
  6447  001124  0101               	movlb	1	; () banked
  6448  001126  6116               	cpfslt	((getNote@lResult))&0ffh
  6449  001128  EF98  F008         	goto	i2u9801
  6450  00112C  EF9A  F008         	goto	i2u9800
  6451  001130                     i2u9801:
  6452  001130  EFA4  F008         	goto	i2l1283
  6453  001134                     i2u9800:
  6454                           	line	1371
  6455                           ;main.c: 1371: new_note = 0x57;
  6456  001134  0101               	movlb	1	; () banked
  6457  001136  6F18               	movwf	(??_getNote+1+0)&0ffh
  6458  001138  0E57               	movlw	low(057h)
  6459  00113A  0101               	movlb	1	; () banked
  6460  00113C  0101               	movlb	1	; () banked
  6461  00113E  6F17               	movwf	((getNote@new_note))&0ffh
  6462  001140  0101               	movlb	1	; () banked
  6463  001142  5118               	movf	(??_getNote+1+0)&0ffh,w
  6464                           	line	1372
  6465                           ;main.c: 1372: } else if (lResult >= 175 && lRes
                                 ult <= 215) {
  6466  001144  EFE8  F008         	goto	i2l1284
  6467                           	
  6468  001148                     i2l1283:		; BSR set to: ?
  6469                           
  6470  001148  0EAE               	movlw	(0AFh-1)
  6471  00114A  0101               	movlb	1	; () banked
  6472  00114C  0101               	movlb	1	; () banked
  6473  00114E  6516               	cpfsgt	((getNote@lResult))&0ffh
  6474  001150  EFAC  F008         	goto	i2u9811
  6475  001154  EFAE  F008         	goto	i2u9810
  6476  001158                     i2u9811:
  6477  001158  EFC2  F008         	goto	i2l1285
  6478  00115C                     i2u9810:
  6479  00115C  0ED8               	movlw	(0D8h)&0ffh
  6480  00115E  0101               	movlb	1	; () banked
  6481  001160  0101               	movlb	1	; () banked
  6482  001162  6116               	cpfslt	((getNote@lResult))&0ffh
  6483  001164  EFB6  F008         	goto	i2u9821
  6484  001168  EFB8  F008         	goto	i2u9820
  6485  00116C                     i2u9821:
  6486  00116C  EFC2  F008         	goto	i2l1285
  6487  001170                     i2u9820:
  6488                           	line	1374
  6489                           ;main.c: 1374: new_note = 0x47;
  6490  001170  0101               	movlb	1	; () banked
  6491  001172  6F18               	movwf	(??_getNote+1+0)&0ffh
  6492  001174  0E47               	movlw	low(047h)
  6493  001176  0101               	movlb	1	; () banked
  6494  001178  0101               	movlb	1	; () banked
  6495  00117A  6F17               	movwf	((getNote@new_note))&0ffh
  6496  00117C  0101               	movlb	1	; () banked
  6497  00117E  5118               	movf	(??_getNote+1+0)&0ffh,w
  6498                           	line	1375
  6499                           ;main.c: 1375: } else if (lResult >= 224 && lRes
                                 ult <= 228) {
  6500  001180  EFE8  F008         	goto	i2l1284
  6501                           	
  6502  001184                     i2l1285:		; BSR set to: ?
  6503                           
  6504  001184  0EDF               	movlw	(0E0h-1)
  6505  001186  0101               	movlb	1	; () banked
  6506  001188  0101               	movlb	1	; () banked
  6507+ 00118A  6516               	cpfsgt	((getNote@lResult))&0ffh
  6508+ 00118C  EFCA  F008         	goto	i2u9831
  6509+ 001190  EFCC  F008         	goto	i2u9830
  6510+ 001194                     i2u9831:
  6511+ 001194  EFE0  F008         	goto	i2l1287
  6512+ 001198                     i2u9830:
  6513+ 001198  0EE5               	movlw	(0E5h)&0ffh
  6514+ 00119A  0101               	movlb	1	; () banked
  6515+ 00119C  0101               	movlb	1	; () banked
  6516+ 00119E  6116               	cpfslt	((getNote@lResult))&0ffh
  6517+ 0011A0  EFD4  F008         	goto	i2u9841
  6518+ 0011A4  EFD6  F008         	goto	i2u9840
  6519+ 0011A8                     i2u9841:
  6520+ 0011A8  EFE0  F008         	goto	i2l1287
  6521+ 0011AC                     i2u9840:
  6522+                          	line	1377
  6523+                          ;main.c: 1377: new_note = 0x4f;
  6524+ 0011AC  0101               	movlb	1	; () banked
  6525+ 0011AE  6F18               	movwf	(??_getNote+1+0)&0ffh
  6526+ 0011B0  0E4F               	movlw	low(04Fh)
  6527+ 0011B2  0101               	movlb	1	; () banked
  6528+ 0011B4  0101               	movlb	1	; () banked
  6529+ 0011B6  6F17               	movwf	((getNote@new_note))&0ffh
  6530+ 0011B8  0101               	movlb	1	; () banked
  6531+ 0011BA  5118               	movf	(??_getNote+1+0)&0ffh,w
  6532+                          	line	1378
  6533+                          ;main.c: 1378: } else {
  6534+ 0011BC  EFE8  F008         	goto	i2l1284
  6535+                          	
  6536+ 0011C0                     i2l1287:		; BSR set to: ?
  6537+                          
  6538+                          	line	1380
  6539+                          ;main.c: 1380: new_note = 0x00;
  6540+ 0011C0  0101               	movlb	1	; () banked
  6541+ 0011C2  6F18               	movwf	(??_getNote+1+0)&0ffh
  6542+ 0011C4  0E00               	movlw	low(0)
  6543+ 0011C6  0101               	movlb	1	; () banked
  6544+ 0011C8  0101               	movlb	1	; () banked
  6545+ 0011CA  6F17               	movwf	((getNote@new_note))&0ffh
  6546+ 0011CC  0101               	movlb	1	; () banked
  6547+ 0011CE  5118               	movf	(??_getNote+1+0)&0ffh,w
  6548+                          	line	1381
  6549+                          	
  6550+ 0011D0                     i2l1288:		; BSR set to: ?
  6551+                          
  6552+                          	
  6553+ 0011D0                     i2l1286:		; BSR set to: ?
  6554+                          
  6555+                          	
  6556+ 0011D0                     i2l1284:		; BSR set to: ?
  6557+                          
  6558+                          	line	1383
  6559+                          ;main.c: 1381: }
  6560+                          ;main.c: 1383: } else if (hResult == 0x02) {
  6561+ 0011D0  EFC6  F009         	goto	i2l1143
  6562+                          	
  6563+ 0011D4                     i2l1282:		; BSR set to: ?
  6564+                          
  6565+ 0011D4  0101               	movlb	1	; () banked
  6566+ 0011D6  0101               	movlb	1	; () banked
  6567+ 0011D8  5115               	movf	((getNote@hResult))&0ffh,w
  6568+ 0011DA  0A02               	xorlw	2
  6569+                          
  6570+ 0011DC  A4D8               	btfss	status,2
  6571+ 0011DE  EFF3  F008         	goto	i2u9851
  6572+ 0011E2  EFF5  F008         	goto	i2u9850
  6573+ 0011E6                     i2u9851:
  6574+ 0011E6  EF59  F009         	goto	i2l1290
  6575+ 0011EA                     i2u9850:
  6576+                          	line	1384
  6577+                          ;main.c: 1384: if (lResult >= 200 && lResult <= 
      +                          229) {
  6578+ 0011EA  0EC7               	movlw	(0C8h-1)
  6579+ 0011EC  0101               	movlb	1	; () banked
  6580+ 0011EE  0101               	movlb	1	; () banked
  6581+ 0011F0  6516               	cpfsgt	((getNote@lResult))&0ffh
  6582+ 0011F2  EFFD  F008         	goto	i2u9861
  6583+ 0011F6  EFFF  F008         	goto	i2u9860
  6584+ 0011FA                     i2u9861:
  6585+ 0011FA  EF13  F009         	goto	i2l1291
  6586+ 0011FE                     i2u9860:
  6587+ 0011FE  0EE6               	movlw	(0E6h)&0ffh
  6588+ 001200  0101               	movlb	1	; () banked
  6589+ 001202  0101               	movlb	1	; () banked
  6590+ 001204  6116               	cpfslt	((getNote@lResult))&0ffh
  6591+ 001206  EF07  F009         	goto	i2u9871
  6592+ 00120A  EF09  F009         	goto	i2u9870
  6593+ 00120E                     i2u9871:
  6594+ 00120E  EF13  F009         	goto	i2l1291
  6595+ 001212                     i2u9870:
  6596+                          	line	1386
  6597+                          ;main.c: 1386: new_note = 0x37;
  6598+ 001212  0101               	movlb	1	; () banked
  6599+ 001214  6F18               	movwf	(??_getNote+1+0)&0ffh
  6600+ 001216  0E37               	movlw	low(037h)
  6601+ 001218  0101               	movlb	1	; () banked
  6602+ 00121A  0101               	movlb	1	; () banked
  6603+ 00121C  6F17               	movwf	((getNote@new_note))&0ffh
  6604+ 00121E  0101               	movlb	1	; () banked
  6605+ 001220  5118               	movf	(??_getNote+1+0)&0ffh,w
  6606+                          	line	1387
  6607+                          ;main.c: 1387: } else if (lResult >= 139 && lRes
      +                          ult <= 192) {
  6608+ 001222  EF57  F009         	goto	i2l1292
  6609+                          	
  6610+ 001226                     i2l1291:		; BSR set to: ?
  6611+                          
  6612+ 001226  0E8A               	movlw	(08Bh-1)
  6613+ 001228  0101               	movlb	1	; () banked
  6614+ 00122A  0101               	movlb	1	; () banked
  6615+ 00122C  6516               	cpfsgt	((getNote@lResult))&0ffh
  6616+ 00122E  EF1B  F009         	goto	i2u9881
  6617+ 001232  EF1D  F009         	goto	i2u9880
  6618+ 001236                     i2u9881:
  6619+ 001236  EF31  F009         	goto	i2l1293
  6620+ 00123A                     i2u9880:
  6621+ 00123A  0EC1               	movlw	(0C1h)&0ffh
  6622+ 00123C  0101               	movlb	1	; () banked
  6623+ 00123E  0101               	movlb	1	; () banked
  6624+ 001240  6116               	cpfslt	((getNote@lResult))&0ffh
  6625+ 001242  EF25  F009         	goto	i2u9891
  6626+ 001246  EF27  F009         	goto	i2u9890
  6627+ 00124A                     i2u9891:
  6628+ 00124A  EF31  F009         	goto	i2l1293
  6629+ 00124E                     i2u9890:
  6630+                          	line	1389
  6631+                          ;main.c: 1389: new_note = 0x27;
  6632+ 00124E  0101               	movlb	1	; () banked
  6633+ 001250  6F18               	movwf	(??_getNote+1+0)&0ffh
  6634+ 001252  0E27               	movlw	low(027h)
  6635+ 001254  0101               	movlb	1	; () banked
  6636+ 001256  0101               	movlb	1	; () banked
  6637+ 001258  6F17               	movwf	((getNote@new_note))&0ffh
  6638+ 00125A  0101               	movlb	1	; () banked
  6639+ 00125C  5118               	movf	(??_getNote+1+0)&0ffh,w
  6640+                          	line	1390
  6641+                          ;main.c: 1390: } else if (lResult >= 107 && lRes
      +                          ult <= 140) {
  6642+ 00125E  EF57  F009         	goto	i2l1292
  6643+                          	
  6644+ 001262                     i2l1293:		; BSR set to: ?
  6645+                          
  6646+ 001262  0E6A               	movlw	(06Bh-1)
  6647+ 001264  0101               	movlb	1	; () banked
  6648+ 001266  0101               	movlb	1	; () banked
  6649+ 001268  6516               	cpfsgt	((getNote@lResult))&0ffh
  6650+ 00126A  EF39  F009         	goto	i2u9901
  6651+ 00126E  EF3B  F009         	goto	i2u9900
  6652+ 001272                     i2u9901:
  6653+ 001272  EF4F  F009         	goto	i2l1295
  6654+ 001276                     i2u9900:
  6655+ 001276  0E8D               	movlw	(08Dh)&0ffh
  6656+ 001278  0101               	movlb	1	; () banked
  6657+ 00127A  0101               	movlb	1	; () banked
  6658+ 00127C  6116               	cpfslt	((getNote@lResult))&0ffh
  6659+ 00127E  EF43  F009         	goto	i2u9911
  6660+ 001282  EF45  F009         	goto	i2u9910
  6661+ 001286                     i2u9911:
  6662+ 001286  EF4F  F009         	goto	i2l1295
  6663+ 00128A                     i2u9910:
  6664+                          	line	1392
  6665+                          ;main.c: 1392: new_note = 0x2f;
  6666+ 00128A  0101               	movlb	1	; () banked
  6667+ 00128C  6F18               	movwf	(??_getNote+1+0)&0ffh
  6668+ 00128E  0E2F               	movlw	low(02Fh)
  6669+ 001290  0101               	movlb	1	; () banked
  6670+ 001292  0101               	movlb	1	; () banked
  6671+ 001294  6F17               	movwf	((getNote@new_note))&0ffh
  6672+ 001296  0101               	movlb	1	; () banked
  6673+ 001298  5118               	movf	(??_getNote+1+0)&0ffh,w
  6674+                          	line	1393
  6675+                          ;main.c: 1393: } else {
  6676+ 00129A  EF57  F009         	goto	i2l1292
  6677+                          	
  6678+ 00129E                     i2l1295:		; BSR set to: ?
  6679+                          
  6680+                          	line	1395
  6681+                          ;main.c: 1395: new_note = 0x00;
  6682+ 00129E  0101               	movlb	1	; () banked
  6683+ 0012A0  6F18               	movwf	(??_getNote+1+0)&0ffh
  6684+ 0012A2  0E00               	movlw	low(0)
  6685+ 0012A4  0101               	movlb	1	; () banked
  6686+ 0012A6  0101               	movlb	1	; () banked
  6687+ 0012A8  6F17               	movwf	((getNote@new_note))&0ffh
  6688+ 0012AA  0101               	movlb	1	; () banked
  6689+ 0012AC  5118               	movf	(??_getNote+1+0)&0ffh,w
  6690+                          	line	1396
  6691+                          	
  6692+ 0012AE                     i2l1296:		; BSR set to: ?
  6693+                          
  6694+                          	
  6695+ 0012AE                     i2l1294:		; BSR set to: ?
  6696+                          
  6697+                          	
  6698+ 0012AE                     i2l1292:		; BSR set to: ?
  6699+                          
  6700+                          	line	1398
  6701+                          ;main.c: 1396: }
  6702+                          ;main.c: 1398: } else if (hResult == 0x03) {
  6703+ 0012AE  EFC6  F009         	goto	i2l1143
  6704+                          	
  6705+ 0012B2                     i2l1290:		; BSR set to: ?
  6706+                          
  6707+ 0012B2  0101               	movlb	1	; () banked
  6708+ 0012B4  0101               	movlb	1	; () banked
  6709+ 0012B6  5115               	movf	((getNote@hResult))&0ffh,w
  6710+ 0012B8  0A03               	xorlw	3
  6711+                          
  6712+ 0012BA  A4D8               	btfss	status,2
  6713+ 0012BC  EF62  F009         	goto	i2u9921
  6714+ 0012C0  EF64  F009         	goto	i2u9920
  6715+ 0012C4                     i2u9921:
  6716+ 0012C4  EFC6  F009         	goto	i2l1143
  6717+ 0012C8                     i2u9920:
  6718+                          	line	1399
  6719+                          ;main.c: 1399: if (lResult >= 165 && lResult <= 
      +                          190) {
  6720+ 0012C8  0EA4               	movlw	(0A5h-1)
  6721+ 0012CA  0101               	movlb	1	; () banked
  6722+ 0012CC  0101               	movlb	1	; () banked
  6723+ 0012CE  6516               	cpfsgt	((getNote@lResult))&0ffh
  6724+ 0012D0  EF6C  F009         	goto	i2u9931
  6725+ 0012D4  EF6E  F009         	goto	i2u9930
  6726+ 0012D8                     i2u9931:
  6727+ 0012D8  EF82  F009         	goto	i2l1299
  6728+ 0012DC                     i2u9930:
  6729+ 0012DC  0EBF               	movlw	(0BFh)&0ffh
  6730+ 0012DE  0101               	movlb	1	; () banked
  6731+ 0012E0  0101               	movlb	1	; () banked
  6732+ 0012E2  6116               	cpfslt	((getNote@lResult))&0ffh
  6733+ 0012E4  EF76  F009         	goto	i2u9941
  6734+ 0012E8  EF78  F009         	goto	i2u9940
  6735+ 0012EC                     i2u9941:
  6736+ 0012EC  EF82  F009         	goto	i2l1299
  6737+ 0012F0                     i2u9940:
  6738+                          	line	1401
  6739+                          ;main.c: 1401: new_note = 0x17;
  6740+ 0012F0  0101               	movlb	1	; () banked
  6741+ 0012F2  6F18               	movwf	(??_getNote+1+0)&0ffh
  6742+ 0012F4  0E17               	movlw	low(017h)
  6743+ 0012F6  0101               	movlb	1	; () banked
  6744+ 0012F8  0101               	movlb	1	; () banked
  6745+ 0012FA  6F17               	movwf	((getNote@new_note))&0ffh
  6746+ 0012FC  0101               	movlb	1	; () banked
  6747+ 0012FE  5118               	movf	(??_getNote+1+0)&0ffh,w
  6748+                          	line	1402
  6749+                          ;main.c: 1402: } else if (lResult >= 130 && lRes
      +                          ult <= 160) {
  6750+ 001300  EFC6  F009         	goto	i2l1143
  6751+                          	
  6752+ 001304                     i2l1299:		; BSR set to: ?
  6753+                          
  6754+ 001304  0E81               	movlw	(082h-1)
  6755+ 001306  0101               	movlb	1	; () banked
  6756+ 001308  0101               	movlb	1	; () banked
  6757+ 00130A  6516               	cpfsgt	((getNote@lResult))&0ffh
  6758+ 00130C  EF8A  F009         	goto	i2u9951
  6759+ 001310  EF8C  F009         	goto	i2u9950
  6760+ 001314                     i2u9951:
  6761+ 001314  EFA0  F009         	goto	i2l1301
  6762+ 001318                     i2u9950:
  6763+ 001318  0EA1               	movlw	(0A1h)&0ffh
  6764+ 00131A  0101               	movlb	1	; () banked
  6765+ 00131C  0101               	movlb	1	; () banked
  6766+ 00131E  6116               	cpfslt	((getNote@lResult))&0ffh
  6767+ 001320  EF94  F009         	goto	i2u9961
  6768+ 001324  EF96  F009         	goto	i2u9960
  6769+ 001328                     i2u9961:
  6770+ 001328  EFA0  F009         	goto	i2l1301
  6771+ 00132C                     i2u9960:
  6772+                          	line	1404
  6773+                          ;main.c: 1404: new_note = 0x07;
  6774+ 00132C  0101               	movlb	1	; () banked
  6775+ 00132E  6F18               	movwf	(??_getNote+1+0)&0ffh
  6776+ 001330  0E07               	movlw	low(07h)
  6777+ 001332  0101               	movlb	1	; () banked
  6778+ 001334  0101               	movlb	1	; () banked
  6779+ 001336  6F17               	movwf	((getNote@new_note))&0ffh
  6780+ 001338  0101               	movlb	1	; () banked
  6781+ 00133A  5118               	movf	(??_getNote+1+0)&0ffh,w
  6782+                          	line	1405
  6783+                          ;main.c: 1405: } else if (lResult >= 107 && lRes
      +                          ult <= 125) {
  6784+ 00133C  EFC6  F009         	goto	i2l1143
  6785+                          	
  6786+ 001340                     i2l1301:		; BSR set to: ?
  6787+                          
  6788+ 001340  0E6A               	movlw	(06Bh-1)
  6789+ 001342  0101               	movlb	1	; () banked
  6790+ 001344  0101               	movlb	1	; () banked
  6791+ 001346  6516               	cpfsgt	((getNote@lResult))&0ffh
  6792+ 001348  EFA8  F009         	goto	i2u9971
  6793+ 00134C  EFAA  F009         	goto	i2u9970
  6794+ 001350                     i2u9971:
  6795+ 001350  EFBE  F009         	goto	i2l1303
  6796+ 001354                     i2u9970:
  6797+ 001354  0E7E               	movlw	(07Eh)&0ffh
  6798+ 001356  0101               	movlb	1	; () banked
  6799+ 001358  0101               	movlb	1	; () banked
  6800+ 00135A  6116               	cpfslt	((getNote@lResult))&0ffh
  6801+ 00135C  EFB2  F009         	goto	i2u9981
  6802+ 001360  EFB4  F009         	goto	i2u9980
  6803+ 001364                     i2u9981:
  6804+ 001364  EFBE  F009         	goto	i2l1303
  6805+ 001368                     i2u9980:
  6806+                          	line	1407
  6807+                          ;main.c: 1407: new_note = 0x0f;
  6808+ 001368  0101               	movlb	1	; () banked
  6809+ 00136A  6F18               	movwf	(??_getNote+1+0)&0ffh
  6810+ 00136C  0E0F               	movlw	low(0Fh)
  6811+ 00136E  0101               	movlb	1	; () banked
  6812+ 001370  0101               	movlb	1	; () banked
  6813+ 001372  6F17               	movwf	((getNote@new_note))&0ffh
  6814+ 001374  0101               	movlb	1	; () banked
  6815+ 001376  5118               	movf	(??_getNote+1+0)&0ffh,w
  6816+                          	line	1408
  6817+                          ;main.c: 1408: } else {
  6818+ 001378  EFC6  F009         	goto	i2l1143
  6819+                          	
  6820+ 00137C                     i2l1303:		; BSR set to: ?
  6821+                          
  6822+                          	line	1410
  6823+                          ;main.c: 1410: new_note = 0x00;
  6824+ 00137C  0101               	movlb	1	; () banked
  6825+ 00137E  6F18               	movwf	(??_getNote+1+0)&0ffh
  6826+ 001380  0E00               	movlw	low(0)
  6827+ 001382  0101               	movlb	1	; () banked
  6828+ 001384  0101               	movlb	1	; () banked
  6829+ 001386  6F17               	movwf	((getNote@new_note))&0ffh
  6830+ 001388  0101               	movlb	1	; () banked
  6831+ 00138A  5118               	movf	(??_getNote+1+0)&0ffh,w
  6832+                          	line	1411
  6833+                          	
  6834+ 00138C                     i2l1304:		; BSR set to: ?
  6835+                          
  6836+                          	
  6837+ 00138C                     i2l1302:		; BSR set to: ?
  6838+                          
  6839+                          	
  6840+ 00138C                     i2l1300:		; BSR set to: ?
  6841+                          
  6842+                          	line	1413
  6843+                          	
  6844+ 00138C                     i2l1298:		; BSR set to: ?
  6845+                          
  6846+                          	line	1415
  6847+                          	
  6848+ 00138C                     i2l1297:		; BSR set to: ?
  6849+                          
  6850+                          	
  6851+ 00138C                     i2l1289:		; BSR set to: ?
  6852+                          
  6853+                          	
  6854+ 00138C                     i2l1281:		; BSR set to: ?
  6855+                          
  6856+                          	
  6857+ 00138C                     i2l1279:		; BSR set to: ?
  6858+                          
  6859+                          	line	1416
  6860+                          	
  6861+ 00138C                     i2l1278:		; BSR set to: ?
  6862+                          
  6863+                          	
  6864+ 00138C                     i2l1251:		; BSR set to: ?
  6865+                          
  6866+                          	
  6867+ 00138C                     i2l1224:		; BSR set to: ?
  6868+                          
  6869+                          	
  6870+ 00138C                     i2l1197:		; BSR set to: ?
  6871+                          
  6872+                          	
  6873+ 00138C                     i2l1170:		; BSR set to: ?
  6874+                          
  6875+                          	
  6876+ 00138C                     i2l1143:		; BSR set to: ?
  6877+                          
  6878+                          ;main.c: 1411: }
  6879+                          ;main.c: 1413: }
  6880+                          ;main.c: 1415: }
  6881+                          ;main.c: 1416: return new_note;
  6882+ 00138C  0101               	movlb	1	; () banked
  6883+ 00138E  0101               	movlb	1	; () banked
  6884+ 001390  5117               	movf	((getNote@new_note))&0ffh,w
  6885+ 001392  EFCB  F009         	goto	i2l1116
  6886+                          	line	1417
  6887+                          ;main.c: 1417: }
  6888+ 001396                     i2l1116:
  6889+                          			; BSR set to: ?
  6890+                          
  6891+ 001396  0012               	return
  6892+                          	opt stack 0
  6893+                          GLOBAL __end_of_getNote
  6894+ 001398                     	__end_of_getNote:
  6895+                          	FNSIZE	_getNote,2,2
  6896+                          ; =============== function _getNote ends =======
      +                          =====
  6897+                          
  6898+                          	signat	_getNote,8313
  6899+                          	FNROOT	_main
  6900+                          	FNCALL	_my_isr,_adc_conversion
  6901+                          	FNCALL	_my_isr,_ToggleLeds
  6902+                          	FNCALL	_adc_conversion,_getNote
  6903+                          	FNCALL	intlevel2,_my_isr
  6904+                          	global	intlevel2
  6905+                          	FNROOT	intlevel2
  6906+                                  psect   const,class=CODE,space=0,reloc=2
  6907+                          	global	_led_array
  6908+                          	global	_led_array
  6909+ 000000                     _led_array  equ     28
  6910+                          
  6911+                          	DABS	1,28,26	;_led_array
  6912+                          	global	_cur_inputs
  6913+                          	global	_cur_inputs
  6914+ 000000                     _cur_inputs  equ     61
  6915+                          
  6916+                          	DABS	1,61,7	;_cur_inputs
  6917+                          	global	_prev_inputs
  6918+                          	global	_prev_inputs
  6919+ 000000                     _prev_inputs  equ     54
  6920+                          
  6921+                          	DABS	1,54,7	;_prev_inputs
  6922+                          	global	_chanA
  6923+                          	global	_chanA
  6924+ 000000                     _chanA  equ     15
  6925+                          
  6926+                          	DABS	1,15,3	;_chanA
  6927+                          	global	_chanB
  6928+                          	global	_chanB
  6929+ 000000                     _chanB  equ     18
  6930+                          
  6931+                          	DABS	1,18,3	;_chanB
  6932+                          	global	_chanC
  6933+                          	global	_chanC
  6934+ 000000                     _chanC  equ     21
  6935+                          
  6936+                          	DABS	1,21,3	;_chanC
  6937+                          	global	_chanD
  6938+                          	global	_chanD
  6939+ 000000                     _chanD  equ     6
  6940+                          
  6941+                          	DABS	1,6,3	;_chanD
  6942+                          	global	_chanE
  6943+                          	global	_chanE
  6944+ 000000                     _chanE  equ     3
  6945+                          
  6946+                          	DABS	1,3,3	;_chanE
  6947+                          	global	_chanF
  6948+                          	global	_chanF
  6949+ 000000                     _chanF  equ     12
  6950+                          
  6951+                          	DABS	1,12,3	;_chanF
  6952+                          	global	_chanG
  6953+                          	global	_chanG
  6954+ 000000                     _chanG  equ     9
  6955+                          
  6956+                          	DABS	1,9,3	;_chanG
  6957+                          	global	_conv_result
  6958+                          	global	_conv_result
  6959+ 000000                     _conv_result  equ     0
  6960+                          
  6961+                          	DABS	1,0,2	;_conv_result
  6962+                          	global	_index
  6963+                          	global	_index
  6964+ 000000                     _index  equ     68
  6965+                          
  6966+                          	DABS	1,68,2	;_index
  6967+                          	global	_USART_Status
  6968+                          	global	_USART_Status
  6969+ 000000                     _USART_Status  equ     24
  6970+                          
  6971+                          	DABS	1,24,1	;_USART_Status
  6972+                          	global	_adc_num
  6973+                          	global	_adc_num
  6974+ 000000                     _adc_num  equ     2
  6975+                          
  6976+                          	DABS	1,2,1	;_adc_num
  6977+                          	global	_change_val
  6978+                          	global	_change_val
  6979+ 000000                     _change_val  equ     25
  6980+                          
  6981+                          	DABS	1,25,1	;_change_val
  6982+                          	global	_new_note
  6983+                          	global	_new_note
  6984+ 000000                     _new_note  equ     27
  6985+                          
  6986+                          	DABS	1,27,1	;_new_note
  6987+                          	global	_uart_out
  6988+                          	global	_uart_out
  6989+ 000000                     _uart_out  equ     26
  6990+                          
  6991+                          	DABS	1,26,1	;_uart_out
  6992+                          	global	_ADCON0
  6993+ 000000                     _ADCON0	equ	0xFC2
  6994+                          	global	_ADCON1
  6995+ 000000                     _ADCON1	equ	0xFC1
  6996+                          	global	_ADCON2
  6997+ 000000                     _ADCON2	equ	0xFC0
  6998+                          	global	_ADRESH
  6999+ 000000                     _ADRESH	equ	0xFC4
  7000+                          	global	_ADRESL
  7001+ 000000                     _ADRESL	equ	0xFC3
  7002+                          	global	_BAUDCON
  7003+ 000000                     _BAUDCON	equ	0xFB8
  7004+                          	global	_INTCON
  7005+ 000000                     _INTCON	equ	0xFF2
  7006+                          	global	_LATA
  7007+ 000000                     _LATA	equ	0xF89
  7008+                          	global	_LATB
  7009+ 000000                     _LATB	equ	0xF8A
  7010+                          	global	_LATC
  7011+ 000000                     _LATC	equ	0xF8B
  7012+                          	global	_OSCCON
  7013+ 000000                     _OSCCON	equ	0xFD3
  7014+                          	global	_PIR1
  7015+ 000000                     _PIR1	equ	0xF9E
  7016+                          	global	_RCREG
  7017+ 000000                     _RCREG	equ	0xFAE
  7018+                          	global	_RCSTA
  7019+ 000000                     _RCSTA	equ	0xFAB
  7020+                          	global	_SPBRG
  7021+ 000000                     _SPBRG	equ	0xFAF
  7022+                          	global	_SPBRGH
  7023+ 000000                     _SPBRGH	equ	0xFB0
  7024+                          	global	_T0CON
  7025+ 000000                     _T0CON	equ	0xFD5
  7026+                          	global	_TRISA
  7027+ 000000                     _TRISA	equ	0xF92
  7028+                          	global	_TRISB
  7029+ 000000                     _TRISB	equ	0xF93
  7030+                          	global	_TRISC
  7031+ 000000                     _TRISC	equ	0xF94
  7032+                          	global	_TXREG
  7033+ 000000                     _TXREG	equ	0xFAD
  7034+                          	global	_TXSTA
  7035+ 000000                     _TXSTA	equ	0xFAC
  7036+                          	global	_ADON
  7037+ 000000                     _ADON	equ	0x7E10
  7038+                          	global	_BRGH_x
  7039+ 000000                     _BRGH_x	equ	0x7D62
  7040+                          	global	_CREN_x
  7041+ 000000                     _CREN_x	equ	0x7D5C
  7042+                          	global	_CSRC_x
  7043+ 000000                     _CSRC_x	equ	0x7D67
  7044+                          	global	_FERR
  7045+ 000000                     _FERR	equ	0x7D5A
  7046+                          	global	_GODONE
  7047+ 000000                     _GODONE	equ	0x7E11
  7048+                          	global	_OERR
  7049+ 000000                     _OERR	equ	0x7D59
  7050+                          	global	_RCIE_x
  7051+ 000000                     _RCIE_x	equ	0x7CED
  7052+                          	global	_RCIF
  7053+ 000000                     _RCIF	equ	0x7CF5
  7054+                          	global	_RX9D
  7055+ 000000                     _RX9D	equ	0x7D58
  7056+                          	global	_RX9_x
  7057+ 000000                     _RX9_x	equ	0x7D5E
  7058+                          	global	_SENDB_x
  7059+ 000000                     _SENDB_x	equ	0x7D63
  7060+                          	global	_SPEN_x
  7061+ 000000                     _SPEN_x	equ	0x7D5F
  7062+                          	global	_SREN_x
  7063+ 000000                     _SREN_x	equ	0x7D5D
  7064+                          	global	_SYNC_x
  7065+ 000000                     _SYNC_x	equ	0x7D64
  7066+                          	global	_TMR0IE
  7067+ 000000                     _TMR0IE	equ	0x7F95
  7068+                          	global	_TMR0IF
  7069+ 000000                     _TMR0IF	equ	0x7F92
  7070+                          	global	_TMR0IP
  7071+ 000000                     _TMR0IP	equ	0x7F8A
  7072+                          	global	_TRISC6
  7073+ 000000                     _TRISC6	equ	0x7CA6
  7074+                          	global	_TRISC7
  7075+ 000000                     _TRISC7	equ	0x7CA7
  7076+                          	global	_TRMT_x
  7077+ 000000                     _TRMT_x	equ	0x7D61
  7078+                          	global	_TX9D
  7079+ 000000                     _TX9D	equ	0x7D60
  7080+                          	global	_TX9_x
  7081+ 000000                     _TX9_x	equ	0x7D66
  7082+                          	global	_TXEN_x
  7083+ 000000                     _TXEN_x	equ	0x7D65
  7084+                          	global	_TXIE_x
  7085+ 000000                     _TXIE_x	equ	0x7CEC
  7086+                          	global	_TXIF
  7087+ 000000                     _TXIF	equ	0x7CF4
  7088+                          	psect	intsave_regs,class=BIGRAM,space=1
  7089+                          	PSECT	param1,class=BANK1,space=1
  7090+                          	GLOBAL	__Lparam1
  7091+                          	FNCONF	param1,??,?
  7092+                          	GLOBAL	__Labsbss0
  7093+ 000000                     __Labsbss0	EQU	0
  7094+                          	GLOBAL	__Habsbss0
  7095+ 000000                     __Habsbss0	EQU	70
  7096+                          GLOBAL	__Lparam, __Hparam
  7097+                          GLOBAL	__Lparam1, __Hparam1
  7098+ 000000                     __Lparam	EQU	__Lparam1
  7099+ 000000                     __Hparam	EQU	__Hparam1


HI-TECH Software PICC-18 Macro Assembler V9.66 build 8870 
Symbol Table                                           Mon May 07 22:27:26 2012

                    l868 2374                      l869 2374  
                   _ADON 007E10                     _FERR 007D5A  
                   _LATA 000F89                     _LATB 000F8A  
                   _LATC 000F8B                     _RCIF 007CF5  
                   _PIR1 000F9E                     _OERR 007D59  
                   _RX9D 007D58                     _TX9D 007D60  
                   _TXIF 007CF4                     _main 232C  
                   fsr0h 000FEA                     fsr1h 000FE2  
                   fsr0l 000FE9                     fsr2h 000FDA  
                   fsr1l 000FE1                     fsr2l 000FD9  
                   pclat 000FFA                     prodh 000FF4  
                   prodl 000FF3                     start 0018  
                  ?_main 0100                    _T0CON 000FD5  
                  i2l900 1682                    i2l901 1FCE  
                  i2l910 177A                    i2l902 16B6  
                  i2l903 1FCE                    i2l911 1FCE  
                  i2l920 1876                    i2l912 17AA  
                  i2l904 16E8                    i2l905 1FCE  
                  i2l913 1FCE                    i2l921 1FCE  
                  i2l930 196E                    i2l922 18A8  
                  i2l914 17DE                    i2l906 171A  
                  i2l907 1FCE                    i2l915 1FCE  
                  i2l923 1FCE                    i2l931 1FCE  
                  i2l940 1A62                    i2l932 19A0  
                  i2l924 18D6                    i2l916 1812  
                  i2l908 174C                    i2l909 1FCE  
                  i2l917 1FCE                    i2l925 1FCE  
                  i2l933 1FCE                    i2l941 1FCE  
                  i2l950 1B60                    i2l942 1A96  
                  i2l934 19D2                    i2l926 1906  
                  i2l918 1844                    i2l871 1FCE  
                  i2l919 1FCE                    i2l927 1FCE  
                  i2l935 1FCE                    i2l943 1FCE  
                  i2l951 1FCE                    i2l960 1C58  
                  i2l952 1B8E                    i2l944 1ACA  
                  i2l936 1A04                    i2l928 193A  
                  i2l880 1496                    i2l872 13CC  
                  i2l881 1FCE                    i2l929 1FCE  
                  i2l937 1FCE                    i2l945 1FCE  
                  i2l953 1FCE                    i2l961 1FCE  
                  i2l873 1FCE                    i2l970 1D4E  
                  i2l962 1C8A                    i2l954 1BBE  
                  i2l946 1AFC                    i2l938 1A32  
                  i2l890 158C                    i2l882 14C2  
                  i2l874 1400                    i2l875 1FCE  
                  i2l883 1FCE                    i2l891 1FCE  
                  i2l939 1FCE                    i2l947 1FCE  
                  i2l955 1FCE                    i2l963 1FCE  
                  i2l971 1FCE                    i2l980 1E46  
                  i2l972 1D82                    i2l964 1CBC  
                  i2l956 1BF2                    i2l948 1B2E  
                  i2l892 15BE                    i2l884 14F2  
                  i2l876 1432                    i2l877 1FCE  
                  i2l885 1FCE                    i2l893 1FCE  
                  i2l949 1FCE                    i2l957 1FCE  
                  i2l965 1FCE                    i2l973 1FCE  
                  i2l981 1FCE                    i2l990 1F42  
                  i2l982 1E76                    i2l974 1DB4  
                  i2l966 1CEA                    i2l958 1C26  
                  i2l894 15F0                    i2l886 1526  
                  i2l878 1464                    i2l879 1FCE  
                  i2l887 1FCE                    i2l895 1FCE  
                  i2l959 1FCE                    i2l967 1FCE  
                  i2l975 1FCE                    i2l983 1FCE  
                  i2l991 1FCE                    i2l992 1F74  
                  i2l984 1EAA                    i2l976 1DE6  
                  i2l968 1D1A                    i2l896 161E  
                  i2l888 155A                    i2l889 1FCE  
                  i2l897 1FCE                    i2l969 1FCE  
                  i2l977 1FCE                    i2l985 1FCE  
                  i2l993 1FCE                    i2l994 1FA2  
                  i2l986 1EDE                    i2l978 1E18  
                  i2l898 164E                    i2l899 1FCE  
                  i2l979 1FCE                    i2l987 1FCE  
                  i2l995 1FCE                    i2l996 1FCE  
                  i2l988 1F10                    i2l989 1FCE  
                  _RCREG 000FAE                    _RCSTA 000FAB  
                  _SPBRG 000FAF                    _TRISA 000F92  
                  _TRISB 000F93                    _TRISC 000F94  
                  _RX9_x 007D5E                    _TXREG 000FAD  
                  _TX9_x 007D66                    _TXSTA 000FAC  
        __end_of_getNote 1398                    _chanA 00000F  
                  _chanB 000012                    _chanC 000015  
                  _chanD 000006                    _chanE 000003  
                  _chanF 00000C                    _chanG 000009  
                  _index 000044                    tablat 000FF5  
                  status 000FD8             __end_of_main 237C  
                 ??_main 0104            __activetblptr 000000  
                 _ADCON0 000FC2                   _ADCON1 000FC1  
                 _ADCON2 000FC0                   _ADRESH 000FC4  
                 _ADRESL 000FC3                   _BRGH_x 007D62  
                 _GODONE 007E11                   _CREN_x 007D5C  
                 i2l1100 222A                   i2l1101 2232  
                 i2l1102 232A                   i2l1110 22AA  
                 i2l1111 22B2                   i2l1103 22DC  
                 i2l1200 0B44                   i2l1120 0146  
                 i2l1112 22E4                   i2l1104 22BA  
                 i2l1201 09A0                   i2l1121 00BA  
                 i2l1105 2282                   _CSRC_x 007D67  
                 i2l1210 09DE                   i2l1202 0914  
                 i2l1130 0220                   i2l1122 0142  
                 i2l1114 22F2                   i2l1106 228A  
                 i2l1211 0A66                   i2l1203 099C  
                 i2l1131 01D4                   i2l1123 00F6  
                 i2l1115 232A                   i2l1107 2292  
                 i2l1116 1396                   i2l1300 138C  
                 i2l1220 0AF8                   i2l1212 0A1A  
                 i2l1204 0950                   i2l1140 02FE  
                 i2l1132 0220                   i2l1124 0142  
                 i2l1108 229A                   i2l1052 223A  
                 i2l1060 2236                   i2l1301 1340  
                 i2l1221 0B44                   i2l1213 0A66  
                 i2l1205 099C                   i2l1141 02EE  
                 i2l1133 0210                   i2l1125 0132  
                 i2l1117 0302                   i2l1109 22A2  
                 i2l1061 20BE                   i2l1053 2238  
                 i2l1302 138C                   i2l1230 0C58  
                 i2l1222 0B34                   i2l1214 0A56  
                 i2l1206 098C                   i2l1150 03C4  
                 i2l1142 02FE                   i2l1134 0220  
                 i2l1126 0142                   i2l1118 006A  
                 i2l1070 20EC                   i2l1054 2074  
                 i2l1303 137C                   i2l1231 0C0C  
                 i2l1223 0B44                   i2l1215 0A66  
                 i2l1207 099C                   i2l1151 0410  
                 i2l1143 138C                   i2l1127 02FE  
                 i2l1135 02FE                   i2l1119 02FE  
                 i2l1063 20A0                   i2l1224 138C  
                 i2l1304 138C                   i2l1240 0D22  
                 i2l1232 0C58                   i2l1208 0B44  
                 i2l1216 0B44                   i2l1160 04DE  
                 i2l1152 0400                   i2l1144 05BC  
                 i2l1136 02FE                   i2l1128 0224  
                 i2l1080 214E                   i2l1072 20FA  
                 i2l1056 2056                   i2l1241 0D12  
                 i2l1233 0C48                   i2l1225 0E04  
                 i2l1217 0B44                   i2l1209 0A6A  
                 i2l1161 04EE                   i2l1153 0410  
                 i2l1145 0338                   i2l1137 0276  
                 i2l1129 0198                   i2l1081 2236  
                 i2l1073 2102                   i2l1065 20AE  
                 i2l1170 138C                   i2l1250 0E00  
                 i2l1242 0D22                   i2l1234 0C58  
                 i2l1226 0B80                   i2l1218 0ABC  
                 i2l1154 05B8                   i2l1162 05B8  
                 i2l1146 05B8                   i2l1138 02FE  
                 i2l1074 2236                   i2l1082 21A2  
                 i2l1066 20B6                   i2l1058 2064  
                 i2l1251 138C                   i2l1235 0E00  
                 i2l1243 0E00                   i2l1227 0E00  
                 i2l1219 0B44                   i2l1171 088C  
                 i2l1163 05B8                   i2l1155 04F2  
                 i2l1147 0414                   i2l1139 02B2  
                 i2l1067 2236                   i2l1091 21D0  
                 i2l1075 2156                   i2l1059 206C  
                 i2l1260 0F04                   i2l1252 10C0  
                 i2l1244 0E00                   i2l1236 0D26  
                 i2l1228 0C5C                   i2l1180 06CC  
                 i2l1172 05F4                   i2l1164 0530  
                 i2l1156 0466                   i2l1148 0388  
                 i2l1084 2184                   i2l1068 210A  
                 i2l1261 0F14                   i2l1253 0E3C  
                 i2l1245 0D78                   i2l1237 0C9A  
                 i2l1229 0BD0                   i2l1181 0888  
                 i2l1173 0888                   i2l1165 05B8  
                 i2l1157 04EE                   i2l1149 0410  
                 i2l1093 21DE                   i2l1077 2138  
                 i2l1262 10BC                   i2l1270 10BC  
                 i2l1254 10BC                   i2l1246 0E00  
                 i2l1238 0D22                   i2l1190 0888  
                 i2l1182 07AE                   i2l1174 06D0  
                 i2l1166 056C                   i2l1158 04A2  
                 i2l1094 21E6                   i2l1086 2192  
                 i2l1271 10BC                   i2l1263 0FE2  
                 i2l1255 0F18                   i2l1247 0DB4  
                 i2l1239 0CD6                   i2l1191 0800  
                 i2l1183 0722                   i2l1175 0644  
                 i2l1167 05B8                   i2l1159 04EE  
                 i2l1095 2236                   i2l1087 219A  
                 i2l1079 2146                   i2l1280 10F8  
                 i2l1272 1034                   i2l1264 0F56  
                 i2l1256 0E8C                   i2l1248 0E00  
                 i2l1192 0888                   i2l1184 07AA  
                 i2l1176 06CC                   i2l1168 05A8  
                 i2l1088 2236                   i2l1096 2236  
                 i2l1281 138C                   i2l1273 10BC  
                 i2l1265 0FDE                   i2l1257 0F14  
                 i2l1249 0DF0                   i2l1193 083C  
                 i2l1185 075E                   i2l1177 0680  
                 i2l1169 05B8                   i2l1089 21EE  
                 i2l1290 12B2                   i2l1282 11D4  
                 i2l1274 1070                   i2l1266 0F92  
                 i2l1258 0EC8                   i2l1194 0888  
                 i2l1186 07AA                   i2l1178 06CC  
                 i2l1098 221C                   i2l1291 1226  
                 i2l1283 1148                   i2l1275 10BC  
                 i2l1267 0FDE                   i2l1259 0F14  
                 i2l1195 0878                   i2l1187 079A  
                 i2l1179 06BC                   i2l1292 12AE  
                 i2l1284 11D0                   i2l1276 10AC  
                 i2l1268 0FCE                   i2l1196 0888  
                 i2l1188 07AA                   i2l1197 138C  
                 i2l1293 1262                   i2l1285 1184  
                 i2l1277 10BC                   i2l1269 0FDE  
                 i2l1189 0888                   i2l1278 138C  
                 i2l1294 12AE                   i2l1286 11D0  
                 i2l1198 0B48                   i2l1279 138C  
                 i2l1295 129E                   i2l1287 11C0  
                 i2l1199 08C4                   i2l1296 12AE  
                 i2l1288 11D0                   i2l1289 138C  
                 i2l1297 138C                   i2l1298 138C  
                 i2l1299 1304                   _INTCON 000FF2  
                 _RCIE_x 007CED                   i2u7000 14A4  
                 i2u7001 14A0                   i2u7010 14B4  
                 i2u7011 14B0                   i2u7100 159E  
                 i2u7020 14D2                   i2u7101 159A  
                 i2u7021 14CE                   i2u7110 15B0  
                 i2u7030 14E4                   i2u7111 15AC  
                 i2u7031 14E0                   _OSCCON 000FD3  
                 i2u8000 1E56                   i2u7200 1694  
                 i2u7120 15D0                   i2u7040 1504  
                 i2u8001 1E52                   i2u7201 1690  
                 i2u7121 15CC                   i2u7041 1500  
                 i2u8010 1E68                   i2u7210 16A6  
                 i2u7130 15E2                   i2u7050 1516  
                 i2u8011 1E64                   i2u7211 16A2  
                 i2u7131 15DE                   i2u7051 1512  
                 i2u8100 1F54                   i2u8020 1E88  
                 i2u7300 178A                   i2u7220 16C8  
                 i2u7140 15FE                   i2u7060 1538  
                 i2u8101 1F50                   i2u8021 1E84  
                 i2u7301 1786                   i2u7221 16C4  
                 i2u7141 15FA                   i2u7061 1534  
                 i2u8110 1F66                   i2u8030 1E9A  
                 i2u7310 179C                   i2u7230 16DA  
                 i2u7150 1610                   i2u7070 154A  
                 i2u8111 1F62                   i2u8031 1E96  
                 i2u7311 1798                   i2u7231 16D6  
                 i2u7151 160C                   i2u7071 1546  
                 i2u9000 074A                   i2u8120 1F82  
                 i2u8040 1EBC                   i2u7400 1888  
                 i2u7320 17BC                   i2u7240 16FA  
                 i2u7160 162E                   i2u7080 156C  
                 i2u8200 204E                   i2u9001 0746  
                 i2u8121 1F7E                   i2u8041 1EB8  
                 i2u7401 1884                   i2u7321 17B8  
                 i2u7241 16F6                   i2u7161 162A  
                 i2u7081 1568                   i2u8201 204A  
                 i2u9010 0772                   i2u8130 1F94  
                 i2u8050 1ECE                   i2u7410 189A  
                 i2u7330 17CE                   i2u7250 170C  
                 i2u7170 1640                   i2u7090 157E  
                 i2u8210 2064                   i2u9011 076E  
                 i2u8131 1F90                   i2u8051 1ECA  
                 i2u7411 1896                   i2u7331 17CA  
                 i2u7251 1708                   i2u7171 163C  
                 i2u7091 157A                   i2u8211 2060  
                 i2u9100 089E                   i2u9020 0786  
                 i2u8140 1FB2                   i2u8060 1EF0  
                 i2u7500 1980                   i2u7420 18B6  
                 i2u7340 17F0                   i2u7260 172C  
                 i2u7180 1660                   i2u8300 2146  
                 i2u8220 2084                   i2u9101 089A  
                 i2u9021 0782                   i2u8141 1FAE  
                 i2u8061 1EEC                   i2u7501 197C  
                 i2u7421 18B2                   i2u7341 17EC  
                 i2u7261 1728                   i2u7181 165C  
                 i2u8301 2142                   i2u8221 2080  
                 i2u9110 08B0                   i2u9030 07C4  
                 i2u8150 1FC4                   i2u8070 1F02  
                 i2u7510 1992                   i2u7430 18C8  
                 i2u7350 1802                   i2u7270 173E  
                 i2u7190 1672                   i2u8310 2168  
                 i2u8230 2098                   i2u9111 08AC  
                 i2u9031 07C0                   i2u8151 1FC0  
                 i2u8071 1EFE                   i2u7511 198E  
                 i2u7431 18C4                   i2u7351 17FE  
                 i2u7271 173A                   i2u7191 166E  
                 i2u8311 2164                   i2u8231 2094  
                 i2u9200 09CA                   i2u9120 08D8  
                 i2u9040 07D8                   i2u8400 22F2  
                 i2u8080 1F22                   i2u7600 1A74  
                 i2u7520 19B2                   i2u7440 18E6  
                 i2u7360 1824                   i2u7280 175A  
                 i2u8320 217C                   i2u8240 20AE  
                 i2u8160 200C                   i2u9201 09C6  
                 i2u9121 08D4                   i2u9041 07D4  
                 i2u8401 22EE                   i2u8081 1F1E  
                 i2u7601 1A70                   i2u7521 19AE  
                 i2u7441 18E2                   i2u7361 1820  
                 i2u7281 1756                   i2u8321 2178  
                 i2u8241 20AA                   i2u8161 2008  
                 i2u9210 09F2                   i2u9130 08EC  
                 i2u9050 07EC                   i2u8410 2326  
                 i2u8090 1F34                   i2u7610 1A86  
                 i2u7530 19C4                   i2u7450 18F8  
                 i2u7370 1836                   i2u7290 176C  
                 i2u8330 2192                   i2u8250 20D0  
                 i2u8170 201A                   i2u9211 09EE  
                 i2u9131 08E8                   i2u9051 07E8  
                 i2u8411 2322                   i2u8091 1F30  
                 i2u7611 1A82                   i2u7531 19C0  
                 i2u7451 18F4                   i2u7371 1832  
                 i2u7291 1768                   i2u8331 218E  
                 i2u8251 20CC                   i2u8171 2016  
                 i2u9300 0B0C                   i2u9220 0A06  
                 i2u9140 0900                   i2u9060 0814  
                 i2u8500 011E                   i2u8420 0044  
                 i2u7700 1B6E                   i2u7620 1AA8  
                 i2u7540 19E4                   i2u7460 1918  
                 i2u7380 1856                   i2u6900 13AA  
                 i2u8340 21B4                   i2u8260 20E4  
                 i2u8180 2028                   i2u9301 0B08  
                 i2u9221 0A02                   i2u9141 08FC  
                 i2u9061 0810                   i2u8501 011A  
                 i2u8421 0040                   i2u7701 1B6A  
                 i2u7621 1AA4                   i2u7541 19E0  
                 i2u7461 1914                   i2u7381 1852  
                 i2u6901 13A6                   i2u8341 21B0  
                 i2u8261 20E0                   i2u8181 2024  
                 i2u9310 0B20                   i2u9230 0A2E  
                 i2u9150 0928                   i2u9070 0828  
                 i2u8510 015C                   i2u8430 0056  
                 i2u7710 1B80                   i2u7630 1ABA  
                 i2u7550 19F6                   i2u7470 192A  
                 i2u7390 1868                   i2u6910 13BC  
                 i2u8350 21C8                   i2u8270 20FA  
                 i2u8190 203A                   i2u9311 0B1C  
                 i2u9231 0A2A                   i2u9151 0924  
                 i2u9071 0824                   i2u8511 0158  
                 i2u8431 0052                   i2u7711 1B7C  
                 i2u7631 1AB6                   i2u7551 19F2  
                 i2u7471 1926                   i2u7391 1864  
                 i2u6911 13B8                   i2u8351 21C4  
                 i2u8271 20F6                   i2u8191 2036  
                 i2u9400 0C34                   i2u9320 0B5A  
                 i2u9240 0A42                   i2u9160 093C  
                 i2u9080 0850                   i2u8600 0262  
                 i2u8520 0170                   i2u8440 007E  
                 i2u7800 1C6A                   i2u7720 1B9E  
                 i2u7640 1ADC                   i2u7560 1A12  
                 i2u7480 194C                   i2u6920 13DE  
                 i2u8360 21DE                   i2u8280 211C  
                 i2u9401 0C30                   i2u9321 0B56  
                 i2u9241 0A3E                   i2u9161 0938  
                 i2u9081 084C                   i2u8601 025E  
                 i2u8521 016C                   i2u8441 007A  
                 i2u7801 1C66                   i2u7721 1B9A  
                 i2u7641 1AD8                   i2u7561 1A0E  
                 i2u7481 1948                   i2u6921 13DA  
                 i2u8361 21DA                   i2u8281 2118  
                 i2u9410 0C72                   i2u9330 0B6C  
                 i2u9250 0A80                   i2u9170 0964  
                 i2u9090 0864                   i2u8610 028A  
                 i2u8530 0184                   i2u8450 0092  
                 i2u7810 1C7C                   i2u7730 1BB0  
                 i2u7650 1AEE                   i2u7570 1A24  
                 i2u7490 195E                   i2u6930 13F0  
                 i2u8370 2200                   i2u8290 2130  
                 i2u9411 0C6E                   i2u9331 0B68  
                 i2u9251 0A7C                   i2u9171 0960  
                 i2u9091 0860                   i2u8611 0286  
                 i2u8531 0180                   i2u8451 008E  
                 i2u7811 1C78                   i2u7731 1BAC  
                 i2u7651 1AEA                   i2u7571 1A20  
                 i2u7491 195A                   i2u6931 13EC  
                 i2u8371 21FC                   i2u8291 212C  
                 i2u9500 0D8C                   i2u9420 0C86  
                 i2u9340 0B94                   i2u9260 0A94  
                 i2u9180 0978                   i2u8700 039C  
                 i2u8620 029E                   i2u8540 01AC  
                 i2u8460 00A6                   i2u7900 1D60  
                 i2u7820 1C9C                   i2u7740 1BD0  
                 i2u7660 1B0E                   i2u7580 1A42  
                 i2u6940 1412                   i2u8380 2214  
                 i2u9501 0D88                   i2u9421 0C82  
                 i2u9341 0B90                   i2u9261 0A90  
                 i2u9181 0974                   i2u8701 0398  
                 i2u8621 029A                   i2u8541 01A8  
                 i2u8461 00A2                   i2u7901 1D5C  
                 i2u7821 1C98                   i2u7741 1BCC  
                 i2u7661 1B0A                   i2u7581 1A3E  
                 i2u6941 140E                   i2u8381 2210  
                 i2u9510 0DA0                   i2u9430 0CAE  
                 i2u9350 0BA8                   i2u9270 0AA8  
                 i2u9190 09B6                   i2u8710 03B0  
                 i2u8630 02C6                   i2u8550 01C0  
                 i2u8470 00CE                   i2u7910 1D72  
                 i2u7830 1CAE                   i2u7750 1BE2  
                 i2u7670 1B20                   i2u7590 1A54  
                 i2u6950 1424                   i2u8390 222A  
                 i2u9511 0D9C                   i2u9431 0CAA  
                 i2u9351 0BA4                   i2u9271 0AA4  
                 i2u9191 09B2                   i2u8711 03AC  
                 i2u8631 02C2                   i2u8551 01BC  
                 i2u8471 00CA                   i2u7911 1D6E  
                 i2u7831 1CAA                   i2u7751 1BDE  
                 i2u7671 1B1C                   i2u7591 1A50  
                 i2u6951 1420                   i2u8391 2226  
                 i2u9600 0EB4                   i2u9520 0DC8  
                 i2u9440 0CC2                   i2u9360 0BBC  
                 i2u9280 0AD0                   i2u8800 04CA  
                 i2u8720 03D8                   i2u8640 02DA  
                 i2u8560 01E8                   i2u8480 00E2  
                 i2u7920 1D94                   i2u7840 1CCA  
                 i2u7760 1C04                   i2u7680 1B40  
                 i2u6960 1444                   i2u9601 0EB0  
                 i2u9521 0DC4                   i2u9441 0CBE  
                 i2u9361 0BB8                   i2u9281 0ACC  
                 i2u8801 04C6                   i2u8721 03D4  
                 i2u8641 02D6                   i2u8561 01E4  
                 i2u8481 00DE                   i2u7921 1D90  
                 i2u7841 1CC6                   i2u7761 1C00  
                 i2u7681 1B3C                   i2u6961 1440  
                 i2u9610 0EDC                   i2u9530 0DDC  
                 i2u9450 0CEA                   i2u9370 0BE4  
                 i2u9290 0AE4                   i2u8810 0508  
                 i2u8730 03EC                   i2u8650 0312  
                 i2u8570 01FC                   i2u8490 010A  
                 i2u7930 1DA6                   i2u7850 1CDC  
                 i2u7770 1C16                   i2u7690 1B52  
                 i2u6970 1456                   i2u9611 0ED8  
                 i2u9531 0DD8                   i2u9451 0CE6  
                 i2u9371 0BE0                   i2u9291 0AE0  
                 i2u8811 0504                   i2u8731 03E8  
                 i2u8651 030E                   i2u8571 01F8  
                 i2u8491 0106                   i2u7931 1DA2  
                 i2u7851 1CD8                   i2u7771 1C12  
                 i2u7691 1B4E                   i2u6971 1452  
                 i2u9700 100C                   i2u9620 0EF0  
                 i2u9540 0E16                   i2u9460 0CFE  
                 i2u9380 0BF8                   i2u8900 061C  
                 i2u8820 051C                   i2u8740 042A  
                 i2u8660 0324                   i2u8580 023A  
                 i2u7940 1DC6                   i2u7860 1CFA  
                 i2u7780 1C38                   i2u6980 1476  
                 i2u9701 1008                   i2u9621 0EEC  
                 i2u9541 0E12                   i2u9461 0CFA  
                 i2u9381 0BF4                   i2u8901 0618  
                 i2u8821 0518                   i2u8741 0426  
                 i2u8661 0320                   i2u8581 0236  
                 i2u7941 1DC2                   i2u7861 1CF6  
                 i2u7781 1C34                   i2u6981 1472  
                 i2u9710 1020                   i2u9630 0F2E  
                 i2u9550 0E28                   i2u9470 0D3C  
                 i2u9390 0C20                   i2u8910 0630  
                 i2u8830 0544                   i2u8750 043E  
                 i2u8670 034C                   i2u8590 024E  
                 i2u7950 1DD8                   i2u7870 1D0C  
                 i2u7790 1C4A                   i2u6990 1488  
                 i2u9711 101C                   i2u9631 0F2A  
                 i2u9551 0E24                   i2u9471 0D38  
                 i2u9391 0C1C                   i2u8911 062C  
                 i2u8831 0540                   i2u8751 043A  
                 i2u8671 0348                   i2u8591 024A  
                 i2u7951 1DD4                   i2u7871 1D08  
                 i2u7791 1C46                   i2u6991 1484  
                 i2u9800 1134                   i2u9720 1048  
                 i2u9640 0F42                   i2u9560 0E50  
                 i2u9480 0D50                   i2u8920 0658  
                 i2u8840 0558                   i2u8760 0452  
                 i2u8680 0360                   i2u7960 1DF8  
                 i2u7880 1D2C                   i2u9801 1130  
                 i2u9721 1044                   i2u9641 0F3E  
                 i2u9561 0E4C                   i2u9481 0D4C  
                 i2u8921 0654                   i2u8841 0554  
                 i2u8761 044E                   i2u8681 035C  
                 i2u7961 1DF4                   i2u7881 1D28  
                 i2u9810 115C                   i2u9730 105C  
                 i2u9650 0F6A                   i2u9570 0E64  
                 i2u9490 0D64                   i2u8930 066C  
                 i2u8850 0580                   i2u8770 047A  
                 i2u8690 0374                   i2u7970 1E0A  
                 i2u7890 1D3E                   i2u9811 1158  
                 i2u9731 1058                   i2u9651 0F66  
                 i2u9571 0E60                   i2u9491 0D60  
                 i2u8931 0668                   i2u8851 057C  
                 i2u8771 0476                   i2u8691 0370  
                 i2u7971 1E06                   i2u7891 1D3A  
                 i2u9900 1276                   i2u9820 1170  
                 i2u9740 1084                   i2u9660 0F7E  
                 i2u9580 0E78                   i2u8940 0694  
                 i2u8860 0594                   i2u8780 048E  
                 i2u7980 1E26                   i2u9901 1272  
                 i2u9821 116C                   i2u9741 1080  
                 i2u9661 0F7A                   i2u9581 0E74  
                 i2u8941 0690                   i2u8861 0590  
                 i2u8781 048A                   i2u7981 1E22  
                 i2u9910 128A                   i2u9830 1198  
                 i2u9750 1098                   i2u9670 0FA6  
                 i2u9590 0EA0                   i2u8950 06A8  
                 i2u8870 05CE                   i2u8790 04B6  
                 i2u7990 1E38                   i2u9911 1286  
                 i2u9831 1194                   i2u9751 1094  
                 i2u9671 0FA2                   i2u9591 0E9C  
                 i2u8951 06A4                   i2u8871 05CA  
                 i2u8791 04B2                   i2u7991 1E34  
                 i2u9920 12C8                   i2u9840 11AC  
                 i2u9760 10D2                   i2u9680 0FBA  
                 i2u8960 06E6                   i2u8880 05E0  
                 i2u9921 12C4                   i2u9841 11A8  
                 i2u9761 10CE                   i2u9681 0FB6  
                 i2u8961 06E2                   i2u8881 05DC  
                 i2u9930 12DC                   i2u9850 11EA  
                 i2u9770 10E4                   i2u9690 0FF8  
                 i2u8970 06FA                   i2u8890 0608  
                 i2u9931 12D8                   i2u9851 11E6  
                 i2u9771 10E0                   i2u9691 0FF4  
                 i2u8971 06F6                   i2u8891 0604  
                 i2u9940 12F0                   i2u9860 11FE  
                 i2u9780 110C                   i2u8980 070E  
                 i2u9941 12EC                   i2u9861 11FA  
                 i2u9781 1108                   i2u8981 070A  
                 i2u9950 1318                   i2u9870 1212  
                 i2u9790 1120                   i2u8990 0736  
                 i2u9951 1314                   i2u9871 120E  
                 i2u9791 111C                   i2u8991 0732  
                 i2u9960 132C                   i2u9880 123A  
                 i2u9961 1328                   i2u9881 1236  
                 i2u9970 1354                   i2u9890 124E  
                 i2u9971 1350                   i2u9891 124A  
                 i2u9980 1368                   i2u9981 1364  
                 _TMR0IE 007F95                   _TMR0IF 007F92  
                 _TMR0IP 007F8A                   _SPBRGH 000FB0  
                 _TRISC6 007CA6                   _TRISC7 007CA7  
                 _SPEN_x 007D5F                   _SREN_x 007D5D  
                 _TRMT_x 007D61                   _TXIE_x 007CEC  
                 _TXEN_x 007D65                   _SYNC_x 007D64  
                 __Ldata 000000                   _my_isr 1FD0  
              ??_getNote 0117               _ToggleLeds 1398  
           __mediumconst 0D00                   tblptrh 000FF7  
                 tblptrl 000FF6                   tblptru 000FF8  
             __accesstop 0060               _change_val 000019  
                _BAUDCON 000FB8                  ?_my_isr 0104  
            ?_ToggleLeds 0112                  _SENDB_x 007D63  
         _adc_conversion 2274                  __Hparam 0119  
             _cur_inputs 00003D                  __Lparam 0100  
                _adc_num 000002                  __ramtop 0D00  
                _getNote 0036   __end_of_adc_conversion 232C  
        getNote@new_note 0117            __Lmediumconst 0D00  
                int_func 0008          ?_adc_conversion 0112  
         __end_of_my_isr 2274                __Habsbss0 000046  
              __Labsbss0 000000                 ??_my_isr 0104  
           ??_ToggleLeds 0112       adc_conversion@note 0114  
     __end_of_ToggleLeds 1FD0                 ?_getNote 0115  
              _led_array 00001C              __smallconst 0D00  
         getNote@hResult 0115           getNote@lResult 0116  
       ??_adc_conversion 0112              _conv_result 000000  
               __Hparam1 0119                 __Lparam1 0100  
           __Lsmallconst 0D00                 __config1 00F0FF  
               __config2 00FEFF                 __config3 007FFF  
               __config4 00FFFB                 __config5 00FFFF  
               __config6 00FFFF                 __config7 00FFFF  
               _new_note 00001B                 _uart_out 00001A  
               main@argc 0100                 main@argv 0102  
               intlevel2 237C              _prev_inputs 000036  
  adc_conversion@hResult 0112    adc_conversion@lResult 0113  
           _USART_Status 000018  
