

HI-TECH Software LITE Macro Assembler (PIC18) V9.66 build 8870 
                                                       Mon May 07 19:36:03 2012

HI-TECH Software Omniscient Code Generator build 8870
     1  000000                     opt subtitle "HI-TECH Software Omniscient Code G
                                 enerator build 8870"
     2                           
     3                           	processor	18F2682
     4  000000                     porta	equ	0F80h
     5  000000                     portb	equ	0F81h
     6  000000                     portc	equ	0F82h
     7  000000                     portd	equ	0F83h
     8  000000                     porte	equ	0F84h
     9  000000                     lata	equ	0F89h
    10  000000                     latb	equ	0F8Ah
    11  000000                     latc	equ	0F8Bh
    12  000000                     latd	equ	0F8Ch
    13  000000                     late	equ	0F8Dh
    14  000000                     trisa	equ	0F92h
    15  000000                     trisb	equ	0F93h
    16  000000                     trisc	equ	0F94h
    17  000000                     trisd	equ	0F95h
    18  000000                     trise	equ	0F96h
    19  000000                     pie1	equ	0F9Dh
    20  000000                     pir1	equ	0F9Eh
    21  000000                     ipr1	equ	0F9Fh
    22  000000                     pie2	equ	0FA0h
    23  000000                     pir2	equ	0FA1h
    24  000000                     ipr2	equ	0FA2h
    25  000000                     t3con	equ	0FB1h
    26  000000                     tmr3l	equ	0FB2h
    27  000000                     tmr3h	equ	0FB3h
    28  000000                     ccp1con	equ	0FBDh
    29  000000                     ccpr1l	equ	0FBEh
    30  000000                     ccpr1h	equ	0FBFh
    31  000000                     adcon1	equ	0FC1h
    32  000000                     adcon0	equ	0FC2h
    33  000000                     adresl	equ	0FC3h
    34  000000                     adresh	equ	0FC4h
    35  000000                     sspcon2	equ	0FC5h
    36  000000                     sspcon1	equ	0FC6h
    37  000000                     sspstat	equ	0FC7h
    38  000000                     sspadd	equ	0FC8h
    39  000000                     sspbuf	equ	0FC9h
    40  000000                     t2con	equ	0FCAh
    41  000000                     pr2	equ	0FCBh
    42  000000                     tmr2	equ	0FCCh
    43  000000                     t1con	equ	0FCDh
    44  000000                     tmr1l	equ	0FCEh
    45  000000                     tmr1h	equ	0FCFh
    46  000000                     rcon	equ	0FD0h
    47  000000                     wdtcon	equ	0FD1h
    48  000000                     lvdcon	equ	0FD2h
    49  000000                     osccon	equ	0FD3h
    50  000000                     t0con	equ	0FD5h
    51  000000                     tmr0l	equ	0FD6h
    52  000000                     tmr0h	equ	0FD7h
    53  000000                     status	equ	0FD8h
    54  000000                     fsr2	equ	0FD9h
    55  000000                     fsr2l	equ	0FD9h
    56  000000                     fsr2h	equ	0FDAh
    57  000000                     plusw2	equ	0FDBh
    58  000000                     preinc2	equ	0FDCh
    59  000000                     postdec2	equ	0FDDh
    60  000000                     postinc2	equ	0FDEh
    61  000000                     indf2	equ	0FDFh
    62  000000                     bsr	equ	0FE0h
    63  000000                     fsr1	equ	0FE1h
    64  000000                     fsr1l	equ	0FE1h
    65  000000                     fsr1h	equ	0FE2h
    66  000000                     plusw1	equ	0FE3h
    67  000000                     preinc1	equ	0FE4h
    68  000000                     postdec1	equ	0FE5h
    69  000000                     postinc1	equ	0FE6h
    70  000000                     indf1	equ	0FE7h
    71  000000                     wreg	equ	0FE8h
    72  000000                     fsr0	equ	0FE9h
    73  000000                     fsr0l	equ	0FE9h
    74  000000                     fsr0h	equ	0FEAh
    75  000000                     plusw0	equ	0FEBh
    76  000000                     preinc0	equ	0FECh
    77  000000                     postdec0	equ	0FEDh
    78  000000                     postinc0	equ	0FEEh
    79  000000                     indf0	equ	0FEFh
    80  000000                     intcon3	equ	0FF0h
    81  000000                     intcon2	equ	0FF1h
    82  000000                     intcon	equ	0FF2h
    83  000000                     prod	equ	0FF3h
    84  000000                     prodl	equ	0FF3h
    85  000000                     prodh	equ	0FF4h
    86  000000                     tablat	equ	0FF5h
    87  000000                     tblptr	equ	0FF6h
    88  000000                     tblptrl	equ	0FF6h
    89  000000                     tblptrh	equ	0FF7h
    90  000000                     tblptru	equ	0FF8h
    91  000000                     pcl	equ	0FF9h
    92  000000                     pclat	equ	0FFAh
    93  000000                     pclath	equ	0FFAh
    94  000000                     pclatu	equ	0FFBh
    95  000000                     stkptr	equ	0FFCh
    96  000000                     tosl	equ	0FFDh
    97  000000                     tosh	equ	0FFEh
    98  000000                     tosu	equ	0FFFh
    99                           	global	__ramtop
   100                           	global	__accesstop
   101                           # 20 "../code/main.c"
   102                           	global __config1 ;#
   103                           # 20 "../code/main.c"
   104  000000                     	__config1 equ 0xF0FF ;#
   105                           # 21 "../code/main.c"
   106                           	global __config2 ;#
   107                           # 21 "../code/main.c"
   108  000000                     	__config2 equ 0xFEFF ;#
   109                           # 22 "../code/main.c"
   110                           	global __config3 ;#
   111                           # 22 "../code/main.c"
   112  000000                     	__config3 equ 0x7FFF ;#
   113                           # 23 "../code/main.c"
   114                           	global __config4 ;#
   115                           # 23 "../code/main.c"
   116  000000                     	__config4 equ 0xFFFB & 0xFFFF ;#
   117                           # 24 "../code/main.c"
   118                           	global __config5 ;#
   119                           # 24 "../code/main.c"
   120  000000                     	__config5 equ 0xFFFF ;#
   121                           # 25 "../code/main.c"
   122                           	global __config6 ;#
   123                           # 25 "../code/main.c"
   124  000000                     	__config6 equ 0xFFFF ;#
   125                           # 26 "../code/main.c"
   126                           	global __config7 ;#
   127                           # 26 "../code/main.c"
   128  000000                     	__config7 equ 0xFFFF ;#
   129                           	GLOBAL	__activetblptr
   130  000000                     __activetblptr	EQU	0
   131                           	GLOBAL	__smallconst,__Lsmallconst
   132  000000                     __smallconst	EQU	__Lsmallconst
   133                           	GLOBAL	__mediumconst,__Lmediumconst
   134  000000                     __mediumconst	EQU	__Lmediumconst
   135                           	GLOBAL	__Ldata
   136  000000                     __Ldata	EQU	0
   137  000000                     main@argc	equ	?_main+0
   138                           	global	main@argc
   139  000000                     main@argv	equ	?_main+2
   140                           	global	main@argv
   141  000000                     adc_conversion@hResult	equ	??_adc_conversion+0
   142                           	global	adc_conversion@hResult
   143  000000                     adc_conversion@lResult	equ	??_adc_conversion+1
   144                           	global	adc_conversion@lResult
   145  000000                     adc_conversion@note	equ	??_adc_conversion+2
   146                           	global	adc_conversion@note
   147  000000                     getNote@new_note	equ	??_getNote+0
   148                           	global	getNote@new_note
   149  000000                     getNote@i	equ	??_getNote+1
   150                           	global	getNote@i
   151  000000                     getNote@hResult	equ	?_getNote+0
   152                           	global	getNote@hResult
   153  000000                     getNote@lResult	equ	?_getNote+1
   154                           	global	getNote@lResult
   155                           ;Data sizes: Strings 0, constant 0, data 0, bss 
                                 0, persistent 0 stack 29
   156                           	global	_main
   157                           	global	??_main
   158                           	global	?_main
   159                           
   160                           ; *************** function _main ***************
                                 **
   161                           ; Defined at:
   162                           ;		line 171 in file "../code/main.c"
   163                           ; Parameters:
   164                           ;		argc           size:   2offs:   0	type: int 
   165                           ;		argv           size:   2offs:   2	type: PTR P
                                 TR unsigned char 
   166                           ; Auto variables:
   167                           ;		None
   168                           ; Return value:
   169                           ;		type: int 
   170                           ;		size: 2
   171                           ; Registers used:
   172                           ;		wreg, status,2, status,0
   173                           ; Tracked objects:
   174                           ;		On entry : 0/0
   175                           ;		On exit  : 0/0
   176                           ;		Unchanged: 0/0
   177                           ; Data sizes:
   178                           ;		Autos:    0
   179                           ;		Params:   4
   180                           ;		Temp:     1
   181                           ;		Total:    5
   182                           ; This function calls:
   183                           ;		Nothing
   184                           ; This function is called by:
   185                           ;		Startup code after reset
   186                           ; This function uses a non-reentrant model
   187                           ; 
   188                                   psect   text0,class=CODE,space=0,reloc=2
   189                           
   190                           	opt lm
   191                           	file	"../code/main.c"
   192                           	line	171
   193  000000                     	__size_of_main	equ	__end_of_main-_main
   194                                   psect   text0
   195                           ;stdio.h: 12: typedef int ptrdiff_t;
   196                           ;stdio.h: 13: typedef unsigned size_t;
   197                           ;stdio.h: 14: typedef unsigned short wchar_t;
   198                           ;stdarg.h: 36: typedef void * va_list[1];
   199                           ;stdarg.h: 39: extern void * __va_start(void);
   200                           ;stdarg.h: 42: extern void * __va_arg(void *);
   201                           ;stdio.h: 27: extern int errno;
   202                           ;stdio.h: 58: struct __prbuf
   203                           ;stdio.h: 59: {
   204                           ;stdio.h: 60: char * ptr;
   205                           ;stdio.h: 61: void (* func)(char);
   206                           ;stdio.h: 62: };
   207                           ;conio.h: 17: extern int errno;
   208                           ;conio.h: 20: extern void init_uart(void);
   209                           ;conio.h: 22: extern char getch(void);
   210                           	
   211  001AD6                     _main:		; BSR set to: ?
   212                           
   213                           	opt stack 28
   214                           	line	173
   215  001AD6  0E72               	movlw	(072h)&0ffh
   216  001AD8  12D3               	iorwf	((c:4051)),c	;volatile
   217                           	line	176
   218                           ;main.c: 176: TRISA = 0b10101111;
   219  001ADA  0EAF               	movlw	low(0AFh)
   220+ 001ADC  6E92               	movwf	((c:3986)),c	;volatile
   221+                          	line	177
   222+                          ;main.c: 177: TRISB = 0b00010010;
   223+ 001ADE  0E12               	movlw	low(012h)
   224  001AE0  6E93               	movwf	((c:3987)),c	;volatile
   225                           	line	178
   226                           ;main.c: 178: TRISC = 0b10000000;
   227  001AE2  0E80               	movlw	low(080h)
   228  001AE4  6E94               	movwf	((c:3988)),c	;volatile
   229                           	line	181
   230                           ;main.c: 181: ADCON0 = 0b00000000;
   231  001AE6  0E00               	movlw	low(0)
   232  001AE8  6EC2               	movwf	((c:4034)),c	;volatile
   233                           	line	182
   234                           ;main.c: 182: ADCON1 = 0b00000101;
   235  001AEA  0E05               	movlw	low(05h)
   236  001AEC  6EC1               	movwf	((c:4033)),c	;volatile
   237                           	line	183
   238                           ;main.c: 183: ADCON2 = 0b10001101;
   239  001AEE  0E8D               	movlw	low(08Dh)
   240  001AF0  6EC0               	movwf	((c:4032)),c	;volatile
   241                           	line	184
   242                           ;main.c: 184: adc_num = 0;
   243  001AF2  0E00               	movlw	low(0)
   244  001AF4  6E2A               	movwf	((c:42)),c	;volatile
   245                           	line	189
   246                           ;main.c: 189: T0CON = 0b10000000;
   247  001AF6  0E80               	movlw	low(080h)
   248  001AF8  6ED5               	movwf	((c:4053)),c	;volatile
   249                           	line	192
   250                           ;main.c: 192: INTCON = 0b00100000;
   251  001AFA  0E20               	movlw	low(020h)
   252  001AFC  6EF2               	movwf	((c:4082)),c	;volatile
   253                           	line	202
   254                           ;main.c: 202: SPBRGH = (((8000000L/19200UL)/16) 
                                 - 1) >> 8;
   255  001AFE  0E00               	movlw	low(0)
   256  001B00  6EB0               	movwf	((c:4016)),c	;volatile
   257                           	line	203
   258                           ;main.c: 203: SPBRG = (((8000000L/19200UL)/16) -
                                  1);
   259  001B02  0E19               	movlw	low(019h)
   260  001B04  6EAF               	movwf	((c:4015)),c	;volatile
   261                           	line	204
   262                           ;main.c: 204: BAUDCON = 0b00001000;
   263  001B06  0E08               	movlw	low(08h)
   264  001B08  6EB8               	movwf	((c:4024)),c	;volatile
   265                           	line	205
   266                           ;main.c: 205: RCSTA = 0b10010000;
   267  001B0A  0E90               	movlw	low(090h)
   268  001B0C  6EAB               	movwf	((c:4011)),c	;volatile
   269                           	line	206
   270                           ;main.c: 206: TXSTA = 0b00100000;
   271  001B0E  0E20               	movlw	low(020h)
   272  001B10  6EAC               	movwf	((c:4012)),c	;volatile
   273                           	line	209
   274                           ;main.c: 209: LATA = 0b11111111;
   275  001B12  6889               	setf	((c:3977)),c	;volatile
   276                           	line	211
   277                           ;main.c: 211: LATB = 0b10000000;
   278  001B14  0E80               	movlw	low(080h)
   279  001B16  6E8A               	movwf	((c:3978)),c	;volatile
   280                           	line	213
   281                           ;main.c: 213: LATC = 0b00001111;
   282  001B18  0E0F               	movlw	low(0Fh)
   283  001B1A  6E8B               	movwf	((c:3979)),c	;volatile
   284                           	line	216
   285                           ;main.c: 216: INTCON |= 0b10000000;
   286  001B1C  8EF2               	bsf	(0+(7/8)+(c:4082)),c,(7)&7	;volatile
   287                           	line	276
   288                           ;main.c: 276: while (1) {
   289                           	
   290  001B1E                     l869:		; BSR set to: ?
   291                           
   292                           	line	278
   293                           ;main.c: 278: while (change_val == 0) {
   294  001B1E  EF91  F00D         	goto	l871
   295                           	line	281
   296                           	
   297  001B22                     l871:		; BSR set to: ?
   298                           
   299                           	line	278
   300  001B22  502C               	movf	((c:44)),c,w
   301  001B24  B4D8               	btfsc	status,2
   302  001B26  EF97  F00D         	goto	u8721
   303  001B2A  EF99  F00D         	goto	u8720
   304  001B2E                     u8721:
   305  001B2E  EF8F  F00D         	goto	l869
   306  001B32                     u8720:
   307                           	
   308  001B32                     l873:		; BSR set to: ?
   309                           
   310                           	line	292
   311                           ;main.c: 281: }
   312                           ;main.c: 292: change_val = 0;
   313  001B32  0101               	movlb	1	; () banked
   314  001B34  6F04               	movwf	(??_main+0+0)&0ffh
   315  001B36  0E00               	movlw	low(0)
   316  001B38  6E2C               	movwf	((c:44)),c
   317  001B3A  0101               	movlb	1	; () banked
   318  001B3C  5104               	movf	(??_main+0+0)&0ffh,w
   319                           	line	294
   320                           	
   321  001B3E                     l868:		; BSR set to: ?
   322                           
   323                           	line	276
   324  001B3E  EF8F  F00D         	goto	l869
   325                           	global	start
   326  001B42  EF0C  F000         	goto	start
   327                           	opt stack 0
   328                           GLOBAL __end_of_main
   329  001B46                     	__end_of_main:
   330                           	FNSIZE	_main,1,4
   331                           ; =============== function _main ends ==========
                                 ==
   332                           
   333                                   psect   text1,class=CODE,space=0,reloc=2
   334                           	line	300
   335                           
   336                           	opt lm
   337                           	signat	_main,8314
   338                           	global	_my_isr
   339                           	global	??_my_isr
   340                           	global	?_my_isr
   341                           
   342                           ; *************** function _my_isr *************
                                 ****
   343                           ; Defined at:
   344                           ;		line 974 in file "../code/main.c"
   345                           ; Parameters:
   346                           ;		None
   347                           ; Auto variables:
   348                           ;		None
   349                           ; Return value:
   350                           ;		type: void 
   351                           ;		size: 0
   352                           ; Registers used:
   353                           ;		wreg, fsr0l, fsr0h, fsr1l, fsr1h, status,2, s
                                 tatus,0, cstack
   354                           ; Tracked objects:
   355                           ;		On entry : 0/0
   356                           ;		On exit  : 0/0
   357                           ;		Unchanged: 0/0
   358                           ; Data sizes:
   359                           ;		Autos:    0
   360                           ;		Params:   0
   361                           ;		Temp:    15
   362                           ;		Total:   15
   363                           ; This function calls:
   364                           ;		_adc_conversion
   365                           ; This function is called by:
   366                           ;		Interrupt level 2
   367                           ; This function uses a non-reentrant model
   368                           ; 
   369                           	file	"../code/main.c"
   370                           	line	974
   371  000000                     	__size_of_my_isr	equ	__end_of_my_isr-_my_isr
   372                           ;main.c: 974: void interrupt my_isr(void) {
   373                           	
   374  0018B6                     _my_isr:		; BSR set to: ?
   375                           
   376                           	opt stack 31
   377                                   psect   intcode,class=CODE,space=0,reloc
                                 =2
   378                           	global	int_func
   379  000008                     int_func:
   380                                   psect   intcode
   381  000008  CFFA F106          	movff	pclat+0,??_my_isr+1
   382  00000C  CFFB F107          	movff	pclat+1,??_my_isr+2
   383  000010  CFE9 F108          	movff	fsr0l+0,??_my_isr+3
   384  000014  EF5B  F00C         	goto	_my_isr
   385                                   psect   text1
   386  0018B6  CFEA F109          	movff	fsr0h+0,??_my_isr+4
   387  0018BA  CFE1 F10A          	movff	fsr1l+0,??_my_isr+5
   388  0018BE  CFE2 F10B          	movff	fsr1h+0,??_my_isr+6
   389  0018C2  CFD9 F10C          	movff	fsr2l+0,??_my_isr+7
   390  0018C6  CFDA F10D          	movff	fsr2h+0,??_my_isr+8
   391  0018CA  CFF3 F10E          	movff	prodl+0,??_my_isr+9
   392  0018CE  CFF4 F10F          	movff	prodh+0,??_my_isr+10
   393  0018D2  CFF6 F110          	movff	tblptrl+0,??_my_isr+11
   394  0018D6  CFF7 F111          	movff	tblptrh+0,??_my_isr+12
   395  0018DA  CFF8 F112          	movff	tblptru+0,??_my_isr+13
   396  0018DE  CFF5 F113          	movff	tablat+0,??_my_isr+14
   397                           	line	976
   398                           ;main.c: 976: INTCON &= 0b01111111;
   399  0018E2  9EF2               	bcf	(0+(7/8)+(c:4082)),c,(7)&7	;volatile
   400                           	line	978
   401                           ;main.c: 978: if (TMR0IE && TMR0IF && TMR0IP) {
   402  0018E4  AAF2               	btfss	c:(32661/8),(32661)&7	;volatile
   403  0018E6  EF77  F00C         	goto	i2u7181
   404  0018EA  EF79  F00C         	goto	i2u7180
   405  0018EE                     i2u7181:
   406  0018EE  EFF1  F00C         	goto	i2l1056
   407  0018F2                     i2u7180:
   408  0018F2  A4F2               	btfss	c:(32658/8),(32658)&7	;volatile
   409  0018F4  EF7E  F00C         	goto	i2u7191
   410  0018F8  EF80  F00C         	goto	i2u7190
   411  0018FC                     i2u7191:
   412  0018FC  EFF1  F00C         	goto	i2l1056
   413  001900                     i2u7190:
   414  001900  A4F1               	btfss	c:(32650/8),(32650)&7	;volatile
   415  001902  EF85  F00C         	goto	i2u7201
   416  001906  EF87  F00C         	goto	i2u7200
   417  00190A                     i2u7201:
   418  00190A  EFF1  F00C         	goto	i2l1056
   419  00190E                     i2u7200:
   420                           	line	979
   421                           ;main.c: 979: adc_conversion ();
   422  00190E  EC0F  F00D         	call	_adc_conversion	;wreg free
   423                           	line	981
   424                           ;main.c: 981: cur_inputs[conv_result.adc_channel
                                 ] = conv_result.result;
   425  001912  0E1C               	movlw	low((c:28))
   426  001914  241B               	addwf	(0+((c:26)+01h)),c,w
   427  001916  6EE9               	movwf	c:fsr0l
   428  001918  6AEA               	clrf	1+c:fsr0l
   429  00191A  0E00               	movlw	high((c:28))
   430  00191C  22EA               	addwfc	1+c:fsr0l
   431  00191E  C01A FFEF          	movff	(c:26),indf0
   432                           
   433                           	line	983
   434                           ;main.c: 983: if (cur_inputs[conv_result.adc_cha
                                 nnel] != prev_inputs[conv_result.adc_channel]) {
   435  001922  0E23               	movlw	low((c:35))
   436  001924  241B               	addwf	(0+((c:26)+01h)),c,w
   437  001926  6EE9               	movwf	c:fsr0l
   438  001928  6AEA               	clrf	1+c:fsr0l
   439  00192A  0E00               	movlw	high((c:35))
   440  00192C  22EA               	addwfc	1+c:fsr0l
   441  00192E  50EF               	movf	indf0,w
   442+ 001930  0101               	movlb	1	; () banked
   443+ 001932  6F05               	movwf	(??_my_isr+0+0)&0ffh
   444  001934  0E1C               	movlw	low((c:28))
   445  001936  241B               	addwf	(0+((c:26)+01h)),c,w
   446  001938  6EE9               	movwf	c:fsr0l
   447  00193A  6AEA               	clrf	1+c:fsr0l
   448  00193C  0E00               	movlw	high((c:28))
   449  00193E  22EA               	addwfc	1+c:fsr0l
   450  001940  50EF               	movf	indf0,w
   451  001942  0101               	movlb	1	; () banked
   452  001944  1905               	xorwf	((??_my_isr+0+0))&0ffh,w
   453  001946  B4D8               	btfsc	status,2
   454  001948  EFA8  F00C         	goto	i2u7211
   455  00194C  EFAA  F00C         	goto	i2u7210
   456  001950                     i2u7211:
   457  001950  EFC3  F00C         	goto	i2l1057
   458  001954                     i2u7210:
   459                           	line	984
   460                           ;main.c: 984: change_val = 1;
   461  001954  0101               	movlb	1	; () banked
   462  001956  6F05               	movwf	(??_my_isr+0+0)&0ffh
   463  001958  0E01               	movlw	low(01h)
   464  00195A  6E2C               	movwf	((c:44)),c
   465  00195C  0101               	movlb	1	; () banked
   466  00195E  5105               	movf	(??_my_isr+0+0)&0ffh,w
   467                           	line	985
   468                           ;main.c: 985: prev_inputs[conv_result.adc_channe
                                 l] = cur_inputs[conv_result.adc_channel];
   469  001960  0E1C               	movlw	low((c:28))
   470  001962  241B               	addwf	(0+((c:26)+01h)),c,w
   471  001964  6EE9               	movwf	c:fsr0l
   472  001966  6AEA               	clrf	1+c:fsr0l
   473  001968  0E00               	movlw	high((c:28))
   474  00196A  22EA               	addwfc	1+c:fsr0l
   475  00196C  0E23               	movlw	low((c:35))
   476  00196E  241B               	addwf	(0+((c:26)+01h)),c,w
   477  001970  6EE1               	movwf	c:fsr1l
   478  001972  6AE2               	clrf	1+c:fsr1l
   479  001974  0E00               	movlw	high((c:35))
   480  001976  22E2               	addwfc	1+c:fsr1l
   481  001978  CFEF FFE7          	movff	indf0,indf1
   482                           	line	986
   483                           ;main.c: 986: index = conv_result.adc_channel;
   484  00197C  C01B F02F          	movff	0+((c:26)+01h),(c:47)
   485  001980  6A30               	clrf	((c:47+1)),c
   486                           	line	987
   487                           ;main.c: 987: } else {
   488  001982  EFC9  F00C         	goto	i2l1058
   489                           	
   490  001986                     i2l1057:		; BSR set to: ?
   491                           
   492                           	line	988
   493                           ;main.c: 988: change_val = 0;
   494  001986  0101               	movlb	1	; () banked
   495  001988  6F05               	movwf	(??_my_isr+0+0)&0ffh
   496  00198A  0E00               	movlw	low(0)
   497  00198C  6E2C               	movwf	((c:44)),c
   498  00198E  0101               	movlb	1	; () banked
   499  001990  5105               	movf	(??_my_isr+0+0)&0ffh,w
   500                           	line	989
   501                           	
   502  001992                     i2l1058:		; BSR set to: ?
   503                           
   504                           	line	991
   505                           ;main.c: 989: }
   506                           ;main.c: 991: uart_out = conv_result.result;
   507  001992  C01A F02B          	movff	(c:26),(c:43)
   508                           	line	992
   509                           ;main.c: 992: TXREG = uart_out;
   510  001996  C02B FFAD          	movff	(c:43),(c:4013)	;volatile
   511                           	line	993
   512                           ;main.c: 993: while((PIR1 & 0b00010000) == 0);
   513  00199A  EFCF  F00C         	goto	i2l1059
   514                           	
   515  00199E                     i2l1059:		; BSR set to: ?
   516                           
   517                           	
   518  00199E  A89E               	btfss	((c:3998)),c,(4)&7	;volatile
   519  0019A0  EFD4  F00C         	goto	i2u7221
   520  0019A4  EFD6  F00C         	goto	i2u7220
   521  0019A8                     i2u7221:
   522  0019A8  EFCF  F00C         	goto	i2l1059
   523  0019AC                     i2u7220:
   524                           	
   525  0019AC                     i2l1061:		; BSR set to: ?
   526                           
   527                           	line	994
   528                           ;main.c: 994: uart_out = conv_result.adc_channel
                                 ;
   529  0019AC  C01B F02B          	movff	0+((c:26)+01h),(c:43)
   530                           	line	995
   531                           ;main.c: 995: TXREG = uart_out;
   532  0019B0  C02B FFAD          	movff	(c:43),(c:4013)	;volatile
   533                           	line	996
   534                           ;main.c: 996: while((PIR1 & 0b00010000) == 0);
   535  0019B4  EFDC  F00C         	goto	i2l1062
   536                           	
   537  0019B8                     i2l1062:		; BSR set to: ?
   538                           
   539                           	
   540  0019B8  A89E               	btfss	((c:3998)),c,(4)&7	;volatile
   541  0019BA  EFE1  F00C         	goto	i2u7231
   542  0019BE  EFE3  F00C         	goto	i2u7230
   543  0019C2                     i2u7231:
   544  0019C2  EFDC  F00C         	goto	i2l1062
   545  0019C6                     i2u7230:
   546                           	
   547  0019C6                     i2l1064:		; BSR set to: ?
   548                           
   549                           	line	997
   550                           ;main.c: 997: uart_out = conv_result.result;
   551  0019C6  C01A F02B          	movff	(c:26),(c:43)
   552                           	line	998
   553                           ;main.c: 998: TXREG = uart_out;
   554  0019CA  C02B FFAD          	movff	(c:43),(c:4013)	;volatile
   555                           	line	999
   556                           ;main.c: 999: while((PIR1 & 0b00010000) == 0);
   557  0019CE  EFE9  F00C         	goto	i2l1065
   558                           	
   559  0019D2                     i2l1065:		; BSR set to: ?
   560                           
   561                           	
   562  0019D2  A89E               	btfss	((c:3998)),c,(4)&7	;volatile
   563  0019D4  EFEE  F00C         	goto	i2u7241
   564  0019D8  EFF0  F00C         	goto	i2u7240
   565  0019DC                     i2u7241:
   566  0019DC  EFE9  F00C         	goto	i2l1065
   567  0019E0                     i2u7240:
   568                           	
   569  0019E0                     i2l1067:		; BSR set to: ?
   570                           
   571                           	line	1003
   572                           ;main.c: 1003: TMR0IF = 0;
   573  0019E0  94F2               	bcf	c:(32658/8),(32658)&7	;volatile
   574                           	line	1004
   575                           	
   576  0019E2                     i2l1056:		; BSR set to: ?
   577                           
   578                           	line	1007
   579                           ;main.c: 1004: }
   580                           ;main.c: 1007: INTCON |= 0b10000000;
   581  0019E2  8EF2               	bsf	(0+(7/8)+(c:4082)),c,(7)&7	;volatile
   582                           	line	1009
   583                           ;main.c: 1009: }
   584  0019E4                     i2l1055:
   585                           			; BSR set to: ?
   586                           
   587  0019E4  C113  FFF5         	movff	??_my_isr+14,tablat+0
   588  0019E8  C112  FFF8         	movff	??_my_isr+13,tblptru+0
   589  0019EC  C111  FFF7         	movff	??_my_isr+12,tblptrh+0
   590  0019F0  C110  FFF6         	movff	??_my_isr+11,tblptrl+0
   591  0019F4  C10F  FFF4         	movff	??_my_isr+10,prodh+0
   592  0019F8  C10E  FFF3         	movff	??_my_isr+9,prodl+0
   593  0019FC  C10D  FFDA         	movff	??_my_isr+8,fsr2h+0
   594  001A00  C10C  FFD9         	movff	??_my_isr+7,fsr2l+0
   595  001A04  C10B  FFE2         	movff	??_my_isr+6,fsr1h+0
   596  001A08  C10A  FFE1         	movff	??_my_isr+5,fsr1l+0
   597  001A0C  C109  FFEA         	movff	??_my_isr+4,fsr0h+0
   598  001A10  C108  FFE9         	movff	??_my_isr+3,fsr0l+0
   599  001A14  C107  FFFB         	movff	??_my_isr+2,pclat+1
   600  001A18  C106  FFFA         	movff	??_my_isr+1,pclat+0
   601  001A1C  0011               	retfie f
   602                           	opt stack 0
   603                           GLOBAL __end_of_my_isr
   604  001A1E                     	__end_of_my_isr:
   605                           	FNSIZE	_my_isr,15,0
   606                           ; =============== function _my_isr ends ========
                                 ====
   607                           
   608                           	signat	_my_isr,88
   609                                   psect   text2,class=CODE,space=0,reloc=2
   610                           	global	intlevel2
   611                           
   612                           	opt lm
   613                           	FNBREAK _adc_conversion,intlevel2
   614                           	global	_adc_conversion
   615                           	global	??_adc_conversion
   616                           	global	?_adc_conversion
   617                           
   618                           ; *************** function _adc_conversion *****
                                 ************
   619                           ; Defined at:
   620                           ;		line 1017 in file "../code/main.c"
   621                           ; Parameters:
   622                           ;		None
   623                           ; Auto variables:
   624                           ;		hResult     	       	type: unsigned char 
   625                           ;		lResult     	       	type: unsigned char 
   626                           ;		note        	       	type: unsigned char 
   627                           ; Return value:
   628                           ;		type: void 
   629                           ;		size: 0
   630                           ; Registers used:
   631                           ;		wreg, fsr0l, fsr0h, status,2, status,0, cstac
                                 k
   632                           ; Tracked objects:
   633                           ;		On entry : 0/0
   634                           ;		On exit  : 0/0
   635                           ;		Unchanged: 0/0
   636                           ; Data sizes:
   637                           ;		Autos:    3
   638                           ;		Params:   0
   639                           ;		Temp:     0
   640                           ;		Total:    3
   641                           ; This function calls:
   642                           ;		_getNote
   643                           ; This function is called by:
   644                           ;		_my_isr
   645                           ; This function uses a non-reentrant model
   646                           ; 
   647                           	file	"../code/main.c"
   648                           	line	1017
   649  000000                     	__size_of_adc_conversion	equ	__end_of_adc_conve
                                 rsion-_adc_conversion
   650                           ;main.c: 1017: void adc_conversion() {
   651                           	
   652  001A1E                     _adc_conversion:		; BSR set to: ?
   653                           
   654                           	opt stack 30
   655                           	line	1019
   656                           ;main.c: 1019: ADON = 0;
   657  001A1E  90C2               	bcf	c:(32272/8),(32272)&7	;volatile
   658                           	line	1021
   659                           ;main.c: 1021: ADRESH = 0;
   660  001A20  0E00               	movlw	low(0)
   661  001A22  6EC4               	movwf	((c:4036)),c	;volatile
   662                           	line	1022
   663                           ;main.c: 1022: ADRESL = 0;
   664  001A24  0E00               	movlw	low(0)
   665  001A26  6EC3               	movwf	((c:4035)),c	;volatile
   666                           	line	1025
   667                           ;main.c: 1025: switch (adc_num) {
   668  001A28  EF32  F00D         	goto	i2l1070
   669                           	line	1026
   670                           ;main.c: 1026: case 0 :
   671                           	
   672  001A2C                     i2l1071:		; BSR set to: ?
   673                           
   674                           	line	1027
   675                           ;main.c: 1027: ADCON0 = 0b00100000;
   676  001A2C  0E20               	movlw	low(020h)
   677  001A2E  6EC2               	movwf	((c:4034)),c	;volatile
   678                           	line	1028
   679                           ;main.c: 1028: break;
   680  001A30  EF43  F00D         	goto	i2l1069
   681                           	line	1029
   682                           ;main.c: 1029: case 1 :
   683                           	
   684  001A34                     i2l1072:		; BSR set to: ?
   685                           
   686                           	line	1030
   687                           ;main.c: 1030: ADCON0 = 0b00100100;
   688  001A34  0E24               	movlw	low(024h)
   689  001A36  6EC2               	movwf	((c:4034)),c	;volatile
   690                           	line	1031
   691                           ;main.c: 1031: break;
   692  001A38  EF43  F00D         	goto	i2l1069
   693                           	line	1032
   694                           ;main.c: 1032: case 2 :
   695                           	
   696  001A3C                     i2l1073:		; BSR set to: ?
   697                           
   698                           	line	1033
   699                           ;main.c: 1033: ADCON0 = 0b00000000;
   700  001A3C  0E00               	movlw	low(0)
   701  001A3E  6EC2               	movwf	((c:4034)),c	;volatile
   702                           	line	1034
   703                           ;main.c: 1034: break;
   704  001A40  EF43  F00D         	goto	i2l1069
   705                           	line	1035
   706                           ;main.c: 1035: case 3 :
   707                           	
   708  001A44                     i2l1074:		; BSR set to: ?
   709                           
   710                           	line	1036
   711                           ;main.c: 1036: ADCON0 = 0b00000100;
   712  001A44  0E04               	movlw	low(04h)
   713  001A46  6EC2               	movwf	((c:4034)),c	;volatile
   714                           	line	1037
   715                           ;main.c: 1037: break;
   716  001A48  EF43  F00D         	goto	i2l1069
   717                           	line	1038
   718                           ;main.c: 1038: case 4 :
   719                           	
   720  001A4C                     i2l1075:		; BSR set to: ?
   721                           
   722                           	line	1039
   723                           ;main.c: 1039: ADCON0 = 0b00001000;
   724  001A4C  0E08               	movlw	low(08h)
   725  001A4E  6EC2               	movwf	((c:4034)),c	;volatile
   726                           	line	1040
   727                           ;main.c: 1040: break;
   728  001A50  EF43  F00D         	goto	i2l1069
   729                           	line	1041
   730                           ;main.c: 1041: case 5 :
   731                           	
   732  001A54                     i2l1076:		; BSR set to: ?
   733                           
   734                           	line	1042
   735                           ;main.c: 1042: ADCON0 = 0b00001100;
   736  001A54  0E0C               	movlw	low(0Ch)
   737  001A56  6EC2               	movwf	((c:4034)),c	;volatile
   738                           	line	1043
   739                           ;main.c: 1043: break;
   740  001A58  EF43  F00D         	goto	i2l1069
   741                           	line	1044
   742                           ;main.c: 1044: case 6 :
   743                           	
   744  001A5C                     i2l1077:		; BSR set to: ?
   745                           
   746                           	line	1045
   747                           ;main.c: 1045: ADCON0 = 0b00010000;
   748  001A5C  0E10               	movlw	low(010h)
   749  001A5E  6EC2               	movwf	((c:4034)),c	;volatile
   750                           	line	1046
   751                           ;main.c: 1046: break;
   752  001A60  EF43  F00D         	goto	i2l1069
   753                           	line	1025
   754                           	
   755  001A64                     i2l1070:		; BSR set to: ?
   756                           
   757  001A64  502A               	movf	((c:42)),c,w	;volatile
   758  001A66  0A00               	xorlw	0 ^ 0
   759  001A68  E0E1               	bz	i2l1071
   760  001A6A  0A01               	xorlw	1 ^ 0
   761  001A6C  E0E3               	bz	i2l1072
   762  001A6E  0A03               	xorlw	2 ^ 1
   763  001A70  E0E5               	bz	i2l1073
   764  001A72  0A01               	xorlw	3 ^ 2
   765  001A74  E0E7               	bz	i2l1074
   766  001A76  0A07               	xorlw	4 ^ 3
   767  001A78  E0E9               	bz	i2l1075
   768  001A7A  0A01               	xorlw	5 ^ 4
   769  001A7C  E0EB               	bz	i2l1076
   770  001A7E  0A03               	xorlw	6 ^ 5
   771  001A80  E0ED               	bz	i2l1077
   772  001A82  EF43  F00D         	goto	i2l1069
   773                           
   774                           	line	1047
   775                           	
   776  001A86                     i2l1069:		; BSR set to: ?
   777                           
   778                           	line	1051
   779                           ;main.c: 1051: ADON = 1;
   780  001A86  80C2               	bsf	c:(32272/8),(32272)&7	;volatile
   781                           	line	1052
   782                           ;main.c: 1052: GODONE = 1;
   783  001A88  82C2               	bsf	c:(32273/8),(32273)&7	;volatile
   784                           	line	1055
   785                           ;main.c: 1055: while (GODONE);
   786  001A8A  EF47  F00D         	goto	i2l1078
   787                           	
   788  001A8E                     i2l1078:		; BSR set to: ?
   789                           
   790  001A8E  B2C2               	btfsc	c:(32273/8),(32273)&7	;volatile
   791  001A90  EF4C  F00D         	goto	i2u7161
   792  001A94  EF4E  F00D         	goto	i2u7160
   793  001A98                     i2u7161:
   794  001A98  EF47  F00D         	goto	i2l1078
   795  001A9C                     i2u7160:
   796                           	
   797  001A9C                     i2l1080:		; BSR set to: ?
   798                           
   799                           	line	1056
   800                           ;main.c: 1056: unsigned char hResult = ADRESH;
   801  001A9C  CFC4 F114          	movff	(c:4036),(adc_conversion@hResult)	;volati
                                 le
   802                           	line	1057
   803                           ;main.c: 1057: unsigned char lResult = ADRESL;
   804  001AA0  CFC3 F115          	movff	(c:4035),(adc_conversion@lResult)	;volati
                                 le
   805                           	line	1058
   806                           ;main.c: 1058: unsigned char note = getNote(hRes
                                 ult, lResult);
   807  001AA4  C115  F118         	movff	(adc_conversion@lResult),0+(?_getNote+01h
                                 )
   808  001AA8  C114  F117         	movff	(adc_conversion@hResult),(?_getNote)
   809  001AAC  EC1B  F000         	call	_getNote	;wreg free
   810  001AB0  0101               	movlb	1	; () banked
   811  001AB2  0101               	movlb	1	; () banked
   812  001AB4  6F16               	movwf	((adc_conversion@note))&0ffh
   813                           	line	1061
   814                           ;main.c: 1061: conv_result.result = note;
   815  001AB6  C116  F01A         	movff	(adc_conversion@note),(c:26)
   816                           	line	1062
   817                           ;main.c: 1062: conv_result.adc_channel = adc_num
                                 ;
   818  001ABA  C02A F01B          	movff	(c:42),0+((c:26)+01h)	;volatile
   819                           	line	1065
   820                           ;main.c: 1065: adc_num++;
   821  001ABE  2A2A               	incf	((c:42)),c	;volatile
   822                           	line	1066
   823                           ;main.c: 1066: if (adc_num >= 7) {
   824  001AC0  0E06               	movlw	(07h-1)
   825  001AC2  642A               	cpfsgt	((c:42)),c	;volatile
   826  001AC4  EF66  F00D         	goto	i2u7171
   827  001AC8  EF68  F00D         	goto	i2u7170
   828  001ACC                     i2u7171:
   829  001ACC  EF6A  F00D         	goto	i2l1081
   830  001AD0                     i2u7170:
   831                           	line	1067
   832                           ;main.c: 1067: adc_num = 0;
   833  001AD0  0E00               	movlw	low(0)
   834  001AD2  6E2A               	movwf	((c:42)),c	;volatile
   835                           	line	1068
   836                           	
   837  001AD4                     i2l1081:		; BSR set to: ?
   838                           
   839                           	line	1069
   840                           ;main.c: 1068: }
   841                           ;main.c: 1069: }
   842  001AD4                     i2l1068:
   843                           			; BSR set to: ?
   844                           
   845  001AD4  0012               	return
   846                           	opt stack 0
   847                           GLOBAL __end_of_adc_conversion
   848  001AD6                     	__end_of_adc_conversion:
   849                           	FNSIZE	_adc_conversion,3,0
   850                           ; =============== function _adc_conversion ends 
                                 ============
   851                           
   852                           	signat	_adc_conversion,88
   853                                   psect   text3,class=CODE,space=0,reloc=2
   854                           	global	intlevel2
   855                           
   856                           	opt lm
   857                           	FNBREAK _getNote,intlevel2
   858                           	global	_getNote
   859                           	global	??_getNote
   860                           	global	?_getNote
   861                           
   862                           ; *************** function _getNote ************
                                 *****
   863                           ; Defined at:
   864                           ;		line 1077 in file "../code/main.c"
   865                           ; Parameters:
   866                           ;		hResult        size:   1offs:   0	type: unsig
                                 ned char 
   867                           ;		lResult        size:   1offs:   1	type: unsig
                                 ned char 
   868                           ; Auto variables:
   869                           ;		new_note    	       	type: unsigned char 
   870                           ;		i           	       	type: int 
   871                           ; Return value:
   872                           ;		type: unsigned char 
   873                           ;		size: 1
   874                           ; Registers used:
   875                           ;		wreg, fsr0l, fsr0h, status,2, status,0
   876                           ; Tracked objects:
   877                           ;		On entry : 0/0
   878                           ;		On exit  : 0/0
   879                           ;		Unchanged: 0/0
   880                           ; Data sizes:
   881                           ;		Autos:    3
   882                           ;		Params:   2
   883                           ;		Temp:     1
   884                           ;		Total:    6
   885                           ; This function calls:
   886                           ;		Nothing
   887                           ; This function is called by:
   888                           ;		_adc_conversion
   889                           ; This function uses a non-reentrant model
   890                           ; 
   891                           	file	"../code/main.c"
   892                           	line	1077
   893  000000                     	__size_of_getNote	equ	__end_of_getNote-_getNote
   894                           ;main.c: 1077: unsigned char getNote (unsigned c
                                 har hResult, unsigned char lResult) {
   895                           	
   896  000036                     _getNote:		; BSR set to: ?
   897                           
   898                           	opt stack 29
   899                           	line	1079
   900                           ;main.c: 1078: unsigned char new_note;
   901                           ;main.c: 1079: int i = 0;
   902  000036  0E00               	movlw	low(0)
   903  000038  0101               	movlb	1	; () banked
   904  00003A  0101               	movlb	1	; () banked
   905  00003C  6F1A               	movwf	((getNote@i))&0ffh
   906  00003E  0E00               	movlw	high(0)
   907  000040  0101               	movlb	1	; () banked
   908  000042  6F1B               	movwf	((getNote@i+1))&0ffh
   909                           	line	1080
   910                           ;main.c: 1080: for (i = 0; i < 13; i++) {
   911  000044  0E00               	movlw	low(0)
   912  000046  0101               	movlb	1	; () banked
   913  000048  0101               	movlb	1	; () banked
   914  00004A  6F1A               	movwf	((getNote@i))&0ffh
   915  00004C  0E00               	movlw	high(0)
   916  00004E  0101               	movlb	1	; () banked
   917  000050  6F1B               	movwf	((getNote@i+1))&0ffh
   918  000052  0101               	movlb	1	; () banked
   919  000054  0101               	movlb	1	; () banked
   920  000056  511B               	movf	((getNote@i+1))&0ffh,w
   921  000058  0A80               	xorlw	80h
   922  00005A  0F80               	addlw	-((0)^80h)
   923  00005C  0E0D               	movlw	0Dh
   924  00005E  B4D8               	btfsc	status,2
   925  000060  5D1A               	subwf	((getNote@i))&0ffh,w
   926  000062  A0D8               	btfss	status,0
   927  000064  EF36  F000         	goto	i2u5571
   928  000068  EF38  F000         	goto	i2u5570
   929  00006C                     i2u5571:
   930  00006C  EF3A  F000         	goto	i2l1083
   931  000070                     i2u5570:
   932  000070  EF5E  F000         	goto	i2l1084
   933                           	
   934  000074                     i2l1083:		; BSR set to: ?
   935                           
   936                           	line	1081
   937                           ;main.c: 1081: led_array[i] = 0;
   938  000074  0101               	movlb	1	; () banked
   939  000076  90D8               	bcf	status,0
   940  000078  0101               	movlb	1	; () banked
   941  00007A  351A               	rlcf	((getNote@i))&0ffh,w
   942  00007C  0101               	movlb	1	; () banked
   943  00007E  6F1C               	movwf	(??_getNote+3+0)&0ffh
   944  000080  0E00               	movlw	low((c:0))
   945  000082  0101               	movlb	1	; () banked
   946  000084  251C               	addwf	(??_getNote+3+0)&0ffh,w
   947  000086  6EE9               	movwf	c:fsr0l
   948  000088  6AEA               	clrf	1+c:fsr0l
   949  00008A  0E00               	movlw	high((c:0))
   950  00008C  22EA               	addwfc	1+c:fsr0l
   951  00008E  0E00               	movlw	low(0)
   952  000090  6EEE               	movwf	postinc0
   953  000092  0E00               	movlw	high(0)
   954  000094  6EED               	movwf	postdec0
   955                           	line	1080
   956  000096  0101               	movlb	1	; () banked
   957  000098  0101               	movlb	1	; () banked
   958  00009A  4B1A               	infsnz	((getNote@i))&0ffh
   959  00009C  2B1B               	incf	((getNote@i+1))&0ffh
   960  00009E  0101               	movlb	1	; () banked
   961  0000A0  0101               	movlb	1	; () banked
   962  0000A2  511B               	movf	((getNote@i+1))&0ffh,w
   963  0000A4  0A80               	xorlw	80h
   964  0000A6  0F80               	addlw	-((0)^80h)
   965  0000A8  0E0D               	movlw	0Dh
   966  0000AA  B4D8               	btfsc	status,2
   967  0000AC  5D1A               	subwf	((getNote@i))&0ffh,w
   968  0000AE  A0D8               	btfss	status,0
   969  0000B0  EF5C  F000         	goto	i2u5581
   970  0000B4  EF5E  F000         	goto	i2u5580
   971  0000B8                     i2u5581:
   972  0000B8  EF3A  F000         	goto	i2l1083
   973  0000BC                     i2u5580:
   974                           	
   975  0000BC                     i2l1084:		; BSR set to: ?
   976                           
   977                           	line	1084
   978                           ;main.c: 1082: }
   979                           ;main.c: 1084: if (adc_num == 0) {
   980  0000BC  662A               	tstfsz	((c:42)),c	;volatile
   981  0000BE  EF63  F000         	goto	i2u5591
   982  0000C2  EF65  F000         	goto	i2u5590
   983  0000C6                     i2u5591:
   984  0000C6  EF18  F002         	goto	i2l1086
   985  0000CA                     i2u5590:
   986                           	line	1085
   987                           ;main.c: 1085: if (hResult == 0x00) {
   988  0000CA  0101               	movlb	1	; () banked
   989  0000CC  0101               	movlb	1	; () banked
   990  0000CE  6717               	tstfsz	((getNote@hResult))&0ffh
   991  0000D0  EF6C  F000         	goto	i2u5601
   992  0000D4  EF6E  F000         	goto	i2u5600
   993  0000D8                     i2u5601:
   994  0000D8  EF78  F000         	goto	i2l1087
   995  0000DC                     i2u5600:
   996                           	line	1087
   997                           ;main.c: 1087: new_note = 0x00;
   998  0000DC  0101               	movlb	1	; () banked
   999  0000DE  6F1C               	movwf	(??_getNote+3+0)&0ffh
  1000  0000E0  0E00               	movlw	low(0)
  1001  0000E2  0101               	movlb	1	; () banked
  1002  0000E4  0101               	movlb	1	; () banked
  1003  0000E6  6F19               	movwf	((getNote@new_note))&0ffh
  1004  0000E8  0101               	movlb	1	; () banked
  1005  0000EA  511C               	movf	(??_getNote+3+0)&0ffh,w
  1006                           	line	1089
  1007                           ;main.c: 1089: } else if (hResult == 0x01) {
  1008  0000EC  EF16  F002         	goto	i2l1088
  1009                           	
  1010  0000F0                     i2l1087:		; BSR set to: ?
  1011                           
  1012  0000F0  0101               	movlb	1	; () banked
  1013  0000F2  0101               	movlb	1	; () banked
  1014  0000F4  0517               	decf	((getNote@hResult))&0ffh,w
  1015                           
  1016  0000F6  A4D8               	btfss	status,2
  1017  0000F8  EF80  F000         	goto	i2u5611
  1018  0000FC  EF82  F000         	goto	i2u5610
  1019  000100                     i2u5611:
  1020  000100  EF02  F001         	goto	i2l1089
  1021  000104                     i2u5610:
  1022                           	line	1090
  1023                           ;main.c: 1090: if (lResult >= 190 && lResult <= 
                                 210) {
  1024  000104  0EBD               	movlw	(0BEh-1)
  1025  000106  0101               	movlb	1	; () banked
  1026  000108  0101               	movlb	1	; () banked
  1027  00010A  6518               	cpfsgt	((getNote@lResult))&0ffh
  1028  00010C  EF8A  F000         	goto	i2u5621
  1029  000110  EF8C  F000         	goto	i2u5620
  1030  000114                     i2u5621:
  1031  000114  EFA8  F000         	goto	i2l1090
  1032  000118                     i2u5620:
  1033  000118  0ED3               	movlw	(0D3h)&0ffh
  1034  00011A  0101               	movlb	1	; () banked
  1035  00011C  0101               	movlb	1	; () banked
  1036  00011E  6118               	cpfslt	((getNote@lResult))&0ffh
  1037  000120  EF94  F000         	goto	i2u5631
  1038  000124  EF96  F000         	goto	i2u5630
  1039  000128                     i2u5631:
  1040  000128  EFA8  F000         	goto	i2l1090
  1041  00012C                     i2u5630:
  1042                           	line	1092
  1043                           ;main.c: 1092: new_note = 0x51;
  1044  00012C  0101               	movlb	1	; () banked
  1045  00012E  6F1C               	movwf	(??_getNote+3+0)&0ffh
  1046  000130  0E51               	movlw	low(051h)
  1047  000132  0101               	movlb	1	; () banked
  1048  000134  0101               	movlb	1	; () banked
  1049  000136  6F19               	movwf	((getNote@new_note))&0ffh
  1050  000138  0101               	movlb	1	; () banked
  1051  00013A  511C               	movf	(??_getNote+3+0)&0ffh,w
  1052                           	line	1093
  1053                           ;main.c: 1093: led_array[1] = 1;
  1054  00013C  0E01               	movlw	low(01h)
  1055  00013E  6E02               	movwf	(0+((c:0)+02h)),c
  1056  000140  0E00               	movlw	high(01h)
  1057  000142  6E03               	movwf	(1+((c:0)+02h)),c
  1058                           	line	1094
  1059                           ;main.c: 1094: led_array[11] = 1;
  1060  000144  0E01               	movlw	low(01h)
  1061  000146  6E16               	movwf	(0+((c:0)+016h)),c
  1062  000148  0E00               	movlw	high(01h)
  1063  00014A  6E17               	movwf	(1+((c:0)+016h)),c
  1064                           	line	1095
  1065                           ;main.c: 1095: } else if (lResult >= 195 && lRes
                                 ult <= 216) {
  1066  00014C  EF00  F001         	goto	i2l1091
  1067                           	
  1068  000150                     i2l1090:		; BSR set to: ?
  1069                           
  1070  000150  0EC2               	movlw	(0C3h-1)
  1071  000152  0101               	movlb	1	; () banked
  1072  000154  0101               	movlb	1	; () banked
  1073  000156  6518               	cpfsgt	((getNote@lResult))&0ffh
  1074  000158  EFB0  F000         	goto	i2u5641
  1075  00015C  EFB2  F000         	goto	i2u5640
  1076  000160                     i2u5641:
  1077  000160  EFD2  F000         	goto	i2l1092
  1078  000164                     i2u5640:
  1079  000164  0ED9               	movlw	(0D9h)&0ffh
  1080  000166  0101               	movlb	1	; () banked
  1081  000168  0101               	movlb	1	; () banked
  1082  00016A  6118               	cpfslt	((getNote@lResult))&0ffh
  1083  00016C  EFBA  F000         	goto	i2u5651
  1084  000170  EFBC  F000         	goto	i2u5650
  1085  000174                     i2u5651:
  1086  000174  EFD2  F000         	goto	i2l1092
  1087  000178                     i2u5650:
  1088                           	line	1097
  1089                           ;main.c: 1097: new_note = 0x41;
  1090  000178  0101               	movlb	1	; () banked
  1091  00017A  6F1C               	movwf	(??_getNote+3+0)&0ffh
  1092  00017C  0E41               	movlw	low(041h)
  1093  00017E  0101               	movlb	1	; () banked
  1094  000180  0101               	movlb	1	; () banked
  1095  000182  6F19               	movwf	((getNote@new_note))&0ffh
  1096  000184  0101               	movlb	1	; () banked
  1097  000186  511C               	movf	(??_getNote+3+0)&0ffh,w
  1098                           	line	1098
  1099                           ;main.c: 1098: led_array[1] = 1;
  1100  000188  0E01               	movlw	low(01h)
  1101  00018A  6E02               	movwf	(0+((c:0)+02h)),c
  1102  00018C  0E00               	movlw	high(01h)
  1103  00018E  6E03               	movwf	(1+((c:0)+02h)),c
  1104                           	line	1099
  1105                           ;main.c: 1099: led_array[11] = 1;
  1106  000190  0E01               	movlw	low(01h)
  1107  000192  6E16               	movwf	(0+((c:0)+016h)),c
  1108  000194  0E00               	movlw	high(01h)
  1109  000196  6E17               	movwf	(1+((c:0)+016h)),c
  1110                           	line	1100
  1111                           ;main.c: 1100: led_array[12] = 1;
  1112  000198  0E01               	movlw	low(01h)
  1113  00019A  6E18               	movwf	(0+((c:0)+018h)),c
  1114  00019C  0E00               	movlw	high(01h)
  1115  00019E  6E19               	movwf	(1+((c:0)+018h)),c
  1116                           	line	1101
  1117                           ;main.c: 1101: } else if (lResult >= 128 && lRes
                                 ult <= 154) {
  1118  0001A0  EF00  F001         	goto	i2l1091
  1119                           	
  1120  0001A4                     i2l1092:		; BSR set to: ?
  1121                           
  1122  0001A4  0E7F               	movlw	(080h-1)
  1123  0001A6  0101               	movlb	1	; () banked
  1124  0001A8  0101               	movlb	1	; () banked
  1125  0001AA  6518               	cpfsgt	((getNote@lResult))&0ffh
  1126  0001AC  EFDA  F000         	goto	i2u5661
  1127  0001B0  EFDC  F000         	goto	i2u5660
  1128  0001B4                     i2u5661:
  1129  0001B4  EFF8  F000         	goto	i2l1094
  1130  0001B8                     i2u5660:
  1131  0001B8  0E9B               	movlw	(09Bh)&0ffh
  1132  0001BA  0101               	movlb	1	; () banked
  1133  0001BC  0101               	movlb	1	; () banked
  1134  0001BE  6118               	cpfslt	((getNote@lResult))&0ffh
  1135  0001C0  EFE4  F000         	goto	i2u5671
  1136  0001C4  EFE6  F000         	goto	i2u5670
  1137  0001C8                     i2u5671:
  1138  0001C8  EFF8  F000         	goto	i2l1094
  1139  0001CC                     i2u5670:
  1140                           	line	1103
  1141                           ;main.c: 1103: new_note = 0x49;
  1142  0001CC  0101               	movlb	1	; () banked
  1143  0001CE  6F1C               	movwf	(??_getNote+3+0)&0ffh
  1144  0001D0  0E49               	movlw	low(049h)
  1145  0001D2  0101               	movlb	1	; () banked
  1146  0001D4  0101               	movlb	1	; () banked
  1147  0001D6  6F19               	movwf	((getNote@new_note))&0ffh
  1148  0001D8  0101               	movlb	1	; () banked
  1149  0001DA  511C               	movf	(??_getNote+3+0)&0ffh,w
  1150                           	line	1104
  1151                           ;main.c: 1104: led_array[1] = 1;
  1152  0001DC  0E01               	movlw	low(01h)
  1153  0001DE  6E02               	movwf	(0+((c:0)+02h)),c
  1154  0001E0  0E00               	movlw	high(01h)
  1155  0001E2  6E03               	movwf	(1+((c:0)+02h)),c
  1156                           	line	1105
  1157                           ;main.c: 1105: led_array[12] = 1;
  1158  0001E4  0E01               	movlw	low(01h)
  1159  0001E6  6E18               	movwf	(0+((c:0)+018h)),c
  1160  0001E8  0E00               	movlw	high(01h)
  1161  0001EA  6E19               	movwf	(1+((c:0)+018h)),c
  1162                           	line	1106
  1163                           ;main.c: 1106: } else {
  1164  0001EC  EF00  F001         	goto	i2l1091
  1165                           	
  1166  0001F0                     i2l1094:		; BSR set to: ?
  1167                           
  1168                           	line	1108
  1169                           ;main.c: 1108: new_note = 0x00;
  1170  0001F0  0101               	movlb	1	; () banked
  1171  0001F2  6F1C               	movwf	(??_getNote+3+0)&0ffh
  1172  0001F4  0E00               	movlw	low(0)
  1173  0001F6  0101               	movlb	1	; () banked
  1174  0001F8  0101               	movlb	1	; () banked
  1175  0001FA  6F19               	movwf	((getNote@new_note))&0ffh
  1176  0001FC  0101               	movlb	1	; () banked
  1177  0001FE  511C               	movf	(??_getNote+3+0)&0ffh,w
  1178                           	line	1109
  1179                           	
  1180  000200                     i2l1095:		; BSR set to: ?
  1181                           
  1182                           	
  1183  000200                     i2l1093:		; BSR set to: ?
  1184                           
  1185                           	
  1186  000200                     i2l1091:		; BSR set to: ?
  1187                           
  1188                           	line	1111
  1189                           ;main.c: 1109: }
  1190                           ;main.c: 1111: } else if (hResult == 0x02) {
  1191  000200  EF16  F002         	goto	i2l1088
  1192                           	
  1193  000204                     i2l1089:		; BSR set to: ?
  1194                           
  1195  000204  0101               	movlb	1	; () banked
  1196  000206  0101               	movlb	1	; () banked
  1197  000208  5117               	movf	((getNote@hResult))&0ffh,w
  1198  00020A  0A02               	xorlw	2
  1199                           
  1200  00020C  A4D8               	btfss	status,2
  1201  00020E  EF0B  F001         	goto	i2u5681
  1202  000212  EF0D  F001         	goto	i2u5680
  1203  000216                     i2u5681:
  1204  000216  EF8D  F001         	goto	i2l1097
  1205  00021A                     i2u5680:
  1206                           	line	1112
  1207                           ;main.c: 1112: if (lResult >= 222 && lResult <= 
                                 252) {
  1208  00021A  0EDD               	movlw	(0DEh-1)
  1209  00021C  0101               	movlb	1	; () banked
  1210  00021E  0101               	movlb	1	; () banked
  1211  000220  6518               	cpfsgt	((getNote@lResult))&0ffh
  1212  000222  EF15  F001         	goto	i2u5691
  1213  000226  EF17  F001         	goto	i2u5690
  1214  00022A                     i2u5691:
  1215  00022A  EF33  F001         	goto	i2l1098
  1216  00022E                     i2u5690:
  1217  00022E  0EFD               	movlw	(0FDh)&0ffh
  1218  000230  0101               	movlb	1	; () banked
  1219  000232  0101               	movlb	1	; () banked
  1220  000234  6118               	cpfslt	((getNote@lResult))&0ffh
  1221  000236  EF1F  F001         	goto	i2u5701
  1222  00023A  EF21  F001         	goto	i2u5700
  1223  00023E                     i2u5701:
  1224  00023E  EF33  F001         	goto	i2l1098
  1225  000242                     i2u5700:
  1226                           	line	1114
  1227                           ;main.c: 1114: new_note = 0x31;
  1228  000242  0101               	movlb	1	; () banked
  1229  000244  6F1C               	movwf	(??_getNote+3+0)&0ffh
  1230  000246  0E31               	movlw	low(031h)
  1231  000248  0101               	movlb	1	; () banked
  1232  00024A  0101               	movlb	1	; () banked
  1233  00024C  6F19               	movwf	((getNote@new_note))&0ffh
  1234  00024E  0101               	movlb	1	; () banked
  1235  000250  511C               	movf	(??_getNote+3+0)&0ffh,w
  1236                           	line	1115
  1237                           ;main.c: 1115: led_array[1] = 1;
  1238  000252  0E01               	movlw	low(01h)
  1239  000254  6E02               	movwf	(0+((c:0)+02h)),c
  1240  000256  0E00               	movlw	high(01h)
  1241  000258  6E03               	movwf	(1+((c:0)+02h)),c
  1242                           	line	1116
  1243                           ;main.c: 1116: led_array[9] = 1;
  1244  00025A  0E01               	movlw	low(01h)
  1245  00025C  6E12               	movwf	(0+((c:0)+012h)),c
  1246  00025E  0E00               	movlw	high(01h)
  1247  000260  6E13               	movwf	(1+((c:0)+012h)),c
  1248                           	line	1117
  1249                           ;main.c: 1117: } else if (lResult >= 105 && lRes
                                 ult <= 175) {
  1250  000262  EF8B  F001         	goto	i2l1099
  1251                           	
  1252  000266                     i2l1098:		; BSR set to: ?
  1253                           
  1254  000266  0E68               	movlw	(069h-1)
  1255  000268  0101               	movlb	1	; () banked
  1256  00026A  0101               	movlb	1	; () banked
  1257  00026C  6518               	cpfsgt	((getNote@lResult))&0ffh
  1258  00026E  EF3B  F001         	goto	i2u5711
  1259  000272  EF3D  F001         	goto	i2u5710
  1260  000276                     i2u5711:
  1261  000276  EF5D  F001         	goto	i2l1100
  1262  00027A                     i2u5710:
  1263  00027A  0EB0               	movlw	(0B0h)&0ffh
  1264  00027C  0101               	movlb	1	; () banked
  1265  00027E  0101               	movlb	1	; () banked
  1266  000280  6118               	cpfslt	((getNote@lResult))&0ffh
  1267  000282  EF45  F001         	goto	i2u5721
  1268  000286  EF47  F001         	goto	i2u5720
  1269  00028A                     i2u5721:
  1270  00028A  EF5D  F001         	goto	i2l1100
  1271  00028E                     i2u5720:
  1272                           	line	1119
  1273                           ;main.c: 1119: new_note = 0x21;
  1274  00028E  0101               	movlb	1	; () banked
  1275  000290  6F1C               	movwf	(??_getNote+3+0)&0ffh
  1276  000292  0E21               	movlw	low(021h)
  1277  000294  0101               	movlb	1	; () banked
  1278  000296  0101               	movlb	1	; () banked
  1279  000298  6F19               	movwf	((getNote@new_note))&0ffh
  1280  00029A  0101               	movlb	1	; () banked
  1281  00029C  511C               	movf	(??_getNote+3+0)&0ffh,w
  1282                           	line	1120
  1283                           ;main.c: 1120: led_array[1] = 1;
  1284  00029E  0E01               	movlw	low(01h)
  1285  0002A0  6E02               	movwf	(0+((c:0)+02h)),c
  1286  0002A2  0E00               	movlw	high(01h)
  1287  0002A4  6E03               	movwf	(1+((c:0)+02h)),c
  1288                           	line	1121
  1289                           ;main.c: 1121: led_array[9] = 1;
  1290  0002A6  0E01               	movlw	low(01h)
  1291  0002A8  6E12               	movwf	(0+((c:0)+012h)),c
  1292  0002AA  0E00               	movlw	high(01h)
  1293  0002AC  6E13               	movwf	(1+((c:0)+012h)),c
  1294                           	line	1122
  1295                           ;main.c: 1122: led_array[10] = 1;
  1296  0002AE  0E01               	movlw	low(01h)
  1297  0002B0  6E14               	movwf	(0+((c:0)+014h)),c
  1298  0002B2  0E00               	movlw	high(01h)
  1299  0002B4  6E15               	movwf	(1+((c:0)+014h)),c
  1300                           	line	1123
  1301                           ;main.c: 1123: } else if (lResult >= 105 && lRes
                                 ult <= 148) {
  1302  0002B6  EF8B  F001         	goto	i2l1099
  1303                           	
  1304  0002BA                     i2l1100:		; BSR set to: ?
  1305                           
  1306  0002BA  0E68               	movlw	(069h-1)
  1307  0002BC  0101               	movlb	1	; () banked
  1308  0002BE  0101               	movlb	1	; () banked
  1309  0002C0  6518               	cpfsgt	((getNote@lResult))&0ffh
  1310  0002C2  EF65  F001         	goto	i2u5731
  1311  0002C6  EF67  F001         	goto	i2u5730
  1312  0002CA                     i2u5731:
  1313  0002CA  EF83  F001         	goto	i2l1102
  1314  0002CE                     i2u5730:
  1315  0002CE  0E95               	movlw	(095h)&0ffh
  1316  0002D0  0101               	movlb	1	; () banked
  1317  0002D2  0101               	movlb	1	; () banked
  1318  0002D4  6118               	cpfslt	((getNote@lResult))&0ffh
  1319  0002D6  EF6F  F001         	goto	i2u5741
  1320  0002DA  EF71  F001         	goto	i2u5740
  1321  0002DE                     i2u5741:
  1322  0002DE  EF83  F001         	goto	i2l1102
  1323  0002E2                     i2u5740:
  1324                           	line	1125
  1325                           ;main.c: 1125: new_note = 0x29;
  1326  0002E2  0101               	movlb	1	; () banked
  1327  0002E4  6F1C               	movwf	(??_getNote+3+0)&0ffh
  1328  0002E6  0E29               	movlw	low(029h)
  1329  0002E8  0101               	movlb	1	; () banked
  1330  0002EA  0101               	movlb	1	; () banked
  1331  0002EC  6F19               	movwf	((getNote@new_note))&0ffh
  1332  0002EE  0101               	movlb	1	; () banked
  1333  0002F0  511C               	movf	(??_getNote+3+0)&0ffh,w
  1334                           	line	1126
  1335                           ;main.c: 1126: led_array[1] = 1;
  1336  0002F2  0E01               	movlw	low(01h)
  1337  0002F4  6E02               	movwf	(0+((c:0)+02h)),c
  1338  0002F6  0E00               	movlw	high(01h)
  1339  0002F8  6E03               	movwf	(1+((c:0)+02h)),c
  1340                           	line	1127
  1341                           ;main.c: 1127: led_array[10] = 1;
  1342  0002FA  0E01               	movlw	low(01h)
  1343  0002FC  6E14               	movwf	(0+((c:0)+014h)),c
  1344  0002FE  0E00               	movlw	high(01h)
  1345  000300  6E15               	movwf	(1+((c:0)+014h)),c
  1346                           	line	1128
  1347                           ;main.c: 1128: } else {
  1348  000302  EF8B  F001         	goto	i2l1099
  1349                           	
  1350  000306                     i2l1102:		; BSR set to: ?
  1351                           
  1352                           	line	1130
  1353                           ;main.c: 1130: new_note = 0x00;
  1354  000306  0101               	movlb	1	; () banked
  1355  000308  6F1C               	movwf	(??_getNote+3+0)&0ffh
  1356  00030A  0E00               	movlw	low(0)
  1357  00030C  0101               	movlb	1	; () banked
  1358  00030E  0101               	movlb	1	; () banked
  1359  000310  6F19               	movwf	((getNote@new_note))&0ffh
  1360  000312  0101               	movlb	1	; () banked
  1361  000314  511C               	movf	(??_getNote+3+0)&0ffh,w
  1362                           	line	1131
  1363                           	
  1364  000316                     i2l1103:		; BSR set to: ?
  1365                           
  1366                           	
  1367  000316                     i2l1101:		; BSR set to: ?
  1368                           
  1369                           	
  1370  000316                     i2l1099:		; BSR set to: ?
  1371                           
  1372                           	line	1133
  1373                           ;main.c: 1131: }
  1374                           ;main.c: 1133: } else if (hResult == 0x03) {
  1375  000316  EF16  F002         	goto	i2l1088
  1376                           	
  1377  00031A                     i2l1097:		; BSR set to: ?
  1378                           
  1379  00031A  0101               	movlb	1	; () banked
  1380  00031C  0101               	movlb	1	; () banked
  1381  00031E  5117               	movf	((getNote@hResult))&0ffh,w
  1382  000320  0A03               	xorlw	3
  1383                           
  1384  000322  A4D8               	btfss	status,2
  1385  000324  EF96  F001         	goto	i2u5751
  1386  000328  EF98  F001         	goto	i2u5750
  1387  00032C                     i2u5751:
  1388  00032C  EF16  F002         	goto	i2l1088
  1389  000330                     i2u5750:
  1390                           	line	1134
  1391                           ;main.c: 1134: if (lResult >= 15 && lResult <= 1
                                 08) {
  1392  000330  0E0E               	movlw	(0Fh-1)
  1393  000332  0101               	movlb	1	; () banked
  1394  000334  0101               	movlb	1	; () banked
  1395  000336  6518               	cpfsgt	((getNote@lResult))&0ffh
  1396  000338  EFA0  F001         	goto	i2u5761
  1397  00033C  EFA2  F001         	goto	i2u5760
  1398  000340                     i2u5761:
  1399  000340  EFBE  F001         	goto	i2l1106
  1400  000344                     i2u5760:
  1401  000344  0E6D               	movlw	(06Dh)&0ffh
  1402  000346  0101               	movlb	1	; () banked
  1403  000348  0101               	movlb	1	; () banked
  1404  00034A  6118               	cpfslt	((getNote@lResult))&0ffh
  1405  00034C  EFAA  F001         	goto	i2u5771
  1406  000350  EFAC  F001         	goto	i2u5770
  1407  000354                     i2u5771:
  1408  000354  EFBE  F001         	goto	i2l1106
  1409  000358                     i2u5770:
  1410                           	line	1136
  1411                           ;main.c: 1136: new_note = 0x11;
  1412  000358  0101               	movlb	1	; () banked
  1413  00035A  6F1C               	movwf	(??_getNote+3+0)&0ffh
  1414  00035C  0E11               	movlw	low(011h)
  1415  00035E  0101               	movlb	1	; () banked
  1416  000360  0101               	movlb	1	; () banked
  1417  000362  6F19               	movwf	((getNote@new_note))&0ffh
  1418  000364  0101               	movlb	1	; () banked
  1419  000366  511C               	movf	(??_getNote+3+0)&0ffh,w
  1420                           	line	1137
  1421                           ;main.c: 1137: led_array[1] = 1;
  1422  000368  0E01               	movlw	low(01h)
  1423  00036A  6E02               	movwf	(0+((c:0)+02h)),c
  1424  00036C  0E00               	movlw	high(01h)
  1425  00036E  6E03               	movwf	(1+((c:0)+02h)),c
  1426                           	line	1138
  1427                           ;main.c: 1138: led_array[7] = 1;
  1428  000370  0E01               	movlw	low(01h)
  1429  000372  6E0E               	movwf	(0+((c:0)+0Eh)),c
  1430  000374  0E00               	movlw	high(01h)
  1431  000376  6E0F               	movwf	(1+((c:0)+0Eh)),c
  1432                           	line	1139
  1433                           ;main.c: 1139: } else if (lResult >= 116 && lRes
                                 ult <= 183) {
  1434  000378  EF16  F002         	goto	i2l1088
  1435                           	
  1436  00037C                     i2l1106:		; BSR set to: ?
  1437                           
  1438  00037C  0E73               	movlw	(074h-1)
  1439  00037E  0101               	movlb	1	; () banked
  1440  000380  0101               	movlb	1	; () banked
  1441  000382  6518               	cpfsgt	((getNote@lResult))&0ffh
  1442  000384  EFC6  F001         	goto	i2u5781
  1443  000388  EFC8  F001         	goto	i2u5780
  1444  00038C                     i2u5781:
  1445  00038C  EFE8  F001         	goto	i2l1108
  1446  000390                     i2u5780:
  1447  000390  0EB8               	movlw	(0B8h)&0ffh
  1448  000392  0101               	movlb	1	; () banked
  1449  000394  0101               	movlb	1	; () banked
  1450  000396  6118               	cpfslt	((getNote@lResult))&0ffh
  1451  000398  EFD0  F001         	goto	i2u5791
  1452  00039C  EFD2  F001         	goto	i2u5790
  1453  0003A0                     i2u5791:
  1454  0003A0  EFE8  F001         	goto	i2l1108
  1455  0003A4                     i2u5790:
  1456                           	line	1141
  1457                           ;main.c: 1141: new_note = 0x01;
  1458  0003A4  0101               	movlb	1	; () banked
  1459  0003A6  6F1C               	movwf	(??_getNote+3+0)&0ffh
  1460  0003A8  0E01               	movlw	low(01h)
  1461  0003AA  0101               	movlb	1	; () banked
  1462  0003AC  0101               	movlb	1	; () banked
  1463  0003AE  6F19               	movwf	((getNote@new_note))&0ffh
  1464  0003B0  0101               	movlb	1	; () banked
  1465  0003B2  511C               	movf	(??_getNote+3+0)&0ffh,w
  1466                           	line	1142
  1467                           ;main.c: 1142: led_array[1] = 1;
  1468  0003B4  0E01               	movlw	low(01h)
  1469  0003B6  6E02               	movwf	(0+((c:0)+02h)),c
  1470  0003B8  0E00               	movlw	high(01h)
  1471  0003BA  6E03               	movwf	(1+((c:0)+02h)),c
  1472                           	line	1143
  1473                           ;main.c: 1143: led_array[7] = 1;
  1474  0003BC  0E01               	movlw	low(01h)
  1475  0003BE  6E0E               	movwf	(0+((c:0)+0Eh)),c
  1476  0003C0  0E00               	movlw	high(01h)
  1477  0003C2  6E0F               	movwf	(1+((c:0)+0Eh)),c
  1478                           	line	1144
  1479                           ;main.c: 1144: led_array[8] = 1;
  1480  0003C4  0E01               	movlw	low(01h)
  1481  0003C6  6E10               	movwf	(0+((c:0)+010h)),c
  1482  0003C8  0E00               	movlw	high(01h)
  1483  0003CA  6E11               	movwf	(1+((c:0)+010h)),c
  1484                           	line	1145
  1485                           ;main.c: 1145: } else if (lResult >= 192 && lRes
                                 ult <= 227) {
  1486  0003CC  EF16  F002         	goto	i2l1088
  1487                           	
  1488  0003D0                     i2l1108:		; BSR set to: ?
  1489                           
  1490  0003D0  0EBF               	movlw	(0C0h-1)
  1491  0003D2  0101               	movlb	1	; () banked
  1492  0003D4  0101               	movlb	1	; () banked
  1493  0003D6  6518               	cpfsgt	((getNote@lResult))&0ffh
  1494  0003D8  EFF0  F001         	goto	i2u5801
  1495  0003DC  EFF2  F001         	goto	i2u5800
  1496  0003E0                     i2u5801:
  1497  0003E0  EF0E  F002         	goto	i2l1110
  1498  0003E4                     i2u5800:
  1499  0003E4  0EE4               	movlw	(0E4h)&0ffh
  1500  0003E6  0101               	movlb	1	; () banked
  1501  0003E8  0101               	movlb	1	; () banked
  1502  0003EA  6118               	cpfslt	((getNote@lResult))&0ffh
  1503  0003EC  EFFA  F001         	goto	i2u5811
  1504  0003F0  EFFC  F001         	goto	i2u5810
  1505  0003F4                     i2u5811:
  1506  0003F4  EF0E  F002         	goto	i2l1110
  1507  0003F8                     i2u5810:
  1508                           	line	1147
  1509                           ;main.c: 1147: new_note = 0x09;
  1510  0003F8  0101               	movlb	1	; () banked
  1511  0003FA  6F1C               	movwf	(??_getNote+3+0)&0ffh
  1512  0003FC  0E09               	movlw	low(09h)
  1513  0003FE  0101               	movlb	1	; () banked
  1514  000400  0101               	movlb	1	; () banked
  1515  000402  6F19               	movwf	((getNote@new_note))&0ffh
  1516  000404  0101               	movlb	1	; () banked
  1517  000406  511C               	movf	(??_getNote+3+0)&0ffh,w
  1518                           	line	1148
  1519                           ;main.c: 1148: led_array[1] = 1;
  1520  000408  0E01               	movlw	low(01h)
  1521  00040A  6E02               	movwf	(0+((c:0)+02h)),c
  1522  00040C  0E00               	movlw	high(01h)
  1523  00040E  6E03               	movwf	(1+((c:0)+02h)),c
  1524                           	line	1149
  1525                           ;main.c: 1149: led_array[8] = 1;
  1526  000410  0E01               	movlw	low(01h)
  1527  000412  6E10               	movwf	(0+((c:0)+010h)),c
  1528  000414  0E00               	movlw	high(01h)
  1529  000416  6E11               	movwf	(1+((c:0)+010h)),c
  1530                           	line	1150
  1531                           ;main.c: 1150: } else {
  1532  000418  EF16  F002         	goto	i2l1088
  1533                           	
  1534  00041C                     i2l1110:		; BSR set to: ?
  1535                           
  1536                           	line	1152
  1537                           ;main.c: 1152: new_note = 0x00;
  1538  00041C  0101               	movlb	1	; () banked
  1539  00041E  6F1C               	movwf	(??_getNote+3+0)&0ffh
  1540  000420  0E00               	movlw	low(0)
  1541  000422  0101               	movlb	1	; () banked
  1542  000424  0101               	movlb	1	; () banked
  1543  000426  6F19               	movwf	((getNote@new_note))&0ffh
  1544  000428  0101               	movlb	1	; () banked
  1545  00042A  511C               	movf	(??_getNote+3+0)&0ffh,w
  1546                           	line	1153
  1547                           	
  1548  00042C                     i2l1111:		; BSR set to: ?
  1549                           
  1550                           	
  1551  00042C                     i2l1109:		; BSR set to: ?
  1552                           
  1553                           	
  1554  00042C                     i2l1107:		; BSR set to: ?
  1555                           
  1556                           	line	1154
  1557                           	
  1558  00042C                     i2l1105:		; BSR set to: ?
  1559                           
  1560                           	line	1156
  1561                           	
  1562  00042C                     i2l1104:		; BSR set to: ?
  1563                           
  1564                           	
  1565  00042C                     i2l1096:		; BSR set to: ?
  1566                           
  1567                           	
  1568  00042C                     i2l1088:		; BSR set to: ?
  1569                           
  1570                           ;main.c: 1153: }
  1571                           ;main.c: 1154: }
  1572                           ;main.c: 1156: } else if (adc_num == 1) {
  1573  00042C  EF55  F00C         	goto	i2l1112
  1574                           	
  1575  000430                     i2l1086:		; BSR set to: ?
  1576                           
  1577  000430  042A               	decf	((c:42)),c,w	;volatile
  1578                           
  1579  000432  A4D8               	btfss	status,2
  1580  000434  EF1E  F002         	goto	i2u5821
  1581  000438  EF20  F002         	goto	i2u5820
  1582  00043C                     i2u5821:
  1583  00043C  EFC9  F003         	goto	i2l1113
  1584  000440                     i2u5820:
  1585                           	line	1157
  1586                           ;main.c: 1157: if (hResult == 0x00) {
  1587  000440  0101               	movlb	1	; () banked
  1588  000442  0101               	movlb	1	; () banked
  1589  000444  6717               	tstfsz	((getNote@hResult))&0ffh
  1590  000446  EF27  F002         	goto	i2u5831
  1591  00044A  EF29  F002         	goto	i2u5830
  1592  00044E                     i2u5831:
  1593  00044E  EF33  F002         	goto	i2l1114
  1594  000452                     i2u5830:
  1595                           	line	1159
  1596                           ;main.c: 1159: new_note = 0x00;
  1597  000452  0101               	movlb	1	; () banked
  1598  000454  6F1C               	movwf	(??_getNote+3+0)&0ffh
  1599  000456  0E00               	movlw	low(0)
  1600  000458  0101               	movlb	1	; () banked
  1601  00045A  0101               	movlb	1	; () banked
  1602  00045C  6F19               	movwf	((getNote@new_note))&0ffh
  1603  00045E  0101               	movlb	1	; () banked
  1604  000460  511C               	movf	(??_getNote+3+0)&0ffh,w
  1605                           	line	1160
  1606                           ;main.c: 1160: } else if (hResult == 0x01) {
  1607  000462  EFC7  F003         	goto	i2l1115
  1608                           	
  1609  000466                     i2l1114:		; BSR set to: ?
  1610                           
  1611  000466  0101               	movlb	1	; () banked
  1612  000468  0101               	movlb	1	; () banked
  1613  00046A  0517               	decf	((getNote@hResult))&0ffh,w
  1614                           
  1615  00046C  A4D8               	btfss	status,2
  1616  00046E  EF3B  F002         	goto	i2u5841
  1617  000472  EF3D  F002         	goto	i2u5840
  1618  000476                     i2u5841:
  1619  000476  EFBD  F002         	goto	i2l1116
  1620  00047A                     i2u5840:
  1621                           	line	1161
  1622                           ;main.c: 1161: if (lResult >= 187 && lResult <= 
                                 213) {
  1623  00047A  0EBA               	movlw	(0BBh-1)
  1624  00047C  0101               	movlb	1	; () banked
  1625  00047E  0101               	movlb	1	; () banked
  1626  000480  6518               	cpfsgt	((getNote@lResult))&0ffh
  1627  000482  EF45  F002         	goto	i2u5851
  1628  000486  EF47  F002         	goto	i2u5850
  1629  00048A                     i2u5851:
  1630  00048A  EF63  F002         	goto	i2l1117
  1631  00048E                     i2u5850:
  1632  00048E  0ED6               	movlw	(0D6h)&0ffh
  1633  000490  0101               	movlb	1	; () banked
  1634  000492  0101               	movlb	1	; () banked
  1635  000494  6118               	cpfslt	((getNote@lResult))&0ffh
  1636  000496  EF4F  F002         	goto	i2u5861
  1637  00049A  EF51  F002         	goto	i2u5860
  1638  00049E                     i2u5861:
  1639  00049E  EF63  F002         	goto	i2l1117
  1640  0004A2                     i2u5860:
  1641                           	line	1163
  1642                           ;main.c: 1163: new_note = 0x52;
  1643  0004A2  0101               	movlb	1	; () banked
  1644  0004A4  6F1C               	movwf	(??_getNote+3+0)&0ffh
  1645  0004A6  0E52               	movlw	low(052h)
  1646  0004A8  0101               	movlb	1	; () banked
  1647  0004AA  0101               	movlb	1	; () banked
  1648  0004AC  6F19               	movwf	((getNote@new_note))&0ffh
  1649  0004AE  0101               	movlb	1	; () banked
  1650  0004B0  511C               	movf	(??_getNote+3+0)&0ffh,w
  1651                           	line	1164
  1652                           ;main.c: 1164: led_array[0] = 1;
  1653  0004B2  0E01               	movlw	low(01h)
  1654  0004B4  6E00               	movwf	((c:0)),c
  1655  0004B6  0E00               	movlw	high(01h)
  1656  0004B8  6E01               	movwf	((c:0+1)),c
  1657                           	line	1165
  1658                           ;main.c: 1165: led_array[11] = 1;
  1659  0004BA  0E01               	movlw	low(01h)
  1660  0004BC  6E16               	movwf	(0+((c:0)+016h)),c
  1661  0004BE  0E00               	movlw	high(01h)
  1662  0004C0  6E17               	movwf	(1+((c:0)+016h)),c
  1663                           	line	1166
  1664                           ;main.c: 1166: } else if (lResult >= 161 && lRes
                                 ult <= 182) {
  1665  0004C2  EFBB  F002         	goto	i2l1118
  1666                           	
  1667  0004C6                     i2l1117:		; BSR set to: ?
  1668                           
  1669  0004C6  0EA0               	movlw	(0A1h-1)
  1670  0004C8  0101               	movlb	1	; () banked
  1671  0004CA  0101               	movlb	1	; () banked
  1672  0004CC  6518               	cpfsgt	((getNote@lResult))&0ffh
  1673  0004CE  EF6B  F002         	goto	i2u5871
  1674  0004D2  EF6D  F002         	goto	i2u5870
  1675  0004D6                     i2u5871:
  1676  0004D6  EF8D  F002         	goto	i2l1119
  1677  0004DA                     i2u5870:
  1678  0004DA  0EB7               	movlw	(0B7h)&0ffh
  1679  0004DC  0101               	movlb	1	; () banked
  1680  0004DE  0101               	movlb	1	; () banked
  1681  0004E0  6118               	cpfslt	((getNote@lResult))&0ffh
  1682  0004E2  EF75  F002         	goto	i2u5881
  1683  0004E6  EF77  F002         	goto	i2u5880
  1684  0004EA                     i2u5881:
  1685  0004EA  EF8D  F002         	goto	i2l1119
  1686  0004EE                     i2u5880:
  1687                           	line	1168
  1688                           ;main.c: 1168: new_note = 0x42;
  1689  0004EE  0101               	movlb	1	; () banked
  1690  0004F0  6F1C               	movwf	(??_getNote+3+0)&0ffh
  1691  0004F2  0E42               	movlw	low(042h)
  1692  0004F4  0101               	movlb	1	; () banked
  1693  0004F6  0101               	movlb	1	; () banked
  1694  0004F8  6F19               	movwf	((getNote@new_note))&0ffh
  1695  0004FA  0101               	movlb	1	; () banked
  1696  0004FC  511C               	movf	(??_getNote+3+0)&0ffh,w
  1697                           	line	1169
  1698                           ;main.c: 1169: led_array[0] = 1;
  1699  0004FE  0E01               	movlw	low(01h)
  1700  000500  6E00               	movwf	((c:0)),c
  1701  000502  0E00               	movlw	high(01h)
  1702  000504  6E01               	movwf	((c:0+1)),c
  1703                           	line	1170
  1704                           ;main.c: 1170: led_array[11] = 1;
  1705  000506  0E01               	movlw	low(01h)
  1706  000508  6E16               	movwf	(0+((c:0)+016h)),c
  1707  00050A  0E00               	movlw	high(01h)
  1708  00050C  6E17               	movwf	(1+((c:0)+016h)),c
  1709                           	line	1171
  1710                           ;main.c: 1171: led_array[12] = 1;
  1711  00050E  0E01               	movlw	low(01h)
  1712  000510  6E18               	movwf	(0+((c:0)+018h)),c
  1713  000512  0E00               	movlw	high(01h)
  1714  000514  6E19               	movwf	(1+((c:0)+018h)),c
  1715                           	line	1172
  1716                           ;main.c: 1172: } else if (lResult >= 120 && lRes
                                 ult <= 150) {
  1717  000516  EFBB  F002         	goto	i2l1118
  1718                           	
  1719  00051A                     i2l1119:		; BSR set to: ?
  1720                           
  1721  00051A  0E77               	movlw	(078h-1)
  1722  00051C  0101               	movlb	1	; () banked
  1723  00051E  0101               	movlb	1	; () banked
  1724  000520  6518               	cpfsgt	((getNote@lResult))&0ffh
  1725  000522  EF95  F002         	goto	i2u5891
  1726  000526  EF97  F002         	goto	i2u5890
  1727  00052A                     i2u5891:
  1728  00052A  EFB3  F002         	goto	i2l1121
  1729  00052E                     i2u5890:
  1730  00052E  0E97               	movlw	(097h)&0ffh
  1731  000530  0101               	movlb	1	; () banked
  1732  000532  0101               	movlb	1	; () banked
  1733  000534  6118               	cpfslt	((getNote@lResult))&0ffh
  1734  000536  EF9F  F002         	goto	i2u5901
  1735  00053A  EFA1  F002         	goto	i2u5900
  1736  00053E                     i2u5901:
  1737  00053E  EFB3  F002         	goto	i2l1121
  1738  000542                     i2u5900:
  1739                           	line	1174
  1740                           ;main.c: 1174: new_note = 0x4a;
  1741  000542  0101               	movlb	1	; () banked
  1742  000544  6F1C               	movwf	(??_getNote+3+0)&0ffh
  1743  000546  0E4A               	movlw	low(04Ah)
  1744  000548  0101               	movlb	1	; () banked
  1745  00054A  0101               	movlb	1	; () banked
  1746  00054C  6F19               	movwf	((getNote@new_note))&0ffh
  1747  00054E  0101               	movlb	1	; () banked
  1748  000550  511C               	movf	(??_getNote+3+0)&0ffh,w
  1749                           	line	1175
  1750                           ;main.c: 1175: led_array[0] = 1;
  1751  000552  0E01               	movlw	low(01h)
  1752  000554  6E00               	movwf	((c:0)),c
  1753  000556  0E00               	movlw	high(01h)
  1754  000558  6E01               	movwf	((c:0+1)),c
  1755                           	line	1176
  1756                           ;main.c: 1176: led_array[12] = 1;
  1757  00055A  0E01               	movlw	low(01h)
  1758  00055C  6E18               	movwf	(0+((c:0)+018h)),c
  1759  00055E  0E00               	movlw	high(01h)
  1760  000560  6E19               	movwf	(1+((c:0)+018h)),c
  1761                           	line	1177
  1762                           ;main.c: 1177: } else {
  1763  000562  EFBB  F002         	goto	i2l1118
  1764                           	
  1765  000566                     i2l1121:		; BSR set to: ?
  1766                           
  1767                           	line	1179
  1768                           ;main.c: 1179: new_note = 0x00;
  1769  000566  0101               	movlb	1	; () banked
  1770  000568  6F1C               	movwf	(??_getNote+3+0)&0ffh
  1771  00056A  0E00               	movlw	low(0)
  1772  00056C  0101               	movlb	1	; () banked
  1773  00056E  0101               	movlb	1	; () banked
  1774  000570  6F19               	movwf	((getNote@new_note))&0ffh
  1775  000572  0101               	movlb	1	; () banked
  1776  000574  511C               	movf	(??_getNote+3+0)&0ffh,w
  1777                           	line	1180
  1778                           	
  1779  000576                     i2l1122:		; BSR set to: ?
  1780                           
  1781                           	
  1782  000576                     i2l1120:		; BSR set to: ?
  1783                           
  1784                           	
  1785  000576                     i2l1118:		; BSR set to: ?
  1786                           
  1787                           	line	1182
  1788                           ;main.c: 1180: }
  1789                           ;main.c: 1182: } else if (hResult == 0x02) {
  1790  000576  EFC7  F003         	goto	i2l1115
  1791                           	
  1792  00057A                     i2l1116:		; BSR set to: ?
  1793                           
  1794  00057A  0101               	movlb	1	; () banked
  1795  00057C  0101               	movlb	1	; () banked
  1796  00057E  5117               	movf	((getNote@hResult))&0ffh,w
  1797  000580  0A02               	xorlw	2
  1798                           
  1799  000582  A4D8               	btfss	status,2
  1800  000584  EFC6  F002         	goto	i2u5911
  1801  000588  EFC8  F002         	goto	i2u5910
  1802  00058C                     i2u5911:
  1803  00058C  EF48  F003         	goto	i2l1124
  1804  000590                     i2u5910:
  1805                           	line	1183
  1806                           ;main.c: 1183: if (lResult >= 206 && lResult <= 
                                 232) {
  1807  000590  0ECD               	movlw	(0CEh-1)
  1808  000592  0101               	movlb	1	; () banked
  1809  000594  0101               	movlb	1	; () banked
  1810  000596  6518               	cpfsgt	((getNote@lResult))&0ffh
  1811  000598  EFD0  F002         	goto	i2u5921
  1812  00059C  EFD2  F002         	goto	i2u5920
  1813  0005A0                     i2u5921:
  1814  0005A0  EFEE  F002         	goto	i2l1125
  1815  0005A4                     i2u5920:
  1816  0005A4  0EE9               	movlw	(0E9h)&0ffh
  1817  0005A6  0101               	movlb	1	; () banked
  1818  0005A8  0101               	movlb	1	; () banked
  1819  0005AA  6118               	cpfslt	((getNote@lResult))&0ffh
  1820  0005AC  EFDA  F002         	goto	i2u5931
  1821  0005B0  EFDC  F002         	goto	i2u5930
  1822  0005B4                     i2u5931:
  1823  0005B4  EFEE  F002         	goto	i2l1125
  1824  0005B8                     i2u5930:
  1825                           	line	1185
  1826                           ;main.c: 1185: new_note = 0x32;
  1827  0005B8  0101               	movlb	1	; () banked
  1828  0005BA  6F1C               	movwf	(??_getNote+3+0)&0ffh
  1829  0005BC  0E32               	movlw	low(032h)
  1830  0005BE  0101               	movlb	1	; () banked
  1831  0005C0  0101               	movlb	1	; () banked
  1832  0005C2  6F19               	movwf	((getNote@new_note))&0ffh
  1833  0005C4  0101               	movlb	1	; () banked
  1834  0005C6  511C               	movf	(??_getNote+3+0)&0ffh,w
  1835                           	line	1186
  1836                           ;main.c: 1186: led_array[0] = 1;
  1837  0005C8  0E01               	movlw	low(01h)
  1838  0005CA  6E00               	movwf	((c:0)),c
  1839  0005CC  0E00               	movlw	high(01h)
  1840  0005CE  6E01               	movwf	((c:0+1)),c
  1841                           	line	1187
  1842                           ;main.c: 1187: led_array[9] = 1;
  1843  0005D0  0E01               	movlw	low(01h)
  1844  0005D2  6E12               	movwf	(0+((c:0)+012h)),c
  1845  0005D4  0E00               	movlw	high(01h)
  1846  0005D6  6E13               	movwf	(1+((c:0)+012h)),c
  1847                           	line	1188
  1848                           ;main.c: 1188: } else if (lResult >= 165 && lRes
                                 ult <= 238) {
  1849  0005D8  EF46  F003         	goto	i2l1126
  1850                           	
  1851  0005DC                     i2l1125:		; BSR set to: ?
  1852                           
  1853  0005DC  0EA4               	movlw	(0A5h-1)
  1854  0005DE  0101               	movlb	1	; () banked
  1855  0005E0  0101               	movlb	1	; () banked
  1856  0005E2  6518               	cpfsgt	((getNote@lResult))&0ffh
  1857  0005E4  EFF6  F002         	goto	i2u5941
  1858  0005E8  EFF8  F002         	goto	i2u5940
  1859  0005EC                     i2u5941:
  1860  0005EC  EF0C  F003         	goto	i2l1127
  1861  0005F0                     i2u5940:
  1862  0005F0  0EEF               	movlw	(0EFh)&0ffh
  1863  0005F2  0101               	movlb	1	; () banked
  1864  0005F4  0101               	movlb	1	; () banked
  1865  0005F6  6118               	cpfslt	((getNote@lResult))&0ffh
  1866  0005F8  EF00  F003         	goto	i2u5951
  1867  0005FC  EF02  F003         	goto	i2u5950
  1868  000600                     i2u5951:
  1869  000600  EF0C  F003         	goto	i2l1127
  1870  000604                     i2u5950:
  1871                           	line	1190
  1872                           ;main.c: 1190: new_note = 0x22;
  1873  000604  0101               	movlb	1	; () banked
  1874  000606  6F1C               	movwf	(??_getNote+3+0)&0ffh
  1875  000608  0E22               	movlw	low(022h)
  1876  00060A  0101               	movlb	1	; () banked
  1877  00060C  0101               	movlb	1	; () banked
  1878  00060E  6F19               	movwf	((getNote@new_note))&0ffh
  1879  000610  0101               	movlb	1	; () banked
  1880  000612  511C               	movf	(??_getNote+3+0)&0ffh,w
  1881                           	line	1191
  1882                           ;main.c: 1191: } else if (lResult >= 109 && lRes
                                 ult <= 140) {
  1883  000614  EF46  F003         	goto	i2l1126
  1884                           	
  1885  000618                     i2l1127:		; BSR set to: ?
  1886                           
  1887  000618  0E6C               	movlw	(06Dh-1)
  1888  00061A  0101               	movlb	1	; () banked
  1889  00061C  0101               	movlb	1	; () banked
  1890  00061E  6518               	cpfsgt	((getNote@lResult))&0ffh
  1891  000620  EF14  F003         	goto	i2u5961
  1892  000624  EF16  F003         	goto	i2u5960
  1893  000628                     i2u5961:
  1894  000628  EF36  F003         	goto	i2l1129
  1895  00062C                     i2u5960:
  1896  00062C  0E8D               	movlw	(08Dh)&0ffh
  1897  00062E  0101               	movlb	1	; () banked
  1898  000630  0101               	movlb	1	; () banked
  1899  000632  6118               	cpfslt	((getNote@lResult))&0ffh
  1900  000634  EF1E  F003         	goto	i2u5971
  1901  000638  EF20  F003         	goto	i2u5970
  1902  00063C                     i2u5971:
  1903  00063C  EF36  F003         	goto	i2l1129
  1904  000640                     i2u5970:
  1905                           	line	1193
  1906                           ;main.c: 1193: new_note = 0x2a;
  1907  000640  0101               	movlb	1	; () banked
  1908  000642  6F1C               	movwf	(??_getNote+3+0)&0ffh
  1909  000644  0E2A               	movlw	low(02Ah)
  1910  000646  0101               	movlb	1	; () banked
  1911  000648  0101               	movlb	1	; () banked
  1912  00064A  6F19               	movwf	((getNote@new_note))&0ffh
  1913  00064C  0101               	movlb	1	; () banked
  1914  00064E  511C               	movf	(??_getNote+3+0)&0ffh,w
  1915                           	line	1194
  1916                           ;main.c: 1194: led_array[0] = 1;
  1917  000650  0E01               	movlw	low(01h)
  1918  000652  6E00               	movwf	((c:0)),c
  1919  000654  0E00               	movlw	high(01h)
  1920  000656  6E01               	movwf	((c:0+1)),c
  1921                           	line	1195
  1922                           ;main.c: 1195: led_array[9] = 1;
  1923  000658  0E01               	movlw	low(01h)
  1924  00065A  6E12               	movwf	(0+((c:0)+012h)),c
  1925  00065C  0E00               	movlw	high(01h)
  1926  00065E  6E13               	movwf	(1+((c:0)+012h)),c
  1927                           	line	1196
  1928                           ;main.c: 1196: led_array[10] = 1;
  1929  000660  0E01               	movlw	low(01h)
  1930  000662  6E14               	movwf	(0+((c:0)+014h)),c
  1931  000664  0E00               	movlw	high(01h)
  1932  000666  6E15               	movwf	(1+((c:0)+014h)),c
  1933                           	line	1197
  1934                           ;main.c: 1197: } else {
  1935  000668  EF46  F003         	goto	i2l1126
  1936                           	
  1937  00066C                     i2l1129:		; BSR set to: ?
  1938                           
  1939                           	line	1199
  1940                           ;main.c: 1199: new_note = 0x00;
  1941  00066C  0101               	movlb	1	; () banked
  1942  00066E  6F1C               	movwf	(??_getNote+3+0)&0ffh
  1943  000670  0E00               	movlw	low(0)
  1944  000672  0101               	movlb	1	; () banked
  1945  000674  0101               	movlb	1	; () banked
  1946  000676  6F19               	movwf	((getNote@new_note))&0ffh
  1947  000678  0101               	movlb	1	; () banked
  1948  00067A  511C               	movf	(??_getNote+3+0)&0ffh,w
  1949                           	line	1200
  1950                           ;main.c: 1200: led_array[0] = 1;
  1951  00067C  0E01               	movlw	low(01h)
  1952  00067E  6E00               	movwf	((c:0)),c
  1953  000680  0E00               	movlw	high(01h)
  1954  000682  6E01               	movwf	((c:0+1)),c
  1955                           	line	1201
  1956                           ;main.c: 1201: led_array[10] = 1;
  1957  000684  0E01               	movlw	low(01h)
  1958  000686  6E14               	movwf	(0+((c:0)+014h)),c
  1959  000688  0E00               	movlw	high(01h)
  1960  00068A  6E15               	movwf	(1+((c:0)+014h)),c
  1961                           	line	1202
  1962                           	
  1963  00068C                     i2l1130:		; BSR set to: ?
  1964                           
  1965                           	
  1966  00068C                     i2l1128:		; BSR set to: ?
  1967                           
  1968                           	
  1969  00068C                     i2l1126:		; BSR set to: ?
  1970                           
  1971                           	line	1204
  1972                           ;main.c: 1202: }
  1973                           ;main.c: 1204: } else if (hResult == 0x03) {
  1974  00068C  EFC7  F003         	goto	i2l1115
  1975                           	
  1976  000690                     i2l1124:		; BSR set to: ?
  1977                           
  1978  000690  0101               	movlb	1	; () banked
  1979  000692  0101               	movlb	1	; () banked
  1980  000694  5117               	movf	((getNote@hResult))&0ffh,w
  1981  000696  0A03               	xorlw	3
  1982                           
  1983  000698  A4D8               	btfss	status,2
  1984  00069A  EF51  F003         	goto	i2u5981
  1985  00069E  EF53  F003         	goto	i2u5980
  1986  0006A2                     i2u5981:
  1987  0006A2  EFC7  F003         	goto	i2l1115
  1988  0006A6                     i2u5980:
  1989                           	line	1205
  1990                           ;main.c: 1205: if (lResult >= 0 && lResult <= 17
                                 4) {
  1991  0006A6  0EAF               	movlw	(0AFh)&0ffh
  1992  0006A8  0101               	movlb	1	; () banked
  1993  0006AA  0101               	movlb	1	; () banked
  1994  0006AC  6118               	cpfslt	((getNote@lResult))&0ffh
  1995  0006AE  EF5B  F003         	goto	i2u5991
  1996  0006B2  EF5D  F003         	goto	i2u5990
  1997  0006B6                     i2u5991:
  1998  0006B6  EF6F  F003         	goto	i2l1133
  1999  0006BA                     i2u5990:
  2000                           	line	1207
  2001                           ;main.c: 1207: new_note = 0x12;
  2002  0006BA  0101               	movlb	1	; () banked
  2003  0006BC  6F1C               	movwf	(??_getNote+3+0)&0ffh
  2004  0006BE  0E12               	movlw	low(012h)
  2005  0006C0  0101               	movlb	1	; () banked
  2006  0006C2  0101               	movlb	1	; () banked
  2007  0006C4  6F19               	movwf	((getNote@new_note))&0ffh
  2008  0006C6  0101               	movlb	1	; () banked
  2009  0006C8  511C               	movf	(??_getNote+3+0)&0ffh,w
  2010                           	line	1208
  2011                           ;main.c: 1208: led_array[0] = 1;
  2012  0006CA  0E01               	movlw	low(01h)
  2013  0006CC  6E00               	movwf	((c:0)),c
  2014  0006CE  0E00               	movlw	high(01h)
  2015  0006D0  6E01               	movwf	((c:0+1)),c
  2016                           	line	1209
  2017                           ;main.c: 1209: led_array[7] = 1;
  2018  0006D2  0E01               	movlw	low(01h)
  2019  0006D4  6E0E               	movwf	(0+((c:0)+0Eh)),c
  2020  0006D6  0E00               	movlw	high(01h)
  2021  0006D8  6E0F               	movwf	(1+((c:0)+0Eh)),c
  2022                           	line	1210
  2023                           ;main.c: 1210: } else if (lResult >= 193 && lRes
                                 ult <= 210) {
  2024  0006DA  EFC7  F003         	goto	i2l1115
  2025                           	
  2026  0006DE                     i2l1133:		; BSR set to: ?
  2027                           
  2028  0006DE  0EC0               	movlw	(0C1h-1)
  2029  0006E0  0101               	movlb	1	; () banked
  2030  0006E2  0101               	movlb	1	; () banked
  2031  0006E4  6518               	cpfsgt	((getNote@lResult))&0ffh
  2032  0006E6  EF77  F003         	goto	i2u6001
  2033  0006EA  EF79  F003         	goto	i2u6000
  2034  0006EE                     i2u6001:
  2035  0006EE  EF99  F003         	goto	i2l1135
  2036  0006F2                     i2u6000:
  2037  0006F2  0ED3               	movlw	(0D3h)&0ffh
  2038  0006F4  0101               	movlb	1	; () banked
  2039  0006F6  0101               	movlb	1	; () banked
  2040  0006F8  6118               	cpfslt	((getNote@lResult))&0ffh
  2041  0006FA  EF81  F003         	goto	i2u6011
  2042  0006FE  EF83  F003         	goto	i2u6010
  2043  000702                     i2u6011:
  2044  000702  EF99  F003         	goto	i2l1135
  2045  000706                     i2u6010:
  2046                           	line	1212
  2047                           ;main.c: 1212: new_note = 0x02;
  2048  000706  0101               	movlb	1	; () banked
  2049  000708  6F1C               	movwf	(??_getNote+3+0)&0ffh
  2050  00070A  0E02               	movlw	low(02h)
  2051  00070C  0101               	movlb	1	; () banked
  2052  00070E  0101               	movlb	1	; () banked
  2053  000710  6F19               	movwf	((getNote@new_note))&0ffh
  2054  000712  0101               	movlb	1	; () banked
  2055  000714  511C               	movf	(??_getNote+3+0)&0ffh,w
  2056                           	line	1213
  2057                           ;main.c: 1213: led_array[0] = 1;
  2058  000716  0E01               	movlw	low(01h)
  2059  000718  6E00               	movwf	((c:0)),c
  2060  00071A  0E00               	movlw	high(01h)
  2061  00071C  6E01               	movwf	((c:0+1)),c
  2062                           	line	1214
  2063                           ;main.c: 1214: led_array[7] = 1;
  2064  00071E  0E01               	movlw	low(01h)
  2065  000720  6E0E               	movwf	(0+((c:0)+0Eh)),c
  2066  000722  0E00               	movlw	high(01h)
  2067  000724  6E0F               	movwf	(1+((c:0)+0Eh)),c
  2068                           	line	1215
  2069                           ;main.c: 1215: led_array[8] = 1;
  2070  000726  0E01               	movlw	low(01h)
  2071  000728  6E10               	movwf	(0+((c:0)+010h)),c
  2072  00072A  0E00               	movlw	high(01h)
  2073  00072C  6E11               	movwf	(1+((c:0)+010h)),c
  2074                           	line	1216
  2075                           ;main.c: 1216: } else if (lResult >= 221 && lRes
                                 ult <= 229) {
  2076  00072E  EFC7  F003         	goto	i2l1115
  2077                           	
  2078  000732                     i2l1135:		; BSR set to: ?
  2079                           
  2080  000732  0EDC               	movlw	(0DDh-1)
  2081  000734  0101               	movlb	1	; () banked
  2082  000736  0101               	movlb	1	; () banked
  2083  000738  6518               	cpfsgt	((getNote@lResult))&0ffh
  2084  00073A  EFA1  F003         	goto	i2u6021
  2085  00073E  EFA3  F003         	goto	i2u6020
  2086  000742                     i2u6021:
  2087  000742  EFBF  F003         	goto	i2l1137
  2088  000746                     i2u6020:
  2089  000746  0EE6               	movlw	(0E6h)&0ffh
  2090  000748  0101               	movlb	1	; () banked
  2091  00074A  0101               	movlb	1	; () banked
  2092  00074C  6118               	cpfslt	((getNote@lResult))&0ffh
  2093  00074E  EFAB  F003         	goto	i2u6031
  2094  000752  EFAD  F003         	goto	i2u6030
  2095  000756                     i2u6031:
  2096  000756  EFBF  F003         	goto	i2l1137
  2097  00075A                     i2u6030:
  2098                           	line	1218
  2099                           ;main.c: 1218: new_note = 0x0a;
  2100  00075A  0101               	movlb	1	; () banked
  2101  00075C  6F1C               	movwf	(??_getNote+3+0)&0ffh
  2102  00075E  0E0A               	movlw	low(0Ah)
  2103  000760  0101               	movlb	1	; () banked
  2104  000762  0101               	movlb	1	; () banked
  2105  000764  6F19               	movwf	((getNote@new_note))&0ffh
  2106  000766  0101               	movlb	1	; () banked
  2107  000768  511C               	movf	(??_getNote+3+0)&0ffh,w
  2108                           	line	1219
  2109                           ;main.c: 1219: led_array[0] = 1;
  2110  00076A  0E01               	movlw	low(01h)
  2111  00076C  6E00               	movwf	((c:0)),c
  2112  00076E  0E00               	movlw	high(01h)
  2113  000770  6E01               	movwf	((c:0+1)),c
  2114                           	line	1220
  2115                           ;main.c: 1220: led_array[8] = 1;
  2116  000772  0E01               	movlw	low(01h)
  2117  000774  6E10               	movwf	(0+((c:0)+010h)),c
  2118  000776  0E00               	movlw	high(01h)
  2119  000778  6E11               	movwf	(1+((c:0)+010h)),c
  2120                           	line	1221
  2121                           ;main.c: 1221: } else {
  2122  00077A  EFC7  F003         	goto	i2l1115
  2123                           	
  2124  00077E                     i2l1137:		; BSR set to: ?
  2125                           
  2126                           	line	1223
  2127                           ;main.c: 1223: new_note = 0x00;
  2128  00077E  0101               	movlb	1	; () banked
  2129  000780  6F1C               	movwf	(??_getNote+3+0)&0ffh
  2130  000782  0E00               	movlw	low(0)
  2131  000784  0101               	movlb	1	; () banked
  2132  000786  0101               	movlb	1	; () banked
  2133  000788  6F19               	movwf	((getNote@new_note))&0ffh
  2134  00078A  0101               	movlb	1	; () banked
  2135  00078C  511C               	movf	(??_getNote+3+0)&0ffh,w
  2136                           	line	1224
  2137                           	
  2138  00078E                     i2l1138:		; BSR set to: ?
  2139                           
  2140                           	
  2141  00078E                     i2l1136:		; BSR set to: ?
  2142                           
  2143                           	
  2144  00078E                     i2l1134:		; BSR set to: ?
  2145                           
  2146                           	line	1225
  2147                           	
  2148  00078E                     i2l1132:		; BSR set to: ?
  2149                           
  2150                           	line	1227
  2151                           	
  2152  00078E                     i2l1131:		; BSR set to: ?
  2153                           
  2154                           	
  2155  00078E                     i2l1123:		; BSR set to: ?
  2156                           
  2157                           	
  2158  00078E                     i2l1115:		; BSR set to: ?
  2159                           
  2160                           ;main.c: 1224: }
  2161                           ;main.c: 1225: }
  2162                           ;main.c: 1227: } else if (adc_num == 2) {
  2163  00078E  EF55  F00C         	goto	i2l1112
  2164                           	
  2165  000792                     i2l1113:		; BSR set to: ?
  2166                           
  2167  000792  502A               	movf	((c:42)),c,w	;volatile
  2168  000794  0A02               	xorlw	2
  2169                           
  2170  000796  A4D8               	btfss	status,2
  2171  000798  EFD0  F003         	goto	i2u6041
  2172  00079C  EFD2  F003         	goto	i2u6040
  2173  0007A0                     i2u6041:
  2174  0007A0  EF85  F005         	goto	i2l1140
  2175  0007A4                     i2u6040:
  2176                           	line	1228
  2177                           ;main.c: 1228: if (hResult == 0x00) {
  2178  0007A4  0101               	movlb	1	; () banked
  2179  0007A6  0101               	movlb	1	; () banked
  2180  0007A8  6717               	tstfsz	((getNote@hResult))&0ffh
  2181  0007AA  EFD9  F003         	goto	i2u6051
  2182  0007AE  EFDB  F003         	goto	i2u6050
  2183  0007B2                     i2u6051:
  2184  0007B2  EFE5  F003         	goto	i2l1141
  2185  0007B6                     i2u6050:
  2186                           	line	1230
  2187                           ;main.c: 1230: new_note = 0x00;
  2188  0007B6  0101               	movlb	1	; () banked
  2189  0007B8  6F1C               	movwf	(??_getNote+3+0)&0ffh
  2190  0007BA  0E00               	movlw	low(0)
  2191  0007BC  0101               	movlb	1	; () banked
  2192  0007BE  0101               	movlb	1	; () banked
  2193  0007C0  6F19               	movwf	((getNote@new_note))&0ffh
  2194  0007C2  0101               	movlb	1	; () banked
  2195  0007C4  511C               	movf	(??_getNote+3+0)&0ffh,w
  2196                           	line	1231
  2197                           ;main.c: 1231: } else if (hResult == 0x01) {
  2198  0007C6  EF83  F005         	goto	i2l1142
  2199                           	
  2200  0007CA                     i2l1141:		; BSR set to: ?
  2201                           
  2202  0007CA  0101               	movlb	1	; () banked
  2203  0007CC  0101               	movlb	1	; () banked
  2204  0007CE  0517               	decf	((getNote@hResult))&0ffh,w
  2205                           
  2206  0007D0  A4D8               	btfss	status,2
  2207  0007D2  EFED  F003         	goto	i2u6061
  2208  0007D6  EFEF  F003         	goto	i2u6060
  2209  0007DA                     i2u6061:
  2210  0007DA  EF6F  F004         	goto	i2l1143
  2211  0007DE                     i2u6060:
  2212                           	line	1232
  2213                           ;main.c: 1232: if (lResult >= 218 && lResult <= 
                                 242) {
  2214  0007DE  0ED9               	movlw	(0DAh-1)
  2215  0007E0  0101               	movlb	1	; () banked
  2216  0007E2  0101               	movlb	1	; () banked
  2217  0007E4  6518               	cpfsgt	((getNote@lResult))&0ffh
  2218  0007E6  EFF7  F003         	goto	i2u6071
  2219  0007EA  EFF9  F003         	goto	i2u6070
  2220  0007EE                     i2u6071:
  2221  0007EE  EF15  F004         	goto	i2l1144
  2222  0007F2                     i2u6070:
  2223  0007F2  0EF3               	movlw	(0F3h)&0ffh
  2224  0007F4  0101               	movlb	1	; () banked
  2225  0007F6  0101               	movlb	1	; () banked
  2226  0007F8  6118               	cpfslt	((getNote@lResult))&0ffh
  2227  0007FA  EF01  F004         	goto	i2u6081
  2228  0007FE  EF03  F004         	goto	i2u6080
  2229  000802                     i2u6081:
  2230  000802  EF15  F004         	goto	i2l1144
  2231  000806                     i2u6080:
  2232                           	line	1234
  2233                           ;main.c: 1234: new_note = 0x53;
  2234  000806  0101               	movlb	1	; () banked
  2235  000808  6F1C               	movwf	(??_getNote+3+0)&0ffh
  2236  00080A  0E53               	movlw	low(053h)
  2237  00080C  0101               	movlb	1	; () banked
  2238  00080E  0101               	movlb	1	; () banked
  2239  000810  6F19               	movwf	((getNote@new_note))&0ffh
  2240  000812  0101               	movlb	1	; () banked
  2241  000814  511C               	movf	(??_getNote+3+0)&0ffh,w
  2242                           	line	1235
  2243                           ;main.c: 1235: led_array[6] = 1;
  2244  000816  0E01               	movlw	low(01h)
  2245  000818  6E0C               	movwf	(0+((c:0)+0Ch)),c
  2246  00081A  0E00               	movlw	high(01h)
  2247  00081C  6E0D               	movwf	(1+((c:0)+0Ch)),c
  2248                           	line	1236
  2249                           ;main.c: 1236: led_array[11] = 1;
  2250  00081E  0E01               	movlw	low(01h)
  2251  000820  6E16               	movwf	(0+((c:0)+016h)),c
  2252  000822  0E00               	movlw	high(01h)
  2253  000824  6E17               	movwf	(1+((c:0)+016h)),c
  2254                           	line	1237
  2255                           ;main.c: 1237: } else if (lResult >= 167 && lRes
                                 ult <= 200) {
  2256  000826  EF6D  F004         	goto	i2l1145
  2257                           	
  2258  00082A                     i2l1144:		; BSR set to: ?
  2259                           
  2260  00082A  0EA6               	movlw	(0A7h-1)
  2261  00082C  0101               	movlb	1	; () banked
  2262  00082E  0101               	movlb	1	; () banked
  2263  000830  6518               	cpfsgt	((getNote@lResult))&0ffh
  2264  000832  EF1D  F004         	goto	i2u6091
  2265  000836  EF1F  F004         	goto	i2u6090
  2266  00083A                     i2u6091:
  2267  00083A  EF3F  F004         	goto	i2l1146
  2268  00083E                     i2u6090:
  2269  00083E  0EC9               	movlw	(0C9h)&0ffh
  2270  000840  0101               	movlb	1	; () banked
  2271  000842  0101               	movlb	1	; () banked
  2272  000844  6118               	cpfslt	((getNote@lResult))&0ffh
  2273  000846  EF27  F004         	goto	i2u6101
  2274  00084A  EF29  F004         	goto	i2u6100
  2275  00084E                     i2u6101:
  2276  00084E  EF3F  F004         	goto	i2l1146
  2277  000852                     i2u6100:
  2278                           	line	1239
  2279                           ;main.c: 1239: new_note = 0x43;
  2280  000852  0101               	movlb	1	; () banked
  2281  000854  6F1C               	movwf	(??_getNote+3+0)&0ffh
  2282  000856  0E43               	movlw	low(043h)
  2283  000858  0101               	movlb	1	; () banked
  2284  00085A  0101               	movlb	1	; () banked
  2285  00085C  6F19               	movwf	((getNote@new_note))&0ffh
  2286  00085E  0101               	movlb	1	; () banked
  2287  000860  511C               	movf	(??_getNote+3+0)&0ffh,w
  2288                           	line	1240
  2289                           ;main.c: 1240: led_array[6] = 1;
  2290  000862  0E01               	movlw	low(01h)
  2291  000864  6E0C               	movwf	(0+((c:0)+0Ch)),c
  2292  000866  0E00               	movlw	high(01h)
  2293  000868  6E0D               	movwf	(1+((c:0)+0Ch)),c
  2294                           	line	1241
  2295                           ;main.c: 1241: led_array[11] = 1;
  2296  00086A  0E01               	movlw	low(01h)
  2297  00086C  6E16               	movwf	(0+((c:0)+016h)),c
  2298  00086E  0E00               	movlw	high(01h)
  2299  000870  6E17               	movwf	(1+((c:0)+016h)),c
  2300                           	line	1242
  2301                           ;main.c: 1242: led_array[12] = 1;
  2302  000872  0E01               	movlw	low(01h)
  2303  000874  6E18               	movwf	(0+((c:0)+018h)),c
  2304  000876  0E00               	movlw	high(01h)
  2305  000878  6E19               	movwf	(1+((c:0)+018h)),c
  2306                           	line	1243
  2307                           ;main.c: 1243: } else if (lResult >= 38 && lResu
                                 lt <= 160) {
  2308  00087A  EF6D  F004         	goto	i2l1145
  2309                           	
  2310  00087E                     i2l1146:		; BSR set to: ?
  2311                           
  2312  00087E  0E25               	movlw	(026h-1)
  2313  000880  0101               	movlb	1	; () banked
  2314  000882  0101               	movlb	1	; () banked
  2315  000884  6518               	cpfsgt	((getNote@lResult))&0ffh
  2316  000886  EF47  F004         	goto	i2u6111
  2317  00088A  EF49  F004         	goto	i2u6110
  2318  00088E                     i2u6111:
  2319  00088E  EF65  F004         	goto	i2l1148
  2320  000892                     i2u6110:
  2321  000892  0EA1               	movlw	(0A1h)&0ffh
  2322  000894  0101               	movlb	1	; () banked
  2323  000896  0101               	movlb	1	; () banked
  2324  000898  6118               	cpfslt	((getNote@lResult))&0ffh
  2325  00089A  EF51  F004         	goto	i2u6121
  2326  00089E  EF53  F004         	goto	i2u6120
  2327  0008A2                     i2u6121:
  2328  0008A2  EF65  F004         	goto	i2l1148
  2329  0008A6                     i2u6120:
  2330                           	line	1245
  2331                           ;main.c: 1245: new_note = 0x4b;
  2332  0008A6  0101               	movlb	1	; () banked
  2333  0008A8  6F1C               	movwf	(??_getNote+3+0)&0ffh
  2334  0008AA  0E4B               	movlw	low(04Bh)
  2335  0008AC  0101               	movlb	1	; () banked
  2336  0008AE  0101               	movlb	1	; () banked
  2337  0008B0  6F19               	movwf	((getNote@new_note))&0ffh
  2338  0008B2  0101               	movlb	1	; () banked
  2339  0008B4  511C               	movf	(??_getNote+3+0)&0ffh,w
  2340                           	line	1246
  2341                           ;main.c: 1246: led_array[6] = 1;
  2342  0008B6  0E01               	movlw	low(01h)
  2343  0008B8  6E0C               	movwf	(0+((c:0)+0Ch)),c
  2344  0008BA  0E00               	movlw	high(01h)
  2345  0008BC  6E0D               	movwf	(1+((c:0)+0Ch)),c
  2346                           	line	1247
  2347                           ;main.c: 1247: led_array[12] = 1;
  2348  0008BE  0E01               	movlw	low(01h)
  2349  0008C0  6E18               	movwf	(0+((c:0)+018h)),c
  2350  0008C2  0E00               	movlw	high(01h)
  2351  0008C4  6E19               	movwf	(1+((c:0)+018h)),c
  2352                           	line	1248
  2353                           ;main.c: 1248: } else {
  2354  0008C6  EF6D  F004         	goto	i2l1145
  2355                           	
  2356  0008CA                     i2l1148:		; BSR set to: ?
  2357                           
  2358                           	line	1250
  2359                           ;main.c: 1250: new_note = 0x00;
  2360  0008CA  0101               	movlb	1	; () banked
  2361  0008CC  6F1C               	movwf	(??_getNote+3+0)&0ffh
  2362  0008CE  0E00               	movlw	low(0)
  2363  0008D0  0101               	movlb	1	; () banked
  2364  0008D2  0101               	movlb	1	; () banked
  2365  0008D4  6F19               	movwf	((getNote@new_note))&0ffh
  2366  0008D6  0101               	movlb	1	; () banked
  2367  0008D8  511C               	movf	(??_getNote+3+0)&0ffh,w
  2368                           	line	1251
  2369                           	
  2370  0008DA                     i2l1149:		; BSR set to: ?
  2371                           
  2372                           	
  2373  0008DA                     i2l1147:		; BSR set to: ?
  2374                           
  2375                           	
  2376  0008DA                     i2l1145:		; BSR set to: ?
  2377                           
  2378                           	line	1253
  2379                           ;main.c: 1251: }
  2380                           ;main.c: 1253: } else if (hResult == 0x02) {
  2381  0008DA  EF83  F005         	goto	i2l1142
  2382                           	
  2383  0008DE                     i2l1143:		; BSR set to: ?
  2384                           
  2385  0008DE  0101               	movlb	1	; () banked
  2386  0008E0  0101               	movlb	1	; () banked
  2387  0008E2  5117               	movf	((getNote@hResult))&0ffh,w
  2388  0008E4  0A02               	xorlw	2
  2389                           
  2390  0008E6  A4D8               	btfss	status,2
  2391  0008E8  EF78  F004         	goto	i2u6131
  2392  0008EC  EF7A  F004         	goto	i2u6130
  2393  0008F0                     i2u6131:
  2394  0008F0  EFFA  F004         	goto	i2l1151
  2395  0008F4                     i2u6130:
  2396                           	line	1254
  2397                           ;main.c: 1254: if (lResult >= 201 && lResult <= 
                                 235) {
  2398  0008F4  0EC8               	movlw	(0C9h-1)
  2399  0008F6  0101               	movlb	1	; () banked
  2400  0008F8  0101               	movlb	1	; () banked
  2401  0008FA  6518               	cpfsgt	((getNote@lResult))&0ffh
  2402  0008FC  EF82  F004         	goto	i2u6141
  2403  000900  EF84  F004         	goto	i2u6140
  2404  000904                     i2u6141:
  2405  000904  EFA0  F004         	goto	i2l1152
  2406  000908                     i2u6140:
  2407  000908  0EEC               	movlw	(0ECh)&0ffh
  2408  00090A  0101               	movlb	1	; () banked
  2409  00090C  0101               	movlb	1	; () banked
  2410  00090E  6118               	cpfslt	((getNote@lResult))&0ffh
  2411  000910  EF8C  F004         	goto	i2u6151
  2412  000914  EF8E  F004         	goto	i2u6150
  2413  000918                     i2u6151:
  2414  000918  EFA0  F004         	goto	i2l1152
  2415  00091C                     i2u6150:
  2416                           	line	1256
  2417                           ;main.c: 1256: new_note = 0x33;
  2418  00091C  0101               	movlb	1	; () banked
  2419  00091E  6F1C               	movwf	(??_getNote+3+0)&0ffh
  2420  000920  0E33               	movlw	low(033h)
  2421  000922  0101               	movlb	1	; () banked
  2422  000924  0101               	movlb	1	; () banked
  2423  000926  6F19               	movwf	((getNote@new_note))&0ffh
  2424  000928  0101               	movlb	1	; () banked
  2425  00092A  511C               	movf	(??_getNote+3+0)&0ffh,w
  2426                           	line	1257
  2427                           ;main.c: 1257: led_array[6] = 1;
  2428  00092C  0E01               	movlw	low(01h)
  2429  00092E  6E0C               	movwf	(0+((c:0)+0Ch)),c
  2430  000930  0E00               	movlw	high(01h)
  2431  000932  6E0D               	movwf	(1+((c:0)+0Ch)),c
  2432                           	line	1258
  2433                           ;main.c: 1258: led_array[9] = 1;
  2434  000934  0E01               	movlw	low(01h)
  2435  000936  6E12               	movwf	(0+((c:0)+012h)),c
  2436  000938  0E00               	movlw	high(01h)
  2437  00093A  6E13               	movwf	(1+((c:0)+012h)),c
  2438                           	line	1259
  2439                           ;main.c: 1259: } else if (lResult >= 124 && lRes
                                 ult <= 183) {
  2440  00093C  EFF8  F004         	goto	i2l1153
  2441                           	
  2442  000940                     i2l1152:		; BSR set to: ?
  2443                           
  2444  000940  0E7B               	movlw	(07Ch-1)
  2445  000942  0101               	movlb	1	; () banked
  2446  000944  0101               	movlb	1	; () banked
  2447  000946  6518               	cpfsgt	((getNote@lResult))&0ffh
  2448  000948  EFA8  F004         	goto	i2u6161
  2449  00094C  EFAA  F004         	goto	i2u6160
  2450  000950                     i2u6161:
  2451  000950  EFCA  F004         	goto	i2l1154
  2452  000954                     i2u6160:
  2453  000954  0EB8               	movlw	(0B8h)&0ffh
  2454  000956  0101               	movlb	1	; () banked
  2455  000958  0101               	movlb	1	; () banked
  2456  00095A  6118               	cpfslt	((getNote@lResult))&0ffh
  2457  00095C  EFB2  F004         	goto	i2u6171
  2458  000960  EFB4  F004         	goto	i2u6170
  2459  000964                     i2u6171:
  2460  000964  EFCA  F004         	goto	i2l1154
  2461  000968                     i2u6170:
  2462                           	line	1261
  2463                           ;main.c: 1261: new_note = 0x23;
  2464  000968  0101               	movlb	1	; () banked
  2465  00096A  6F1C               	movwf	(??_getNote+3+0)&0ffh
  2466  00096C  0E23               	movlw	low(023h)
  2467  00096E  0101               	movlb	1	; () banked
  2468  000970  0101               	movlb	1	; () banked
  2469  000972  6F19               	movwf	((getNote@new_note))&0ffh
  2470  000974  0101               	movlb	1	; () banked
  2471  000976  511C               	movf	(??_getNote+3+0)&0ffh,w
  2472                           	line	1262
  2473                           ;main.c: 1262: led_array[6] = 1;
  2474  000978  0E01               	movlw	low(01h)
  2475  00097A  6E0C               	movwf	(0+((c:0)+0Ch)),c
  2476  00097C  0E00               	movlw	high(01h)
  2477  00097E  6E0D               	movwf	(1+((c:0)+0Ch)),c
  2478                           	line	1263
  2479                           ;main.c: 1263: led_array[9] = 1;
  2480  000980  0E01               	movlw	low(01h)
  2481  000982  6E12               	movwf	(0+((c:0)+012h)),c
  2482  000984  0E00               	movlw	high(01h)
  2483  000986  6E13               	movwf	(1+((c:0)+012h)),c
  2484                           	line	1264
  2485                           ;main.c: 1264: led_array[10] = 1;
  2486  000988  0E01               	movlw	low(01h)
  2487  00098A  6E14               	movwf	(0+((c:0)+014h)),c
  2488  00098C  0E00               	movlw	high(01h)
  2489  00098E  6E15               	movwf	(1+((c:0)+014h)),c
  2490                           	line	1265
  2491                           ;main.c: 1265: } else if (lResult >= 70 && lResu
                                 lt <= 110) {
  2492  000990  EFF8  F004         	goto	i2l1153
  2493                           	
  2494  000994                     i2l1154:		; BSR set to: ?
  2495                           
  2496  000994  0E45               	movlw	(046h-1)
  2497  000996  0101               	movlb	1	; () banked
  2498  000998  0101               	movlb	1	; () banked
  2499  00099A  6518               	cpfsgt	((getNote@lResult))&0ffh
  2500  00099C  EFD2  F004         	goto	i2u6181
  2501  0009A0  EFD4  F004         	goto	i2u6180
  2502  0009A4                     i2u6181:
  2503  0009A4  EFF0  F004         	goto	i2l1156
  2504  0009A8                     i2u6180:
  2505  0009A8  0E6F               	movlw	(06Fh)&0ffh
  2506  0009AA  0101               	movlb	1	; () banked
  2507  0009AC  0101               	movlb	1	; () banked
  2508  0009AE  6118               	cpfslt	((getNote@lResult))&0ffh
  2509  0009B0  EFDC  F004         	goto	i2u6191
  2510  0009B4  EFDE  F004         	goto	i2u6190
  2511  0009B8                     i2u6191:
  2512  0009B8  EFF0  F004         	goto	i2l1156
  2513  0009BC                     i2u6190:
  2514                           	line	1267
  2515                           ;main.c: 1267: new_note = 0x2b;
  2516  0009BC  0101               	movlb	1	; () banked
  2517  0009BE  6F1C               	movwf	(??_getNote+3+0)&0ffh
  2518  0009C0  0E2B               	movlw	low(02Bh)
  2519  0009C2  0101               	movlb	1	; () banked
  2520  0009C4  0101               	movlb	1	; () banked
  2521  0009C6  6F19               	movwf	((getNote@new_note))&0ffh
  2522  0009C8  0101               	movlb	1	; () banked
  2523  0009CA  511C               	movf	(??_getNote+3+0)&0ffh,w
  2524                           	line	1268
  2525                           ;main.c: 1268: led_array[6] = 1;
  2526  0009CC  0E01               	movlw	low(01h)
  2527  0009CE  6E0C               	movwf	(0+((c:0)+0Ch)),c
  2528  0009D0  0E00               	movlw	high(01h)
  2529  0009D2  6E0D               	movwf	(1+((c:0)+0Ch)),c
  2530                           	line	1269
  2531                           ;main.c: 1269: led_array[10] = 1;
  2532  0009D4  0E01               	movlw	low(01h)
  2533  0009D6  6E14               	movwf	(0+((c:0)+014h)),c
  2534  0009D8  0E00               	movlw	high(01h)
  2535  0009DA  6E15               	movwf	(1+((c:0)+014h)),c
  2536                           	line	1270
  2537                           ;main.c: 1270: } else {
  2538  0009DC  EFF8  F004         	goto	i2l1153
  2539                           	
  2540  0009E0                     i2l1156:		; BSR set to: ?
  2541                           
  2542                           	line	1272
  2543                           ;main.c: 1272: new_note = 0x00;
  2544  0009E0  0101               	movlb	1	; () banked
  2545  0009E2  6F1C               	movwf	(??_getNote+3+0)&0ffh
  2546  0009E4  0E00               	movlw	low(0)
  2547  0009E6  0101               	movlb	1	; () banked
  2548  0009E8  0101               	movlb	1	; () banked
  2549  0009EA  6F19               	movwf	((getNote@new_note))&0ffh
  2550  0009EC  0101               	movlb	1	; () banked
  2551  0009EE  511C               	movf	(??_getNote+3+0)&0ffh,w
  2552                           	line	1273
  2553                           	
  2554  0009F0                     i2l1157:		; BSR set to: ?
  2555                           
  2556                           	
  2557  0009F0                     i2l1155:		; BSR set to: ?
  2558                           
  2559                           	
  2560  0009F0                     i2l1153:		; BSR set to: ?
  2561                           
  2562                           	line	1275
  2563                           ;main.c: 1273: }
  2564                           ;main.c: 1275: } else if (hResult == 0x03) {
  2565  0009F0  EF83  F005         	goto	i2l1142
  2566                           	
  2567  0009F4                     i2l1151:		; BSR set to: ?
  2568                           
  2569  0009F4  0101               	movlb	1	; () banked
  2570  0009F6  0101               	movlb	1	; () banked
  2571  0009F8  5117               	movf	((getNote@hResult))&0ffh,w
  2572  0009FA  0A03               	xorlw	3
  2573                           
  2574  0009FC  A4D8               	btfss	status,2
  2575  0009FE  EF03  F005         	goto	i2u6201
  2576  000A02  EF05  F005         	goto	i2u6200
  2577  000A06                     i2u6201:
  2578  000A06  EF83  F005         	goto	i2l1142
  2579  000A0A                     i2u6200:
  2580                           	line	1276
  2581                           ;main.c: 1276: if (lResult >= 60 && lResult <= 8
                                 7) {
  2582  000A0A  0E3B               	movlw	(03Ch-1)
  2583  000A0C  0101               	movlb	1	; () banked
  2584  000A0E  0101               	movlb	1	; () banked
  2585  000A10  6518               	cpfsgt	((getNote@lResult))&0ffh
  2586  000A12  EF0D  F005         	goto	i2u6211
  2587  000A16  EF0F  F005         	goto	i2u6210
  2588  000A1A                     i2u6211:
  2589  000A1A  EF2B  F005         	goto	i2l1160
  2590  000A1E                     i2u6210:
  2591  000A1E  0E58               	movlw	(058h)&0ffh
  2592  000A20  0101               	movlb	1	; () banked
  2593  000A22  0101               	movlb	1	; () banked
  2594  000A24  6118               	cpfslt	((getNote@lResult))&0ffh
  2595  000A26  EF17  F005         	goto	i2u6221
  2596  000A2A  EF19  F005         	goto	i2u6220
  2597  000A2E                     i2u6221:
  2598  000A2E  EF2B  F005         	goto	i2l1160
  2599  000A32                     i2u6220:
  2600                           	line	1278
  2601                           ;main.c: 1278: new_note = 0x13;
  2602  000A32  0101               	movlb	1	; () banked
  2603  000A34  6F1C               	movwf	(??_getNote+3+0)&0ffh
  2604  000A36  0E13               	movlw	low(013h)
  2605  000A38  0101               	movlb	1	; () banked
  2606  000A3A  0101               	movlb	1	; () banked
  2607  000A3C  6F19               	movwf	((getNote@new_note))&0ffh
  2608  000A3E  0101               	movlb	1	; () banked
  2609  000A40  511C               	movf	(??_getNote+3+0)&0ffh,w
  2610                           	line	1279
  2611                           ;main.c: 1279: led_array[6] = 1;
  2612  000A42  0E01               	movlw	low(01h)
  2613  000A44  6E0C               	movwf	(0+((c:0)+0Ch)),c
  2614  000A46  0E00               	movlw	high(01h)
  2615  000A48  6E0D               	movwf	(1+((c:0)+0Ch)),c
  2616                           	line	1280
  2617                           ;main.c: 1280: led_array[7] = 1;
  2618  000A4A  0E01               	movlw	low(01h)
  2619  000A4C  6E0E               	movwf	(0+((c:0)+0Eh)),c
  2620  000A4E  0E00               	movlw	high(01h)
  2621  000A50  6E0F               	movwf	(1+((c:0)+0Eh)),c
  2622                           	line	1281
  2623                           ;main.c: 1281: } else if (lResult >= 138 && lRes
                                 ult <= 200) {
  2624  000A52  EF83  F005         	goto	i2l1142
  2625                           	
  2626  000A56                     i2l1160:		; BSR set to: ?
  2627                           
  2628  000A56  0E89               	movlw	(08Ah-1)
  2629  000A58  0101               	movlb	1	; () banked
  2630  000A5A  0101               	movlb	1	; () banked
  2631  000A5C  6518               	cpfsgt	((getNote@lResult))&0ffh
  2632  000A5E  EF33  F005         	goto	i2u6231
  2633  000A62  EF35  F005         	goto	i2u6230
  2634  000A66                     i2u6231:
  2635  000A66  EF55  F005         	goto	i2l1162
  2636  000A6A                     i2u6230:
  2637  000A6A  0EC9               	movlw	(0C9h)&0ffh
  2638  000A6C  0101               	movlb	1	; () banked
  2639  000A6E  0101               	movlb	1	; () banked
  2640  000A70  6118               	cpfslt	((getNote@lResult))&0ffh
  2641  000A72  EF3D  F005         	goto	i2u6241
  2642  000A76  EF3F  F005         	goto	i2u6240
  2643  000A7A                     i2u6241:
  2644  000A7A  EF55  F005         	goto	i2l1162
  2645  000A7E                     i2u6240:
  2646                           	line	1283
  2647                           ;main.c: 1283: new_note = 0x03;
  2648  000A7E  0101               	movlb	1	; () banked
  2649  000A80  6F1C               	movwf	(??_getNote+3+0)&0ffh
  2650  000A82  0E03               	movlw	low(03h)
  2651  000A84  0101               	movlb	1	; () banked
  2652  000A86  0101               	movlb	1	; () banked
  2653  000A88  6F19               	movwf	((getNote@new_note))&0ffh
  2654  000A8A  0101               	movlb	1	; () banked
  2655  000A8C  511C               	movf	(??_getNote+3+0)&0ffh,w
  2656                           	line	1284
  2657                           ;main.c: 1284: led_array[6] = 1;
  2658  000A8E  0E01               	movlw	low(01h)
  2659  000A90  6E0C               	movwf	(0+((c:0)+0Ch)),c
  2660  000A92  0E00               	movlw	high(01h)
  2661  000A94  6E0D               	movwf	(1+((c:0)+0Ch)),c
  2662                           	line	1285
  2663                           ;main.c: 1285: led_array[7] = 1;
  2664  000A96  0E01               	movlw	low(01h)
  2665  000A98  6E0E               	movwf	(0+((c:0)+0Eh)),c
  2666  000A9A  0E00               	movlw	high(01h)
  2667  000A9C  6E0F               	movwf	(1+((c:0)+0Eh)),c
  2668                           	line	1286
  2669                           ;main.c: 1286: led_array[8] = 1;
  2670  000A9E  0E01               	movlw	low(01h)
  2671  000AA0  6E10               	movwf	(0+((c:0)+010h)),c
  2672  000AA2  0E00               	movlw	high(01h)
  2673  000AA4  6E11               	movwf	(1+((c:0)+010h)),c
  2674                           	line	1287
  2675                           ;main.c: 1287: } else if (lResult >= 212 && lRes
                                 ult <= 232) {
  2676  000AA6  EF83  F005         	goto	i2l1142
  2677                           	
  2678  000AAA                     i2l1162:		; BSR set to: ?
  2679                           
  2680  000AAA  0ED3               	movlw	(0D4h-1)
  2681  000AAC  0101               	movlb	1	; () banked
  2682  000AAE  0101               	movlb	1	; () banked
  2683  000AB0  6518               	cpfsgt	((getNote@lResult))&0ffh
  2684  000AB2  EF5D  F005         	goto	i2u6251
  2685  000AB6  EF5F  F005         	goto	i2u6250
  2686  000ABA                     i2u6251:
  2687  000ABA  EF7B  F005         	goto	i2l1164
  2688  000ABE                     i2u6250:
  2689  000ABE  0EE9               	movlw	(0E9h)&0ffh
  2690  000AC0  0101               	movlb	1	; () banked
  2691  000AC2  0101               	movlb	1	; () banked
  2692  000AC4  6118               	cpfslt	((getNote@lResult))&0ffh
  2693  000AC6  EF67  F005         	goto	i2u6261
  2694  000ACA  EF69  F005         	goto	i2u6260
  2695  000ACE                     i2u6261:
  2696  000ACE  EF7B  F005         	goto	i2l1164
  2697  000AD2                     i2u6260:
  2698                           	line	1289
  2699                           ;main.c: 1289: new_note = 0x0b;
  2700  000AD2  0101               	movlb	1	; () banked
  2701  000AD4  6F1C               	movwf	(??_getNote+3+0)&0ffh
  2702  000AD6  0E0B               	movlw	low(0Bh)
  2703  000AD8  0101               	movlb	1	; () banked
  2704  000ADA  0101               	movlb	1	; () banked
  2705  000ADC  6F19               	movwf	((getNote@new_note))&0ffh
  2706  000ADE  0101               	movlb	1	; () banked
  2707  000AE0  511C               	movf	(??_getNote+3+0)&0ffh,w
  2708                           	line	1290
  2709                           ;main.c: 1290: led_array[6] = 1;
  2710  000AE2  0E01               	movlw	low(01h)
  2711  000AE4  6E0C               	movwf	(0+((c:0)+0Ch)),c
  2712  000AE6  0E00               	movlw	high(01h)
  2713  000AE8  6E0D               	movwf	(1+((c:0)+0Ch)),c
  2714                           	line	1291
  2715                           ;main.c: 1291: led_array[8] = 1;
  2716  000AEA  0E01               	movlw	low(01h)
  2717  000AEC  6E10               	movwf	(0+((c:0)+010h)),c
  2718  000AEE  0E00               	movlw	high(01h)
  2719  000AF0  6E11               	movwf	(1+((c:0)+010h)),c
  2720                           	line	1292
  2721                           ;main.c: 1292: } else {
  2722  000AF2  EF83  F005         	goto	i2l1142
  2723                           	
  2724  000AF6                     i2l1164:		; BSR set to: ?
  2725                           
  2726                           	line	1294
  2727                           ;main.c: 1294: new_note = 0x00;
  2728  000AF6  0101               	movlb	1	; () banked
  2729  000AF8  6F1C               	movwf	(??_getNote+3+0)&0ffh
  2730  000AFA  0E00               	movlw	low(0)
  2731  000AFC  0101               	movlb	1	; () banked
  2732  000AFE  0101               	movlb	1	; () banked
  2733  000B00  6F19               	movwf	((getNote@new_note))&0ffh
  2734  000B02  0101               	movlb	1	; () banked
  2735  000B04  511C               	movf	(??_getNote+3+0)&0ffh,w
  2736                           	line	1295
  2737                           	
  2738  000B06                     i2l1165:		; BSR set to: ?
  2739                           
  2740                           	
  2741  000B06                     i2l1163:		; BSR set to: ?
  2742                           
  2743                           	
  2744  000B06                     i2l1161:		; BSR set to: ?
  2745                           
  2746                           	line	1296
  2747                           	
  2748  000B06                     i2l1159:		; BSR set to: ?
  2749                           
  2750                           	line	1298
  2751                           	
  2752  000B06                     i2l1158:		; BSR set to: ?
  2753                           
  2754                           	
  2755  000B06                     i2l1150:		; BSR set to: ?
  2756                           
  2757                           	
  2758  000B06                     i2l1142:		; BSR set to: ?
  2759                           
  2760                           ;main.c: 1295: }
  2761                           ;main.c: 1296: }
  2762                           ;main.c: 1298: } else if (adc_num == 3) {
  2763  000B06  EF55  F00C         	goto	i2l1112
  2764                           	
  2765  000B0A                     i2l1140:		; BSR set to: ?
  2766                           
  2767  000B0A  502A               	movf	((c:42)),c,w	;volatile
  2768  000B0C  0A03               	xorlw	3
  2769                           
  2770  000B0E  A4D8               	btfss	status,2
  2771  000B10  EF8C  F005         	goto	i2u6271
  2772  000B14  EF8E  F005         	goto	i2u6270
  2773  000B18                     i2u6271:
  2774  000B18  EF37  F007         	goto	i2l1167
  2775  000B1C                     i2u6270:
  2776                           	line	1299
  2777                           ;main.c: 1299: if (hResult == 0x00) {
  2778  000B1C  0101               	movlb	1	; () banked
  2779  000B1E  0101               	movlb	1	; () banked
  2780  000B20  6717               	tstfsz	((getNote@hResult))&0ffh
  2781  000B22  EF95  F005         	goto	i2u6281
  2782  000B26  EF97  F005         	goto	i2u6280
  2783  000B2A                     i2u6281:
  2784  000B2A  EFA1  F005         	goto	i2l1168
  2785  000B2E                     i2u6280:
  2786                           	line	1301
  2787                           ;main.c: 1301: new_note = 0x00;
  2788  000B2E  0101               	movlb	1	; () banked
  2789  000B30  6F1C               	movwf	(??_getNote+3+0)&0ffh
  2790  000B32  0E00               	movlw	low(0)
  2791  000B34  0101               	movlb	1	; () banked
  2792  000B36  0101               	movlb	1	; () banked
  2793  000B38  6F19               	movwf	((getNote@new_note))&0ffh
  2794  000B3A  0101               	movlb	1	; () banked
  2795  000B3C  511C               	movf	(??_getNote+3+0)&0ffh,w
  2796                           	line	1303
  2797                           ;main.c: 1303: } else if (hResult == 0x01) {
  2798  000B3E  EF35  F007         	goto	i2l1169
  2799                           	
  2800  000B42                     i2l1168:		; BSR set to: ?
  2801                           
  2802  000B42  0101               	movlb	1	; () banked
  2803  000B44  0101               	movlb	1	; () banked
  2804  000B46  0517               	decf	((getNote@hResult))&0ffh,w
  2805                           
  2806  000B48  A4D8               	btfss	status,2
  2807  000B4A  EFA9  F005         	goto	i2u6291
  2808  000B4E  EFAB  F005         	goto	i2u6290
  2809  000B52                     i2u6291:
  2810  000B52  EF2B  F006         	goto	i2l1170
  2811  000B56                     i2u6290:
  2812                           	line	1304
  2813                           ;main.c: 1304: if (lResult >= 200 && lResult <= 
                                 230) {
  2814  000B56  0EC7               	movlw	(0C8h-1)
  2815  000B58  0101               	movlb	1	; () banked
  2816  000B5A  0101               	movlb	1	; () banked
  2817  000B5C  6518               	cpfsgt	((getNote@lResult))&0ffh
  2818  000B5E  EFB3  F005         	goto	i2u6301
  2819  000B62  EFB5  F005         	goto	i2u6300
  2820  000B66                     i2u6301:
  2821  000B66  EFD1  F005         	goto	i2l1171
  2822  000B6A                     i2u6300:
  2823  000B6A  0EE7               	movlw	(0E7h)&0ffh
  2824  000B6C  0101               	movlb	1	; () banked
  2825  000B6E  0101               	movlb	1	; () banked
  2826  000B70  6118               	cpfslt	((getNote@lResult))&0ffh
  2827  000B72  EFBD  F005         	goto	i2u6311
  2828  000B76  EFBF  F005         	goto	i2u6310
  2829  000B7A                     i2u6311:
  2830  000B7A  EFD1  F005         	goto	i2l1171
  2831  000B7E                     i2u6310:
  2832                           	line	1306
  2833                           ;main.c: 1306: new_note = 0x54;
  2834  000B7E  0101               	movlb	1	; () banked
  2835  000B80  6F1C               	movwf	(??_getNote+3+0)&0ffh
  2836  000B82  0E54               	movlw	low(054h)
  2837  000B84  0101               	movlb	1	; () banked
  2838  000B86  0101               	movlb	1	; () banked
  2839  000B88  6F19               	movwf	((getNote@new_note))&0ffh
  2840  000B8A  0101               	movlb	1	; () banked
  2841  000B8C  511C               	movf	(??_getNote+3+0)&0ffh,w
  2842                           	line	1307
  2843                           ;main.c: 1307: led_array[5] = 1;
  2844  000B8E  0E01               	movlw	low(01h)
  2845  000B90  6E0A               	movwf	(0+((c:0)+0Ah)),c
  2846  000B92  0E00               	movlw	high(01h)
  2847  000B94  6E0B               	movwf	(1+((c:0)+0Ah)),c
  2848                           	line	1308
  2849                           ;main.c: 1308: led_array[11] = 1;
  2850  000B96  0E01               	movlw	low(01h)
  2851  000B98  6E16               	movwf	(0+((c:0)+016h)),c
  2852  000B9A  0E00               	movlw	high(01h)
  2853  000B9C  6E17               	movwf	(1+((c:0)+016h)),c
  2854                           	line	1309
  2855                           ;main.c: 1309: } else if (lResult >= 130 && lRes
                                 ult <= 180) {
  2856  000B9E  EF29  F006         	goto	i2l1172
  2857                           	
  2858  000BA2                     i2l1171:		; BSR set to: ?
  2859                           
  2860  000BA2  0E81               	movlw	(082h-1)
  2861  000BA4  0101               	movlb	1	; () banked
  2862  000BA6  0101               	movlb	1	; () banked
  2863  000BA8  6518               	cpfsgt	((getNote@lResult))&0ffh
  2864  000BAA  EFD9  F005         	goto	i2u6321
  2865  000BAE  EFDB  F005         	goto	i2u6320
  2866  000BB2                     i2u6321:
  2867  000BB2  EFFB  F005         	goto	i2l1173
  2868  000BB6                     i2u6320:
  2869  000BB6  0EB5               	movlw	(0B5h)&0ffh
  2870  000BB8  0101               	movlb	1	; () banked
  2871  000BBA  0101               	movlb	1	; () banked
  2872  000BBC  6118               	cpfslt	((getNote@lResult))&0ffh
  2873  000BBE  EFE3  F005         	goto	i2u6331
  2874  000BC2  EFE5  F005         	goto	i2u6330
  2875  000BC6                     i2u6331:
  2876  000BC6  EFFB  F005         	goto	i2l1173
  2877  000BCA                     i2u6330:
  2878                           	line	1311
  2879                           ;main.c: 1311: new_note = 0x44;
  2880  000BCA  0101               	movlb	1	; () banked
  2881  000BCC  6F1C               	movwf	(??_getNote+3+0)&0ffh
  2882  000BCE  0E44               	movlw	low(044h)
  2883  000BD0  0101               	movlb	1	; () banked
  2884  000BD2  0101               	movlb	1	; () banked
  2885  000BD4  6F19               	movwf	((getNote@new_note))&0ffh
  2886  000BD6  0101               	movlb	1	; () banked
  2887  000BD8  511C               	movf	(??_getNote+3+0)&0ffh,w
  2888                           	line	1312
  2889                           ;main.c: 1312: led_array[5] = 1;
  2890  000BDA  0E01               	movlw	low(01h)
  2891  000BDC  6E0A               	movwf	(0+((c:0)+0Ah)),c
  2892  000BDE  0E00               	movlw	high(01h)
  2893  000BE0  6E0B               	movwf	(1+((c:0)+0Ah)),c
  2894                           	line	1313
  2895                           ;main.c: 1313: led_array[11] = 1;
  2896  000BE2  0E01               	movlw	low(01h)
  2897  000BE4  6E16               	movwf	(0+((c:0)+016h)),c
  2898  000BE6  0E00               	movlw	high(01h)
  2899  000BE8  6E17               	movwf	(1+((c:0)+016h)),c
  2900                           	line	1314
  2901                           ;main.c: 1314: led_array[12] = 1;
  2902  000BEA  0E01               	movlw	low(01h)
  2903  000BEC  6E18               	movwf	(0+((c:0)+018h)),c
  2904  000BEE  0E00               	movlw	high(01h)
  2905  000BF0  6E19               	movwf	(1+((c:0)+018h)),c
  2906                           	line	1315
  2907                           ;main.c: 1315: } else if (lResult >= 90 && lResu
                                 lt <= 120) {
  2908  000BF2  EF29  F006         	goto	i2l1172
  2909                           	
  2910  000BF6                     i2l1173:		; BSR set to: ?
  2911                           
  2912  000BF6  0E59               	movlw	(05Ah-1)
  2913  000BF8  0101               	movlb	1	; () banked
  2914  000BFA  0101               	movlb	1	; () banked
  2915  000BFC  6518               	cpfsgt	((getNote@lResult))&0ffh
  2916  000BFE  EF03  F006         	goto	i2u6341
  2917  000C02  EF05  F006         	goto	i2u6340
  2918  000C06                     i2u6341:
  2919  000C06  EF21  F006         	goto	i2l1175
  2920  000C0A                     i2u6340:
  2921  000C0A  0E79               	movlw	(079h)&0ffh
  2922  000C0C  0101               	movlb	1	; () banked
  2923  000C0E  0101               	movlb	1	; () banked
  2924  000C10  6118               	cpfslt	((getNote@lResult))&0ffh
  2925  000C12  EF0D  F006         	goto	i2u6351
  2926  000C16  EF0F  F006         	goto	i2u6350
  2927  000C1A                     i2u6351:
  2928  000C1A  EF21  F006         	goto	i2l1175
  2929  000C1E                     i2u6350:
  2930                           	line	1317
  2931                           ;main.c: 1317: led_array[5] = 1;
  2932  000C1E  0E01               	movlw	low(01h)
  2933  000C20  6E0A               	movwf	(0+((c:0)+0Ah)),c
  2934  000C22  0E00               	movlw	high(01h)
  2935  000C24  6E0B               	movwf	(1+((c:0)+0Ah)),c
  2936                           	line	1318
  2937                           ;main.c: 1318: led_array[12] = 1;
  2938  000C26  0E01               	movlw	low(01h)
  2939  000C28  6E18               	movwf	(0+((c:0)+018h)),c
  2940  000C2A  0E00               	movlw	high(01h)
  2941  000C2C  6E19               	movwf	(1+((c:0)+018h)),c
  2942                           	line	1319
  2943                           ;main.c: 1319: new_note = 0x4c;
  2944  000C2E  0101               	movlb	1	; () banked
  2945  000C30  6F1C               	movwf	(??_getNote+3+0)&0ffh
  2946  000C32  0E4C               	movlw	low(04Ch)
  2947  000C34  0101               	movlb	1	; () banked
  2948  000C36  0101               	movlb	1	; () banked
  2949  000C38  6F19               	movwf	((getNote@new_note))&0ffh
  2950  000C3A  0101               	movlb	1	; () banked
  2951  000C3C  511C               	movf	(??_getNote+3+0)&0ffh,w
  2952                           	line	1320
  2953                           ;main.c: 1320: } else {
  2954  000C3E  EF29  F006         	goto	i2l1172
  2955                           	
  2956  000C42                     i2l1175:		; BSR set to: ?
  2957                           
  2958                           	line	1322
  2959                           ;main.c: 1322: new_note = 0x00;
  2960  000C42  0101               	movlb	1	; () banked
  2961  000C44  6F1C               	movwf	(??_getNote+3+0)&0ffh
  2962  000C46  0E00               	movlw	low(0)
  2963  000C48  0101               	movlb	1	; () banked
  2964  000C4A  0101               	movlb	1	; () banked
  2965  000C4C  6F19               	movwf	((getNote@new_note))&0ffh
  2966  000C4E  0101               	movlb	1	; () banked
  2967  000C50  511C               	movf	(??_getNote+3+0)&0ffh,w
  2968                           	line	1323
  2969                           	
  2970  000C52                     i2l1176:		; BSR set to: ?
  2971                           
  2972                           	
  2973  000C52                     i2l1174:		; BSR set to: ?
  2974                           
  2975                           	
  2976  000C52                     i2l1172:		; BSR set to: ?
  2977                           
  2978                           	line	1325
  2979                           ;main.c: 1323: }
  2980                           ;main.c: 1325: } else if (hResult == 0x02) {
  2981  000C52  EF35  F007         	goto	i2l1169
  2982                           	
  2983  000C56                     i2l1170:		; BSR set to: ?
  2984                           
  2985  000C56  0101               	movlb	1	; () banked
  2986  000C58  0101               	movlb	1	; () banked
  2987  000C5A  5117               	movf	((getNote@hResult))&0ffh,w
  2988  000C5C  0A02               	xorlw	2
  2989                           
  2990  000C5E  A4D8               	btfss	status,2
  2991  000C60  EF34  F006         	goto	i2u6361
  2992  000C64  EF36  F006         	goto	i2u6360
  2993  000C68                     i2u6361:
  2994  000C68  EFAC  F006         	goto	i2l1178
  2995  000C6C                     i2u6360:
  2996                           	line	1326
  2997                           ;main.c: 1326: if (lResult >= 203 && lResult <= 
                                 255) {
  2998  000C6C  0ECA               	movlw	(0CBh-1)
  2999  000C6E  0101               	movlb	1	; () banked
  3000  000C70  0101               	movlb	1	; () banked
  3001  000C72  6518               	cpfsgt	((getNote@lResult))&0ffh
  3002  000C74  EF3E  F006         	goto	i2u6371
  3003  000C78  EF40  F006         	goto	i2u6370
  3004  000C7C                     i2u6371:
  3005  000C7C  EF52  F006         	goto	i2l1179
  3006  000C80                     i2u6370:
  3007                           	line	1328
  3008                           ;main.c: 1328: new_note = 0x34;
  3009  000C80  0101               	movlb	1	; () banked
  3010  000C82  6F1C               	movwf	(??_getNote+3+0)&0ffh
  3011  000C84  0E34               	movlw	low(034h)
  3012  000C86  0101               	movlb	1	; () banked
  3013  000C88  0101               	movlb	1	; () banked
  3014  000C8A  6F19               	movwf	((getNote@new_note))&0ffh
  3015  000C8C  0101               	movlb	1	; () banked
  3016  000C8E  511C               	movf	(??_getNote+3+0)&0ffh,w
  3017                           	line	1329
  3018                           ;main.c: 1329: led_array[5] = 1;
  3019  000C90  0E01               	movlw	low(01h)
  3020  000C92  6E0A               	movwf	(0+((c:0)+0Ah)),c
  3021  000C94  0E00               	movlw	high(01h)
  3022  000C96  6E0B               	movwf	(1+((c:0)+0Ah)),c
  3023                           	line	1330
  3024                           ;main.c: 1330: led_array[9] = 1;
  3025  000C98  0E01               	movlw	low(01h)
  3026  000C9A  6E12               	movwf	(0+((c:0)+012h)),c
  3027  000C9C  0E00               	movlw	high(01h)
  3028  000C9E  6E13               	movwf	(1+((c:0)+012h)),c
  3029                           	line	1331
  3030                           ;main.c: 1331: } else if (lResult >= 130 && lRes
                                 ult <= 167) {
  3031  000CA0  EFAA  F006         	goto	i2l1180
  3032                           	
  3033  000CA4                     i2l1179:		; BSR set to: ?
  3034                           
  3035  000CA4  0E81               	movlw	(082h-1)
  3036  000CA6  0101               	movlb	1	; () banked
  3037  000CA8  0101               	movlb	1	; () banked
  3038  000CAA  6518               	cpfsgt	((getNote@lResult))&0ffh
  3039  000CAC  EF5A  F006         	goto	i2u6381
  3040  000CB0  EF5C  F006         	goto	i2u6380
  3041  000CB4                     i2u6381:
  3042  000CB4  EF7C  F006         	goto	i2l1181
  3043  000CB8                     i2u6380:
  3044  000CB8  0EA8               	movlw	(0A8h)&0ffh
  3045  000CBA  0101               	movlb	1	; () banked
  3046  000CBC  0101               	movlb	1	; () banked
  3047  000CBE  6118               	cpfslt	((getNote@lResult))&0ffh
  3048  000CC0  EF64  F006         	goto	i2u6391
  3049  000CC4  EF66  F006         	goto	i2u6390
  3050  000CC8                     i2u6391:
  3051  000CC8  EF7C  F006         	goto	i2l1181
  3052  000CCC                     i2u6390:
  3053                           	line	1333
  3054                           ;main.c: 1333: new_note = 0x24;
  3055  000CCC  0101               	movlb	1	; () banked
  3056  000CCE  6F1C               	movwf	(??_getNote+3+0)&0ffh
  3057  000CD0  0E24               	movlw	low(024h)
  3058  000CD2  0101               	movlb	1	; () banked
  3059  000CD4  0101               	movlb	1	; () banked
  3060  000CD6  6F19               	movwf	((getNote@new_note))&0ffh
  3061  000CD8  0101               	movlb	1	; () banked
  3062  000CDA  511C               	movf	(??_getNote+3+0)&0ffh,w
  3063                           	line	1334
  3064                           ;main.c: 1334: led_array[5] = 1;
  3065  000CDC  0E01               	movlw	low(01h)
  3066  000CDE  6E0A               	movwf	(0+((c:0)+0Ah)),c
  3067  000CE0  0E00               	movlw	high(01h)
  3068  000CE2  6E0B               	movwf	(1+((c:0)+0Ah)),c
  3069                           	line	1335
  3070                           ;main.c: 1335: led_array[9] = 1;
  3071  000CE4  0E01               	movlw	low(01h)
  3072  000CE6  6E12               	movwf	(0+((c:0)+012h)),c
  3073  000CE8  0E00               	movlw	high(01h)
  3074  000CEA  6E13               	movwf	(1+((c:0)+012h)),c
  3075                           	line	1336
  3076                           ;main.c: 1336: led_array[10] = 1;
  3077  000CEC  0E01               	movlw	low(01h)
  3078  000CEE  6E14               	movwf	(0+((c:0)+014h)),c
  3079  000CF0  0E00               	movlw	high(01h)
  3080  000CF2  6E15               	movwf	(1+((c:0)+014h)),c
  3081                           	line	1337
  3082                           ;main.c: 1337: } else if (lResult >= 87 && lResu
                                 lt <= 124) {
  3083  000CF4  EFAA  F006         	goto	i2l1180
  3084                           	
  3085  000CF8                     i2l1181:		; BSR set to: ?
  3086                           
  3087  000CF8  0E56               	movlw	(057h-1)
  3088  000CFA  0101               	movlb	1	; () banked
  3089  000CFC  0101               	movlb	1	; () banked
  3090  000CFE  6518               	cpfsgt	((getNote@lResult))&0ffh
  3091  000D00  EF84  F006         	goto	i2u6401
  3092  000D04  EF86  F006         	goto	i2u6400
  3093  000D08                     i2u6401:
  3094  000D08  EFA2  F006         	goto	i2l1183
  3095  000D0C                     i2u6400:
  3096  000D0C  0E7D               	movlw	(07Dh)&0ffh
  3097  000D0E  0101               	movlb	1	; () banked
  3098  000D10  0101               	movlb	1	; () banked
  3099  000D12  6118               	cpfslt	((getNote@lResult))&0ffh
  3100  000D14  EF8E  F006         	goto	i2u6411
  3101  000D18  EF90  F006         	goto	i2u6410
  3102  000D1C                     i2u6411:
  3103  000D1C  EFA2  F006         	goto	i2l1183
  3104  000D20                     i2u6410:
  3105                           	line	1339
  3106                           ;main.c: 1339: new_note = 0x2c;
  3107  000D20  0101               	movlb	1	; () banked
  3108  000D22  6F1C               	movwf	(??_getNote+3+0)&0ffh
  3109  000D24  0E2C               	movlw	low(02Ch)
  3110  000D26  0101               	movlb	1	; () banked
  3111  000D28  0101               	movlb	1	; () banked
  3112  000D2A  6F19               	movwf	((getNote@new_note))&0ffh
  3113  000D2C  0101               	movlb	1	; () banked
  3114  000D2E  511C               	movf	(??_getNote+3+0)&0ffh,w
  3115                           	line	1340
  3116                           ;main.c: 1340: led_array[5] = 1;
  3117  000D30  0E01               	movlw	low(01h)
  3118  000D32  6E0A               	movwf	(0+((c:0)+0Ah)),c
  3119  000D34  0E00               	movlw	high(01h)
  3120  000D36  6E0B               	movwf	(1+((c:0)+0Ah)),c
  3121                           	line	1341
  3122                           ;main.c: 1341: led_array[10] = 1;
  3123  000D38  0E01               	movlw	low(01h)
  3124  000D3A  6E14               	movwf	(0+((c:0)+014h)),c
  3125  000D3C  0E00               	movlw	high(01h)
  3126  000D3E  6E15               	movwf	(1+((c:0)+014h)),c
  3127                           	line	1342
  3128                           ;main.c: 1342: } else {
  3129  000D40  EFAA  F006         	goto	i2l1180
  3130                           	
  3131  000D44                     i2l1183:		; BSR set to: ?
  3132                           
  3133                           	line	1344
  3134                           ;main.c: 1344: new_note = 0x00;
  3135  000D44  0101               	movlb	1	; () banked
  3136  000D46  6F1C               	movwf	(??_getNote+3+0)&0ffh
  3137  000D48  0E00               	movlw	low(0)
  3138  000D4A  0101               	movlb	1	; () banked
  3139  000D4C  0101               	movlb	1	; () banked
  3140  000D4E  6F19               	movwf	((getNote@new_note))&0ffh
  3141  000D50  0101               	movlb	1	; () banked
  3142  000D52  511C               	movf	(??_getNote+3+0)&0ffh,w
  3143                           	line	1345
  3144                           	
  3145  000D54                     i2l1184:		; BSR set to: ?
  3146                           
  3147                           	
  3148  000D54                     i2l1182:		; BSR set to: ?
  3149                           
  3150                           	
  3151  000D54                     i2l1180:		; BSR set to: ?
  3152                           
  3153                           	line	1347
  3154                           ;main.c: 1345: }
  3155                           ;main.c: 1347: } else if (hResult == 0x03) {
  3156  000D54  EF35  F007         	goto	i2l1169
  3157                           	
  3158  000D58                     i2l1178:		; BSR set to: ?
  3159                           
  3160  000D58  0101               	movlb	1	; () banked
  3161  000D5A  0101               	movlb	1	; () banked
  3162  000D5C  5117               	movf	((getNote@hResult))&0ffh,w
  3163  000D5E  0A03               	xorlw	3
  3164                           
  3165  000D60  A4D8               	btfss	status,2
  3166  000D62  EFB5  F006         	goto	i2u6421
  3167  000D66  EFB7  F006         	goto	i2u6420
  3168  000D6A                     i2u6421:
  3169  000D6A  EF35  F007         	goto	i2l1169
  3170  000D6E                     i2u6420:
  3171                           	line	1348
  3172                           ;main.c: 1348: if (lResult >= 60 && lResult <= 1
                                 60) {
  3173  000D6E  0E3B               	movlw	(03Ch-1)
  3174  000D70  0101               	movlb	1	; () banked
  3175  000D72  0101               	movlb	1	; () banked
  3176  000D74  6518               	cpfsgt	((getNote@lResult))&0ffh
  3177  000D76  EFBF  F006         	goto	i2u6431
  3178  000D7A  EFC1  F006         	goto	i2u6430
  3179  000D7E                     i2u6431:
  3180  000D7E  EFDD  F006         	goto	i2l1187
  3181  000D82                     i2u6430:
  3182  000D82  0EA1               	movlw	(0A1h)&0ffh
  3183  000D84  0101               	movlb	1	; () banked
  3184  000D86  0101               	movlb	1	; () banked
  3185  000D88  6118               	cpfslt	((getNote@lResult))&0ffh
  3186  000D8A  EFC9  F006         	goto	i2u6441
  3187  000D8E  EFCB  F006         	goto	i2u6440
  3188  000D92                     i2u6441:
  3189  000D92  EFDD  F006         	goto	i2l1187
  3190  000D96                     i2u6440:
  3191                           	line	1350
  3192                           ;main.c: 1350: new_note = 0x14;
  3193  000D96  0101               	movlb	1	; () banked
  3194  000D98  6F1C               	movwf	(??_getNote+3+0)&0ffh
  3195  000D9A  0E14               	movlw	low(014h)
  3196  000D9C  0101               	movlb	1	; () banked
  3197  000D9E  0101               	movlb	1	; () banked
  3198  000DA0  6F19               	movwf	((getNote@new_note))&0ffh
  3199  000DA2  0101               	movlb	1	; () banked
  3200  000DA4  511C               	movf	(??_getNote+3+0)&0ffh,w
  3201                           	line	1351
  3202                           ;main.c: 1351: led_array[5] = 1;
  3203  000DA6  0E01               	movlw	low(01h)
  3204  000DA8  6E0A               	movwf	(0+((c:0)+0Ah)),c
  3205  000DAA  0E00               	movlw	high(01h)
  3206  000DAC  6E0B               	movwf	(1+((c:0)+0Ah)),c
  3207                           	line	1352
  3208                           ;main.c: 1352: led_array[7] = 1;
  3209  000DAE  0E01               	movlw	low(01h)
  3210  000DB0  6E0E               	movwf	(0+((c:0)+0Eh)),c
  3211  000DB2  0E00               	movlw	high(01h)
  3212  000DB4  6E0F               	movwf	(1+((c:0)+0Eh)),c
  3213                           	line	1353
  3214                           ;main.c: 1353: } else if (lResult >= 145 && lRes
                                 ult <= 205) {
  3215  000DB6  EF35  F007         	goto	i2l1169
  3216                           	
  3217  000DBA                     i2l1187:		; BSR set to: ?
  3218                           
  3219  000DBA  0E90               	movlw	(091h-1)
  3220  000DBC  0101               	movlb	1	; () banked
  3221  000DBE  0101               	movlb	1	; () banked
  3222  000DC0  6518               	cpfsgt	((getNote@lResult))&0ffh
  3223  000DC2  EFE5  F006         	goto	i2u6451
  3224  000DC6  EFE7  F006         	goto	i2u6450
  3225  000DCA                     i2u6451:
  3226  000DCA  EF07  F007         	goto	i2l1189
  3227  000DCE                     i2u6450:
  3228  000DCE  0ECE               	movlw	(0CEh)&0ffh
  3229  000DD0  0101               	movlb	1	; () banked
  3230  000DD2  0101               	movlb	1	; () banked
  3231  000DD4  6118               	cpfslt	((getNote@lResult))&0ffh
  3232  000DD6  EFEF  F006         	goto	i2u6461
  3233  000DDA  EFF1  F006         	goto	i2u6460
  3234  000DDE                     i2u6461:
  3235  000DDE  EF07  F007         	goto	i2l1189
  3236  000DE2                     i2u6460:
  3237                           	line	1355
  3238                           ;main.c: 1355: new_note = 0x04;
  3239  000DE2  0101               	movlb	1	; () banked
  3240  000DE4  6F1C               	movwf	(??_getNote+3+0)&0ffh
  3241  000DE6  0E04               	movlw	low(04h)
  3242  000DE8  0101               	movlb	1	; () banked
  3243  000DEA  0101               	movlb	1	; () banked
  3244  000DEC  6F19               	movwf	((getNote@new_note))&0ffh
  3245  000DEE  0101               	movlb	1	; () banked
  3246  000DF0  511C               	movf	(??_getNote+3+0)&0ffh,w
  3247                           	line	1356
  3248                           ;main.c: 1356: led_array[5] = 1;
  3249  000DF2  0E01               	movlw	low(01h)
  3250  000DF4  6E0A               	movwf	(0+((c:0)+0Ah)),c
  3251  000DF6  0E00               	movlw	high(01h)
  3252  000DF8  6E0B               	movwf	(1+((c:0)+0Ah)),c
  3253                           	line	1357
  3254                           ;main.c: 1357: led_array[7] = 1;
  3255  000DFA  0E01               	movlw	low(01h)
  3256  000DFC  6E0E               	movwf	(0+((c:0)+0Eh)),c
  3257  000DFE  0E00               	movlw	high(01h)
  3258  000E00  6E0F               	movwf	(1+((c:0)+0Eh)),c
  3259                           	line	1358
  3260                           ;main.c: 1358: led_array[8] = 1;
  3261  000E02  0E01               	movlw	low(01h)
  3262  000E04  6E10               	movwf	(0+((c:0)+010h)),c
  3263  000E06  0E00               	movlw	high(01h)
  3264  000E08  6E11               	movwf	(1+((c:0)+010h)),c
  3265                           	line	1359
  3266                           ;main.c: 1359: } else if (lResult >= 227 && lRes
                                 ult <= 239) {
  3267  000E0A  EF35  F007         	goto	i2l1169
  3268                           	
  3269  000E0E                     i2l1189:		; BSR set to: ?
  3270                           
  3271  000E0E  0EE2               	movlw	(0E3h-1)
  3272  000E10  0101               	movlb	1	; () banked
  3273  000E12  0101               	movlb	1	; () banked
  3274  000E14  6518               	cpfsgt	((getNote@lResult))&0ffh
  3275  000E16  EF0F  F007         	goto	i2u6471
  3276  000E1A  EF11  F007         	goto	i2u6470
  3277  000E1E                     i2u6471:
  3278  000E1E  EF2D  F007         	goto	i2l1191
  3279  000E22                     i2u6470:
  3280  000E22  0EF0               	movlw	(0F0h)&0ffh
  3281  000E24  0101               	movlb	1	; () banked
  3282  000E26  0101               	movlb	1	; () banked
  3283  000E28  6118               	cpfslt	((getNote@lResult))&0ffh
  3284  000E2A  EF19  F007         	goto	i2u6481
  3285  000E2E  EF1B  F007         	goto	i2u6480
  3286  000E32                     i2u6481:
  3287  000E32  EF2D  F007         	goto	i2l1191
  3288  000E36                     i2u6480:
  3289                           	line	1361
  3290                           ;main.c: 1361: new_note = 0x0c;
  3291  000E36  0101               	movlb	1	; () banked
  3292  000E38  6F1C               	movwf	(??_getNote+3+0)&0ffh
  3293  000E3A  0E0C               	movlw	low(0Ch)
  3294  000E3C  0101               	movlb	1	; () banked
  3295  000E3E  0101               	movlb	1	; () banked
  3296  000E40  6F19               	movwf	((getNote@new_note))&0ffh
  3297  000E42  0101               	movlb	1	; () banked
  3298  000E44  511C               	movf	(??_getNote+3+0)&0ffh,w
  3299                           	line	1362
  3300                           ;main.c: 1362: led_array[5] = 1;
  3301  000E46  0E01               	movlw	low(01h)
  3302  000E48  6E0A               	movwf	(0+((c:0)+0Ah)),c
  3303  000E4A  0E00               	movlw	high(01h)
  3304  000E4C  6E0B               	movwf	(1+((c:0)+0Ah)),c
  3305                           	line	1363
  3306                           ;main.c: 1363: led_array[8] = 1;
  3307  000E4E  0E01               	movlw	low(01h)
  3308  000E50  6E10               	movwf	(0+((c:0)+010h)),c
  3309  000E52  0E00               	movlw	high(01h)
  3310  000E54  6E11               	movwf	(1+((c:0)+010h)),c
  3311                           	line	1364
  3312                           ;main.c: 1364: } else {
  3313  000E56  EF35  F007         	goto	i2l1169
  3314                           	
  3315  000E5A                     i2l1191:		; BSR set to: ?
  3316                           
  3317                           	line	1366
  3318                           ;main.c: 1366: new_note = 0x00;
  3319  000E5A  0101               	movlb	1	; () banked
  3320  000E5C  6F1C               	movwf	(??_getNote+3+0)&0ffh
  3321  000E5E  0E00               	movlw	low(0)
  3322  000E60  0101               	movlb	1	; () banked
  3323  000E62  0101               	movlb	1	; () banked
  3324  000E64  6F19               	movwf	((getNote@new_note))&0ffh
  3325  000E66  0101               	movlb	1	; () banked
  3326  000E68  511C               	movf	(??_getNote+3+0)&0ffh,w
  3327                           	line	1367
  3328                           	
  3329  000E6A                     i2l1192:		; BSR set to: ?
  3330                           
  3331                           	
  3332  000E6A                     i2l1190:		; BSR set to: ?
  3333                           
  3334                           	
  3335  000E6A                     i2l1188:		; BSR set to: ?
  3336                           
  3337                           	line	1369
  3338                           	
  3339  000E6A                     i2l1186:		; BSR set to: ?
  3340                           
  3341                           	line	1371
  3342                           	
  3343  000E6A                     i2l1185:		; BSR set to: ?
  3344                           
  3345                           	
  3346  000E6A                     i2l1177:		; BSR set to: ?
  3347                           
  3348                           	
  3349  000E6A                     i2l1169:		; BSR set to: ?
  3350                           
  3351                           ;main.c: 1367: }
  3352                           ;main.c: 1369: }
  3353                           ;main.c: 1371: } else if (adc_num == 4) {
  3354  000E6A  EF55  F00C         	goto	i2l1112
  3355                           	
  3356  000E6E                     i2l1167:		; BSR set to: ?
  3357                           
  3358  000E6E  502A               	movf	((c:42)),c,w	;volatile
  3359  000E70  0A04               	xorlw	4
  3360                           
  3361  000E72  A4D8               	btfss	status,2
  3362  000E74  EF3E  F007         	goto	i2u6491
  3363  000E78  EF40  F007         	goto	i2u6490
  3364  000E7C                     i2u6491:
  3365  000E7C  EFE9  F008         	goto	i2l1194
  3366  000E80                     i2u6490:
  3367                           	line	1372
  3368                           ;main.c: 1372: if (hResult == 0x00) {
  3369  000E80  0101               	movlb	1	; () banked
  3370  000E82  0101               	movlb	1	; () banked
  3371  000E84  6717               	tstfsz	((getNote@hResult))&0ffh
  3372  000E86  EF47  F007         	goto	i2u6501
  3373  000E8A  EF49  F007         	goto	i2u6500
  3374  000E8E                     i2u6501:
  3375  000E8E  EF53  F007         	goto	i2l1195
  3376  000E92                     i2u6500:
  3377                           	line	1374
  3378                           ;main.c: 1374: new_note = 0x00;
  3379  000E92  0101               	movlb	1	; () banked
  3380  000E94  6F1C               	movwf	(??_getNote+3+0)&0ffh
  3381  000E96  0E00               	movlw	low(0)
  3382  000E98  0101               	movlb	1	; () banked
  3383  000E9A  0101               	movlb	1	; () banked
  3384  000E9C  6F19               	movwf	((getNote@new_note))&0ffh
  3385  000E9E  0101               	movlb	1	; () banked
  3386  000EA0  511C               	movf	(??_getNote+3+0)&0ffh,w
  3387                           	line	1376
  3388                           ;main.c: 1376: } else if (hResult == 0x01) {
  3389  000EA2  EFE7  F008         	goto	i2l1196
  3390                           	
  3391  000EA6                     i2l1195:		; BSR set to: ?
  3392                           
  3393  000EA6  0101               	movlb	1	; () banked
  3394  000EA8  0101               	movlb	1	; () banked
  3395  000EAA  0517               	decf	((getNote@hResult))&0ffh,w
  3396                           
  3397  000EAC  A4D8               	btfss	status,2
  3398  000EAE  EF5B  F007         	goto	i2u6511
  3399  000EB2  EF5D  F007         	goto	i2u6510
  3400  000EB6                     i2u6511:
  3401  000EB6  EFDD  F007         	goto	i2l1197
  3402  000EBA                     i2u6510:
  3403                           	line	1377
  3404                           ;main.c: 1377: if (lResult >= 8 && lResult <= 69
                                 ) {
  3405  000EBA  0E07               	movlw	(08h-1)
  3406  000EBC  0101               	movlb	1	; () banked
  3407  000EBE  0101               	movlb	1	; () banked
  3408  000EC0  6518               	cpfsgt	((getNote@lResult))&0ffh
  3409  000EC2  EF65  F007         	goto	i2u6521
  3410  000EC6  EF67  F007         	goto	i2u6520
  3411  000ECA                     i2u6521:
  3412  000ECA  EF83  F007         	goto	i2l1198
  3413  000ECE                     i2u6520:
  3414  000ECE  0E46               	movlw	(046h)&0ffh
  3415  000ED0  0101               	movlb	1	; () banked
  3416  000ED2  0101               	movlb	1	; () banked
  3417  000ED4  6118               	cpfslt	((getNote@lResult))&0ffh
  3418  000ED6  EF6F  F007         	goto	i2u6531
  3419  000EDA  EF71  F007         	goto	i2u6530
  3420  000EDE                     i2u6531:
  3421  000EDE  EF83  F007         	goto	i2l1198
  3422  000EE2                     i2u6530:
  3423                           	line	1379
  3424                           ;main.c: 1379: new_note = 0x55;
  3425  000EE2  0101               	movlb	1	; () banked
  3426  000EE4  6F1C               	movwf	(??_getNote+3+0)&0ffh
  3427  000EE6  0E55               	movlw	low(055h)
  3428  000EE8  0101               	movlb	1	; () banked
  3429  000EEA  0101               	movlb	1	; () banked
  3430  000EEC  6F19               	movwf	((getNote@new_note))&0ffh
  3431  000EEE  0101               	movlb	1	; () banked
  3432  000EF0  511C               	movf	(??_getNote+3+0)&0ffh,w
  3433                           	line	1380
  3434                           ;main.c: 1380: led_array[4] = 1;
  3435  000EF2  0E01               	movlw	low(01h)
  3436  000EF4  6E08               	movwf	(0+((c:0)+08h)),c
  3437  000EF6  0E00               	movlw	high(01h)
  3438  000EF8  6E09               	movwf	(1+((c:0)+08h)),c
  3439                           	line	1381
  3440                           ;main.c: 1381: led_array[11] = 1;
  3441  000EFA  0E01               	movlw	low(01h)
  3442  000EFC  6E16               	movwf	(0+((c:0)+016h)),c
  3443  000EFE  0E00               	movlw	high(01h)
  3444  000F00  6E17               	movwf	(1+((c:0)+016h)),c
  3445                           	line	1382
  3446                           ;main.c: 1382: } else if (lResult >= 96 && lResu
                                 lt <= 210) {
  3447  000F02  EFDB  F007         	goto	i2l1199
  3448                           	
  3449  000F06                     i2l1198:		; BSR set to: ?
  3450                           
  3451  000F06  0E5F               	movlw	(060h-1)
  3452  000F08  0101               	movlb	1	; () banked
  3453  000F0A  0101               	movlb	1	; () banked
  3454  000F0C  6518               	cpfsgt	((getNote@lResult))&0ffh
  3455  000F0E  EF8B  F007         	goto	i2u6541
  3456  000F12  EF8D  F007         	goto	i2u6540
  3457  000F16                     i2u6541:
  3458  000F16  EFAD  F007         	goto	i2l1200
  3459  000F1A                     i2u6540:
  3460  000F1A  0ED3               	movlw	(0D3h)&0ffh
  3461  000F1C  0101               	movlb	1	; () banked
  3462  000F1E  0101               	movlb	1	; () banked
  3463  000F20  6118               	cpfslt	((getNote@lResult))&0ffh
  3464  000F22  EF95  F007         	goto	i2u6551
  3465  000F26  EF97  F007         	goto	i2u6550
  3466  000F2A                     i2u6551:
  3467  000F2A  EFAD  F007         	goto	i2l1200
  3468  000F2E                     i2u6550:
  3469                           	line	1384
  3470                           ;main.c: 1384: new_note = 0x45;
  3471  000F2E  0101               	movlb	1	; () banked
  3472  000F30  6F1C               	movwf	(??_getNote+3+0)&0ffh
  3473  000F32  0E45               	movlw	low(045h)
  3474  000F34  0101               	movlb	1	; () banked
  3475  000F36  0101               	movlb	1	; () banked
  3476  000F38  6F19               	movwf	((getNote@new_note))&0ffh
  3477  000F3A  0101               	movlb	1	; () banked
  3478  000F3C  511C               	movf	(??_getNote+3+0)&0ffh,w
  3479                           	line	1385
  3480                           ;main.c: 1385: led_array[4] = 1;
  3481  000F3E  0E01               	movlw	low(01h)
  3482  000F40  6E08               	movwf	(0+((c:0)+08h)),c
  3483  000F42  0E00               	movlw	high(01h)
  3484  000F44  6E09               	movwf	(1+((c:0)+08h)),c
  3485                           	line	1386
  3486                           ;main.c: 1386: led_array[11] = 1;
  3487  000F46  0E01               	movlw	low(01h)
  3488  000F48  6E16               	movwf	(0+((c:0)+016h)),c
  3489  000F4A  0E00               	movlw	high(01h)
  3490  000F4C  6E17               	movwf	(1+((c:0)+016h)),c
  3491                           	line	1387
  3492                           ;main.c: 1387: led_array[12] = 1;
  3493  000F4E  0E01               	movlw	low(01h)
  3494  000F50  6E18               	movwf	(0+((c:0)+018h)),c
  3495  000F52  0E00               	movlw	high(01h)
  3496  000F54  6E19               	movwf	(1+((c:0)+018h)),c
  3497                           	line	1388
  3498                           ;main.c: 1388: } else if (lResult >= 214 && lRes
                                 ult <= 227) {
  3499  000F56  EFDB  F007         	goto	i2l1199
  3500                           	
  3501  000F5A                     i2l1200:		; BSR set to: ?
  3502                           
  3503  000F5A  0ED5               	movlw	(0D6h-1)
  3504  000F5C  0101               	movlb	1	; () banked
  3505  000F5E  0101               	movlb	1	; () banked
  3506  000F60  6518               	cpfsgt	((getNote@lResult))&0ffh
  3507  000F62  EFB5  F007         	goto	i2u6561
  3508  000F66  EFB7  F007         	goto	i2u6560
  3509  000F6A                     i2u6561:
  3510  000F6A  EFD3  F007         	goto	i2l1202
  3511  000F6E                     i2u6560:
  3512  000F6E  0EE4               	movlw	(0E4h)&0ffh
  3513  000F70  0101               	movlb	1	; () banked
  3514  000F72  0101               	movlb	1	; () banked
  3515  000F74  6118               	cpfslt	((getNote@lResult))&0ffh
  3516  000F76  EFBF  F007         	goto	i2u6571
  3517  000F7A  EFC1  F007         	goto	i2u6570
  3518  000F7E                     i2u6571:
  3519  000F7E  EFD3  F007         	goto	i2l1202
  3520  000F82                     i2u6570:
  3521                           	line	1390
  3522                           ;main.c: 1390: new_note = 0x4d;
  3523  000F82  0101               	movlb	1	; () banked
  3524  000F84  6F1C               	movwf	(??_getNote+3+0)&0ffh
  3525  000F86  0E4D               	movlw	low(04Dh)
  3526  000F88  0101               	movlb	1	; () banked
  3527  000F8A  0101               	movlb	1	; () banked
  3528  000F8C  6F19               	movwf	((getNote@new_note))&0ffh
  3529  000F8E  0101               	movlb	1	; () banked
  3530  000F90  511C               	movf	(??_getNote+3+0)&0ffh,w
  3531                           	line	1391
  3532                           ;main.c: 1391: led_array[4] = 1;
  3533  000F92  0E01               	movlw	low(01h)
  3534  000F94  6E08               	movwf	(0+((c:0)+08h)),c
  3535  000F96  0E00               	movlw	high(01h)
  3536  000F98  6E09               	movwf	(1+((c:0)+08h)),c
  3537                           	line	1392
  3538                           ;main.c: 1392: led_array[12] = 1;
  3539  000F9A  0E01               	movlw	low(01h)
  3540  000F9C  6E18               	movwf	(0+((c:0)+018h)),c
  3541  000F9E  0E00               	movlw	high(01h)
  3542  000FA0  6E19               	movwf	(1+((c:0)+018h)),c
  3543                           	line	1393
  3544                           ;main.c: 1393: } else {
  3545  000FA2  EFDB  F007         	goto	i2l1199
  3546                           	
  3547  000FA6                     i2l1202:		; BSR set to: ?
  3548                           
  3549                           	line	1395
  3550                           ;main.c: 1395: new_note = 0x00;
  3551  000FA6  0101               	movlb	1	; () banked
  3552  000FA8  6F1C               	movwf	(??_getNote+3+0)&0ffh
  3553  000FAA  0E00               	movlw	low(0)
  3554  000FAC  0101               	movlb	1	; () banked
  3555  000FAE  0101               	movlb	1	; () banked
  3556  000FB0  6F19               	movwf	((getNote@new_note))&0ffh
  3557  000FB2  0101               	movlb	1	; () banked
  3558  000FB4  511C               	movf	(??_getNote+3+0)&0ffh,w
  3559                           	line	1396
  3560                           	
  3561  000FB6                     i2l1203:		; BSR set to: ?
  3562                           
  3563                           	
  3564  000FB6                     i2l1201:		; BSR set to: ?
  3565                           
  3566                           	
  3567  000FB6                     i2l1199:		; BSR set to: ?
  3568                           
  3569                           	line	1398
  3570                           ;main.c: 1396: }
  3571                           ;main.c: 1398: } else if (hResult == 0x02) {
  3572  000FB6  EFE7  F008         	goto	i2l1196
  3573                           	
  3574  000FBA                     i2l1197:		; BSR set to: ?
  3575                           
  3576  000FBA  0101               	movlb	1	; () banked
  3577  000FBC  0101               	movlb	1	; () banked
  3578  000FBE  5117               	movf	((getNote@hResult))&0ffh,w
  3579  000FC0  0A02               	xorlw	2
  3580                           
  3581  000FC2  A4D8               	btfss	status,2
  3582  000FC4  EFE6  F007         	goto	i2u6581
  3583  000FC8  EFE8  F007         	goto	i2u6580
  3584  000FCC                     i2u6581:
  3585  000FCC  EF5E  F008         	goto	i2l1205
  3586  000FD0                     i2u6580:
  3587                           	line	1399
  3588                           ;main.c: 1399: if (lResult >= 217 && lResult <= 
                                 255) {
  3589  000FD0  0ED8               	movlw	(0D9h-1)
  3590  000FD2  0101               	movlb	1	; () banked
  3591  000FD4  0101               	movlb	1	; () banked
  3592  000FD6  6518               	cpfsgt	((getNote@lResult))&0ffh
  3593  000FD8  EFF0  F007         	goto	i2u6591
  3594  000FDC  EFF2  F007         	goto	i2u6590
  3595  000FE0                     i2u6591:
  3596  000FE0  EF04  F008         	goto	i2l1206
  3597  000FE4                     i2u6590:
  3598                           	line	1401
  3599                           ;main.c: 1401: new_note = 0x35;
  3600  000FE4  0101               	movlb	1	; () banked
  3601  000FE6  6F1C               	movwf	(??_getNote+3+0)&0ffh
  3602  000FE8  0E35               	movlw	low(035h)
  3603  000FEA  0101               	movlb	1	; () banked
  3604  000FEC  0101               	movlb	1	; () banked
  3605  000FEE  6F19               	movwf	((getNote@new_note))&0ffh
  3606  000FF0  0101               	movlb	1	; () banked
  3607  000FF2  511C               	movf	(??_getNote+3+0)&0ffh,w
  3608                           	line	1402
  3609                           ;main.c: 1402: led_array[4] = 1;
  3610  000FF4  0E01               	movlw	low(01h)
  3611  000FF6  6E08               	movwf	(0+((c:0)+08h)),c
  3612  000FF8  0E00               	movlw	high(01h)
  3613  000FFA  6E09               	movwf	(1+((c:0)+08h)),c
  3614                           	line	1403
  3615                           ;main.c: 1403: led_array[9] = 1;
  3616  000FFC  0E01               	movlw	low(01h)
  3617  000FFE  6E12               	movwf	(0+((c:0)+012h)),c
  3618  001000  0E00               	movlw	high(01h)
  3619  001002  6E13               	movwf	(1+((c:0)+012h)),c
  3620                           	line	1405
  3621                           ;main.c: 1405: } else if (lResult >= 154 && lRes
                                 ult <= 202) {
  3622  001004  EF5C  F008         	goto	i2l1207
  3623                           	
  3624  001008                     i2l1206:		; BSR set to: ?
  3625                           
  3626  001008  0E99               	movlw	(09Ah-1)
  3627  00100A  0101               	movlb	1	; () banked
  3628  00100C  0101               	movlb	1	; () banked
  3629  00100E  6518               	cpfsgt	((getNote@lResult))&0ffh
  3630+ 001010  EF0C  F008         	goto	i2u6601
  3631+ 001014  EF0E  F008         	goto	i2u6600
  3632+ 001018                     i2u6601:
  3633+ 001018  EF2E  F008         	goto	i2l1208
  3634+ 00101C                     i2u6600:
  3635+ 00101C  0ECB               	movlw	(0CBh)&0ffh
  3636+ 00101E  0101               	movlb	1	; () banked
  3637+ 001020  0101               	movlb	1	; () banked
  3638+ 001022  6118               	cpfslt	((getNote@lResult))&0ffh
  3639+ 001024  EF16  F008         	goto	i2u6611
  3640+ 001028  EF18  F008         	goto	i2u6610
  3641+ 00102C                     i2u6611:
  3642+ 00102C  EF2E  F008         	goto	i2l1208
  3643+ 001030                     i2u6610:
  3644+                          	line	1407
  3645+                          ;main.c: 1407: new_note = 0x25;
  3646+ 001030  0101               	movlb	1	; () banked
  3647+ 001032  6F1C               	movwf	(??_getNote+3+0)&0ffh
  3648+ 001034  0E25               	movlw	low(025h)
  3649+ 001036  0101               	movlb	1	; () banked
  3650+ 001038  0101               	movlb	1	; () banked
  3651+ 00103A  6F19               	movwf	((getNote@new_note))&0ffh
  3652+ 00103C  0101               	movlb	1	; () banked
  3653+ 00103E  511C               	movf	(??_getNote+3+0)&0ffh,w
  3654+                          	line	1408
  3655+                          ;main.c: 1408: led_array[4] = 1;
  3656+ 001040  0E01               	movlw	low(01h)
  3657+ 001042  6E08               	movwf	(0+((c:0)+08h)),c
  3658+ 001044  0E00               	movlw	high(01h)
  3659+ 001046  6E09               	movwf	(1+((c:0)+08h)),c
  3660+                          	line	1409
  3661+                          ;main.c: 1409: led_array[9] = 1;
  3662+ 001048  0E01               	movlw	low(01h)
  3663+ 00104A  6E12               	movwf	(0+((c:0)+012h)),c
  3664+ 00104C  0E00               	movlw	high(01h)
  3665+ 00104E  6E13               	movwf	(1+((c:0)+012h)),c
  3666+                          	line	1410
  3667+                          ;main.c: 1410: led_array[10] = 1;
  3668+ 001050  0E01               	movlw	low(01h)
  3669+ 001052  6E14               	movwf	(0+((c:0)+014h)),c
  3670+ 001054  0E00               	movlw	high(01h)
  3671+ 001056  6E15               	movwf	(1+((c:0)+014h)),c
  3672+                          	line	1411
  3673+                          ;main.c: 1411: } else if (lResult >= 115 && lRes
      +                          ult <= 145) {
  3674+ 001058  EF5C  F008         	goto	i2l1207
  3675+                          	
  3676+ 00105C                     i2l1208:		; BSR set to: ?
  3677+                          
  3678+ 00105C  0E72               	movlw	(073h-1)
  3679+ 00105E  0101               	movlb	1	; () banked
  3680+ 001060  0101               	movlb	1	; () banked
  3681+ 001062  6518               	cpfsgt	((getNote@lResult))&0ffh
  3682+ 001064  EF36  F008         	goto	i2u6621
  3683+ 001068  EF38  F008         	goto	i2u6620
  3684+ 00106C                     i2u6621:
  3685+ 00106C  EF54  F008         	goto	i2l1210
  3686+ 001070                     i2u6620:
  3687+ 001070  0E92               	movlw	(092h)&0ffh
  3688+ 001072  0101               	movlb	1	; () banked
  3689+ 001074  0101               	movlb	1	; () banked
  3690+ 001076  6118               	cpfslt	((getNote@lResult))&0ffh
  3691+ 001078  EF40  F008         	goto	i2u6631
  3692+ 00107C  EF42  F008         	goto	i2u6630
  3693+ 001080                     i2u6631:
  3694+ 001080  EF54  F008         	goto	i2l1210
  3695+ 001084                     i2u6630:
  3696+                          	line	1413
  3697+                          ;main.c: 1413: new_note = 0x2d;
  3698+ 001084  0101               	movlb	1	; () banked
  3699+ 001086  6F1C               	movwf	(??_getNote+3+0)&0ffh
  3700+ 001088  0E2D               	movlw	low(02Dh)
  3701+ 00108A  0101               	movlb	1	; () banked
  3702+ 00108C  0101               	movlb	1	; () banked
  3703+ 00108E  6F19               	movwf	((getNote@new_note))&0ffh
  3704+ 001090  0101               	movlb	1	; () banked
  3705+ 001092  511C               	movf	(??_getNote+3+0)&0ffh,w
  3706+                          	line	1414
  3707+                          ;main.c: 1414: led_array[4] = 1;
  3708+ 001094  0E01               	movlw	low(01h)
  3709+ 001096  6E08               	movwf	(0+((c:0)+08h)),c
  3710+ 001098  0E00               	movlw	high(01h)
  3711+ 00109A  6E09               	movwf	(1+((c:0)+08h)),c
  3712+                          	line	1415
  3713+                          ;main.c: 1415: led_array[10] = 1;
  3714+ 00109C  0E01               	movlw	low(01h)
  3715+ 00109E  6E14               	movwf	(0+((c:0)+014h)),c
  3716+ 0010A0  0E00               	movlw	high(01h)
  3717+ 0010A2  6E15               	movwf	(1+((c:0)+014h)),c
  3718+                          	line	1416
  3719+                          ;main.c: 1416: } else {
  3720+ 0010A4  EF5C  F008         	goto	i2l1207
  3721+                          	
  3722+ 0010A8                     i2l1210:		; BSR set to: ?
  3723+                          
  3724+                          	line	1418
  3725+                          ;main.c: 1418: new_note = 0x00;
  3726+ 0010A8  0101               	movlb	1	; () banked
  3727+ 0010AA  6F1C               	movwf	(??_getNote+3+0)&0ffh
  3728+ 0010AC  0E00               	movlw	low(0)
  3729+ 0010AE  0101               	movlb	1	; () banked
  3730+ 0010B0  0101               	movlb	1	; () banked
  3731+ 0010B2  6F19               	movwf	((getNote@new_note))&0ffh
  3732+ 0010B4  0101               	movlb	1	; () banked
  3733+ 0010B6  511C               	movf	(??_getNote+3+0)&0ffh,w
  3734+                          	line	1419
  3735+                          	
  3736+ 0010B8                     i2l1211:		; BSR set to: ?
  3737+                          
  3738+                          	
  3739+ 0010B8                     i2l1209:		; BSR set to: ?
  3740+                          
  3741+                          	
  3742+ 0010B8                     i2l1207:		; BSR set to: ?
  3743+                          
  3744+                          	line	1421
  3745+                          ;main.c: 1419: }
  3746+                          ;main.c: 1421: } else if (hResult == 0x03) {
  3747+ 0010B8  EFE7  F008         	goto	i2l1196
  3748+                          	
  3749+ 0010BC                     i2l1205:		; BSR set to: ?
  3750+                          
  3751+ 0010BC  0101               	movlb	1	; () banked
  3752+ 0010BE  0101               	movlb	1	; () banked
  3753+ 0010C0  5117               	movf	((getNote@hResult))&0ffh,w
  3754+ 0010C2  0A03               	xorlw	3
  3755+                          
  3756+ 0010C4  A4D8               	btfss	status,2
  3757+ 0010C6  EF67  F008         	goto	i2u6641
  3758+ 0010CA  EF69  F008         	goto	i2u6640
  3759+ 0010CE                     i2u6641:
  3760+ 0010CE  EFE7  F008         	goto	i2l1196
  3761+ 0010D2                     i2u6640:
  3762+                          	line	1422
  3763+                          ;main.c: 1422: if (lResult >= 227 && lResult <= 
      +                          240) {
  3764+ 0010D2  0EE2               	movlw	(0E3h-1)
  3765+ 0010D4  0101               	movlb	1	; () banked
  3766+ 0010D6  0101               	movlb	1	; () banked
  3767+ 0010D8  6518               	cpfsgt	((getNote@lResult))&0ffh
  3768+ 0010DA  EF71  F008         	goto	i2u6651
  3769+ 0010DE  EF73  F008         	goto	i2u6650
  3770+ 0010E2                     i2u6651:
  3771+ 0010E2  EF8F  F008         	goto	i2l1214
  3772+ 0010E6                     i2u6650:
  3773+ 0010E6  0EF1               	movlw	(0F1h)&0ffh
  3774+ 0010E8  0101               	movlb	1	; () banked
  3775+ 0010EA  0101               	movlb	1	; () banked
  3776+ 0010EC  6118               	cpfslt	((getNote@lResult))&0ffh
  3777+ 0010EE  EF7B  F008         	goto	i2u6661
  3778+ 0010F2  EF7D  F008         	goto	i2u6660
  3779+ 0010F6                     i2u6661:
  3780+ 0010F6  EF8F  F008         	goto	i2l1214
  3781+ 0010FA                     i2u6660:
  3782+                          	line	1424
  3783+                          ;main.c: 1424: new_note = 0x15;
  3784+ 0010FA  0101               	movlb	1	; () banked
  3785+ 0010FC  6F1C               	movwf	(??_getNote+3+0)&0ffh
  3786+ 0010FE  0E15               	movlw	low(015h)
  3787+ 001100  0101               	movlb	1	; () banked
  3788+ 001102  0101               	movlb	1	; () banked
  3789+ 001104  6F19               	movwf	((getNote@new_note))&0ffh
  3790+ 001106  0101               	movlb	1	; () banked
  3791+ 001108  511C               	movf	(??_getNote+3+0)&0ffh,w
  3792+                          	line	1425
  3793+                          ;main.c: 1425: led_array[4] = 1;
  3794+ 00110A  0E01               	movlw	low(01h)
  3795+ 00110C  6E08               	movwf	(0+((c:0)+08h)),c
  3796+ 00110E  0E00               	movlw	high(01h)
  3797+ 001110  6E09               	movwf	(1+((c:0)+08h)),c
  3798+                          	line	1426
  3799+                          ;main.c: 1426: led_array[7] = 1;
  3800+ 001112  0E01               	movlw	low(01h)
  3801+ 001114  6E0E               	movwf	(0+((c:0)+0Eh)),c
  3802+ 001116  0E00               	movlw	high(01h)
  3803+ 001118  6E0F               	movwf	(1+((c:0)+0Eh)),c
  3804+                          	line	1427
  3805+                          ;main.c: 1427: } else if (lResult >= 180 && lRes
      +                          ult <= 210) {
  3806+ 00111A  EFE7  F008         	goto	i2l1196
  3807+                          	
  3808+ 00111E                     i2l1214:		; BSR set to: ?
  3809+                          
  3810+ 00111E  0EB3               	movlw	(0B4h-1)
  3811+ 001120  0101               	movlb	1	; () banked
  3812+ 001122  0101               	movlb	1	; () banked
  3813+ 001124  6518               	cpfsgt	((getNote@lResult))&0ffh
  3814+ 001126  EF97  F008         	goto	i2u6671
  3815+ 00112A  EF99  F008         	goto	i2u6670
  3816+ 00112E                     i2u6671:
  3817+ 00112E  EFB9  F008         	goto	i2l1216
  3818+ 001132                     i2u6670:
  3819+ 001132  0ED3               	movlw	(0D3h)&0ffh
  3820+ 001134  0101               	movlb	1	; () banked
  3821+ 001136  0101               	movlb	1	; () banked
  3822+ 001138  6118               	cpfslt	((getNote@lResult))&0ffh
  3823+ 00113A  EFA1  F008         	goto	i2u6681
  3824+ 00113E  EFA3  F008         	goto	i2u6680
  3825+ 001142                     i2u6681:
  3826+ 001142  EFB9  F008         	goto	i2l1216
  3827+ 001146                     i2u6680:
  3828+                          	line	1429
  3829+                          ;main.c: 1429: new_note = 0x05;
  3830+ 001146  0101               	movlb	1	; () banked
  3831+ 001148  6F1C               	movwf	(??_getNote+3+0)&0ffh
  3832+ 00114A  0E05               	movlw	low(05h)
  3833+ 00114C  0101               	movlb	1	; () banked
  3834+ 00114E  0101               	movlb	1	; () banked
  3835+ 001150  6F19               	movwf	((getNote@new_note))&0ffh
  3836+ 001152  0101               	movlb	1	; () banked
  3837+ 001154  511C               	movf	(??_getNote+3+0)&0ffh,w
  3838+                          	line	1430
  3839+                          ;main.c: 1430: led_array[4] = 1;
  3840+ 001156  0E01               	movlw	low(01h)
  3841+ 001158  6E08               	movwf	(0+((c:0)+08h)),c
  3842+ 00115A  0E00               	movlw	high(01h)
  3843+ 00115C  6E09               	movwf	(1+((c:0)+08h)),c
  3844+                          	line	1431
  3845+                          ;main.c: 1431: led_array[7] = 1;
  3846+ 00115E  0E01               	movlw	low(01h)
  3847+ 001160  6E0E               	movwf	(0+((c:0)+0Eh)),c
  3848+ 001162  0E00               	movlw	high(01h)
  3849+ 001164  6E0F               	movwf	(1+((c:0)+0Eh)),c
  3850+                          	line	1432
  3851+                          ;main.c: 1432: led_array[8] = 1;
  3852+ 001166  0E01               	movlw	low(01h)
  3853+ 001168  6E10               	movwf	(0+((c:0)+010h)),c
  3854+ 00116A  0E00               	movlw	high(01h)
  3855+ 00116C  6E11               	movwf	(1+((c:0)+010h)),c
  3856+                          	line	1433
  3857+                          ;main.c: 1433: } else if (lResult >= 90 && lResu
      +                          lt <= 165) {
  3858+ 00116E  EFE7  F008         	goto	i2l1196
  3859+                          	
  3860+ 001172                     i2l1216:		; BSR set to: ?
  3861+                          
  3862+ 001172  0E59               	movlw	(05Ah-1)
  3863+ 001174  0101               	movlb	1	; () banked
  3864+ 001176  0101               	movlb	1	; () banked
  3865+ 001178  6518               	cpfsgt	((getNote@lResult))&0ffh
  3866+ 00117A  EFC1  F008         	goto	i2u6691
  3867+ 00117E  EFC3  F008         	goto	i2u6690
  3868+ 001182                     i2u6691:
  3869+ 001182  EFDF  F008         	goto	i2l1218
  3870+ 001186                     i2u6690:
  3871+ 001186  0EA6               	movlw	(0A6h)&0ffh
  3872+ 001188  0101               	movlb	1	; () banked
  3873+ 00118A  0101               	movlb	1	; () banked
  3874+ 00118C  6118               	cpfslt	((getNote@lResult))&0ffh
  3875+ 00118E  EFCB  F008         	goto	i2u6701
  3876+ 001192  EFCD  F008         	goto	i2u6700
  3877+ 001196                     i2u6701:
  3878+ 001196  EFDF  F008         	goto	i2l1218
  3879+ 00119A                     i2u6700:
  3880+                          	line	1435
  3881+                          ;main.c: 1435: new_note = 0x0d;
  3882+ 00119A  0101               	movlb	1	; () banked
  3883+ 00119C  6F1C               	movwf	(??_getNote+3+0)&0ffh
  3884+ 00119E  0E0D               	movlw	low(0Dh)
  3885+ 0011A0  0101               	movlb	1	; () banked
  3886+ 0011A2  0101               	movlb	1	; () banked
  3887+ 0011A4  6F19               	movwf	((getNote@new_note))&0ffh
  3888+ 0011A6  0101               	movlb	1	; () banked
  3889+ 0011A8  511C               	movf	(??_getNote+3+0)&0ffh,w
  3890+                          	line	1436
  3891+                          ;main.c: 1436: led_array[4] = 1;
  3892+ 0011AA  0E01               	movlw	low(01h)
  3893+ 0011AC  6E08               	movwf	(0+((c:0)+08h)),c
  3894+ 0011AE  0E00               	movlw	high(01h)
  3895+ 0011B0  6E09               	movwf	(1+((c:0)+08h)),c
  3896+                          	line	1437
  3897+                          ;main.c: 1437: led_array[8] = 1;
  3898+ 0011B2  0E01               	movlw	low(01h)
  3899+ 0011B4  6E10               	movwf	(0+((c:0)+010h)),c
  3900+ 0011B6  0E00               	movlw	high(01h)
  3901+ 0011B8  6E11               	movwf	(1+((c:0)+010h)),c
  3902+                          	line	1438
  3903+                          ;main.c: 1438: } else {
  3904+ 0011BA  EFE7  F008         	goto	i2l1196
  3905+                          	
  3906+ 0011BE                     i2l1218:		; BSR set to: ?
  3907+                          
  3908+                          	line	1440
  3909+                          ;main.c: 1440: new_note = 0x00;
  3910+ 0011BE  0101               	movlb	1	; () banked
  3911+ 0011C0  6F1C               	movwf	(??_getNote+3+0)&0ffh
  3912+ 0011C2  0E00               	movlw	low(0)
  3913+ 0011C4  0101               	movlb	1	; () banked
  3914+ 0011C6  0101               	movlb	1	; () banked
  3915+ 0011C8  6F19               	movwf	((getNote@new_note))&0ffh
  3916+ 0011CA  0101               	movlb	1	; () banked
  3917+ 0011CC  511C               	movf	(??_getNote+3+0)&0ffh,w
  3918+                          	line	1441
  3919+                          	
  3920+ 0011CE                     i2l1219:		; BSR set to: ?
  3921+                          
  3922+                          	
  3923+ 0011CE                     i2l1217:		; BSR set to: ?
  3924+                          
  3925+                          	
  3926+ 0011CE                     i2l1215:		; BSR set to: ?
  3927+                          
  3928+                          	line	1443
  3929+                          	
  3930+ 0011CE                     i2l1213:		; BSR set to: ?
  3931+                          
  3932+                          	line	1445
  3933+                          	
  3934+ 0011CE                     i2l1212:		; BSR set to: ?
  3935+                          
  3936+                          	
  3937+ 0011CE                     i2l1204:		; BSR set to: ?
  3938+                          
  3939+                          	
  3940+ 0011CE                     i2l1196:		; BSR set to: ?
  3941+                          
  3942+                          ;main.c: 1441: }
  3943+                          ;main.c: 1443: }
  3944+                          ;main.c: 1445: } else if (adc_num == 5) {
  3945+ 0011CE  EF55  F00C         	goto	i2l1112
  3946+                          	
  3947+ 0011D2                     i2l1194:		; BSR set to: ?
  3948+                          
  3949+ 0011D2  502A               	movf	((c:42)),c,w	;volatile
  3950+ 0011D4  0A05               	xorlw	5
  3951+                          
  3952+ 0011D6  A4D8               	btfss	status,2
  3953+ 0011D8  EFF0  F008         	goto	i2u6711
  3954+ 0011DC  EFF2  F008         	goto	i2u6710
  3955+ 0011E0                     i2u6711:
  3956+ 0011E0  EF9B  F00A         	goto	i2l1221
  3957+ 0011E4                     i2u6710:
  3958+                          	line	1446
  3959+                          ;main.c: 1446: if (hResult == 0x00) {
  3960+ 0011E4  0101               	movlb	1	; () banked
  3961+ 0011E6  0101               	movlb	1	; () banked
  3962+ 0011E8  6717               	tstfsz	((getNote@hResult))&0ffh
  3963+ 0011EA  EFF9  F008         	goto	i2u6721
  3964+ 0011EE  EFFB  F008         	goto	i2u6720
  3965+ 0011F2                     i2u6721:
  3966+ 0011F2  EF05  F009         	goto	i2l1222
  3967+ 0011F6                     i2u6720:
  3968+                          	line	1448
  3969+                          ;main.c: 1448: new_note = 0x00;
  3970+ 0011F6  0101               	movlb	1	; () banked
  3971+ 0011F8  6F1C               	movwf	(??_getNote+3+0)&0ffh
  3972+ 0011FA  0E00               	movlw	low(0)
  3973+ 0011FC  0101               	movlb	1	; () banked
  3974+ 0011FE  0101               	movlb	1	; () banked
  3975+ 001200  6F19               	movwf	((getNote@new_note))&0ffh
  3976+ 001202  0101               	movlb	1	; () banked
  3977+ 001204  511C               	movf	(??_getNote+3+0)&0ffh,w
  3978+                          	line	1450
  3979+                          ;main.c: 1450: } else if (hResult == 0x01) {
  3980+ 001206  EF99  F00A         	goto	i2l1223
  3981+                          	
  3982+ 00120A                     i2l1222:		; BSR set to: ?
  3983+                          
  3984+ 00120A  0101               	movlb	1	; () banked
  3985+ 00120C  0101               	movlb	1	; () banked
  3986+ 00120E  0517               	decf	((getNote@hResult))&0ffh,w
  3987+                          
  3988+ 001210  A4D8               	btfss	status,2
  3989+ 001212  EF0D  F009         	goto	i2u6731
  3990+ 001216  EF0F  F009         	goto	i2u6730
  3991+ 00121A                     i2u6731:
  3992+ 00121A  EF8F  F009         	goto	i2l1224
  3993+ 00121E                     i2u6730:
  3994+                          	line	1451
  3995+                          ;main.c: 1451: if (lResult >= 148 && lResult <= 
      +                          174) {
  3996+ 00121E  0E93               	movlw	(094h-1)
  3997+ 001220  0101               	movlb	1	; () banked
  3998+ 001222  0101               	movlb	1	; () banked
  3999+ 001224  6518               	cpfsgt	((getNote@lResult))&0ffh
  4000+ 001226  EF17  F009         	goto	i2u6741
  4001+ 00122A  EF19  F009         	goto	i2u6740
  4002+ 00122E                     i2u6741:
  4003+ 00122E  EF35  F009         	goto	i2l1225
  4004+ 001232                     i2u6740:
  4005+ 001232  0EAF               	movlw	(0AFh)&0ffh
  4006+ 001234  0101               	movlb	1	; () banked
  4007+ 001236  0101               	movlb	1	; () banked
  4008+ 001238  6118               	cpfslt	((getNote@lResult))&0ffh
  4009+ 00123A  EF21  F009         	goto	i2u6751
  4010+ 00123E  EF23  F009         	goto	i2u6750
  4011+ 001242                     i2u6751:
  4012+ 001242  EF35  F009         	goto	i2l1225
  4013+ 001246                     i2u6750:
  4014+                          	line	1453
  4015+                          ;main.c: 1453: new_note = 0x56;
  4016+ 001246  0101               	movlb	1	; () banked
  4017+ 001248  6F1C               	movwf	(??_getNote+3+0)&0ffh
  4018+ 00124A  0E56               	movlw	low(056h)
  4019+ 00124C  0101               	movlb	1	; () banked
  4020+ 00124E  0101               	movlb	1	; () banked
  4021+ 001250  6F19               	movwf	((getNote@new_note))&0ffh
  4022+ 001252  0101               	movlb	1	; () banked
  4023+ 001254  511C               	movf	(??_getNote+3+0)&0ffh,w
  4024+                          	line	1454
  4025+                          ;main.c: 1454: led_array[3] = 1;
  4026+ 001256  0E01               	movlw	low(01h)
  4027+ 001258  6E06               	movwf	(0+((c:0)+06h)),c
  4028+ 00125A  0E00               	movlw	high(01h)
  4029+ 00125C  6E07               	movwf	(1+((c:0)+06h)),c
  4030+                          	line	1455
  4031+                          ;main.c: 1455: led_array[11] = 1;
  4032+ 00125E  0E01               	movlw	low(01h)
  4033+ 001260  6E16               	movwf	(0+((c:0)+016h)),c
  4034+ 001262  0E00               	movlw	high(01h)
  4035+ 001264  6E17               	movwf	(1+((c:0)+016h)),c
  4036+                          	line	1456
  4037+                          ;main.c: 1456: } else if (lResult >= 89 && lResu
      +                          lt <= 120) {
  4038+ 001266  EF8D  F009         	goto	i2l1226
  4039+                          	
  4040+ 00126A                     i2l1225:		; BSR set to: ?
  4041+                          
  4042+ 00126A  0E58               	movlw	(059h-1)
  4043+ 00126C  0101               	movlb	1	; () banked
  4044+ 00126E  0101               	movlb	1	; () banked
  4045+ 001270  6518               	cpfsgt	((getNote@lResult))&0ffh
  4046+ 001272  EF3D  F009         	goto	i2u6761
  4047+ 001276  EF3F  F009         	goto	i2u6760
  4048+ 00127A                     i2u6761:
  4049+ 00127A  EF5B  F009         	goto	i2l1227
  4050+ 00127E                     i2u6760:
  4051+ 00127E  0E79               	movlw	(079h)&0ffh
  4052+ 001280  0101               	movlb	1	; () banked
  4053+ 001282  0101               	movlb	1	; () banked
  4054+ 001284  6118               	cpfslt	((getNote@lResult))&0ffh
  4055+ 001286  EF47  F009         	goto	i2u6771
  4056+ 00128A  EF49  F009         	goto	i2u6770
  4057+ 00128E                     i2u6771:
  4058+ 00128E  EF5B  F009         	goto	i2l1227
  4059+ 001292                     i2u6770:
  4060+                          	line	1458
  4061+                          ;main.c: 1458: new_note = 0x46;
  4062+ 001292  0101               	movlb	1	; () banked
  4063+ 001294  6F1C               	movwf	(??_getNote+3+0)&0ffh
  4064+ 001296  0E46               	movlw	low(046h)
  4065+ 001298  0101               	movlb	1	; () banked
  4066+ 00129A  0101               	movlb	1	; () banked
  4067+ 00129C  6F19               	movwf	((getNote@new_note))&0ffh
  4068+ 00129E  0101               	movlb	1	; () banked
  4069+ 0012A0  511C               	movf	(??_getNote+3+0)&0ffh,w
  4070+                          	line	1459
  4071+                          ;main.c: 1459: led_array[3] = 1;
  4072+ 0012A2  0E01               	movlw	low(01h)
  4073+ 0012A4  6E06               	movwf	(0+((c:0)+06h)),c
  4074+ 0012A6  0E00               	movlw	high(01h)
  4075+ 0012A8  6E07               	movwf	(1+((c:0)+06h)),c
  4076+                          	line	1460
  4077+                          ;main.c: 1460: led_array[12] = 1;
  4078+ 0012AA  0E01               	movlw	low(01h)
  4079+ 0012AC  6E18               	movwf	(0+((c:0)+018h)),c
  4080+ 0012AE  0E00               	movlw	high(01h)
  4081+ 0012B0  6E19               	movwf	(1+((c:0)+018h)),c
  4082+                          	line	1461
  4083+                          ;main.c: 1461: } else if (lResult >= 20 && lResu
      +                          lt <= 72) {
  4084+ 0012B2  EF8D  F009         	goto	i2l1226
  4085+                          	
  4086+ 0012B6                     i2l1227:		; BSR set to: ?
  4087+                          
  4088+ 0012B6  0E13               	movlw	(014h-1)
  4089+ 0012B8  0101               	movlb	1	; () banked
  4090+ 0012BA  0101               	movlb	1	; () banked
  4091+ 0012BC  6518               	cpfsgt	((getNote@lResult))&0ffh
  4092+ 0012BE  EF63  F009         	goto	i2u6781
  4093+ 0012C2  EF65  F009         	goto	i2u6780
  4094+ 0012C6                     i2u6781:
  4095+ 0012C6  EF85  F009         	goto	i2l1229
  4096+ 0012CA                     i2u6780:
  4097+ 0012CA  0E49               	movlw	(049h)&0ffh
  4098+ 0012CC  0101               	movlb	1	; () banked
  4099+ 0012CE  0101               	movlb	1	; () banked
  4100+ 0012D0  6118               	cpfslt	((getNote@lResult))&0ffh
  4101+ 0012D2  EF6D  F009         	goto	i2u6791
  4102+ 0012D6  EF6F  F009         	goto	i2u6790
  4103+ 0012DA                     i2u6791:
  4104+ 0012DA  EF85  F009         	goto	i2l1229
  4105+ 0012DE                     i2u6790:
  4106+                          	line	1463
  4107+                          ;main.c: 1463: new_note = 0x4e;
  4108+ 0012DE  0101               	movlb	1	; () banked
  4109+ 0012E0  6F1C               	movwf	(??_getNote+3+0)&0ffh
  4110+ 0012E2  0E4E               	movlw	low(04Eh)
  4111+ 0012E4  0101               	movlb	1	; () banked
  4112+ 0012E6  0101               	movlb	1	; () banked
  4113+ 0012E8  6F19               	movwf	((getNote@new_note))&0ffh
  4114+ 0012EA  0101               	movlb	1	; () banked
  4115+ 0012EC  511C               	movf	(??_getNote+3+0)&0ffh,w
  4116+                          	line	1464
  4117+                          ;main.c: 1464: led_array[3] = 1;
  4118+ 0012EE  0E01               	movlw	low(01h)
  4119+ 0012F0  6E06               	movwf	(0+((c:0)+06h)),c
  4120+ 0012F2  0E00               	movlw	high(01h)
  4121+ 0012F4  6E07               	movwf	(1+((c:0)+06h)),c
  4122+                          	line	1465
  4123+                          ;main.c: 1465: led_array[11] = 1;
  4124+ 0012F6  0E01               	movlw	low(01h)
  4125+ 0012F8  6E16               	movwf	(0+((c:0)+016h)),c
  4126+ 0012FA  0E00               	movlw	high(01h)
  4127+ 0012FC  6E17               	movwf	(1+((c:0)+016h)),c
  4128+                          	line	1466
  4129+                          ;main.c: 1466: led_array[12] = 1;
  4130+ 0012FE  0E01               	movlw	low(01h)
  4131+ 001300  6E18               	movwf	(0+((c:0)+018h)),c
  4132+ 001302  0E00               	movlw	high(01h)
  4133+ 001304  6E19               	movwf	(1+((c:0)+018h)),c
  4134+                          	line	1467
  4135+                          ;main.c: 1467: } else {
  4136+ 001306  EF8D  F009         	goto	i2l1226
  4137+                          	
  4138+ 00130A                     i2l1229:		; BSR set to: ?
  4139+                          
  4140+                          	line	1469
  4141+                          ;main.c: 1469: new_note = 0x00;
  4142+ 00130A  0101               	movlb	1	; () banked
  4143+ 00130C  6F1C               	movwf	(??_getNote+3+0)&0ffh
  4144+ 00130E  0E00               	movlw	low(0)
  4145+ 001310  0101               	movlb	1	; () banked
  4146+ 001312  0101               	movlb	1	; () banked
  4147+ 001314  6F19               	movwf	((getNote@new_note))&0ffh
  4148+ 001316  0101               	movlb	1	; () banked
  4149+ 001318  511C               	movf	(??_getNote+3+0)&0ffh,w
  4150+                          	line	1470
  4151+                          	
  4152+ 00131A                     i2l1230:		; BSR set to: ?
  4153+                          
  4154+                          	
  4155+ 00131A                     i2l1228:		; BSR set to: ?
  4156+                          
  4157+                          	
  4158+ 00131A                     i2l1226:		; BSR set to: ?
  4159+                          
  4160+                          	line	1472
  4161+                          ;main.c: 1470: }
  4162+                          ;main.c: 1472: } else if (hResult == 0x02) {
  4163+ 00131A  EF99  F00A         	goto	i2l1223
  4164+                          	
  4165+ 00131E                     i2l1224:		; BSR set to: ?
  4166+                          
  4167+ 00131E  0101               	movlb	1	; () banked
  4168+ 001320  0101               	movlb	1	; () banked
  4169+ 001322  5117               	movf	((getNote@hResult))&0ffh,w
  4170+ 001324  0A02               	xorlw	2
  4171+                          
  4172+ 001326  A4D8               	btfss	status,2
  4173+ 001328  EF98  F009         	goto	i2u6801
  4174+ 00132C  EF9A  F009         	goto	i2u6800
  4175+ 001330                     i2u6801:
  4176+ 001330  EF10  F00A         	goto	i2l1232
  4177+ 001334                     i2u6800:
  4178+                          	line	1473
  4179+                          ;main.c: 1473: if (lResult >= 223 && lResult <= 
      +                          256) {
  4180+ 001334  0EDE               	movlw	(0DFh-1)
  4181+ 001336  0101               	movlb	1	; () banked
  4182+ 001338  0101               	movlb	1	; () banked
  4183+ 00133A  6518               	cpfsgt	((getNote@lResult))&0ffh
  4184+ 00133C  EFA2  F009         	goto	i2u6811
  4185+ 001340  EFA4  F009         	goto	i2u6810
  4186+ 001344                     i2u6811:
  4187+ 001344  EFB6  F009         	goto	i2l1233
  4188+ 001348                     i2u6810:
  4189+                          	line	1475
  4190+                          ;main.c: 1475: new_note = 0x36;
  4191+ 001348  0101               	movlb	1	; () banked
  4192+ 00134A  6F1C               	movwf	(??_getNote+3+0)&0ffh
  4193+ 00134C  0E36               	movlw	low(036h)
  4194+ 00134E  0101               	movlb	1	; () banked
  4195+ 001350  0101               	movlb	1	; () banked
  4196+ 001352  6F19               	movwf	((getNote@new_note))&0ffh
  4197+ 001354  0101               	movlb	1	; () banked
  4198+ 001356  511C               	movf	(??_getNote+3+0)&0ffh,w
  4199+                          	line	1476
  4200+                          ;main.c: 1476: led_array[3] = 1;
  4201+ 001358  0E01               	movlw	low(01h)
  4202+ 00135A  6E06               	movwf	(0+((c:0)+06h)),c
  4203+ 00135C  0E00               	movlw	high(01h)
  4204+ 00135E  6E07               	movwf	(1+((c:0)+06h)),c
  4205+                          	line	1477
  4206+                          ;main.c: 1477: led_array[9] = 1;
  4207+ 001360  0E01               	movlw	low(01h)
  4208+ 001362  6E12               	movwf	(0+((c:0)+012h)),c
  4209+ 001364  0E00               	movlw	high(01h)
  4210+ 001366  6E13               	movwf	(1+((c:0)+012h)),c
  4211+                          	line	1478
  4212+                          ;main.c: 1478: } else if (lResult >= 165 && lRes
      +                          ult <= 207) {
  4213+ 001368  EF0E  F00A         	goto	i2l1234
  4214+                          	
  4215+ 00136C                     i2l1233:		; BSR set to: ?
  4216+                          
  4217+ 00136C  0EA4               	movlw	(0A5h-1)
  4218+ 00136E  0101               	movlb	1	; () banked
  4219+ 001370  0101               	movlb	1	; () banked
  4220+ 001372  6518               	cpfsgt	((getNote@lResult))&0ffh
  4221+ 001374  EFBE  F009         	goto	i2u6821
  4222+ 001378  EFC0  F009         	goto	i2u6820
  4223+ 00137C                     i2u6821:
  4224+ 00137C  EFE0  F009         	goto	i2l1235
  4225+ 001380                     i2u6820:
  4226+ 001380  0ED0               	movlw	(0D0h)&0ffh
  4227+ 001382  0101               	movlb	1	; () banked
  4228+ 001384  0101               	movlb	1	; () banked
  4229+ 001386  6118               	cpfslt	((getNote@lResult))&0ffh
  4230+ 001388  EFC8  F009         	goto	i2u6831
  4231+ 00138C  EFCA  F009         	goto	i2u6830
  4232+ 001390                     i2u6831:
  4233+ 001390  EFE0  F009         	goto	i2l1235
  4234+ 001394                     i2u6830:
  4235+                          	line	1480
  4236+                          ;main.c: 1480: new_note = 0x26;
  4237+ 001394  0101               	movlb	1	; () banked
  4238+ 001396  6F1C               	movwf	(??_getNote+3+0)&0ffh
  4239+ 001398  0E26               	movlw	low(026h)
  4240+ 00139A  0101               	movlb	1	; () banked
  4241+ 00139C  0101               	movlb	1	; () banked
  4242+ 00139E  6F19               	movwf	((getNote@new_note))&0ffh
  4243+ 0013A0  0101               	movlb	1	; () banked
  4244+ 0013A2  511C               	movf	(??_getNote+3+0)&0ffh,w
  4245+                          	line	1481
  4246+                          ;main.c: 1481: led_array[3] = 1;
  4247+ 0013A4  0E01               	movlw	low(01h)
  4248+ 0013A6  6E06               	movwf	(0+((c:0)+06h)),c
  4249+ 0013A8  0E00               	movlw	high(01h)
  4250+ 0013AA  6E07               	movwf	(1+((c:0)+06h)),c
  4251+                          	line	1482
  4252+                          ;main.c: 1482: led_array[9] = 1;
  4253+ 0013AC  0E01               	movlw	low(01h)
  4254+ 0013AE  6E12               	movwf	(0+((c:0)+012h)),c
  4255+ 0013B0  0E00               	movlw	high(01h)
  4256+ 0013B2  6E13               	movwf	(1+((c:0)+012h)),c
  4257+                          	line	1483
  4258+                          ;main.c: 1483: led_array[10] = 1;
  4259+ 0013B4  0E01               	movlw	low(01h)
  4260+ 0013B6  6E14               	movwf	(0+((c:0)+014h)),c
  4261+ 0013B8  0E00               	movlw	high(01h)
  4262+ 0013BA  6E15               	movwf	(1+((c:0)+014h)),c
  4263+                          	line	1484
  4264+                          ;main.c: 1484: } else if (lResult >= 132 && lRes
      +                          ult <= 160) {
  4265+ 0013BC  EF0E  F00A         	goto	i2l1234
  4266+                          	
  4267+ 0013C0                     i2l1235:		; BSR set to: ?
  4268+                          
  4269+ 0013C0  0E83               	movlw	(084h-1)
  4270+ 0013C2  0101               	movlb	1	; () banked
  4271+ 0013C4  0101               	movlb	1	; () banked
  4272+ 0013C6  6518               	cpfsgt	((getNote@lResult))&0ffh
  4273+ 0013C8  EFE8  F009         	goto	i2u6841
  4274+ 0013CC  EFEA  F009         	goto	i2u6840
  4275+ 0013D0                     i2u6841:
  4276+ 0013D0  EF06  F00A         	goto	i2l1237
  4277+ 0013D4                     i2u6840:
  4278+ 0013D4  0EA1               	movlw	(0A1h)&0ffh
  4279+ 0013D6  0101               	movlb	1	; () banked
  4280+ 0013D8  0101               	movlb	1	; () banked
  4281+ 0013DA  6118               	cpfslt	((getNote@lResult))&0ffh
  4282+ 0013DC  EFF2  F009         	goto	i2u6851
  4283+ 0013E0  EFF4  F009         	goto	i2u6850
  4284+ 0013E4                     i2u6851:
  4285+ 0013E4  EF06  F00A         	goto	i2l1237
  4286+ 0013E8                     i2u6850:
  4287+                          	line	1486
  4288+                          ;main.c: 1486: new_note = 0x2e;
  4289+ 0013E8  0101               	movlb	1	; () banked
  4290+ 0013EA  6F1C               	movwf	(??_getNote+3+0)&0ffh
  4291+ 0013EC  0E2E               	movlw	low(02Eh)
  4292+ 0013EE  0101               	movlb	1	; () banked
  4293+ 0013F0  0101               	movlb	1	; () banked
  4294+ 0013F2  6F19               	movwf	((getNote@new_note))&0ffh
  4295+ 0013F4  0101               	movlb	1	; () banked
  4296+ 0013F6  511C               	movf	(??_getNote+3+0)&0ffh,w
  4297+                          	line	1487
  4298+                          ;main.c: 1487: led_array[3] = 1;
  4299+ 0013F8  0E01               	movlw	low(01h)
  4300+ 0013FA  6E06               	movwf	(0+((c:0)+06h)),c
  4301+ 0013FC  0E00               	movlw	high(01h)
  4302+ 0013FE  6E07               	movwf	(1+((c:0)+06h)),c
  4303+                          	line	1488
  4304+                          ;main.c: 1488: led_array[10] = 1;
  4305+ 001400  0E01               	movlw	low(01h)
  4306+ 001402  6E14               	movwf	(0+((c:0)+014h)),c
  4307+ 001404  0E00               	movlw	high(01h)
  4308+ 001406  6E15               	movwf	(1+((c:0)+014h)),c
  4309+                          	line	1489
  4310+                          ;main.c: 1489: } else {
  4311+ 001408  EF0E  F00A         	goto	i2l1234
  4312+                          	
  4313+ 00140C                     i2l1237:		; BSR set to: ?
  4314+                          
  4315+                          	line	1491
  4316+                          ;main.c: 1491: new_note = 0x00;
  4317+ 00140C  0101               	movlb	1	; () banked
  4318+ 00140E  6F1C               	movwf	(??_getNote+3+0)&0ffh
  4319+ 001410  0E00               	movlw	low(0)
  4320+ 001412  0101               	movlb	1	; () banked
  4321+ 001414  0101               	movlb	1	; () banked
  4322+ 001416  6F19               	movwf	((getNote@new_note))&0ffh
  4323+ 001418  0101               	movlb	1	; () banked
  4324+ 00141A  511C               	movf	(??_getNote+3+0)&0ffh,w
  4325+                          	line	1492
  4326+                          	
  4327+ 00141C                     i2l1238:		; BSR set to: ?
  4328+                          
  4329+                          	
  4330+ 00141C                     i2l1236:		; BSR set to: ?
  4331+                          
  4332+                          	
  4333+ 00141C                     i2l1234:		; BSR set to: ?
  4334+                          
  4335+                          	line	1494
  4336+                          ;main.c: 1492: }
  4337+                          ;main.c: 1494: } else if (hResult == 0x03) {
  4338+ 00141C  EF99  F00A         	goto	i2l1223
  4339+                          	
  4340+ 001420                     i2l1232:		; BSR set to: ?
  4341+                          
  4342+ 001420  0101               	movlb	1	; () banked
  4343+ 001422  0101               	movlb	1	; () banked
  4344+ 001424  5117               	movf	((getNote@hResult))&0ffh,w
  4345+ 001426  0A03               	xorlw	3
  4346+                          
  4347+ 001428  A4D8               	btfss	status,2
  4348+ 00142A  EF19  F00A         	goto	i2u6861
  4349+ 00142E  EF1B  F00A         	goto	i2u6860
  4350+ 001432                     i2u6861:
  4351+ 001432  EF99  F00A         	goto	i2l1223
  4352+ 001436                     i2u6860:
  4353+                          	line	1495
  4354+                          ;main.c: 1495: if (lResult >= 148 && lResult <= 
      +                          174) {
  4355+ 001436  0E93               	movlw	(094h-1)
  4356+ 001438  0101               	movlb	1	; () banked
  4357+ 00143A  0101               	movlb	1	; () banked
  4358+ 00143C  6518               	cpfsgt	((getNote@lResult))&0ffh
  4359+ 00143E  EF23  F00A         	goto	i2u6871
  4360+ 001442  EF25  F00A         	goto	i2u6870
  4361+ 001446                     i2u6871:
  4362+ 001446  EF41  F00A         	goto	i2l1241
  4363+ 00144A                     i2u6870:
  4364+ 00144A  0EAF               	movlw	(0AFh)&0ffh
  4365+ 00144C  0101               	movlb	1	; () banked
  4366+ 00144E  0101               	movlb	1	; () banked
  4367+ 001450  6118               	cpfslt	((getNote@lResult))&0ffh
  4368+ 001452  EF2D  F00A         	goto	i2u6881
  4369+ 001456  EF2F  F00A         	goto	i2u6880
  4370+ 00145A                     i2u6881:
  4371+ 00145A  EF41  F00A         	goto	i2l1241
  4372+ 00145E                     i2u6880:
  4373+                          	line	1497
  4374+                          ;main.c: 1497: new_note = 0x16;
  4375+ 00145E  0101               	movlb	1	; () banked
  4376+ 001460  6F1C               	movwf	(??_getNote+3+0)&0ffh
  4377+ 001462  0E16               	movlw	low(016h)
  4378+ 001464  0101               	movlb	1	; () banked
  4379+ 001466  0101               	movlb	1	; () banked
  4380+ 001468  6F19               	movwf	((getNote@new_note))&0ffh
  4381+ 00146A  0101               	movlb	1	; () banked
  4382+ 00146C  511C               	movf	(??_getNote+3+0)&0ffh,w
  4383+                          	line	1498
  4384+                          ;main.c: 1498: led_array[3] = 1;
  4385+ 00146E  0E01               	movlw	low(01h)
  4386+ 001470  6E06               	movwf	(0+((c:0)+06h)),c
  4387+ 001472  0E00               	movlw	high(01h)
  4388+ 001474  6E07               	movwf	(1+((c:0)+06h)),c
  4389+                          	line	1499
  4390+                          ;main.c: 1499: led_array[7] = 1;
  4391+ 001476  0E01               	movlw	low(01h)
  4392+ 001478  6E0E               	movwf	(0+((c:0)+0Eh)),c
  4393+ 00147A  0E00               	movlw	high(01h)
  4394+ 00147C  6E0F               	movwf	(1+((c:0)+0Eh)),c
  4395+                          	line	1500
  4396+                          ;main.c: 1500: } else if (lResult >= 89 && lResu
      +                          lt <= 120) {
  4397+ 00147E  EF99  F00A         	goto	i2l1223
  4398+                          	
  4399+ 001482                     i2l1241:		; BSR set to: ?
  4400+                          
  4401+ 001482  0E58               	movlw	(059h-1)
  4402+ 001484  0101               	movlb	1	; () banked
  4403+ 001486  0101               	movlb	1	; () banked
  4404+ 001488  6518               	cpfsgt	((getNote@lResult))&0ffh
  4405+ 00148A  EF49  F00A         	goto	i2u6891
  4406+ 00148E  EF4B  F00A         	goto	i2u6890
  4407+ 001492                     i2u6891:
  4408+ 001492  EF6B  F00A         	goto	i2l1243
  4409+ 001496                     i2u6890:
  4410+ 001496  0E79               	movlw	(079h)&0ffh
  4411+ 001498  0101               	movlb	1	; () banked
  4412+ 00149A  0101               	movlb	1	; () banked
  4413+ 00149C  6118               	cpfslt	((getNote@lResult))&0ffh
  4414+ 00149E  EF53  F00A         	goto	i2u6901
  4415+ 0014A2  EF55  F00A         	goto	i2u6900
  4416+ 0014A6                     i2u6901:
  4417+ 0014A6  EF6B  F00A         	goto	i2l1243
  4418+ 0014AA                     i2u6900:
  4419+                          	line	1502
  4420+                          ;main.c: 1502: new_note = 0x06;
  4421+ 0014AA  0101               	movlb	1	; () banked
  4422+ 0014AC  6F1C               	movwf	(??_getNote+3+0)&0ffh
  4423+ 0014AE  0E06               	movlw	low(06h)
  4424+ 0014B0  0101               	movlb	1	; () banked
  4425+ 0014B2  0101               	movlb	1	; () banked
  4426+ 0014B4  6F19               	movwf	((getNote@new_note))&0ffh
  4427+ 0014B6  0101               	movlb	1	; () banked
  4428+ 0014B8  511C               	movf	(??_getNote+3+0)&0ffh,w
  4429+                          	line	1503
  4430+                          ;main.c: 1503: led_array[3] = 1;
  4431+ 0014BA  0E01               	movlw	low(01h)
  4432+ 0014BC  6E06               	movwf	(0+((c:0)+06h)),c
  4433+ 0014BE  0E00               	movlw	high(01h)
  4434+ 0014C0  6E07               	movwf	(1+((c:0)+06h)),c
  4435+                          	line	1504
  4436+                          ;main.c: 1504: led_array[7] = 1;
  4437+ 0014C2  0E01               	movlw	low(01h)
  4438+ 0014C4  6E0E               	movwf	(0+((c:0)+0Eh)),c
  4439+ 0014C6  0E00               	movlw	high(01h)
  4440+ 0014C8  6E0F               	movwf	(1+((c:0)+0Eh)),c
  4441+                          	line	1505
  4442+                          ;main.c: 1505: led_array[8] = 1;
  4443+ 0014CA  0E01               	movlw	low(01h)
  4444+ 0014CC  6E10               	movwf	(0+((c:0)+010h)),c
  4445+ 0014CE  0E00               	movlw	high(01h)
  4446+ 0014D0  6E11               	movwf	(1+((c:0)+010h)),c
  4447+                          	line	1506
  4448+                          ;main.c: 1506: } else if (lResult >= 20 && lResu
      +                          lt <= 72) {
  4449+ 0014D2  EF99  F00A         	goto	i2l1223
  4450+                          	
  4451+ 0014D6                     i2l1243:		; BSR set to: ?
  4452+                          
  4453+ 0014D6  0E13               	movlw	(014h-1)
  4454+ 0014D8  0101               	movlb	1	; () banked
  4455+ 0014DA  0101               	movlb	1	; () banked
  4456+ 0014DC  6518               	cpfsgt	((getNote@lResult))&0ffh
  4457+ 0014DE  EF73  F00A         	goto	i2u6911
  4458+ 0014E2  EF75  F00A         	goto	i2u6910
  4459+ 0014E6                     i2u6911:
  4460+ 0014E6  EF91  F00A         	goto	i2l1245
  4461+ 0014EA                     i2u6910:
  4462+ 0014EA  0E49               	movlw	(049h)&0ffh
  4463+ 0014EC  0101               	movlb	1	; () banked
  4464+ 0014EE  0101               	movlb	1	; () banked
  4465+ 0014F0  6118               	cpfslt	((getNote@lResult))&0ffh
  4466+ 0014F2  EF7D  F00A         	goto	i2u6921
  4467+ 0014F6  EF7F  F00A         	goto	i2u6920
  4468+ 0014FA                     i2u6921:
  4469+ 0014FA  EF91  F00A         	goto	i2l1245
  4470+ 0014FE                     i2u6920:
  4471+                          	line	1508
  4472+                          ;main.c: 1508: new_note = 0x0e;
  4473+ 0014FE  0101               	movlb	1	; () banked
  4474+ 001500  6F1C               	movwf	(??_getNote+3+0)&0ffh
  4475+ 001502  0E0E               	movlw	low(0Eh)
  4476+ 001504  0101               	movlb	1	; () banked
  4477+ 001506  0101               	movlb	1	; () banked
  4478+ 001508  6F19               	movwf	((getNote@new_note))&0ffh
  4479+ 00150A  0101               	movlb	1	; () banked
  4480+ 00150C  511C               	movf	(??_getNote+3+0)&0ffh,w
  4481+                          	line	1509
  4482+                          ;main.c: 1509: led_array[3] = 1;
  4483+ 00150E  0E01               	movlw	low(01h)
  4484+ 001510  6E06               	movwf	(0+((c:0)+06h)),c
  4485+ 001512  0E00               	movlw	high(01h)
  4486+ 001514  6E07               	movwf	(1+((c:0)+06h)),c
  4487+                          	line	1510
  4488+                          ;main.c: 1510: led_array[8] = 1;
  4489+ 001516  0E01               	movlw	low(01h)
  4490+ 001518  6E10               	movwf	(0+((c:0)+010h)),c
  4491+ 00151A  0E00               	movlw	high(01h)
  4492+ 00151C  6E11               	movwf	(1+((c:0)+010h)),c
  4493+                          	line	1511
  4494+                          ;main.c: 1511: } else {
  4495+ 00151E  EF99  F00A         	goto	i2l1223
  4496+                          	
  4497+ 001522                     i2l1245:		; BSR set to: ?
  4498+                          
  4499+                          	line	1513
  4500+                          ;main.c: 1513: new_note = 0x00;
  4501+ 001522  0101               	movlb	1	; () banked
  4502+ 001524  6F1C               	movwf	(??_getNote+3+0)&0ffh
  4503+ 001526  0E00               	movlw	low(0)
  4504+ 001528  0101               	movlb	1	; () banked
  4505+ 00152A  0101               	movlb	1	; () banked
  4506+ 00152C  6F19               	movwf	((getNote@new_note))&0ffh
  4507+ 00152E  0101               	movlb	1	; () banked
  4508+ 001530  511C               	movf	(??_getNote+3+0)&0ffh,w
  4509+                          	line	1514
  4510+                          	
  4511+ 001532                     i2l1246:		; BSR set to: ?
  4512+                          
  4513+                          	
  4514+ 001532                     i2l1244:		; BSR set to: ?
  4515+                          
  4516+                          	
  4517+ 001532                     i2l1242:		; BSR set to: ?
  4518+                          
  4519+                          	line	1516
  4520+                          	
  4521+ 001532                     i2l1240:		; BSR set to: ?
  4522+                          
  4523+                          	line	1518
  4524+                          	
  4525+ 001532                     i2l1239:		; BSR set to: ?
  4526+                          
  4527+                          	
  4528+ 001532                     i2l1231:		; BSR set to: ?
  4529+                          
  4530+                          	
  4531+ 001532                     i2l1223:		; BSR set to: ?
  4532+                          
  4533+                          ;main.c: 1514: }
  4534+                          ;main.c: 1516: }
  4535+                          ;main.c: 1518: } else if (adc_num == 6) {
  4536+ 001532  EF55  F00C         	goto	i2l1112
  4537+                          	
  4538+ 001536                     i2l1221:		; BSR set to: ?
  4539+                          
  4540+ 001536  502A               	movf	((c:42)),c,w	;volatile
  4541+ 001538  0A06               	xorlw	6
  4542+                          
  4543+ 00153A  A4D8               	btfss	status,2
  4544+ 00153C  EFA2  F00A         	goto	i2u6931
  4545+ 001540  EFA4  F00A         	goto	i2u6930
  4546+ 001544                     i2u6931:
  4547+ 001544  EF55  F00C         	goto	i2l1112
  4548+ 001548                     i2u6930:
  4549+                          	line	1519
  4550+                          ;main.c: 1519: if (hResult == 0x00) {
  4551+ 001548  0101               	movlb	1	; () banked
  4552+ 00154A  0101               	movlb	1	; () banked
  4553+ 00154C  6717               	tstfsz	((getNote@hResult))&0ffh
  4554+ 00154E  EFAB  F00A         	goto	i2u6941
  4555+ 001552  EFAD  F00A         	goto	i2u6940
  4556+ 001556                     i2u6941:
  4557+ 001556  EFB7  F00A         	goto	i2l1249
  4558+ 00155A                     i2u6940:
  4559+                          	line	1521
  4560+                          ;main.c: 1521: new_note = 0x00;
  4561+ 00155A  0101               	movlb	1	; () banked
  4562+ 00155C  6F1C               	movwf	(??_getNote+3+0)&0ffh
  4563+ 00155E  0E00               	movlw	low(0)
  4564+ 001560  0101               	movlb	1	; () banked
  4565+ 001562  0101               	movlb	1	; () banked
  4566+ 001564  6F19               	movwf	((getNote@new_note))&0ffh
  4567+ 001566  0101               	movlb	1	; () banked
  4568+ 001568  511C               	movf	(??_getNote+3+0)&0ffh,w
  4569+                          	line	1523
  4570+                          ;main.c: 1523: } else if (hResult == 0x01) {
  4571+ 00156A  EF55  F00C         	goto	i2l1112
  4572+                          	
  4573+ 00156E                     i2l1249:		; BSR set to: ?
  4574+                          
  4575+ 00156E  0101               	movlb	1	; () banked
  4576+ 001570  0101               	movlb	1	; () banked
  4577+ 001572  0517               	decf	((getNote@hResult))&0ffh,w
  4578+                          
  4579+ 001574  A4D8               	btfss	status,2
  4580+ 001576  EFBF  F00A         	goto	i2u6951
  4581+ 00157A  EFC1  F00A         	goto	i2u6950
  4582+ 00157E                     i2u6951:
  4583+ 00157E  EF41  F00B         	goto	i2l1251
  4584+ 001582                     i2u6950:
  4585+                          	line	1524
  4586+                          ;main.c: 1524: if (lResult >= 87 && lResult <= 1
      +                          60) {
  4587+ 001582  0E56               	movlw	(057h-1)
  4588+ 001584  0101               	movlb	1	; () banked
  4589+ 001586  0101               	movlb	1	; () banked
  4590+ 001588  6518               	cpfsgt	((getNote@lResult))&0ffh
  4591+ 00158A  EFC9  F00A         	goto	i2u6961
  4592+ 00158E  EFCB  F00A         	goto	i2u6960
  4593+ 001592                     i2u6961:
  4594+ 001592  EFE7  F00A         	goto	i2l1252
  4595+ 001596                     i2u6960:
  4596+ 001596  0EA1               	movlw	(0A1h)&0ffh
  4597+ 001598  0101               	movlb	1	; () banked
  4598+ 00159A  0101               	movlb	1	; () banked
  4599+ 00159C  6118               	cpfslt	((getNote@lResult))&0ffh
  4600+ 00159E  EFD3  F00A         	goto	i2u6971
  4601+ 0015A2  EFD5  F00A         	goto	i2u6970
  4602+ 0015A6                     i2u6971:
  4603  0015A6  EFE7  F00A         	goto	i2l1252
  4604  0015AA                     i2u6970:
  4605                           	line	1526
  4606                           ;main.c: 1526: new_note = 0x57;
  4607  0015AA  0101               	movlb	1	; () banked
  4608  0015AC  6F1C               	movwf	(??_getNote+3+0)&0ffh
  4609  0015AE  0E57               	movlw	low(057h)
  4610  0015B0  0101               	movlb	1	; () banked
  4611  0015B2  0101               	movlb	1	; () banked
  4612  0015B4  6F19               	movwf	((getNote@new_note))&0ffh
  4613  0015B6  0101               	movlb	1	; () banked
  4614  0015B8  511C               	movf	(??_getNote+3+0)&0ffh,w
  4615                           	line	1527
  4616                           ;main.c: 1527: led_array[2] = 1;
  4617  0015BA  0E01               	movlw	low(01h)
  4618  0015BC  6E04               	movwf	(0+((c:0)+04h)),c
  4619  0015BE  0E00               	movlw	high(01h)
  4620  0015C0  6E05               	movwf	(1+((c:0)+04h)),c
  4621                           	line	1528
  4622                           ;main.c: 1528: led_array[11] = 1;
  4623  0015C2  0E01               	movlw	low(01h)
  4624  0015C4  6E16               	movwf	(0+((c:0)+016h)),c
  4625  0015C6  0E00               	movlw	high(01h)
  4626  0015C8  6E17               	movwf	(1+((c:0)+016h)),c
  4627                           	line	1529
  4628                           ;main.c: 1529: } else if (lResult >= 175 && lRes
                                 ult <= 215) {
  4629  0015CA  EF3F  F00B         	goto	i2l1253
  4630                           	
  4631  0015CE                     i2l1252:		; BSR set to: ?
  4632                           
  4633  0015CE  0EAE               	movlw	(0AFh-1)
  4634  0015D0  0101               	movlb	1	; () banked
  4635  0015D2  0101               	movlb	1	; () banked
  4636  0015D4  6518               	cpfsgt	((getNote@lResult))&0ffh
  4637  0015D6  EFEF  F00A         	goto	i2u6981
  4638  0015DA  EFF1  F00A         	goto	i2u6980
  4639  0015DE                     i2u6981:
  4640  0015DE  EF11  F00B         	goto	i2l1254
  4641  0015E2                     i2u6980:
  4642  0015E2  0ED8               	movlw	(0D8h)&0ffh
  4643  0015E4  0101               	movlb	1	; () banked
  4644  0015E6  0101               	movlb	1	; () banked
  4645  0015E8  6118               	cpfslt	((getNote@lResult))&0ffh
  4646  0015EA  EFF9  F00A         	goto	i2u6991
  4647  0015EE  EFFB  F00A         	goto	i2u6990
  4648  0015F2                     i2u6991:
  4649  0015F2  EF11  F00B         	goto	i2l1254
  4650  0015F6                     i2u6990:
  4651                           	line	1531
  4652                           ;main.c: 1531: new_note = 0x47;
  4653  0015F6  0101               	movlb	1	; () banked
  4654  0015F8  6F1C               	movwf	(??_getNote+3+0)&0ffh
  4655  0015FA  0E47               	movlw	low(047h)
  4656  0015FC  0101               	movlb	1	; () banked
  4657  0015FE  0101               	movlb	1	; () banked
  4658  001600  6F19               	movwf	((getNote@new_note))&0ffh
  4659  001602  0101               	movlb	1	; () banked
  4660  001604  511C               	movf	(??_getNote+3+0)&0ffh,w
  4661                           	line	1532
  4662                           ;main.c: 1532: led_array[2] = 1;
  4663  001606  0E01               	movlw	low(01h)
  4664  001608  6E04               	movwf	(0+((c:0)+04h)),c
  4665  00160A  0E00               	movlw	high(01h)
  4666  00160C  6E05               	movwf	(1+((c:0)+04h)),c
  4667                           	line	1533
  4668                           ;main.c: 1533: led_array[11] = 1;
  4669  00160E  0E01               	movlw	low(01h)
  4670  001610  6E16               	movwf	(0+((c:0)+016h)),c
  4671  001612  0E00               	movlw	high(01h)
  4672  001614  6E17               	movwf	(1+((c:0)+016h)),c
  4673                           	line	1534
  4674                           ;main.c: 1534: led_array[12] = 1;
  4675  001616  0E01               	movlw	low(01h)
  4676  001618  6E18               	movwf	(0+((c:0)+018h)),c
  4677  00161A  0E00               	movlw	high(01h)
  4678  00161C  6E19               	movwf	(1+((c:0)+018h)),c
  4679                           	line	1535
  4680                           ;main.c: 1535: } else if (lResult >= 224 && lRes
                                 ult <= 228) {
  4681  00161E  EF3F  F00B         	goto	i2l1253
  4682                           	
  4683  001622                     i2l1254:		; BSR set to: ?
  4684                           
  4685  001622  0EDF               	movlw	(0E0h-1)
  4686  001624  0101               	movlb	1	; () banked
  4687  001626  0101               	movlb	1	; () banked
  4688  001628  6518               	cpfsgt	((getNote@lResult))&0ffh
  4689  00162A  EF19  F00B         	goto	i2u7001
  4690  00162E  EF1B  F00B         	goto	i2u7000
  4691  001632                     i2u7001:
  4692  001632  EF37  F00B         	goto	i2l1256
  4693  001636                     i2u7000:
  4694  001636  0EE5               	movlw	(0E5h)&0ffh
  4695  001638  0101               	movlb	1	; () banked
  4696  00163A  0101               	movlb	1	; () banked
  4697  00163C  6118               	cpfslt	((getNote@lResult))&0ffh
  4698  00163E  EF23  F00B         	goto	i2u7011
  4699  001642  EF25  F00B         	goto	i2u7010
  4700  001646                     i2u7011:
  4701  001646  EF37  F00B         	goto	i2l1256
  4702  00164A                     i2u7010:
  4703                           	line	1537
  4704                           ;main.c: 1537: new_note = 0x4f;
  4705  00164A  0101               	movlb	1	; () banked
  4706  00164C  6F1C               	movwf	(??_getNote+3+0)&0ffh
  4707  00164E  0E4F               	movlw	low(04Fh)
  4708  001650  0101               	movlb	1	; () banked
  4709  001652  0101               	movlb	1	; () banked
  4710  001654  6F19               	movwf	((getNote@new_note))&0ffh
  4711  001656  0101               	movlb	1	; () banked
  4712  001658  511C               	movf	(??_getNote+3+0)&0ffh,w
  4713                           	line	1538
  4714                           ;main.c: 1538: led_array[2] = 1;
  4715  00165A  0E01               	movlw	low(01h)
  4716  00165C  6E04               	movwf	(0+((c:0)+04h)),c
  4717  00165E  0E00               	movlw	high(01h)
  4718  001660  6E05               	movwf	(1+((c:0)+04h)),c
  4719                           	line	1539
  4720                           ;main.c: 1539: led_array[12] = 1;
  4721  001662  0E01               	movlw	low(01h)
  4722  001664  6E18               	movwf	(0+((c:0)+018h)),c
  4723  001666  0E00               	movlw	high(01h)
  4724  001668  6E19               	movwf	(1+((c:0)+018h)),c
  4725                           	line	1540
  4726                           ;main.c: 1540: } else {
  4727  00166A  EF3F  F00B         	goto	i2l1253
  4728                           	
  4729  00166E                     i2l1256:		; BSR set to: ?
  4730                           
  4731                           	line	1542
  4732                           ;main.c: 1542: new_note = 0x00;
  4733  00166E  0101               	movlb	1	; () banked
  4734  001670  6F1C               	movwf	(??_getNote+3+0)&0ffh
  4735  001672  0E00               	movlw	low(0)
  4736  001674  0101               	movlb	1	; () banked
  4737  001676  0101               	movlb	1	; () banked
  4738  001678  6F19               	movwf	((getNote@new_note))&0ffh
  4739  00167A  0101               	movlb	1	; () banked
  4740  00167C  511C               	movf	(??_getNote+3+0)&0ffh,w
  4741                           	line	1543
  4742                           	
  4743  00167E                     i2l1257:		; BSR set to: ?
  4744                           
  4745                           	
  4746  00167E                     i2l1255:		; BSR set to: ?
  4747                           
  4748                           	
  4749  00167E                     i2l1253:		; BSR set to: ?
  4750                           
  4751                           	line	1545
  4752                           ;main.c: 1543: }
  4753                           ;main.c: 1545: } else if (hResult == 0x02) {
  4754  00167E  EF55  F00C         	goto	i2l1112
  4755                           	
  4756  001682                     i2l1251:		; BSR set to: ?
  4757                           
  4758  001682  0101               	movlb	1	; () banked
  4759  001684  0101               	movlb	1	; () banked
  4760  001686  5117               	movf	((getNote@hResult))&0ffh,w
  4761  001688  0A02               	xorlw	2
  4762                           
  4763  00168A  A4D8               	btfss	status,2
  4764  00168C  EF4A  F00B         	goto	i2u7021
  4765  001690  EF4C  F00B         	goto	i2u7020
  4766  001694                     i2u7021:
  4767  001694  EFCC  F00B         	goto	i2l1259
  4768  001698                     i2u7020:
  4769                           	line	1546
  4770                           ;main.c: 1546: if (lResult >= 200 && lResult <= 
                                 229) {
  4771  001698  0EC7               	movlw	(0C8h-1)
  4772  00169A  0101               	movlb	1	; () banked
  4773  00169C  0101               	movlb	1	; () banked
  4774  00169E  6518               	cpfsgt	((getNote@lResult))&0ffh
  4775  0016A0  EF54  F00B         	goto	i2u7031
  4776  0016A4  EF56  F00B         	goto	i2u7030
  4777  0016A8                     i2u7031:
  4778  0016A8  EF72  F00B         	goto	i2l1260
  4779  0016AC                     i2u7030:
  4780  0016AC  0EE6               	movlw	(0E6h)&0ffh
  4781  0016AE  0101               	movlb	1	; () banked
  4782  0016B0  0101               	movlb	1	; () banked
  4783  0016B2  6118               	cpfslt	((getNote@lResult))&0ffh
  4784  0016B4  EF5E  F00B         	goto	i2u7041
  4785  0016B8  EF60  F00B         	goto	i2u7040
  4786  0016BC                     i2u7041:
  4787  0016BC  EF72  F00B         	goto	i2l1260
  4788  0016C0                     i2u7040:
  4789                           	line	1548
  4790                           ;main.c: 1548: new_note = 0x37;
  4791  0016C0  0101               	movlb	1	; () banked
  4792  0016C2  6F1C               	movwf	(??_getNote+3+0)&0ffh
  4793  0016C4  0E37               	movlw	low(037h)
  4794  0016C6  0101               	movlb	1	; () banked
  4795  0016C8  0101               	movlb	1	; () banked
  4796  0016CA  6F19               	movwf	((getNote@new_note))&0ffh
  4797  0016CC  0101               	movlb	1	; () banked
  4798  0016CE  511C               	movf	(??_getNote+3+0)&0ffh,w
  4799                           	line	1549
  4800                           ;main.c: 1549: led_array[2] = 1;
  4801  0016D0  0E01               	movlw	low(01h)
  4802  0016D2  6E04               	movwf	(0+((c:0)+04h)),c
  4803  0016D4  0E00               	movlw	high(01h)
  4804  0016D6  6E05               	movwf	(1+((c:0)+04h)),c
  4805                           	line	1550
  4806                           ;main.c: 1550: led_array[9] = 1;
  4807  0016D8  0E01               	movlw	low(01h)
  4808  0016DA  6E12               	movwf	(0+((c:0)+012h)),c
  4809  0016DC  0E00               	movlw	high(01h)
  4810  0016DE  6E13               	movwf	(1+((c:0)+012h)),c
  4811                           	line	1551
  4812                           ;main.c: 1551: } else if (lResult >= 139 && lRes
                                 ult <= 192) {
  4813  0016E0  EFCA  F00B         	goto	i2l1261
  4814                           	
  4815  0016E4                     i2l1260:		; BSR set to: ?
  4816                           
  4817  0016E4  0E8A               	movlw	(08Bh-1)
  4818  0016E6  0101               	movlb	1	; () banked
  4819  0016E8  0101               	movlb	1	; () banked
  4820  0016EA  6518               	cpfsgt	((getNote@lResult))&0ffh
  4821  0016EC  EF7A  F00B         	goto	i2u7051
  4822  0016F0  EF7C  F00B         	goto	i2u7050
  4823  0016F4                     i2u7051:
  4824  0016F4  EF9C  F00B         	goto	i2l1262
  4825  0016F8                     i2u7050:
  4826  0016F8  0EC1               	movlw	(0C1h)&0ffh
  4827  0016FA  0101               	movlb	1	; () banked
  4828  0016FC  0101               	movlb	1	; () banked
  4829  0016FE  6118               	cpfslt	((getNote@lResult))&0ffh
  4830  001700  EF84  F00B         	goto	i2u7061
  4831  001704  EF86  F00B         	goto	i2u7060
  4832  001708                     i2u7061:
  4833  001708  EF9C  F00B         	goto	i2l1262
  4834  00170C                     i2u7060:
  4835                           	line	1553
  4836                           ;main.c: 1553: new_note = 0x27;
  4837  00170C  0101               	movlb	1	; () banked
  4838  00170E  6F1C               	movwf	(??_getNote+3+0)&0ffh
  4839  001710  0E27               	movlw	low(027h)
  4840  001712  0101               	movlb	1	; () banked
  4841  001714  0101               	movlb	1	; () banked
  4842  001716  6F19               	movwf	((getNote@new_note))&0ffh
  4843  001718  0101               	movlb	1	; () banked
  4844  00171A  511C               	movf	(??_getNote+3+0)&0ffh,w
  4845                           	line	1554
  4846                           ;main.c: 1554: led_array[2] = 1;
  4847  00171C  0E01               	movlw	low(01h)
  4848  00171E  6E04               	movwf	(0+((c:0)+04h)),c
  4849  001720  0E00               	movlw	high(01h)
  4850  001722  6E05               	movwf	(1+((c:0)+04h)),c
  4851                           	line	1555
  4852                           ;main.c: 1555: led_array[9] = 1;
  4853  001724  0E01               	movlw	low(01h)
  4854  001726  6E12               	movwf	(0+((c:0)+012h)),c
  4855  001728  0E00               	movlw	high(01h)
  4856  00172A  6E13               	movwf	(1+((c:0)+012h)),c
  4857                           	line	1556
  4858                           ;main.c: 1556: led_array[10] = 1;
  4859  00172C  0E01               	movlw	low(01h)
  4860  00172E  6E14               	movwf	(0+((c:0)+014h)),c
  4861  001730  0E00               	movlw	high(01h)
  4862  001732  6E15               	movwf	(1+((c:0)+014h)),c
  4863                           	line	1557
  4864                           ;main.c: 1557: } else if (lResult >= 107 && lRes
                                 ult <= 140) {
  4865  001734  EFCA  F00B         	goto	i2l1261
  4866                           	
  4867  001738                     i2l1262:		; BSR set to: ?
  4868                           
  4869  001738  0E6A               	movlw	(06Bh-1)
  4870  00173A  0101               	movlb	1	; () banked
  4871  00173C  0101               	movlb	1	; () banked
  4872  00173E  6518               	cpfsgt	((getNote@lResult))&0ffh
  4873  001740  EFA4  F00B         	goto	i2u7071
  4874  001744  EFA6  F00B         	goto	i2u7070
  4875  001748                     i2u7071:
  4876  001748  EFC2  F00B         	goto	i2l1264
  4877  00174C                     i2u7070:
  4878  00174C  0E8D               	movlw	(08Dh)&0ffh
  4879  00174E  0101               	movlb	1	; () banked
  4880  001750  0101               	movlb	1	; () banked
  4881  001752  6118               	cpfslt	((getNote@lResult))&0ffh
  4882  001754  EFAE  F00B         	goto	i2u7081
  4883  001758  EFB0  F00B         	goto	i2u7080
  4884  00175C                     i2u7081:
  4885  00175C  EFC2  F00B         	goto	i2l1264
  4886  001760                     i2u7080:
  4887                           	line	1559
  4888                           ;main.c: 1559: new_note = 0x2f;
  4889  001760  0101               	movlb	1	; () banked
  4890  001762  6F1C               	movwf	(??_getNote+3+0)&0ffh
  4891  001764  0E2F               	movlw	low(02Fh)
  4892  001766  0101               	movlb	1	; () banked
  4893  001768  0101               	movlb	1	; () banked
  4894  00176A  6F19               	movwf	((getNote@new_note))&0ffh
  4895  00176C  0101               	movlb	1	; () banked
  4896  00176E  511C               	movf	(??_getNote+3+0)&0ffh,w
  4897                           	line	1560
  4898                           ;main.c: 1560: led_array[2] = 1;
  4899  001770  0E01               	movlw	low(01h)
  4900  001772  6E04               	movwf	(0+((c:0)+04h)),c
  4901  001774  0E00               	movlw	high(01h)
  4902  001776  6E05               	movwf	(1+((c:0)+04h)),c
  4903                           	line	1561
  4904                           ;main.c: 1561: led_array[10] = 1;
  4905  001778  0E01               	movlw	low(01h)
  4906  00177A  6E14               	movwf	(0+((c:0)+014h)),c
  4907  00177C  0E00               	movlw	high(01h)
  4908  00177E  6E15               	movwf	(1+((c:0)+014h)),c
  4909                           	line	1562
  4910                           ;main.c: 1562: } else {
  4911  001780  EFCA  F00B         	goto	i2l1261
  4912                           	
  4913  001784                     i2l1264:		; BSR set to: ?
  4914                           
  4915                           	line	1564
  4916                           ;main.c: 1564: new_note = 0x00;
  4917  001784  0101               	movlb	1	; () banked
  4918  001786  6F1C               	movwf	(??_getNote+3+0)&0ffh
  4919  001788  0E00               	movlw	low(0)
  4920  00178A  0101               	movlb	1	; () banked
  4921  00178C  0101               	movlb	1	; () banked
  4922  00178E  6F19               	movwf	((getNote@new_note))&0ffh
  4923  001790  0101               	movlb	1	; () banked
  4924  001792  511C               	movf	(??_getNote+3+0)&0ffh,w
  4925                           	line	1565
  4926                           	
  4927  001794                     i2l1265:		; BSR set to: ?
  4928                           
  4929                           	
  4930  001794                     i2l1263:		; BSR set to: ?
  4931                           
  4932                           	
  4933  001794                     i2l1261:		; BSR set to: ?
  4934                           
  4935                           	line	1567
  4936                           ;main.c: 1565: }
  4937                           ;main.c: 1567: } else if (hResult == 0x03) {
  4938  001794  EF55  F00C         	goto	i2l1112
  4939                           	
  4940  001798                     i2l1259:		; BSR set to: ?
  4941                           
  4942  001798  0101               	movlb	1	; () banked
  4943  00179A  0101               	movlb	1	; () banked
  4944  00179C  5117               	movf	((getNote@hResult))&0ffh,w
  4945  00179E  0A03               	xorlw	3
  4946                           
  4947  0017A0  A4D8               	btfss	status,2
  4948  0017A2  EFD5  F00B         	goto	i2u7091
  4949  0017A6  EFD7  F00B         	goto	i2u7090
  4950  0017AA                     i2u7091:
  4951  0017AA  EF55  F00C         	goto	i2l1112
  4952  0017AE                     i2u7090:
  4953                           	line	1568
  4954                           ;main.c: 1568: if (lResult >= 165 && lResult <= 
                                 190) {
  4955  0017AE  0EA4               	movlw	(0A5h-1)
  4956  0017B0  0101               	movlb	1	; () banked
  4957  0017B2  0101               	movlb	1	; () banked
  4958  0017B4  6518               	cpfsgt	((getNote@lResult))&0ffh
  4959  0017B6  EFDF  F00B         	goto	i2u7101
  4960  0017BA  EFE1  F00B         	goto	i2u7100
  4961  0017BE                     i2u7101:
  4962  0017BE  EFFD  F00B         	goto	i2l1268
  4963  0017C2                     i2u7100:
  4964  0017C2  0EBF               	movlw	(0BFh)&0ffh
  4965  0017C4  0101               	movlb	1	; () banked
  4966  0017C6  0101               	movlb	1	; () banked
  4967  0017C8  6118               	cpfslt	((getNote@lResult))&0ffh
  4968  0017CA  EFE9  F00B         	goto	i2u7111
  4969  0017CE  EFEB  F00B         	goto	i2u7110
  4970  0017D2                     i2u7111:
  4971  0017D2  EFFD  F00B         	goto	i2l1268
  4972  0017D6                     i2u7110:
  4973                           	line	1570
  4974                           ;main.c: 1570: new_note = 0x17;
  4975  0017D6  0101               	movlb	1	; () banked
  4976  0017D8  6F1C               	movwf	(??_getNote+3+0)&0ffh
  4977  0017DA  0E17               	movlw	low(017h)
  4978  0017DC  0101               	movlb	1	; () banked
  4979  0017DE  0101               	movlb	1	; () banked
  4980  0017E0  6F19               	movwf	((getNote@new_note))&0ffh
  4981  0017E2  0101               	movlb	1	; () banked
  4982  0017E4  511C               	movf	(??_getNote+3+0)&0ffh,w
  4983                           	line	1571
  4984                           ;main.c: 1571: led_array[2] = 1;
  4985  0017E6  0E01               	movlw	low(01h)
  4986  0017E8  6E04               	movwf	(0+((c:0)+04h)),c
  4987  0017EA  0E00               	movlw	high(01h)
  4988  0017EC  6E05               	movwf	(1+((c:0)+04h)),c
  4989                           	line	1572
  4990                           ;main.c: 1572: led_array[7] = 1;
  4991  0017EE  0E01               	movlw	low(01h)
  4992  0017F0  6E0E               	movwf	(0+((c:0)+0Eh)),c
  4993  0017F2  0E00               	movlw	high(01h)
  4994  0017F4  6E0F               	movwf	(1+((c:0)+0Eh)),c
  4995                           	line	1574
  4996                           ;main.c: 1574: } else if (lResult >= 130 && lRes
                                 ult <= 160) {
  4997  0017F6  EF55  F00C         	goto	i2l1112
  4998                           	
  4999  0017FA                     i2l1268:		; BSR set to: ?
  5000                           
  5001  0017FA  0E81               	movlw	(082h-1)
  5002  0017FC  0101               	movlb	1	; () banked
  5003  0017FE  0101               	movlb	1	; () banked
  5004  001800  6518               	cpfsgt	((getNote@lResult))&0ffh
  5005  001802  EF05  F00C         	goto	i2u7121
  5006  001806  EF07  F00C         	goto	i2u7120
  5007  00180A                     i2u7121:
  5008  00180A  EF27  F00C         	goto	i2l1270
  5009  00180E                     i2u7120:
  5010  00180E  0EA1               	movlw	(0A1h)&0ffh
  5011  001810  0101               	movlb	1	; () banked
  5012  001812  0101               	movlb	1	; () banked
  5013  001814  6118               	cpfslt	((getNote@lResult))&0ffh
  5014  001816  EF0F  F00C         	goto	i2u7131
  5015  00181A  EF11  F00C         	goto	i2u7130
  5016  00181E                     i2u7131:
  5017  00181E  EF27  F00C         	goto	i2l1270
  5018  001822                     i2u7130:
  5019                           	line	1576
  5020                           ;main.c: 1576: new_note = 0x07;
  5021  001822  0101               	movlb	1	; () banked
  5022  001824  6F1C               	movwf	(??_getNote+3+0)&0ffh
  5023  001826  0E07               	movlw	low(07h)
  5024  001828  0101               	movlb	1	; () banked
  5025  00182A  0101               	movlb	1	; () banked
  5026  00182C  6F19               	movwf	((getNote@new_note))&0ffh
  5027  00182E  0101               	movlb	1	; () banked
  5028  001830  511C               	movf	(??_getNote+3+0)&0ffh,w
  5029                           	line	1577
  5030                           ;main.c: 1577: led_array[2] = 1;
  5031  001832  0E01               	movlw	low(01h)
  5032  001834  6E04               	movwf	(0+((c:0)+04h)),c
  5033  001836  0E00               	movlw	high(01h)
  5034  001838  6E05               	movwf	(1+((c:0)+04h)),c
  5035                           	line	1578
  5036                           ;main.c: 1578: led_array[7] = 1;
  5037  00183A  0E01               	movlw	low(01h)
  5038  00183C  6E0E               	movwf	(0+((c:0)+0Eh)),c
  5039  00183E  0E00               	movlw	high(01h)
  5040  001840  6E0F               	movwf	(1+((c:0)+0Eh)),c
  5041                           	line	1579
  5042                           ;main.c: 1579: led_array[8] = 1;
  5043  001842  0E01               	movlw	low(01h)
  5044  001844  6E10               	movwf	(0+((c:0)+010h)),c
  5045  001846  0E00               	movlw	high(01h)
  5046  001848  6E11               	movwf	(1+((c:0)+010h)),c
  5047                           	line	1580
  5048                           ;main.c: 1580: } else if (lResult >= 107 && lRes
                                 ult <= 125) {
  5049  00184A  EF55  F00C         	goto	i2l1112
  5050                           	
  5051  00184E                     i2l1270:		; BSR set to: ?
  5052                           
  5053  00184E  0E6A               	movlw	(06Bh-1)
  5054  001850  0101               	movlb	1	; () banked
  5055  001852  0101               	movlb	1	; () banked
  5056  001854  6518               	cpfsgt	((getNote@lResult))&0ffh
  5057  001856  EF2F  F00C         	goto	i2u7141
  5058  00185A  EF31  F00C         	goto	i2u7140
  5059  00185E                     i2u7141:
  5060  00185E  EF4D  F00C         	goto	i2l1272
  5061  001862                     i2u7140:
  5062  001862  0E7E               	movlw	(07Eh)&0ffh
  5063  001864  0101               	movlb	1	; () banked
  5064  001866  0101               	movlb	1	; () banked
  5065  001868  6118               	cpfslt	((getNote@lResult))&0ffh
  5066  00186A  EF39  F00C         	goto	i2u7151
  5067  00186E  EF3B  F00C         	goto	i2u7150
  5068  001872                     i2u7151:
  5069  001872  EF4D  F00C         	goto	i2l1272
  5070  001876                     i2u7150:
  5071                           	line	1582
  5072                           ;main.c: 1582: new_note = 0x0f;
  5073  001876  0101               	movlb	1	; () banked
  5074  001878  6F1C               	movwf	(??_getNote+3+0)&0ffh
  5075  00187A  0E0F               	movlw	low(0Fh)
  5076  00187C  0101               	movlb	1	; () banked
  5077  00187E  0101               	movlb	1	; () banked
  5078  001880  6F19               	movwf	((getNote@new_note))&0ffh
  5079  001882  0101               	movlb	1	; () banked
  5080  001884  511C               	movf	(??_getNote+3+0)&0ffh,w
  5081                           	line	1583
  5082                           ;main.c: 1583: led_array[2] = 1;
  5083  001886  0E01               	movlw	low(01h)
  5084  001888  6E04               	movwf	(0+((c:0)+04h)),c
  5085  00188A  0E00               	movlw	high(01h)
  5086  00188C  6E05               	movwf	(1+((c:0)+04h)),c
  5087                           	line	1584
  5088                           ;main.c: 1584: led_array[8] = 1;
  5089  00188E  0E01               	movlw	low(01h)
  5090  001890  6E10               	movwf	(0+((c:0)+010h)),c
  5091  001892  0E00               	movlw	high(01h)
  5092  001894  6E11               	movwf	(1+((c:0)+010h)),c
  5093                           	line	1585
  5094                           ;main.c: 1585: } else {
  5095  001896  EF55  F00C         	goto	i2l1112
  5096                           	
  5097  00189A                     i2l1272:		; BSR set to: ?
  5098                           
  5099                           	line	1587
  5100                           ;main.c: 1587: new_note = 0x00;
  5101  00189A  0101               	movlb	1	; () banked
  5102  00189C  6F1C               	movwf	(??_getNote+3+0)&0ffh
  5103  00189E  0E00               	movlw	low(0)
  5104  0018A0  0101               	movlb	1	; () banked
  5105  0018A2  0101               	movlb	1	; () banked
  5106  0018A4  6F19               	movwf	((getNote@new_note))&0ffh
  5107  0018A6  0101               	movlb	1	; () banked
  5108  0018A8  511C               	movf	(??_getNote+3+0)&0ffh,w
  5109                           	line	1588
  5110                           	
  5111  0018AA                     i2l1273:		; BSR set to: ?
  5112                           
  5113                           	
  5114  0018AA                     i2l1271:		; BSR set to: ?
  5115                           
  5116                           	
  5117  0018AA                     i2l1269:		; BSR set to: ?
  5118                           
  5119                           	line	1590
  5120                           	
  5121  0018AA                     i2l1267:		; BSR set to: ?
  5122                           
  5123                           	line	1592
  5124                           	
  5125  0018AA                     i2l1266:		; BSR set to: ?
  5126                           
  5127                           	
  5128  0018AA                     i2l1258:		; BSR set to: ?
  5129                           
  5130                           	
  5131  0018AA                     i2l1250:		; BSR set to: ?
  5132                           
  5133                           	
  5134  0018AA                     i2l1248:		; BSR set to: ?
  5135                           
  5136                           	line	1593
  5137                           	
  5138  0018AA                     i2l1247:		; BSR set to: ?
  5139                           
  5140                           	
  5141  0018AA                     i2l1220:		; BSR set to: ?
  5142                           
  5143                           	
  5144  0018AA                     i2l1193:		; BSR set to: ?
  5145                           
  5146                           	
  5147  0018AA                     i2l1166:		; BSR set to: ?
  5148                           
  5149                           	
  5150  0018AA                     i2l1139:		; BSR set to: ?
  5151                           
  5152                           	
  5153  0018AA                     i2l1112:		; BSR set to: ?
  5154                           
  5155                           ;main.c: 1588: }
  5156                           ;main.c: 1590: }
  5157                           ;main.c: 1592: }
  5158                           ;main.c: 1593: return new_note;
  5159  0018AA  0101               	movlb	1	; () banked
  5160  0018AC  0101               	movlb	1	; () banked
  5161  0018AE  5119               	movf	((getNote@new_note))&0ffh,w
  5162  0018B0  EF5A  F00C         	goto	i2l1082
  5163                           	line	1594
  5164                           ;main.c: 1594: }
  5165  0018B4                     i2l1082:
  5166                           			; BSR set to: ?
  5167                           
  5168  0018B4  0012               	return
  5169                           	opt stack 0
  5170                           GLOBAL __end_of_getNote
  5171  0018B6                     	__end_of_getNote:
  5172                           	FNSIZE	_getNote,4,2
  5173                           ; =============== function _getNote ends =======
                                 =====
  5174                           
  5175                           	signat	_getNote,8313
  5176                           	FNROOT	_main
  5177                           	FNCALL	_my_isr,_adc_conversion
  5178                           	FNCALL	_adc_conversion,_getNote
  5179                           	FNCALL	intlevel2,_my_isr
  5180                           	global	intlevel2
  5181                           	FNROOT	intlevel2
  5182                                   psect   const,class=CODE,space=0,reloc=2
  5183                           	global	_led_array
  5184                           	global	_led_array
  5185  000000                     _led_array  equ     0
  5186                           
  5187                           	DABS	1,0,26	;_led_array
  5188                           	global	_cur_inputs
  5189                           	global	_cur_inputs
  5190  000000                     _cur_inputs  equ     28
  5191                           
  5192                           	DABS	1,28,7	;_cur_inputs
  5193                           	global	_prev_inputs
  5194                           	global	_prev_inputs
  5195  000000                     _prev_inputs  equ     35
  5196                           
  5197                           	DABS	1,35,7	;_prev_inputs
  5198                           	global	_conv_result
  5199                           	global	_conv_result
  5200  000000                     _conv_result  equ     26
  5201                           
  5202                           	DABS	1,26,2	;_conv_result
  5203                           	global	_index
  5204                           	global	_index
  5205  000000                     _index  equ     47
  5206                           
  5207                           	DABS	1,47,2	;_index
  5208                           	global	_USART_Status
  5209                           	global	_USART_Status
  5210  000000                     _USART_Status  equ     45
  5211                           
  5212                           	DABS	1,45,1	;_USART_Status
  5213                           	global	_adc_num
  5214                           	global	_adc_num
  5215  000000                     _adc_num  equ     42
  5216                           
  5217                           	DABS	1,42,1	;_adc_num
  5218                           	global	_change_val
  5219                           	global	_change_val
  5220  000000                     _change_val  equ     44
  5221                           
  5222                           	DABS	1,44,1	;_change_val
  5223                           	global	_new_note
  5224                           	global	_new_note
  5225  000000                     _new_note  equ     46
  5226                           
  5227                           	DABS	1,46,1	;_new_note
  5228                           	global	_uart_out
  5229                           	global	_uart_out
  5230  000000                     _uart_out  equ     43
  5231                           
  5232                           	DABS	1,43,1	;_uart_out
  5233                           	global	_ADCON0
  5234  000000                     _ADCON0	equ	0xFC2
  5235                           	global	_ADCON1
  5236  000000                     _ADCON1	equ	0xFC1
  5237                           	global	_ADCON2
  5238  000000                     _ADCON2	equ	0xFC0
  5239                           	global	_ADRESH
  5240  000000                     _ADRESH	equ	0xFC4
  5241                           	global	_ADRESL
  5242  000000                     _ADRESL	equ	0xFC3
  5243                           	global	_BAUDCON
  5244  000000                     _BAUDCON	equ	0xFB8
  5245                           	global	_INTCON
  5246  000000                     _INTCON	equ	0xFF2
  5247                           	global	_LATA
  5248  000000                     _LATA	equ	0xF89
  5249                           	global	_LATB
  5250  000000                     _LATB	equ	0xF8A
  5251                           	global	_LATC
  5252  000000                     _LATC	equ	0xF8B
  5253                           	global	_OSCCON
  5254  000000                     _OSCCON	equ	0xFD3
  5255                           	global	_PIR1
  5256  000000                     _PIR1	equ	0xF9E
  5257                           	global	_RCREG
  5258  000000                     _RCREG	equ	0xFAE
  5259                           	global	_RCSTA
  5260  000000                     _RCSTA	equ	0xFAB
  5261                           	global	_SPBRG
  5262  000000                     _SPBRG	equ	0xFAF
  5263                           	global	_SPBRGH
  5264  000000                     _SPBRGH	equ	0xFB0
  5265                           	global	_T0CON
  5266  000000                     _T0CON	equ	0xFD5
  5267                           	global	_TRISA
  5268  000000                     _TRISA	equ	0xF92
  5269                           	global	_TRISB
  5270  000000                     _TRISB	equ	0xF93
  5271                           	global	_TRISC
  5272  000000                     _TRISC	equ	0xF94
  5273                           	global	_TXREG
  5274  000000                     _TXREG	equ	0xFAD
  5275                           	global	_TXSTA
  5276  000000                     _TXSTA	equ	0xFAC
  5277                           	global	_ADON
  5278  000000                     _ADON	equ	0x7E10
  5279                           	global	_BRGH_x
  5280  000000                     _BRGH_x	equ	0x7D62
  5281                           	global	_CREN_x
  5282  000000                     _CREN_x	equ	0x7D5C
  5283                           	global	_CSRC_x
  5284  000000                     _CSRC_x	equ	0x7D67
  5285                           	global	_FERR
  5286  000000                     _FERR	equ	0x7D5A
  5287                           	global	_GODONE
  5288  000000                     _GODONE	equ	0x7E11
  5289                           	global	_OERR
  5290  000000                     _OERR	equ	0x7D59
  5291                           	global	_RCIE_x
  5292  000000                     _RCIE_x	equ	0x7CED
  5293                           	global	_RCIF
  5294  000000                     _RCIF	equ	0x7CF5
  5295                           	global	_RX9D
  5296  000000                     _RX9D	equ	0x7D58
  5297                           	global	_RX9_x
  5298  000000                     _RX9_x	equ	0x7D5E
  5299                           	global	_SENDB_x
  5300  000000                     _SENDB_x	equ	0x7D63
  5301                           	global	_SPEN_x
  5302  000000                     _SPEN_x	equ	0x7D5F
  5303                           	global	_SREN_x
  5304  000000                     _SREN_x	equ	0x7D5D
  5305                           	global	_SYNC_x
  5306  000000                     _SYNC_x	equ	0x7D64
  5307                           	global	_TMR0IE
  5308  000000                     _TMR0IE	equ	0x7F95
  5309                           	global	_TMR0IF
  5310  000000                     _TMR0IF	equ	0x7F92
  5311                           	global	_TMR0IP
  5312  000000                     _TMR0IP	equ	0x7F8A
  5313                           	global	_TRISC6
  5314  000000                     _TRISC6	equ	0x7CA6
  5315                           	global	_TRISC7
  5316  000000                     _TRISC7	equ	0x7CA7
  5317                           	global	_TRMT_x
  5318  000000                     _TRMT_x	equ	0x7D61
  5319                           	global	_TX9D
  5320  000000                     _TX9D	equ	0x7D60
  5321                           	global	_TX9_x
  5322  000000                     _TX9_x	equ	0x7D66
  5323                           	global	_TXEN_x
  5324  000000                     _TXEN_x	equ	0x7D65
  5325                           	global	_TXIE_x
  5326  000000                     _TXIE_x	equ	0x7CEC
  5327                           	global	_TXIF
  5328  000000                     _TXIF	equ	0x7CF4
  5329                           	psect	intsave_regs,class=BIGRAM,space=1
  5330                           	PSECT	param1,class=BANK1,space=1
  5331                           	GLOBAL	__Lparam1
  5332                           	FNCONF	param1,??,?
  5333                           	GLOBAL	__Labsbss0
  5334  000000                     __Labsbss0	EQU	0
  5335                           	GLOBAL	__Habsbss0
  5336  000000                     __Habsbss0	EQU	49
  5337                           GLOBAL	__Lparam, __Hparam
  5338                           GLOBAL	__Lparam1, __Hparam1
  5339  000000                     __Lparam	EQU	__Lparam1
  5340  000000                     __Hparam	EQU	__Hparam1


HI-TECH Software PICC-18 Macro Assembler V9.66 build 8870 
Symbol Table                                           Mon May 07 19:36:03 2012

                    l871 1B22                      l873 1B32  
                    l868 1B3E                      l869 1B1E  
                   _ADON 007E10                     _FERR 007D5A  
                   _LATA 000F89                     _LATB 000F8A  
                   _LATC 000F8B                     _RCIF 007CF5  
                   _PIR1 000F9E                     _OERR 007D59  
                   u8720 1B32                     u8721 1B2E  
                   _RX9D 007D58                     _TX9D 007D60  
                   _TXIF 007CF4                     _main 1AD6  
                   fsr0h 000FEA                     fsr1h 000FE2  
                   indf0 000FEF                     fsr0l 000FE9  
                   fsr2h 000FDA                     indf1 000FE7  
                   fsr1l 000FE1                     fsr2l 000FD9  
                   pclat 000FFA                     prodh 000FF4  
                   prodl 000FF3                     start 0018  
                  ?_main 0100                    _T0CON 000FD5  
                  _RCREG 000FAE                    _RCSTA 000FAB  
                  _SPBRG 000FAF                    _TRISA 000F92  
                  _TRISB 000F93                    _TRISC 000F94  
                  _RX9_x 007D5E                    _TXREG 000FAD  
                  _TX9_x 007D66                    _TXSTA 000FAC  
        __end_of_getNote 18B6                    _index 00002F  
                  tablat 000FF5                    status 000FD8  
           __end_of_main 1B46                   ??_main 0104  
          __activetblptr 000000                   _ADCON0 000FC2  
                 _ADCON1 000FC1                   _ADCON2 000FC0  
                 _ADRESH 000FC4                   _ADRESL 000FC3  
                 _BRGH_x 007D62                   _GODONE 007E11  
                 _CREN_x 007D5C                   i2l1100 02BA  
                 i2l1101 0316                   i2l1110 041C  
                 i2l1102 0306                   i2l1111 042C  
                 i2l1103 0316                   i2l1200 0F5A  
                 i2l1120 0576                   i2l1112 18AA  
                 i2l1104 042C                   i2l1201 0FB6  
                 i2l1121 0566                   i2l1113 0792  
                 i2l1105 042C                   _CSRC_x 007D67  
                 i2l1210 10A8                   i2l1202 0FA6  
                 i2l1130 068C                   i2l1122 0576  
                 i2l1114 0466                   i2l1106 037C  
                 i2l1211 10B8                   i2l1203 0FB6  
                 i2l1123 078E                   i2l1131 078E  
                 i2l1115 078E                   i2l1107 042C  
                 i2l1220 18AA                   i2l1204 11CE  
                 i2l1212 11CE                   i2l1140 0B0A  
                 i2l1132 078E                   i2l1124 0690  
                 i2l1116 057A                   i2l1108 03D0  
                 i2l1221 1536                   i2l1213 11CE  
                 i2l1205 10BC                   i2l1141 07CA  
                 i2l1133 06DE                   i2l1125 05DC  
                 i2l1117 04C6                   i2l1109 042C  
                 i2l1061 19AC                   i2l1230 131A  
                 i2l1222 120A                   i2l1214 111E  
                 i2l1206 1008                   i2l1150 0B06  
                 i2l1142 0B06                   i2l1134 078E  
                 i2l1126 068C                   i2l1118 0576  
                 i2l1070 1A64                   i2l1062 19B8  
                 i2l1231 1532                   i2l1223 1532  
                 i2l1215 11CE                   i2l1207 10B8  
                 i2l1151 09F4                   i2l1143 08DE  
                 i2l1135 0732                   i2l1127 0618  
                 i2l1119 051A                   i2l1071 1A2C  
                 i2l1055 19E4                   i2l1240 1532  
                 i2l1232 1420                   i2l1224 131E  
                 i2l1216 1172                   i2l1208 105C  
                 i2l1160 0A56                   i2l1152 0940  
                 i2l1144 082A                   i2l1136 078E  
                 i2l1128 068C                   i2l1080 1A9C  
                 i2l1072 1A34                   i2l1064 19C6  
                 i2l1056 19E2                   i2l1241 1482  
                 i2l1233 136C                   i2l1225 126A  
                 i2l1217 11CE                   i2l1209 10B8  
                 i2l1161 0B06                   i2l1153 09F0  
                 i2l1145 08DA                   i2l1137 077E  
                 i2l1129 066C                   i2l1081 1AD4  
                 i2l1073 1A3C                   i2l1065 19D2  
                 i2l1057 1986                   i2l1082 18B4  
                 i2l1250 18AA                   i2l1242 1532  
                 i2l1234 141C                   i2l1226 131A  
                 i2l1218 11BE                   i2l1170 0C56  
                 i2l1162 0AAA                   i2l1154 0994  
                 i2l1146 087E                   i2l1138 078E  
                 i2l1090 0150                   i2l1074 1A44  
                 i2l1058 1992                   i2l1139 18AA  
                 i2l1251 1682                   i2l1243 14D6  
                 i2l1235 13C0                   i2l1227 12B6  
                 i2l1219 11CE                   i2l1171 0BA2  
                 i2l1163 0B06                   i2l1155 09F0  
                 i2l1147 08DA                   i2l1091 0200  
                 i2l1083 0074                   i2l1075 1A4C  
                 i2l1067 19E0                   i2l1059 199E  
                 i2l1260 16E4                   i2l1252 15CE  
                 i2l1244 1532                   i2l1236 141C  
                 i2l1228 131A                   i2l1180 0D54  
                 i2l1172 0C52                   i2l1164 0AF6  
                 i2l1156 09E0                   i2l1148 08CA  
                 i2l1092 01A4                   i2l1084 00BC  
                 i2l1068 1AD4                   i2l1076 1A54  
                 i2l1261 1794                   i2l1253 167E  
                 i2l1245 1522                   i2l1237 140C  
                 i2l1229 130A                   i2l1181 0CF8  
                 i2l1173 0BF6                   i2l1165 0B06  
                 i2l1157 09F0                   i2l1149 08DA  
                 i2l1093 0200                   i2l1077 1A5C  
                 i2l1069 1A86                   i2l1166 18AA  
                 i2l1270 184E                   i2l1262 1738  
                 i2l1254 1622                   i2l1246 1532  
                 i2l1238 141C                   i2l1190 0E6A  
                 i2l1182 0D54                   i2l1174 0C52  
                 i2l1158 0B06                   i2l1094 01F0  
                 i2l1086 0430                   i2l1078 1A8E  
                 i2l1247 18AA                   i2l1271 18AA  
                 i2l1263 1794                   i2l1255 167E  
                 i2l1239 1532                   i2l1191 0E5A  
                 i2l1183 0D44                   i2l1175 0C42  
                 i2l1167 0E6E                   i2l1159 0B06  
                 i2l1095 0200                   i2l1087 00F0  
                 i2l1248 18AA                   i2l1272 189A  
                 i2l1264 1784                   i2l1256 166E  
                 i2l1192 0E6A                   i2l1184 0D54  
                 i2l1176 0C52                   i2l1168 0B42  
                 i2l1096 042C                   i2l1088 042C  
                 i2l1193 18AA                   i2l1273 18AA  
                 i2l1265 1794                   i2l1257 167E  
                 i2l1249 156E                   i2l1177 0E6A  
                 i2l1185 0E6A                   i2l1169 0E6A  
                 i2l1097 031A                   i2l1089 0204  
                 i2l1258 18AA                   i2l1266 18AA  
                 i2l1194 11D2                   i2l1186 0E6A  
                 i2l1178 0D58                   i2l1098 0266  
                 i2l1267 18AA                   i2l1259 1798  
                 i2l1195 0EA6                   i2l1187 0DBA  
                 i2l1179 0CA4                   i2l1099 0316  
                 i2l1268 17FA                   i2l1196 11CE  
                 i2l1188 0E6A                   i2l1269 18AA  
                 i2l1197 0FBA                   i2l1189 0E0E  
                 i2l1198 0F06                   i2l1199 0FB6  
                 _INTCON 000FF2                   _RCIE_x 007CED  
                 i2u6000 06F2                   i2u6001 06EE  
                 i2u6010 0706                   i2u6011 0702  
                 i2u6100 0852                   i2u6020 0746  
                 i2u6101 084E                   i2u6021 0742  
                 i2u6110 0892                   i2u6030 075A  
                 i2u6111 088E                   i2u6031 0756  
                 i2u7000 1636                   i2u6200 0A0A  
                 i2u6120 08A6                   i2u6040 07A4  
                 i2u7001 1632                   i2u6201 0A06  
                 i2u6121 08A2                   i2u6041 07A0  
                 i2u7010 164A                   i2u6210 0A1E  
                 i2u6130 08F4                   i2u6050 07B6  
                 i2u7011 1646                   i2u6211 0A1A  
                 i2u6131 08F0                   i2u6051 07B2  
                 i2u7100 17C2                   i2u7020 1698  
                 i2u6300 0B6A                   i2u6220 0A32  
                 i2u6140 0908                   i2u6060 07DE  
                 i2u7101 17BE                   i2u7021 1694  
                 i2u6301 0B66                   i2u6221 0A2E  
                 i2u6141 0904                   i2u6061 07DA  
                 i2u7110 17D6                   i2u7030 16AC  
                 i2u6310 0B7E                   i2u6230 0A6A  
                 i2u6150 091C                   i2u6070 07F2  
                 i2u7111 17D2                   i2u7031 16A8  
                 i2u6311 0B7A                   i2u6231 0A66  
                 i2u6151 0918                   i2u6071 07EE  
                 _OSCCON 000FD3                   i2u7120 180E  
                 i2u7040 16C0                   i2u6400 0D0C  
                 i2u6320 0BB6                   i2u6240 0A7E  
                 i2u6160 0954                   i2u6080 0806  
                 i2u5600 00DC                   i2u7200 190E  
                 i2u7121 180A                   i2u7041 16BC  
                 i2u6401 0D08                   i2u6321 0BB2  
                 i2u6241 0A7A                   i2u6161 0950  
                 i2u6081 0802                   i2u5601 00D8  
                 i2u7201 190A                   i2u7130 1822  
                 i2u7050 16F8                   i2u6410 0D20  
                 i2u6330 0BCA                   i2u6250 0ABE  
                 i2u6170 0968                   i2u6090 083E  
                 i2u5610 0104                   i2u7210 1954  
                 i2u7131 181E                   i2u7051 16F4  
                 i2u6411 0D1C                   i2u6331 0BC6  
                 i2u6251 0ABA                   i2u6171 0964  
                 i2u6091 083A                   i2u5611 0100  
                 i2u7211 1950                   i2u7140 1862  
                 i2u7060 170C                   i2u6500 0E92  
                 i2u6420 0D6E                   i2u6340 0C0A  
                 i2u6260 0AD2                   i2u6180 09A8  
                 i2u5700 0242                   i2u5620 0118  
                 i2u7220 19AC                   i2u7141 185E  
                 i2u7061 1708                   i2u6501 0E8E  
                 i2u6421 0D6A                   i2u6341 0C06  
                 i2u6261 0ACE                   i2u6181 09A4  
                 i2u5701 023E                   i2u5621 0114  
                 i2u7221 19A8                   i2u7150 1876  
                 i2u7070 174C                   i2u6510 0EBA  
                 i2u6430 0D82                   i2u6350 0C1E  
                 i2u6270 0B1C                   i2u6190 09BC  
                 i2u5710 027A                   i2u5630 012C  
                 i2u7230 19C6                   i2u7151 1872  
                 i2u7071 1748                   i2u6511 0EB6  
                 i2u6431 0D7E                   i2u6351 0C1A  
                 i2u6271 0B18                   i2u6191 09B8  
                 i2u5711 0276                   i2u5631 0128  
                 i2u7231 19C2                   i2u7080 1760  
                 i2u6600 101C                   i2u6520 0ECE  
                 i2u6440 0D96                   i2u6360 0C6C  
                 i2u6280 0B2E                   i2u5800 03E4  
                 i2u5720 028E                   i2u5640 0164  
                 i2u7160 1A9C                   i2u7240 19E0  
                 i2u7081 175C                   i2u6601 1018  
                 i2u6521 0ECA                   i2u6441 0D92  
                 i2u6361 0C68                   i2u6281 0B2A  
                 i2u5801 03E0                   i2u5721 028A  
                 i2u5641 0160                   i2u7161 1A98  
                 i2u7241 19DC                   i2u7090 17AE  
                 i2u6610 1030                   i2u6530 0EE2  
                 i2u6450 0DCE                   i2u6370 0C80  
                 i2u6290 0B56                   i2u5810 03F8  
                 i2u5730 02CE                   i2u5650 0178  
                 i2u5570 0070                   i2u7170 1AD0  
                 i2u7091 17AA                   i2u6611 102C  
                 i2u6531 0EDE                   i2u6451 0DCA  
                 i2u6371 0C7C                   i2u6291 0B52  
                 i2u5811 03F4                   i2u5731 02CA  
                 i2u5651 0174                   i2u5571 006C  
                 i2u7171 1ACC                   i2u6700 119A  
                 i2u6620 1070                   i2u6540 0F1A  
                 i2u6460 0DE2                   i2u6380 0CB8  
                 i2u5900 0542                   i2u5820 0440  
                 i2u5740 02E2                   i2u5660 01B8  
                 i2u5580 00BC                   i2u7180 18F2  
                 i2u6701 1196                   i2u6621 106C  
                 i2u6541 0F16                   i2u6461 0DDE  
                 i2u6381 0CB4                   i2u5901 053E  
                 i2u5821 043C                   i2u5741 02DE  
                 i2u5661 01B4                   i2u5581 00B8  
                 i2u7181 18EE                   i2u6710 11E4  
                 i2u6630 1084                   i2u6550 0F2E  
                 i2u6470 0E22                   i2u6390 0CCC  
                 i2u5910 0590                   i2u5830 0452  
                 i2u5750 0330                   i2u5670 01CC  
                 i2u5590 00CA                   i2u7190 1900  
                 i2u6711 11E0                   i2u6631 1080  
                 i2u6551 0F2A                   i2u6471 0E1E  
                 i2u6391 0CC8                   i2u5911 058C  
                 i2u5831 044E                   i2u5751 032C  
                 i2u5671 01C8                   i2u5591 00C6  
                 i2u7191 18FC                   i2u6800 1334  
                 i2u6720 11F6                   i2u6640 10D2  
                 i2u6560 0F6E                   i2u6480 0E36  
                 i2u5920 05A4                   i2u5840 047A  
                 i2u5760 0344                   i2u5680 021A  
                 i2u6801 1330                   i2u6721 11F2  
                 i2u6641 10CE                   i2u6561 0F6A  
                 i2u6481 0E32                   i2u5921 05A0  
                 i2u5841 0476                   i2u5761 0340  
                 i2u5681 0216                   i2u6810 1348  
                 i2u6730 121E                   i2u6650 10E6  
                 i2u6570 0F82                   i2u6490 0E80  
                 i2u5930 05B8                   i2u5850 048E  
                 i2u5770 0358                   i2u5690 022E  
                 i2u6811 1344                   i2u6731 121A  
                 i2u6651 10E2                   i2u6571 0F7E  
                 i2u6491 0E7C                   i2u5931 05B4  
                 i2u5851 048A                   i2u5771 0354  
                 i2u5691 022A                   i2u6900 14AA  
                 i2u6820 1380                   i2u6740 1232  
                 i2u6660 10FA                   i2u6580 0FD0  
                 i2u5940 05F0                   i2u5860 04A2  
                 i2u5780 0390                   i2u6901 14A6  
                 i2u6821 137C                   i2u6741 122E  
                 i2u6661 10F6                   i2u6581 0FCC  
                 i2u5941 05EC                   i2u5861 049E  
                 i2u5781 038C                   i2u6910 14EA  
                 i2u6830 1394                   i2u6750 1246  
                 i2u6670 1132                   i2u6590 0FE4  
                 i2u5950 0604                   i2u5870 04DA  
                 i2u5790 03A4                   i2u6911 14E6  
                 i2u6831 1390                   i2u6751 1242  
                 i2u6671 112E                   i2u6591 0FE0  
                 i2u5951 0600                   i2u5871 04D6  
                 i2u5791 03A0                   i2u6920 14FE  
                 i2u6840 13D4                   i2u6760 127E  
                 i2u6680 1146                   i2u5960 062C  
                 i2u5880 04EE                   i2u6921 14FA  
                 i2u6841 13D0                   i2u6761 127A  
                 i2u6681 1142                   i2u5961 0628  
                 i2u5881 04EA                   i2u6930 1548  
                 i2u6850 13E8                   i2u6770 1292  
                 i2u6690 1186                   i2u5970 0640  
                 i2u5890 052E                   i2u6931 1544  
                 i2u6851 13E4                   i2u6771 128E  
                 i2u6691 1182                   i2u5971 063C  
                 i2u5891 052A                   i2u6940 155A  
                 i2u6860 1436                   i2u6780 12CA  
                 i2u5980 06A6                   i2u6941 1556  
                 i2u6861 1432                   i2u6781 12C6  
                 i2u5981 06A2                   i2u6950 1582  
                 i2u6870 144A                   i2u6790 12DE  
                 i2u5990 06BA                   i2u6951 157E  
                 i2u6871 1446                   i2u6791 12DA  
                 i2u5991 06B6                   i2u6960 1596  
                 i2u6880 145E                   i2u6961 1592  
                 i2u6881 145A                   i2u6970 15AA  
                 i2u6890 1496                   i2u6971 15A6  
                 i2u6891 1492                   i2u6980 15E2  
                 i2u6981 15DE                   i2u6990 15F6  
                 i2u6991 15F2                   _TMR0IE 007F95  
                 _TMR0IF 007F92                   _TMR0IP 007F8A  
                 _SPBRGH 000FB0                   _TRISC6 007CA6  
                 _TRISC7 007CA7                   _SPEN_x 007D5F  
                 _SREN_x 007D5D                   _TRMT_x 007D61  
                 _TXIE_x 007CEC                   _TXEN_x 007D65  
                 _SYNC_x 007D64                   __Ldata 000000  
                 _my_isr 18B6                ??_getNote 0119  
           __mediumconst 0D00                   tblptrh 000FF7  
                 tblptrl 000FF6                   tblptru 000FF8  
             __accesstop 0060               _change_val 00002C  
                _BAUDCON 000FB8                  ?_my_isr 0105  
                _SENDB_x 007D63           _adc_conversion 1A1E  
                __Hparam 011D               _cur_inputs 00001C  
                __Lparam 0100                  _adc_num 00002A  
                __ramtop 0D00                  _getNote 0036  
 __end_of_adc_conversion 1AD6          getNote@new_note 0119  
          __Lmediumconst 0D00                  int_func 0008  
                postdec0 000FED                  postinc0 000FEE  
        ?_adc_conversion 0114           __end_of_my_isr 1A1E  
              __Habsbss0 000031                __Labsbss0 000000  
               ??_my_isr 0105       adc_conversion@note 0116  
               ?_getNote 0117                _led_array 000000  
            __smallconst 0D00           getNote@hResult 0117  
         getNote@lResult 0118         ??_adc_conversion 0114  
            _conv_result 00001A                 __Hparam1 011D  
               __Lparam1 0100             __Lsmallconst 0D00  
               __config1 00F0FF                 __config2 00FEFF  
               __config3 007FFF                 __config4 00FFFB  
               __config5 00FFFF                 __config6 00FFFF  
               __config7 00FFFF                 _new_note 00002E  
               getNote@i 011A                 _uart_out 00002B  
               main@argc 0100                 main@argv 0102  
               intlevel2 1B46              _prev_inputs 000023  
  adc_conversion@hResult 0114    adc_conversion@lResult 0115  
           _USART_Status 00002D  
