

HI-TECH Software LITE Macro Assembler (PIC18) V9.66 build 8870 
                                                       Mon May 07 20:16:46 2012

HI-TECH Software Omniscient Code Generator build 8870
     1  000000                     opt subtitle "HI-TECH Software Omniscient Code G
                                 enerator build 8870"
     2                           
     3                           	processor	18F2682
     4  000000                     porta	equ	0F80h
     5  000000                     portb	equ	0F81h
     6  000000                     portc	equ	0F82h
     7  000000                     portd	equ	0F83h
     8  000000                     porte	equ	0F84h
     9  000000                     lata	equ	0F89h
    10  000000                     latb	equ	0F8Ah
    11  000000                     latc	equ	0F8Bh
    12  000000                     latd	equ	0F8Ch
    13  000000                     late	equ	0F8Dh
    14  000000                     trisa	equ	0F92h
    15  000000                     trisb	equ	0F93h
    16  000000                     trisc	equ	0F94h
    17  000000                     trisd	equ	0F95h
    18  000000                     trise	equ	0F96h
    19  000000                     pie1	equ	0F9Dh
    20  000000                     pir1	equ	0F9Eh
    21  000000                     ipr1	equ	0F9Fh
    22  000000                     pie2	equ	0FA0h
    23  000000                     pir2	equ	0FA1h
    24  000000                     ipr2	equ	0FA2h
    25  000000                     t3con	equ	0FB1h
    26  000000                     tmr3l	equ	0FB2h
    27  000000                     tmr3h	equ	0FB3h
    28  000000                     ccp1con	equ	0FBDh
    29  000000                     ccpr1l	equ	0FBEh
    30  000000                     ccpr1h	equ	0FBFh
    31  000000                     adcon1	equ	0FC1h
    32  000000                     adcon0	equ	0FC2h
    33  000000                     adresl	equ	0FC3h
    34  000000                     adresh	equ	0FC4h
    35  000000                     sspcon2	equ	0FC5h
    36  000000                     sspcon1	equ	0FC6h
    37  000000                     sspstat	equ	0FC7h
    38  000000                     sspadd	equ	0FC8h
    39  000000                     sspbuf	equ	0FC9h
    40  000000                     t2con	equ	0FCAh
    41  000000                     pr2	equ	0FCBh
    42  000000                     tmr2	equ	0FCCh
    43  000000                     t1con	equ	0FCDh
    44  000000                     tmr1l	equ	0FCEh
    45  000000                     tmr1h	equ	0FCFh
    46  000000                     rcon	equ	0FD0h
    47  000000                     wdtcon	equ	0FD1h
    48  000000                     lvdcon	equ	0FD2h
    49  000000                     osccon	equ	0FD3h
    50  000000                     t0con	equ	0FD5h
    51  000000                     tmr0l	equ	0FD6h
    52  000000                     tmr0h	equ	0FD7h
    53  000000                     status	equ	0FD8h
    54  000000                     fsr2	equ	0FD9h
    55  000000                     fsr2l	equ	0FD9h
    56  000000                     fsr2h	equ	0FDAh
    57  000000                     plusw2	equ	0FDBh
    58  000000                     preinc2	equ	0FDCh
    59  000000                     postdec2	equ	0FDDh
    60  000000                     postinc2	equ	0FDEh
    61  000000                     indf2	equ	0FDFh
    62  000000                     bsr	equ	0FE0h
    63  000000                     fsr1	equ	0FE1h
    64  000000                     fsr1l	equ	0FE1h
    65  000000                     fsr1h	equ	0FE2h
    66  000000                     plusw1	equ	0FE3h
    67  000000                     preinc1	equ	0FE4h
    68  000000                     postdec1	equ	0FE5h
    69  000000                     postinc1	equ	0FE6h
    70  000000                     indf1	equ	0FE7h
    71  000000                     wreg	equ	0FE8h
    72  000000                     fsr0	equ	0FE9h
    73  000000                     fsr0l	equ	0FE9h
    74  000000                     fsr0h	equ	0FEAh
    75  000000                     plusw0	equ	0FEBh
    76  000000                     preinc0	equ	0FECh
    77  000000                     postdec0	equ	0FEDh
    78  000000                     postinc0	equ	0FEEh
    79  000000                     indf0	equ	0FEFh
    80  000000                     intcon3	equ	0FF0h
    81  000000                     intcon2	equ	0FF1h
    82  000000                     intcon	equ	0FF2h
    83  000000                     prod	equ	0FF3h
    84  000000                     prodl	equ	0FF3h
    85  000000                     prodh	equ	0FF4h
    86  000000                     tablat	equ	0FF5h
    87  000000                     tblptr	equ	0FF6h
    88  000000                     tblptrl	equ	0FF6h
    89  000000                     tblptrh	equ	0FF7h
    90  000000                     tblptru	equ	0FF8h
    91  000000                     pcl	equ	0FF9h
    92  000000                     pclat	equ	0FFAh
    93  000000                     pclath	equ	0FFAh
    94  000000                     pclatu	equ	0FFBh
    95  000000                     stkptr	equ	0FFCh
    96  000000                     tosl	equ	0FFDh
    97  000000                     tosh	equ	0FFEh
    98  000000                     tosu	equ	0FFFh
    99                           	global	__ramtop
   100                           	global	__accesstop
   101                           # 20 "../code/main.c"
   102                           	global __config1 ;#
   103                           # 20 "../code/main.c"
   104  000000                     	__config1 equ 0xF0FF ;#
   105                           # 21 "../code/main.c"
   106                           	global __config2 ;#
   107                           # 21 "../code/main.c"
   108  000000                     	__config2 equ 0xFEFF ;#
   109                           # 22 "../code/main.c"
   110                           	global __config3 ;#
   111                           # 22 "../code/main.c"
   112  000000                     	__config3 equ 0x7FFF ;#
   113                           # 23 "../code/main.c"
   114                           	global __config4 ;#
   115                           # 23 "../code/main.c"
   116  000000                     	__config4 equ 0xFFFB & 0xFFFF ;#
   117                           # 24 "../code/main.c"
   118                           	global __config5 ;#
   119                           # 24 "../code/main.c"
   120  000000                     	__config5 equ 0xFFFF ;#
   121                           # 25 "../code/main.c"
   122                           	global __config6 ;#
   123                           # 25 "../code/main.c"
   124  000000                     	__config6 equ 0xFFFF ;#
   125                           # 26 "../code/main.c"
   126                           	global __config7 ;#
   127                           # 26 "../code/main.c"
   128  000000                     	__config7 equ 0xFFFF ;#
   129                           	GLOBAL	__activetblptr
   130  000000                     __activetblptr	EQU	0
   131                           	GLOBAL	__smallconst,__Lsmallconst
   132  000000                     __smallconst	EQU	__Lsmallconst
   133                           	GLOBAL	__mediumconst,__Lmediumconst
   134  000000                     __mediumconst	EQU	__Lmediumconst
   135                           	GLOBAL	__Ldata
   136  000000                     __Ldata	EQU	0
   137  000000                     main@all_zero	equ	??_main+0
   138                           	global	main@all_zero
   139  000000                     main@l	equ	??_main+2
   140                           	global	main@l
   141  000000                     main@argc	equ	?_main+0
   142                           	global	main@argc
   143  000000                     main@argv	equ	?_main+2
   144                           	global	main@argv
   145  000000                     adc_conversion@hResult	equ	??_adc_conversion+0
   146                           	global	adc_conversion@hResult
   147  000000                     adc_conversion@lResult	equ	??_adc_conversion+1
   148                           	global	adc_conversion@lResult
   149  000000                     adc_conversion@note	equ	??_adc_conversion+2
   150                           	global	adc_conversion@note
   151  000000                     getNote@new_note	equ	??_getNote+0
   152                           	global	getNote@new_note
   153  000000                     getNote@i	equ	??_getNote+1
   154                           	global	getNote@i
   155  000000                     getNote@hResult	equ	?_getNote+0
   156                           	global	getNote@hResult
   157  000000                     getNote@lResult	equ	?_getNote+1
   158                           	global	getNote@lResult
   159                           ;Data sizes: Strings 0, constant 0, data 0, bss 
                                 0, persistent 0 stack 33
   160                           	global	_main
   161                           	global	??_main
   162                           	global	?_main
   163                           
   164                           ; *************** function _main ***************
                                 **
   165                           ; Defined at:
   166                           ;		line 171 in file "../code/main.c"
   167                           ; Parameters:
   168                           ;		argc           size:   2offs:   0	type: int 
   169                           ;		argv           size:   2offs:   2	type: PTR P
                                 TR unsigned char 
   170                           ; Auto variables:
   171                           ;		all_zero    	       	type: int 
   172                           ;		l           	       	type: int 
   173                           ; Return value:
   174                           ;		type: int 
   175                           ;		size: 2
   176                           ; Registers used:
   177                           ;		wreg, fsr0l, fsr0h, status,2, status,0
   178                           ; Tracked objects:
   179                           ;		On entry : 0/0
   180                           ;		On exit  : 0/0
   181                           ;		Unchanged: 0/0
   182                           ; Data sizes:
   183                           ;		Autos:    4
   184                           ;		Params:   4
   185                           ;		Temp:     1
   186                           ;		Total:    9
   187                           ; This function calls:
   188                           ;		Nothing
   189                           ; This function is called by:
   190                           ;		Startup code after reset
   191                           ; This function uses a non-reentrant model
   192                           ; 
   193                                   psect   text0,class=CODE,space=0,reloc=2
   194                           
   195                           	opt lm
   196                           	file	"../code/main.c"
   197                           	line	171
   198  000000                     	__size_of_main	equ	__end_of_main-_main
   199                                   psect   text0
   200                           ;stdio.h: 12: typedef int ptrdiff_t;
   201                           ;stdio.h: 13: typedef unsigned size_t;
   202                           ;stdio.h: 14: typedef unsigned short wchar_t;
   203                           ;stdarg.h: 36: typedef void * va_list[1];
   204                           ;stdarg.h: 39: extern void * __va_start(void);
   205                           ;stdarg.h: 42: extern void * __va_arg(void *);
   206                           ;stdio.h: 27: extern int errno;
   207                           ;stdio.h: 58: struct __prbuf
   208                           ;stdio.h: 59: {
   209                           ;stdio.h: 60: char * ptr;
   210                           ;stdio.h: 61: void (* func)(char);
   211                           ;stdio.h: 62: };
   212                           ;conio.h: 17: extern int errno;
   213                           ;conio.h: 20: extern void init_uart(void);
   214                           ;conio.h: 22: extern char getch(void);
   215                           	
   216  0018B6                     _main:		; BSR set to: ?
   217                           
   218                           	opt stack 28
   219                           	line	173
   220  0018B6  0E72               	movlw	(072h)&0ffh
   221+ 0018B8  12D3               	iorwf	((c:4051)),c	;volatile
   222+                          	line	176
   223+                          ;main.c: 176: TRISA = 0b10101111;
   224+ 0018BA  0EAF               	movlw	low(0AFh)
   225  0018BC  6E92               	movwf	((c:3986)),c	;volatile
   226                           	line	177
   227                           ;main.c: 177: TRISB = 0b00010010;
   228  0018BE  0E12               	movlw	low(012h)
   229  0018C0  6E93               	movwf	((c:3987)),c	;volatile
   230                           	line	178
   231                           ;main.c: 178: TRISC = 0b10000000;
   232  0018C2  0E80               	movlw	low(080h)
   233  0018C4  6E94               	movwf	((c:3988)),c	;volatile
   234                           	line	181
   235                           ;main.c: 181: ADCON0 = 0b00000000;
   236  0018C6  0E00               	movlw	low(0)
   237  0018C8  6EC2               	movwf	((c:4034)),c	;volatile
   238                           	line	182
   239                           ;main.c: 182: ADCON1 = 0b00000101;
   240  0018CA  0E05               	movlw	low(05h)
   241  0018CC  6EC1               	movwf	((c:4033)),c	;volatile
   242                           	line	183
   243                           ;main.c: 183: ADCON2 = 0b10001101;
   244  0018CE  0E8D               	movlw	low(08Dh)
   245  0018D0  6EC0               	movwf	((c:4032)),c	;volatile
   246                           	line	184
   247                           ;main.c: 184: adc_num = 0;
   248  0018D2  0E00               	movlw	low(0)
   249  0018D4  6E2A               	movwf	((c:42)),c	;volatile
   250                           	line	189
   251                           ;main.c: 189: T0CON = 0b10000000;
   252  0018D6  0E80               	movlw	low(080h)
   253  0018D8  6ED5               	movwf	((c:4053)),c	;volatile
   254                           	line	192
   255                           ;main.c: 192: INTCON = 0b00100000;
   256  0018DA  0E20               	movlw	low(020h)
   257  0018DC  6EF2               	movwf	((c:4082)),c	;volatile
   258                           	line	202
   259                           ;main.c: 202: SPBRGH = (((8000000L/19200UL)/16) 
                                 - 1) >> 8;
   260  0018DE  0E00               	movlw	low(0)
   261  0018E0  6EB0               	movwf	((c:4016)),c	;volatile
   262                           	line	203
   263                           ;main.c: 203: SPBRG = (((8000000L/19200UL)/16) -
                                  1);
   264  0018E2  0E19               	movlw	low(019h)
   265  0018E4  6EAF               	movwf	((c:4015)),c	;volatile
   266                           	line	204
   267                           ;main.c: 204: BAUDCON = 0b00001000;
   268  0018E6  0E08               	movlw	low(08h)
   269  0018E8  6EB8               	movwf	((c:4024)),c	;volatile
   270                           	line	205
   271                           ;main.c: 205: RCSTA = 0b10010000;
   272  0018EA  0E90               	movlw	low(090h)
   273  0018EC  6EAB               	movwf	((c:4011)),c	;volatile
   274                           	line	206
   275                           ;main.c: 206: TXSTA = 0b00100000;
   276  0018EE  0E20               	movlw	low(020h)
   277  0018F0  6EAC               	movwf	((c:4012)),c	;volatile
   278                           	line	209
   279                           ;main.c: 209: LATA = 0b11111111;
   280  0018F2  6889               	setf	((c:3977)),c	;volatile
   281                           	line	211
   282                           ;main.c: 211: LATB = 0b10000000;
   283  0018F4  0E80               	movlw	low(080h)
   284  0018F6  6E8A               	movwf	((c:3978)),c	;volatile
   285                           	line	213
   286                           ;main.c: 213: LATC = 0b00001111;
   287  0018F8  0E0F               	movlw	low(0Fh)
   288  0018FA  6E8B               	movwf	((c:3979)),c	;volatile
   289                           	line	216
   290                           ;main.c: 216: INTCON |= 0b10000000;
   291  0018FC  8EF2               	bsf	(0+(7/8)+(c:4082)),c,(7)&7	;volatile
   292                           	line	276
   293                           ;main.c: 276: while (1) {
   294                           	
   295  0018FE                     l869:		; BSR set to: ?
   296                           
   297                           	line	278
   298                           ;main.c: 278: int l = 0;
   299  0018FE  0E00               	movlw	low(0)
   300  001900  0101               	movlb	1	; () banked
   301  001902  0101               	movlb	1	; () banked
   302  001904  6F06               	movwf	((main@l))&0ffh
   303  001906  0E00               	movlw	high(0)
   304  001908  0101               	movlb	1	; () banked
   305  00190A  6F07               	movwf	((main@l+1))&0ffh
   306                           	line	279
   307                           ;main.c: 279: int all_zero = 1;
   308  00190C  0E01               	movlw	low(01h)
   309  00190E  0101               	movlb	1	; () banked
   310  001910  0101               	movlb	1	; () banked
   311  001912  6F04               	movwf	((main@all_zero))&0ffh
   312  001914  0E00               	movlw	high(01h)
   313  001916  0101               	movlb	1	; () banked
   314  001918  6F05               	movwf	((main@all_zero+1))&0ffh
   315                           	line	280
   316                           ;main.c: 280: for (l = 0; l < sizeof(cur_inputs)
                                 ; l++) {
   317  00191A  0E00               	movlw	low(0)
   318  00191C  0101               	movlb	1	; () banked
   319  00191E  0101               	movlb	1	; () banked
   320  001920  6F06               	movwf	((main@l))&0ffh
   321  001922  0E00               	movlw	high(0)
   322  001924  0101               	movlb	1	; () banked
   323  001926  6F07               	movwf	((main@l+1))&0ffh
   324  001928  0E07               	movlw	07h
   325  00192A  0101               	movlb	1	; () banked
   326  00192C  0101               	movlb	1	; () banked
   327  00192E  5D06               	subwf	((main@l))&0ffh,w
   328  001930  0E00               	movlw	0
   329  001932  0101               	movlb	1	; () banked
   330  001934  5907               	subwfb	((main@l+1))&0ffh,w
   331  001936  A0D8               	btfss	status,0
   332  001938  EFA0  F00C         	goto	u8751
   333  00193C  EFA2  F00C         	goto	u8750
   334  001940                     u8751:
   335  001940  EFA4  F00C         	goto	l871
   336  001944                     u8750:
   337  001944  EFCD  F00C         	goto	l872
   338                           	
   339  001948                     l871:		; BSR set to: ?
   340                           
   341                           	line	281
   342                           ;main.c: 281: if (cur_inputs[l] != 0) {
   343  001948  0E1A               	movlw	low((c:26))
   344  00194A  0101               	movlb	1	; () banked
   345  00194C  0101               	movlb	1	; () banked
   346  00194E  2506               	addwf	((main@l))&0ffh,w
   347  001950  6EE9               	movwf	c:fsr0l
   348  001952  6AEA               	clrf	1+c:fsr0l
   349  001954  0E00               	movlw	high((c:26))
   350  001956  22EA               	addwfc	1+c:fsr0l
   351  001958  50EF               	movf	indf0,w
   352  00195A  B4D8               	btfsc	status,2
   353  00195C  EFB2  F00C         	goto	u8761
   354  001960  EFB4  F00C         	goto	u8760
   355  001964                     u8761:
   356  001964  EFBB  F00C         	goto	l874
   357  001968                     u8760:
   358                           	line	282
   359                           ;main.c: 282: all_zero = 0;
   360  001968  0E00               	movlw	low(0)
   361  00196A  0101               	movlb	1	; () banked
   362  00196C  0101               	movlb	1	; () banked
   363  00196E  6F04               	movwf	((main@all_zero))&0ffh
   364  001970  0E00               	movlw	high(0)
   365  001972  0101               	movlb	1	; () banked
   366  001974  6F05               	movwf	((main@all_zero+1))&0ffh
   367                           	line	283
   368                           	
   369  001976                     l874:		; BSR set to: ?
   370                           
   371                           	line	280
   372  001976  0101               	movlb	1	; () banked
   373  001978  0101               	movlb	1	; () banked
   374  00197A  4B06               	infsnz	((main@l))&0ffh
   375  00197C  2B07               	incf	((main@l+1))&0ffh
   376  00197E  0E07               	movlw	07h
   377  001980  0101               	movlb	1	; () banked
   378  001982  0101               	movlb	1	; () banked
   379  001984  5D06               	subwf	((main@l))&0ffh,w
   380  001986  0E00               	movlw	0
   381  001988  0101               	movlb	1	; () banked
   382  00198A  5907               	subwfb	((main@l+1))&0ffh,w
   383  00198C  A0D8               	btfss	status,0
   384  00198E  EFCB  F00C         	goto	u8771
   385  001992  EFCD  F00C         	goto	u8770
   386  001996                     u8771:
   387  001996  EFA4  F00C         	goto	l871
   388  00199A                     u8770:
   389                           	
   390  00199A                     l872:		; BSR set to: ?
   391                           
   392                           	line	285
   393                           ;main.c: 283: }
   394                           ;main.c: 284: }
   395                           ;main.c: 285: if (all_zero) {
   396  00199A  0101               	movlb	1	; () banked
   397  00199C  0101               	movlb	1	; () banked
   398  00199E  5105               	movf	((main@all_zero+1))&0ffh,w
   399  0019A0  1104               	iorwf ((main@all_zero))&0ffh,w
   400                           
   401  0019A2  B4D8               	btfsc	status,2
   402  0019A4  EFD6  F00C         	goto	u8781
   403  0019A8  EFD8  F00C         	goto	u8780
   404  0019AC                     u8781:
   405  0019AC  EFE9  F00C         	goto	l875
   406  0019B0                     u8780:
   407                           	line	286
   408                           ;main.c: 286: uart_out = 0x00;
   409  0019B0  0101               	movlb	1	; () banked
   410  0019B2  6F08               	movwf	(??_main+4+0)&0ffh
   411  0019B4  0E00               	movlw	low(0)
   412  0019B6  6E2B               	movwf	((c:43)),c
   413  0019B8  0101               	movlb	1	; () banked
   414  0019BA  5108               	movf	(??_main+4+0)&0ffh,w
   415                           	line	287
   416                           ;main.c: 287: TXREG = uart_out;
   417  0019BC  C02B FFAD          	movff	(c:43),(c:4013)	;volatile
   418                           	line	288
   419                           ;main.c: 288: while((PIR1 & 0b00010000) == 0);
   420  0019C0  EFE2  F00C         	goto	l876
   421                           	
   422  0019C4                     l876:		; BSR set to: ?
   423                           
   424                           	
   425  0019C4  A89E               	btfss	((c:3998)),c,(4)&7	;volatile
   426  0019C6  EFE7  F00C         	goto	u8791
   427  0019CA  EFE9  F00C         	goto	u8790
   428  0019CE                     u8791:
   429  0019CE  EFE2  F00C         	goto	l876
   430  0019D2                     u8790:
   431                           	
   432  0019D2                     l878:		; BSR set to: ?
   433                           
   434                           	line	289
   435                           	
   436  0019D2                     l875:		; BSR set to: ?
   437                           
   438                           	line	291
   439                           ;main.c: 289: }
   440                           ;main.c: 291: while (change_val == 0) {
   441  0019D2  EFEB  F00C         	goto	l879
   442                           	line	294
   443                           	
   444  0019D6                     l879:		; BSR set to: ?
   445                           
   446                           	line	291
   447  0019D6  502E               	movf	((c:46)),c,w
   448  0019D8  B4D8               	btfsc	status,2
   449  0019DA  EFF1  F00C         	goto	u8801
   450  0019DE  EFF3  F00C         	goto	u8800
   451  0019E2                     u8801:
   452  0019E2  EFE9  F00C         	goto	l875
   453  0019E6                     u8800:
   454                           	
   455  0019E6                     l881:		; BSR set to: ?
   456                           
   457                           	line	297
   458                           ;main.c: 294: }
   459                           ;main.c: 297: uart_out = cur_inputs[index];
   460  0019E6  0E1A               	movlw	low((c:26))
   461  0019E8  242C               	addwf	((c:44)),c,w
   462  0019EA  6EE9               	movwf	c:fsr0l
   463  0019EC  6AEA               	clrf	1+c:fsr0l
   464  0019EE  0E00               	movlw	high((c:26))
   465  0019F0  22EA               	addwfc	1+c:fsr0l
   466  0019F2  50EF               	movf	indf0,w
   467+ 0019F4  6E2B               	movwf	((c:43)),c
   468+                          	line	298
   469+                          ;main.c: 298: TXREG = uart_out;
   470+ 0019F6  C02B FFAD          	movff	(c:43),(c:4013)	;volatile
   471                           	line	299
   472                           ;main.c: 299: while((PIR1 & 0b00010000) == 0);
   473  0019FA  EFFF  F00C         	goto	l882
   474                           	
   475  0019FE                     l882:		; BSR set to: ?
   476                           
   477                           	
   478  0019FE  A89E               	btfss	((c:3998)),c,(4)&7	;volatile
   479  001A00  EF04  F00D         	goto	u8811
   480  001A04  EF06  F00D         	goto	u8810
   481  001A08                     u8811:
   482  001A08  EFFF  F00C         	goto	l882
   483  001A0C                     u8810:
   484                           	
   485  001A0C                     l884:		; BSR set to: ?
   486                           
   487                           	line	305
   488                           ;main.c: 305: change_val = 0;
   489  001A0C  0101               	movlb	1	; () banked
   490  001A0E  6F08               	movwf	(??_main+4+0)&0ffh
   491  001A10  0E00               	movlw	low(0)
   492  001A12  6E2E               	movwf	((c:46)),c
   493  001A14  0101               	movlb	1	; () banked
   494  001A16  5108               	movf	(??_main+4+0)&0ffh,w
   495                           	line	307
   496                           	
   497  001A18                     l868:		; BSR set to: ?
   498                           
   499                           	line	276
   500  001A18  EF7F  F00C         	goto	l869
   501                           	global	start
   502  001A1C  EF0C  F000         	goto	start
   503                           	opt stack 0
   504                           GLOBAL __end_of_main
   505  001A20                     	__end_of_main:
   506                           	FNSIZE	_main,5,4
   507                           ; =============== function _main ends ==========
                                 ==
   508                           
   509                                   psect   text1,class=CODE,space=0,reloc=2
   510                           	line	313
   511                           
   512                           	opt lm
   513                           	signat	_main,8314
   514                           	global	_my_isr
   515                           	global	??_my_isr
   516                           	global	?_my_isr
   517                           
   518                           ; *************** function _my_isr *************
                                 ****
   519                           ; Defined at:
   520                           ;		line 987 in file "../code/main.c"
   521                           ; Parameters:
   522                           ;		None
   523                           ; Auto variables:
   524                           ;		None
   525                           ; Return value:
   526                           ;		type: void 
   527                           ;		size: 0
   528                           ; Registers used:
   529                           ;		wreg, fsr0l, fsr0h, fsr1l, fsr1h, status,2, s
                                 tatus,0, cstack
   530                           ; Tracked objects:
   531                           ;		On entry : 0/0
   532                           ;		On exit  : 0/0
   533                           ;		Unchanged: 0/0
   534                           ; Data sizes:
   535                           ;		Autos:    0
   536                           ;		Params:   0
   537                           ;		Temp:    15
   538                           ;		Total:   15
   539                           ; This function calls:
   540                           ;		_adc_conversion
   541                           ; This function is called by:
   542                           ;		Interrupt level 2
   543                           ; This function uses a non-reentrant model
   544                           ; 
   545                           	file	"../code/main.c"
   546                           	line	987
   547  000000                     	__size_of_my_isr	equ	__end_of_my_isr-_my_isr
   548                           ;main.c: 987: void interrupt my_isr(void) {
   549                           	
   550  001A20                     _my_isr:		; BSR set to: ?
   551                           
   552                           	opt stack 31
   553                                   psect   intcode,class=CODE,space=0,reloc
                                 =2
   554                           	global	int_func
   555  000008                     int_func:
   556                                   psect   intcode
   557  000008  CFFA F10A          	movff	pclat+0,??_my_isr+1
   558  00000C  CFFB F10B          	movff	pclat+1,??_my_isr+2
   559  000010  CFE9 F10C          	movff	fsr0l+0,??_my_isr+3
   560  000014  EF10  F00D         	goto	_my_isr
   561                                   psect   text1
   562  001A20  CFEA F10D          	movff	fsr0h+0,??_my_isr+4
   563  001A24  CFE1 F10E          	movff	fsr1l+0,??_my_isr+5
   564  001A28  CFE2 F10F          	movff	fsr1h+0,??_my_isr+6
   565  001A2C  CFD9 F110          	movff	fsr2l+0,??_my_isr+7
   566  001A30  CFDA F111          	movff	fsr2h+0,??_my_isr+8
   567  001A34  CFF3 F112          	movff	prodl+0,??_my_isr+9
   568  001A38  CFF4 F113          	movff	prodh+0,??_my_isr+10
   569  001A3C  CFF6 F114          	movff	tblptrl+0,??_my_isr+11
   570  001A40  CFF7 F115          	movff	tblptrh+0,??_my_isr+12
   571  001A44  CFF8 F116          	movff	tblptru+0,??_my_isr+13
   572  001A48  CFF5 F117          	movff	tablat+0,??_my_isr+14
   573                           	line	989
   574                           ;main.c: 989: INTCON &= 0b01111111;
   575  001A4C  9EF2               	bcf	(0+(7/8)+(c:4082)),c,(7)&7	;volatile
   576                           	line	991
   577                           ;main.c: 991: if (TMR0IE && TMR0IF && TMR0IP) {
   578  001A4E  AAF2               	btfss	c:(32661/8),(32661)&7	;volatile
   579  001A50  EF2C  F00D         	goto	i2u7241
   580  001A54  EF2E  F00D         	goto	i2u7240
   581  001A58                     i2u7241:
   582  001A58  EF7F  F00D         	goto	i2l1067
   583  001A5C                     i2u7240:
   584  001A5C  A4F2               	btfss	c:(32658/8),(32658)&7	;volatile
   585  001A5E  EF33  F00D         	goto	i2u7251
   586  001A62  EF35  F00D         	goto	i2u7250
   587  001A66                     i2u7251:
   588  001A66  EF7F  F00D         	goto	i2l1067
   589  001A6A                     i2u7250:
   590  001A6A  A4F1               	btfss	c:(32650/8),(32650)&7	;volatile
   591  001A6C  EF3A  F00D         	goto	i2u7261
   592  001A70  EF3C  F00D         	goto	i2u7260
   593  001A74                     i2u7261:
   594  001A74  EF7F  F00D         	goto	i2l1067
   595  001A78                     i2u7260:
   596                           	line	992
   597                           ;main.c: 992: adc_conversion ();
   598  001A78  EC9D  F00D         	call	_adc_conversion	;wreg free
   599                           	line	994
   600                           ;main.c: 994: cur_inputs[conv_result.adc_channel
                                 ] = conv_result.result;
   601  001A7C  0E1A               	movlw	low((c:26))
   602  001A7E  2422               	addwf	(0+((c:33)+01h)),c,w
   603  001A80  6EE9               	movwf	c:fsr0l
   604  001A82  6AEA               	clrf	1+c:fsr0l
   605  001A84  0E00               	movlw	high((c:26))
   606  001A86  22EA               	addwfc	1+c:fsr0l
   607  001A88  C021 FFEF          	movff	(c:33),indf0
   608                           
   609                           	line	996
   610                           ;main.c: 996: if (cur_inputs[conv_result.adc_cha
                                 nnel] != prev_inputs[conv_result.adc_channel]) {
   611  001A8C  0E23               	movlw	low((c:35))
   612  001A8E  2422               	addwf	(0+((c:33)+01h)),c,w
   613  001A90  6EE9               	movwf	c:fsr0l
   614  001A92  6AEA               	clrf	1+c:fsr0l
   615  001A94  0E00               	movlw	high((c:35))
   616  001A96  22EA               	addwfc	1+c:fsr0l
   617  001A98  50EF               	movf	indf0,w
   618  001A9A  0101               	movlb	1	; () banked
   619  001A9C  6F09               	movwf	(??_my_isr+0+0)&0ffh
   620  001A9E  0E1A               	movlw	low((c:26))
   621  001AA0  2422               	addwf	(0+((c:33)+01h)),c,w
   622  001AA2  6EE9               	movwf	c:fsr0l
   623  001AA4  6AEA               	clrf	1+c:fsr0l
   624  001AA6  0E00               	movlw	high((c:26))
   625  001AA8  22EA               	addwfc	1+c:fsr0l
   626  001AAA  50EF               	movf	indf0,w
   627  001AAC  0101               	movlb	1	; () banked
   628  001AAE  1909               	xorwf	((??_my_isr+0+0))&0ffh,w
   629  001AB0  B4D8               	btfsc	status,2
   630  001AB2  EF5D  F00D         	goto	i2u7271
   631  001AB6  EF5F  F00D         	goto	i2u7270
   632  001ABA                     i2u7271:
   633  001ABA  EF78  F00D         	goto	i2l1068
   634  001ABE                     i2u7270:
   635                           	line	997
   636                           ;main.c: 997: change_val = 1;
   637  001ABE  0101               	movlb	1	; () banked
   638  001AC0  6F09               	movwf	(??_my_isr+0+0)&0ffh
   639  001AC2  0E01               	movlw	low(01h)
   640  001AC4  6E2E               	movwf	((c:46)),c
   641  001AC6  0101               	movlb	1	; () banked
   642  001AC8  5109               	movf	(??_my_isr+0+0)&0ffh,w
   643                           	line	998
   644                           ;main.c: 998: prev_inputs[conv_result.adc_channe
                                 l] = cur_inputs[conv_result.adc_channel];
   645  001ACA  0E1A               	movlw	low((c:26))
   646  001ACC  2422               	addwf	(0+((c:33)+01h)),c,w
   647  001ACE  6EE9               	movwf	c:fsr0l
   648  001AD0  6AEA               	clrf	1+c:fsr0l
   649  001AD2  0E00               	movlw	high((c:26))
   650  001AD4  22EA               	addwfc	1+c:fsr0l
   651  001AD6  0E23               	movlw	low((c:35))
   652  001AD8  2422               	addwf	(0+((c:33)+01h)),c,w
   653  001ADA  6EE1               	movwf	c:fsr1l
   654  001ADC  6AE2               	clrf	1+c:fsr1l
   655  001ADE  0E00               	movlw	high((c:35))
   656  001AE0  22E2               	addwfc	1+c:fsr1l
   657  001AE2  CFEF FFE7          	movff	indf0,indf1
   658                           	line	999
   659                           ;main.c: 999: index = conv_result.adc_channel;
   660  001AE6  C022 F02C          	movff	0+((c:33)+01h),(c:44)
   661  001AEA  6A2D               	clrf	((c:44+1)),c
   662                           	line	1003
   663                           ;main.c: 1003: } else {
   664  001AEC  EF7E  F00D         	goto	i2l1069
   665                           	
   666  001AF0                     i2l1068:		; BSR set to: ?
   667                           
   668                           	line	1004
   669                           ;main.c: 1004: change_val = 0;
   670  001AF0  0101               	movlb	1	; () banked
   671  001AF2  6F09               	movwf	(??_my_isr+0+0)&0ffh
   672  001AF4  0E00               	movlw	low(0)
   673  001AF6  6E2E               	movwf	((c:46)),c
   674  001AF8  0101               	movlb	1	; () banked
   675  001AFA  5109               	movf	(??_my_isr+0+0)&0ffh,w
   676                           	line	1005
   677                           	
   678  001AFC                     i2l1069:		; BSR set to: ?
   679                           
   680                           	line	1019
   681                           ;main.c: 1005: }
   682                           ;main.c: 1019: TMR0IF = 0;
   683  001AFC  94F2               	bcf	c:(32658/8),(32658)&7	;volatile
   684                           	line	1020
   685                           	
   686  001AFE                     i2l1067:		; BSR set to: ?
   687                           
   688                           	line	1023
   689                           ;main.c: 1020: }
   690                           ;main.c: 1023: INTCON |= 0b10000000;
   691  001AFE  8EF2               	bsf	(0+(7/8)+(c:4082)),c,(7)&7	;volatile
   692                           	line	1025
   693                           ;main.c: 1025: }
   694  001B00                     i2l1066:
   695                           			; BSR set to: ?
   696                           
   697  001B00  C117  FFF5         	movff	??_my_isr+14,tablat+0
   698  001B04  C116  FFF8         	movff	??_my_isr+13,tblptru+0
   699  001B08  C115  FFF7         	movff	??_my_isr+12,tblptrh+0
   700  001B0C  C114  FFF6         	movff	??_my_isr+11,tblptrl+0
   701  001B10  C113  FFF4         	movff	??_my_isr+10,prodh+0
   702  001B14  C112  FFF3         	movff	??_my_isr+9,prodl+0
   703  001B18  C111  FFDA         	movff	??_my_isr+8,fsr2h+0
   704  001B1C  C110  FFD9         	movff	??_my_isr+7,fsr2l+0
   705  001B20  C10F  FFE2         	movff	??_my_isr+6,fsr1h+0
   706  001B24  C10E  FFE1         	movff	??_my_isr+5,fsr1l+0
   707  001B28  C10D  FFEA         	movff	??_my_isr+4,fsr0h+0
   708  001B2C  C10C  FFE9         	movff	??_my_isr+3,fsr0l+0
   709  001B30  C10B  FFFB         	movff	??_my_isr+2,pclat+1
   710  001B34  C10A  FFFA         	movff	??_my_isr+1,pclat+0
   711  001B38  0011               	retfie f
   712                           	opt stack 0
   713                           GLOBAL __end_of_my_isr
   714  001B3A                     	__end_of_my_isr:
   715                           	FNSIZE	_my_isr,15,0
   716                           ; =============== function _my_isr ends ========
                                 ====
   717                           
   718                           	signat	_my_isr,88
   719                                   psect   text2,class=CODE,space=0,reloc=2
   720                           	global	intlevel2
   721                           
   722                           	opt lm
   723                           	FNBREAK _adc_conversion,intlevel2
   724                           	global	_adc_conversion
   725                           	global	??_adc_conversion
   726                           	global	?_adc_conversion
   727                           
   728                           ; *************** function _adc_conversion *****
                                 ************
   729                           ; Defined at:
   730                           ;		line 1033 in file "../code/main.c"
   731                           ; Parameters:
   732                           ;		None
   733                           ; Auto variables:
   734                           ;		hResult     	       	type: unsigned char 
   735                           ;		lResult     	       	type: unsigned char 
   736                           ;		note        	       	type: unsigned char 
   737                           ; Return value:
   738                           ;		type: void 
   739                           ;		size: 0
   740                           ; Registers used:
   741                           ;		wreg, fsr0l, fsr0h, status,2, status,0, cstac
                                 k
   742                           ; Tracked objects:
   743                           ;		On entry : 0/0
   744                           ;		On exit  : 0/0
   745                           ;		Unchanged: 0/0
   746                           ; Data sizes:
   747                           ;		Autos:    3
   748                           ;		Params:   0
   749                           ;		Temp:     0
   750                           ;		Total:    3
   751                           ; This function calls:
   752                           ;		_getNote
   753                           ; This function is called by:
   754                           ;		_my_isr
   755                           ; This function uses a non-reentrant model
   756                           ; 
   757                           	file	"../code/main.c"
   758                           	line	1033
   759  000000                     	__size_of_adc_conversion	equ	__end_of_adc_conve
                                 rsion-_adc_conversion
   760                           ;main.c: 1033: void adc_conversion() {
   761                           	
   762  001B3A                     _adc_conversion:		; BSR set to: ?
   763                           
   764                           	opt stack 30
   765                           	line	1035
   766                           ;main.c: 1035: ADON = 0;
   767  001B3A  90C2               	bcf	c:(32272/8),(32272)&7	;volatile
   768                           	line	1037
   769                           ;main.c: 1037: ADRESH = 0;
   770  001B3C  0E00               	movlw	low(0)
   771  001B3E  6EC4               	movwf	((c:4036)),c	;volatile
   772                           	line	1038
   773                           ;main.c: 1038: ADRESL = 0;
   774  001B40  0E00               	movlw	low(0)
   775  001B42  6EC3               	movwf	((c:4035)),c	;volatile
   776                           	line	1041
   777                           ;main.c: 1041: switch (adc_num) {
   778  001B44  EFC0  F00D         	goto	i2l1072
   779                           	line	1042
   780                           ;main.c: 1042: case 0 :
   781                           	
   782  001B48                     i2l1073:		; BSR set to: ?
   783                           
   784                           	line	1043
   785                           ;main.c: 1043: ADCON0 = 0b00100000;
   786  001B48  0E20               	movlw	low(020h)
   787  001B4A  6EC2               	movwf	((c:4034)),c	;volatile
   788                           	line	1044
   789                           ;main.c: 1044: break;
   790  001B4C  EFD1  F00D         	goto	i2l1071
   791                           	line	1045
   792                           ;main.c: 1045: case 1 :
   793                           	
   794  001B50                     i2l1074:		; BSR set to: ?
   795                           
   796                           	line	1046
   797                           ;main.c: 1046: ADCON0 = 0b00100100;
   798  001B50  0E24               	movlw	low(024h)
   799  001B52  6EC2               	movwf	((c:4034)),c	;volatile
   800                           	line	1047
   801                           ;main.c: 1047: break;
   802  001B54  EFD1  F00D         	goto	i2l1071
   803                           	line	1048
   804                           ;main.c: 1048: case 2 :
   805                           	
   806  001B58                     i2l1075:		; BSR set to: ?
   807                           
   808                           	line	1049
   809                           ;main.c: 1049: ADCON0 = 0b00000000;
   810  001B58  0E00               	movlw	low(0)
   811  001B5A  6EC2               	movwf	((c:4034)),c	;volatile
   812                           	line	1050
   813                           ;main.c: 1050: break;
   814  001B5C  EFD1  F00D         	goto	i2l1071
   815                           	line	1051
   816                           ;main.c: 1051: case 3 :
   817                           	
   818  001B60                     i2l1076:		; BSR set to: ?
   819                           
   820                           	line	1052
   821                           ;main.c: 1052: ADCON0 = 0b00000100;
   822  001B60  0E04               	movlw	low(04h)
   823  001B62  6EC2               	movwf	((c:4034)),c	;volatile
   824                           	line	1053
   825                           ;main.c: 1053: break;
   826  001B64  EFD1  F00D         	goto	i2l1071
   827                           	line	1054
   828                           ;main.c: 1054: case 4 :
   829                           	
   830  001B68                     i2l1077:		; BSR set to: ?
   831                           
   832                           	line	1055
   833                           ;main.c: 1055: ADCON0 = 0b00001000;
   834  001B68  0E08               	movlw	low(08h)
   835  001B6A  6EC2               	movwf	((c:4034)),c	;volatile
   836                           	line	1056
   837                           ;main.c: 1056: break;
   838  001B6C  EFD1  F00D         	goto	i2l1071
   839                           	line	1057
   840                           ;main.c: 1057: case 5 :
   841                           	
   842  001B70                     i2l1078:		; BSR set to: ?
   843                           
   844                           	line	1058
   845                           ;main.c: 1058: ADCON0 = 0b00001100;
   846  001B70  0E0C               	movlw	low(0Ch)
   847  001B72  6EC2               	movwf	((c:4034)),c	;volatile
   848                           	line	1059
   849                           ;main.c: 1059: break;
   850  001B74  EFD1  F00D         	goto	i2l1071
   851                           	line	1060
   852                           ;main.c: 1060: case 6 :
   853                           	
   854  001B78                     i2l1079:		; BSR set to: ?
   855                           
   856                           	line	1061
   857                           ;main.c: 1061: ADCON0 = 0b00010000;
   858  001B78  0E10               	movlw	low(010h)
   859  001B7A  6EC2               	movwf	((c:4034)),c	;volatile
   860                           	line	1062
   861                           ;main.c: 1062: break;
   862  001B7C  EFD1  F00D         	goto	i2l1071
   863                           	line	1041
   864                           	
   865  001B80                     i2l1072:		; BSR set to: ?
   866                           
   867  001B80  502A               	movf	((c:42)),c,w	;volatile
   868  001B82  0A00               	xorlw	0 ^ 0
   869  001B84  E0E1               	bz	i2l1073
   870  001B86  0A01               	xorlw	1 ^ 0
   871  001B88  E0E3               	bz	i2l1074
   872  001B8A  0A03               	xorlw	2 ^ 1
   873  001B8C  E0E5               	bz	i2l1075
   874  001B8E  0A01               	xorlw	3 ^ 2
   875  001B90  E0E7               	bz	i2l1076
   876  001B92  0A07               	xorlw	4 ^ 3
   877  001B94  E0E9               	bz	i2l1077
   878  001B96  0A01               	xorlw	5 ^ 4
   879  001B98  E0EB               	bz	i2l1078
   880  001B9A  0A03               	xorlw	6 ^ 5
   881  001B9C  E0ED               	bz	i2l1079
   882  001B9E  EFD1  F00D         	goto	i2l1071
   883                           
   884                           	line	1063
   885                           	
   886  001BA2                     i2l1071:		; BSR set to: ?
   887                           
   888                           	line	1067
   889                           ;main.c: 1067: ADON = 1;
   890  001BA2  80C2               	bsf	c:(32272/8),(32272)&7	;volatile
   891                           	line	1068
   892                           ;main.c: 1068: GODONE = 1;
   893  001BA4  82C2               	bsf	c:(32273/8),(32273)&7	;volatile
   894                           	line	1071
   895                           ;main.c: 1071: while (GODONE);
   896  001BA6  EFD5  F00D         	goto	i2l1080
   897                           	
   898  001BAA                     i2l1080:		; BSR set to: ?
   899                           
   900  001BAA  B2C2               	btfsc	c:(32273/8),(32273)&7	;volatile
   901  001BAC  EFDA  F00D         	goto	i2u7221
   902  001BB0  EFDC  F00D         	goto	i2u7220
   903  001BB4                     i2u7221:
   904  001BB4  EFD5  F00D         	goto	i2l1080
   905  001BB8                     i2u7220:
   906                           	
   907  001BB8                     i2l1082:		; BSR set to: ?
   908                           
   909                           	line	1072
   910                           ;main.c: 1072: unsigned char hResult = ADRESH;
   911  001BB8  CFC4 F118          	movff	(c:4036),(adc_conversion@hResult)	;volati
                                 le
   912                           	line	1073
   913                           ;main.c: 1073: unsigned char lResult = ADRESL;
   914  001BBC  CFC3 F119          	movff	(c:4035),(adc_conversion@lResult)	;volati
                                 le
   915                           	line	1074
   916                           ;main.c: 1074: unsigned char note = getNote(hRes
                                 ult, lResult);
   917  001BC0  C119  F11C         	movff	(adc_conversion@lResult),0+(?_getNote+01h
                                 )
   918  001BC4  C118  F11B         	movff	(adc_conversion@hResult),(?_getNote)
   919  001BC8  EC1B  F000         	call	_getNote	;wreg free
   920  001BCC  0101               	movlb	1	; () banked
   921  001BCE  0101               	movlb	1	; () banked
   922  001BD0  6F1A               	movwf	((adc_conversion@note))&0ffh
   923                           	line	1077
   924                           ;main.c: 1077: conv_result.result = note;
   925  001BD2  C11A  F021         	movff	(adc_conversion@note),(c:33)
   926                           	line	1078
   927                           ;main.c: 1078: conv_result.adc_channel = adc_num
                                 ;
   928  001BD6  C02A F022          	movff	(c:42),0+((c:33)+01h)	;volatile
   929                           	line	1081
   930                           ;main.c: 1081: adc_num++;
   931  001BDA  2A2A               	incf	((c:42)),c	;volatile
   932                           	line	1082
   933                           ;main.c: 1082: if (adc_num >= 7) {
   934  001BDC  0E06               	movlw	(07h-1)
   935  001BDE  642A               	cpfsgt	((c:42)),c	;volatile
   936  001BE0  EFF4  F00D         	goto	i2u7231
   937  001BE4  EFF6  F00D         	goto	i2u7230
   938  001BE8                     i2u7231:
   939  001BE8  EFF8  F00D         	goto	i2l1083
   940  001BEC                     i2u7230:
   941                           	line	1083
   942                           ;main.c: 1083: adc_num = 0;
   943  001BEC  0E00               	movlw	low(0)
   944  001BEE  6E2A               	movwf	((c:42)),c	;volatile
   945                           	line	1084
   946                           	
   947  001BF0                     i2l1083:		; BSR set to: ?
   948                           
   949                           	line	1085
   950                           ;main.c: 1084: }
   951                           ;main.c: 1085: }
   952  001BF0                     i2l1070:
   953                           			; BSR set to: ?
   954                           
   955  001BF0  0012               	return
   956                           	opt stack 0
   957                           GLOBAL __end_of_adc_conversion
   958  001BF2                     	__end_of_adc_conversion:
   959                           	FNSIZE	_adc_conversion,3,0
   960                           ; =============== function _adc_conversion ends 
                                 ============
   961                           
   962                           	signat	_adc_conversion,88
   963                                   psect   text3,class=CODE,space=0,reloc=2
   964                           	global	intlevel2
   965                           
   966                           	opt lm
   967                           	FNBREAK _getNote,intlevel2
   968                           	global	_getNote
   969                           	global	??_getNote
   970                           	global	?_getNote
   971                           
   972                           ; *************** function _getNote ************
                                 *****
   973                           ; Defined at:
   974                           ;		line 1093 in file "../code/main.c"
   975                           ; Parameters:
   976                           ;		hResult        size:   1offs:   0	type: unsig
                                 ned char 
   977                           ;		lResult        size:   1offs:   1	type: unsig
                                 ned char 
   978                           ; Auto variables:
   979                           ;		new_note    	       	type: unsigned char 
   980                           ;		i           	       	type: int 
   981                           ; Return value:
   982                           ;		type: unsigned char 
   983                           ;		size: 1
   984                           ; Registers used:
   985                           ;		wreg, fsr0l, fsr0h, status,2, status,0
   986                           ; Tracked objects:
   987                           ;		On entry : 0/0
   988                           ;		On exit  : 0/0
   989                           ;		Unchanged: 0/0
   990                           ; Data sizes:
   991                           ;		Autos:    3
   992                           ;		Params:   2
   993                           ;		Temp:     1
   994                           ;		Total:    6
   995                           ; This function calls:
   996                           ;		Nothing
   997                           ; This function is called by:
   998                           ;		_adc_conversion
   999                           ; This function uses a non-reentrant model
  1000                           ; 
  1001                           	file	"../code/main.c"
  1002                           	line	1093
  1003  000000                     	__size_of_getNote	equ	__end_of_getNote-_getNote
  1004                           ;main.c: 1093: unsigned char getNote (unsigned c
                                 har hResult, unsigned char lResult) {
  1005                           	
  1006  000036                     _getNote:		; BSR set to: ?
  1007                           
  1008                           	opt stack 29
  1009                           	line	1095
  1010                           ;main.c: 1094: unsigned char new_note;
  1011                           ;main.c: 1095: int i = 0;
  1012  000036  0E00               	movlw	low(0)
  1013  000038  0101               	movlb	1	; () banked
  1014  00003A  0101               	movlb	1	; () banked
  1015  00003C  6F1E               	movwf	((getNote@i))&0ffh
  1016  00003E  0E00               	movlw	high(0)
  1017  000040  0101               	movlb	1	; () banked
  1018  000042  6F1F               	movwf	((getNote@i+1))&0ffh
  1019                           	line	1096
  1020                           ;main.c: 1096: for (i = 0; i < 13; i++) {
  1021  000044  0E00               	movlw	low(0)
  1022  000046  0101               	movlb	1	; () banked
  1023  000048  0101               	movlb	1	; () banked
  1024  00004A  6F1E               	movwf	((getNote@i))&0ffh
  1025  00004C  0E00               	movlw	high(0)
  1026  00004E  0101               	movlb	1	; () banked
  1027  000050  6F1F               	movwf	((getNote@i+1))&0ffh
  1028  000052  0101               	movlb	1	; () banked
  1029  000054  0101               	movlb	1	; () banked
  1030  000056  511F               	movf	((getNote@i+1))&0ffh,w
  1031  000058  0A80               	xorlw	80h
  1032  00005A  0F80               	addlw	-((0)^80h)
  1033  00005C  0E0D               	movlw	0Dh
  1034  00005E  B4D8               	btfsc	status,2
  1035  000060  5D1E               	subwf	((getNote@i))&0ffh,w
  1036  000062  A0D8               	btfss	status,0
  1037  000064  EF36  F000         	goto	i2u5631
  1038  000068  EF38  F000         	goto	i2u5630
  1039  00006C                     i2u5631:
  1040  00006C  EF3A  F000         	goto	i2l1085
  1041  000070                     i2u5630:
  1042  000070  EF5E  F000         	goto	i2l1086
  1043                           	
  1044  000074                     i2l1085:		; BSR set to: ?
  1045                           
  1046                           	line	1097
  1047                           ;main.c: 1097: led_array[i] = 0;
  1048  000074  0101               	movlb	1	; () banked
  1049  000076  90D8               	bcf	status,0
  1050  000078  0101               	movlb	1	; () banked
  1051  00007A  351E               	rlcf	((getNote@i))&0ffh,w
  1052  00007C  0101               	movlb	1	; () banked
  1053  00007E  6F20               	movwf	(??_getNote+3+0)&0ffh
  1054  000080  0E00               	movlw	low((c:0))
  1055  000082  0101               	movlb	1	; () banked
  1056  000084  2520               	addwf	(??_getNote+3+0)&0ffh,w
  1057  000086  6EE9               	movwf	c:fsr0l
  1058  000088  6AEA               	clrf	1+c:fsr0l
  1059  00008A  0E00               	movlw	high((c:0))
  1060  00008C  22EA               	addwfc	1+c:fsr0l
  1061  00008E  0E00               	movlw	low(0)
  1062  000090  6EEE               	movwf	postinc0
  1063  000092  0E00               	movlw	high(0)
  1064  000094  6EED               	movwf	postdec0
  1065                           	line	1096
  1066  000096  0101               	movlb	1	; () banked
  1067  000098  0101               	movlb	1	; () banked
  1068  00009A  4B1E               	infsnz	((getNote@i))&0ffh
  1069  00009C  2B1F               	incf	((getNote@i+1))&0ffh
  1070  00009E  0101               	movlb	1	; () banked
  1071  0000A0  0101               	movlb	1	; () banked
  1072  0000A2  511F               	movf	((getNote@i+1))&0ffh,w
  1073  0000A4  0A80               	xorlw	80h
  1074  0000A6  0F80               	addlw	-((0)^80h)
  1075  0000A8  0E0D               	movlw	0Dh
  1076  0000AA  B4D8               	btfsc	status,2
  1077  0000AC  5D1E               	subwf	((getNote@i))&0ffh,w
  1078  0000AE  A0D8               	btfss	status,0
  1079  0000B0  EF5C  F000         	goto	i2u5641
  1080  0000B4  EF5E  F000         	goto	i2u5640
  1081  0000B8                     i2u5641:
  1082  0000B8  EF3A  F000         	goto	i2l1085
  1083  0000BC                     i2u5640:
  1084                           	
  1085  0000BC                     i2l1086:		; BSR set to: ?
  1086                           
  1087                           	line	1100
  1088                           ;main.c: 1098: }
  1089                           ;main.c: 1100: if (adc_num == 0) {
  1090  0000BC  662A               	tstfsz	((c:42)),c	;volatile
  1091  0000BE  EF63  F000         	goto	i2u5651
  1092  0000C2  EF65  F000         	goto	i2u5650
  1093  0000C6                     i2u5651:
  1094  0000C6  EF18  F002         	goto	i2l1088
  1095  0000CA                     i2u5650:
  1096                           	line	1101
  1097                           ;main.c: 1101: if (hResult == 0x00) {
  1098  0000CA  0101               	movlb	1	; () banked
  1099  0000CC  0101               	movlb	1	; () banked
  1100  0000CE  671B               	tstfsz	((getNote@hResult))&0ffh
  1101  0000D0  EF6C  F000         	goto	i2u5661
  1102  0000D4  EF6E  F000         	goto	i2u5660
  1103  0000D8                     i2u5661:
  1104  0000D8  EF78  F000         	goto	i2l1089
  1105  0000DC                     i2u5660:
  1106                           	line	1103
  1107                           ;main.c: 1103: new_note = 0x00;
  1108  0000DC  0101               	movlb	1	; () banked
  1109  0000DE  6F20               	movwf	(??_getNote+3+0)&0ffh
  1110  0000E0  0E00               	movlw	low(0)
  1111  0000E2  0101               	movlb	1	; () banked
  1112  0000E4  0101               	movlb	1	; () banked
  1113  0000E6  6F1D               	movwf	((getNote@new_note))&0ffh
  1114  0000E8  0101               	movlb	1	; () banked
  1115  0000EA  5120               	movf	(??_getNote+3+0)&0ffh,w
  1116                           	line	1105
  1117                           ;main.c: 1105: } else if (hResult == 0x01) {
  1118  0000EC  EF16  F002         	goto	i2l1090
  1119                           	
  1120  0000F0                     i2l1089:		; BSR set to: ?
  1121                           
  1122  0000F0  0101               	movlb	1	; () banked
  1123  0000F2  0101               	movlb	1	; () banked
  1124  0000F4  051B               	decf	((getNote@hResult))&0ffh,w
  1125                           
  1126  0000F6  A4D8               	btfss	status,2
  1127  0000F8  EF80  F000         	goto	i2u5671
  1128  0000FC  EF82  F000         	goto	i2u5670
  1129  000100                     i2u5671:
  1130  000100  EF02  F001         	goto	i2l1091
  1131  000104                     i2u5670:
  1132                           	line	1106
  1133                           ;main.c: 1106: if (lResult >= 190 && lResult <= 
                                 210) {
  1134  000104  0EBD               	movlw	(0BEh-1)
  1135  000106  0101               	movlb	1	; () banked
  1136  000108  0101               	movlb	1	; () banked
  1137  00010A  651C               	cpfsgt	((getNote@lResult))&0ffh
  1138  00010C  EF8A  F000         	goto	i2u5681
  1139  000110  EF8C  F000         	goto	i2u5680
  1140  000114                     i2u5681:
  1141  000114  EFA8  F000         	goto	i2l1092
  1142  000118                     i2u5680:
  1143  000118  0ED3               	movlw	(0D3h)&0ffh
  1144  00011A  0101               	movlb	1	; () banked
  1145  00011C  0101               	movlb	1	; () banked
  1146  00011E  611C               	cpfslt	((getNote@lResult))&0ffh
  1147  000120  EF94  F000         	goto	i2u5691
  1148  000124  EF96  F000         	goto	i2u5690
  1149  000128                     i2u5691:
  1150  000128  EFA8  F000         	goto	i2l1092
  1151  00012C                     i2u5690:
  1152                           	line	1108
  1153                           ;main.c: 1108: new_note = 0x51;
  1154  00012C  0101               	movlb	1	; () banked
  1155  00012E  6F20               	movwf	(??_getNote+3+0)&0ffh
  1156  000130  0E51               	movlw	low(051h)
  1157  000132  0101               	movlb	1	; () banked
  1158  000134  0101               	movlb	1	; () banked
  1159  000136  6F1D               	movwf	((getNote@new_note))&0ffh
  1160  000138  0101               	movlb	1	; () banked
  1161  00013A  5120               	movf	(??_getNote+3+0)&0ffh,w
  1162                           	line	1109
  1163                           ;main.c: 1109: led_array[1] = 1;
  1164  00013C  0E01               	movlw	low(01h)
  1165  00013E  6E02               	movwf	(0+((c:0)+02h)),c
  1166  000140  0E00               	movlw	high(01h)
  1167  000142  6E03               	movwf	(1+((c:0)+02h)),c
  1168                           	line	1110
  1169                           ;main.c: 1110: led_array[11] = 1;
  1170  000144  0E01               	movlw	low(01h)
  1171  000146  6E16               	movwf	(0+((c:0)+016h)),c
  1172  000148  0E00               	movlw	high(01h)
  1173  00014A  6E17               	movwf	(1+((c:0)+016h)),c
  1174                           	line	1111
  1175                           ;main.c: 1111: } else if (lResult >= 195 && lRes
                                 ult <= 216) {
  1176  00014C  EF00  F001         	goto	i2l1093
  1177                           	
  1178  000150                     i2l1092:		; BSR set to: ?
  1179                           
  1180  000150  0EC2               	movlw	(0C3h-1)
  1181  000152  0101               	movlb	1	; () banked
  1182  000154  0101               	movlb	1	; () banked
  1183  000156  651C               	cpfsgt	((getNote@lResult))&0ffh
  1184  000158  EFB0  F000         	goto	i2u5701
  1185  00015C  EFB2  F000         	goto	i2u5700
  1186  000160                     i2u5701:
  1187  000160  EFD2  F000         	goto	i2l1094
  1188  000164                     i2u5700:
  1189  000164  0ED9               	movlw	(0D9h)&0ffh
  1190  000166  0101               	movlb	1	; () banked
  1191  000168  0101               	movlb	1	; () banked
  1192  00016A  611C               	cpfslt	((getNote@lResult))&0ffh
  1193  00016C  EFBA  F000         	goto	i2u5711
  1194  000170  EFBC  F000         	goto	i2u5710
  1195  000174                     i2u5711:
  1196  000174  EFD2  F000         	goto	i2l1094
  1197  000178                     i2u5710:
  1198                           	line	1113
  1199                           ;main.c: 1113: new_note = 0x41;
  1200  000178  0101               	movlb	1	; () banked
  1201  00017A  6F20               	movwf	(??_getNote+3+0)&0ffh
  1202  00017C  0E41               	movlw	low(041h)
  1203  00017E  0101               	movlb	1	; () banked
  1204  000180  0101               	movlb	1	; () banked
  1205  000182  6F1D               	movwf	((getNote@new_note))&0ffh
  1206  000184  0101               	movlb	1	; () banked
  1207  000186  5120               	movf	(??_getNote+3+0)&0ffh,w
  1208                           	line	1114
  1209                           ;main.c: 1114: led_array[1] = 1;
  1210  000188  0E01               	movlw	low(01h)
  1211  00018A  6E02               	movwf	(0+((c:0)+02h)),c
  1212  00018C  0E00               	movlw	high(01h)
  1213  00018E  6E03               	movwf	(1+((c:0)+02h)),c
  1214                           	line	1115
  1215                           ;main.c: 1115: led_array[11] = 1;
  1216  000190  0E01               	movlw	low(01h)
  1217  000192  6E16               	movwf	(0+((c:0)+016h)),c
  1218  000194  0E00               	movlw	high(01h)
  1219  000196  6E17               	movwf	(1+((c:0)+016h)),c
  1220                           	line	1116
  1221                           ;main.c: 1116: led_array[12] = 1;
  1222  000198  0E01               	movlw	low(01h)
  1223  00019A  6E18               	movwf	(0+((c:0)+018h)),c
  1224  00019C  0E00               	movlw	high(01h)
  1225  00019E  6E19               	movwf	(1+((c:0)+018h)),c
  1226                           	line	1117
  1227                           ;main.c: 1117: } else if (lResult >= 128 && lRes
                                 ult <= 154) {
  1228  0001A0  EF00  F001         	goto	i2l1093
  1229                           	
  1230  0001A4                     i2l1094:		; BSR set to: ?
  1231                           
  1232  0001A4  0E7F               	movlw	(080h-1)
  1233  0001A6  0101               	movlb	1	; () banked
  1234  0001A8  0101               	movlb	1	; () banked
  1235  0001AA  651C               	cpfsgt	((getNote@lResult))&0ffh
  1236  0001AC  EFDA  F000         	goto	i2u5721
  1237  0001B0  EFDC  F000         	goto	i2u5720
  1238  0001B4                     i2u5721:
  1239  0001B4  EFF8  F000         	goto	i2l1096
  1240  0001B8                     i2u5720:
  1241  0001B8  0E9B               	movlw	(09Bh)&0ffh
  1242  0001BA  0101               	movlb	1	; () banked
  1243  0001BC  0101               	movlb	1	; () banked
  1244  0001BE  611C               	cpfslt	((getNote@lResult))&0ffh
  1245  0001C0  EFE4  F000         	goto	i2u5731
  1246  0001C4  EFE6  F000         	goto	i2u5730
  1247  0001C8                     i2u5731:
  1248  0001C8  EFF8  F000         	goto	i2l1096
  1249  0001CC                     i2u5730:
  1250                           	line	1119
  1251                           ;main.c: 1119: new_note = 0x49;
  1252  0001CC  0101               	movlb	1	; () banked
  1253  0001CE  6F20               	movwf	(??_getNote+3+0)&0ffh
  1254  0001D0  0E49               	movlw	low(049h)
  1255  0001D2  0101               	movlb	1	; () banked
  1256  0001D4  0101               	movlb	1	; () banked
  1257  0001D6  6F1D               	movwf	((getNote@new_note))&0ffh
  1258  0001D8  0101               	movlb	1	; () banked
  1259  0001DA  5120               	movf	(??_getNote+3+0)&0ffh,w
  1260                           	line	1120
  1261                           ;main.c: 1120: led_array[1] = 1;
  1262  0001DC  0E01               	movlw	low(01h)
  1263  0001DE  6E02               	movwf	(0+((c:0)+02h)),c
  1264  0001E0  0E00               	movlw	high(01h)
  1265  0001E2  6E03               	movwf	(1+((c:0)+02h)),c
  1266                           	line	1121
  1267                           ;main.c: 1121: led_array[12] = 1;
  1268  0001E4  0E01               	movlw	low(01h)
  1269  0001E6  6E18               	movwf	(0+((c:0)+018h)),c
  1270  0001E8  0E00               	movlw	high(01h)
  1271  0001EA  6E19               	movwf	(1+((c:0)+018h)),c
  1272                           	line	1122
  1273                           ;main.c: 1122: } else {
  1274  0001EC  EF00  F001         	goto	i2l1093
  1275                           	
  1276  0001F0                     i2l1096:		; BSR set to: ?
  1277                           
  1278                           	line	1124
  1279                           ;main.c: 1124: new_note = 0x00;
  1280  0001F0  0101               	movlb	1	; () banked
  1281  0001F2  6F20               	movwf	(??_getNote+3+0)&0ffh
  1282  0001F4  0E00               	movlw	low(0)
  1283  0001F6  0101               	movlb	1	; () banked
  1284  0001F8  0101               	movlb	1	; () banked
  1285  0001FA  6F1D               	movwf	((getNote@new_note))&0ffh
  1286  0001FC  0101               	movlb	1	; () banked
  1287  0001FE  5120               	movf	(??_getNote+3+0)&0ffh,w
  1288                           	line	1125
  1289                           	
  1290  000200                     i2l1097:		; BSR set to: ?
  1291                           
  1292                           	
  1293  000200                     i2l1095:		; BSR set to: ?
  1294                           
  1295                           	
  1296  000200                     i2l1093:		; BSR set to: ?
  1297                           
  1298                           	line	1127
  1299                           ;main.c: 1125: }
  1300                           ;main.c: 1127: } else if (hResult == 0x02) {
  1301  000200  EF16  F002         	goto	i2l1090
  1302                           	
  1303  000204                     i2l1091:		; BSR set to: ?
  1304                           
  1305  000204  0101               	movlb	1	; () banked
  1306  000206  0101               	movlb	1	; () banked
  1307  000208  511B               	movf	((getNote@hResult))&0ffh,w
  1308  00020A  0A02               	xorlw	2
  1309                           
  1310  00020C  A4D8               	btfss	status,2
  1311  00020E  EF0B  F001         	goto	i2u5741
  1312  000212  EF0D  F001         	goto	i2u5740
  1313  000216                     i2u5741:
  1314  000216  EF8D  F001         	goto	i2l1099
  1315  00021A                     i2u5740:
  1316                           	line	1128
  1317                           ;main.c: 1128: if (lResult >= 222 && lResult <= 
                                 252) {
  1318  00021A  0EDD               	movlw	(0DEh-1)
  1319  00021C  0101               	movlb	1	; () banked
  1320  00021E  0101               	movlb	1	; () banked
  1321  000220  651C               	cpfsgt	((getNote@lResult))&0ffh
  1322  000222  EF15  F001         	goto	i2u5751
  1323  000226  EF17  F001         	goto	i2u5750
  1324  00022A                     i2u5751:
  1325  00022A  EF33  F001         	goto	i2l1100
  1326  00022E                     i2u5750:
  1327  00022E  0EFD               	movlw	(0FDh)&0ffh
  1328  000230  0101               	movlb	1	; () banked
  1329  000232  0101               	movlb	1	; () banked
  1330  000234  611C               	cpfslt	((getNote@lResult))&0ffh
  1331  000236  EF1F  F001         	goto	i2u5761
  1332  00023A  EF21  F001         	goto	i2u5760
  1333  00023E                     i2u5761:
  1334  00023E  EF33  F001         	goto	i2l1100
  1335  000242                     i2u5760:
  1336                           	line	1130
  1337                           ;main.c: 1130: new_note = 0x31;
  1338  000242  0101               	movlb	1	; () banked
  1339  000244  6F20               	movwf	(??_getNote+3+0)&0ffh
  1340  000246  0E31               	movlw	low(031h)
  1341  000248  0101               	movlb	1	; () banked
  1342  00024A  0101               	movlb	1	; () banked
  1343  00024C  6F1D               	movwf	((getNote@new_note))&0ffh
  1344  00024E  0101               	movlb	1	; () banked
  1345  000250  5120               	movf	(??_getNote+3+0)&0ffh,w
  1346                           	line	1131
  1347                           ;main.c: 1131: led_array[1] = 1;
  1348  000252  0E01               	movlw	low(01h)
  1349  000254  6E02               	movwf	(0+((c:0)+02h)),c
  1350  000256  0E00               	movlw	high(01h)
  1351  000258  6E03               	movwf	(1+((c:0)+02h)),c
  1352                           	line	1132
  1353                           ;main.c: 1132: led_array[9] = 1;
  1354  00025A  0E01               	movlw	low(01h)
  1355  00025C  6E12               	movwf	(0+((c:0)+012h)),c
  1356  00025E  0E00               	movlw	high(01h)
  1357  000260  6E13               	movwf	(1+((c:0)+012h)),c
  1358                           	line	1133
  1359                           ;main.c: 1133: } else if (lResult >= 105 && lRes
                                 ult <= 175) {
  1360  000262  EF8B  F001         	goto	i2l1101
  1361                           	
  1362  000266                     i2l1100:		; BSR set to: ?
  1363                           
  1364  000266  0E68               	movlw	(069h-1)
  1365  000268  0101               	movlb	1	; () banked
  1366  00026A  0101               	movlb	1	; () banked
  1367  00026C  651C               	cpfsgt	((getNote@lResult))&0ffh
  1368  00026E  EF3B  F001         	goto	i2u5771
  1369  000272  EF3D  F001         	goto	i2u5770
  1370  000276                     i2u5771:
  1371  000276  EF5D  F001         	goto	i2l1102
  1372  00027A                     i2u5770:
  1373  00027A  0EB0               	movlw	(0B0h)&0ffh
  1374  00027C  0101               	movlb	1	; () banked
  1375  00027E  0101               	movlb	1	; () banked
  1376  000280  611C               	cpfslt	((getNote@lResult))&0ffh
  1377  000282  EF45  F001         	goto	i2u5781
  1378  000286  EF47  F001         	goto	i2u5780
  1379  00028A                     i2u5781:
  1380  00028A  EF5D  F001         	goto	i2l1102
  1381  00028E                     i2u5780:
  1382                           	line	1135
  1383                           ;main.c: 1135: new_note = 0x21;
  1384  00028E  0101               	movlb	1	; () banked
  1385  000290  6F20               	movwf	(??_getNote+3+0)&0ffh
  1386  000292  0E21               	movlw	low(021h)
  1387  000294  0101               	movlb	1	; () banked
  1388  000296  0101               	movlb	1	; () banked
  1389  000298  6F1D               	movwf	((getNote@new_note))&0ffh
  1390  00029A  0101               	movlb	1	; () banked
  1391  00029C  5120               	movf	(??_getNote+3+0)&0ffh,w
  1392                           	line	1136
  1393                           ;main.c: 1136: led_array[1] = 1;
  1394  00029E  0E01               	movlw	low(01h)
  1395  0002A0  6E02               	movwf	(0+((c:0)+02h)),c
  1396  0002A2  0E00               	movlw	high(01h)
  1397  0002A4  6E03               	movwf	(1+((c:0)+02h)),c
  1398                           	line	1137
  1399                           ;main.c: 1137: led_array[9] = 1;
  1400  0002A6  0E01               	movlw	low(01h)
  1401  0002A8  6E12               	movwf	(0+((c:0)+012h)),c
  1402  0002AA  0E00               	movlw	high(01h)
  1403  0002AC  6E13               	movwf	(1+((c:0)+012h)),c
  1404                           	line	1138
  1405                           ;main.c: 1138: led_array[10] = 1;
  1406  0002AE  0E01               	movlw	low(01h)
  1407  0002B0  6E14               	movwf	(0+((c:0)+014h)),c
  1408  0002B2  0E00               	movlw	high(01h)
  1409  0002B4  6E15               	movwf	(1+((c:0)+014h)),c
  1410                           	line	1139
  1411                           ;main.c: 1139: } else if (lResult >= 105 && lRes
                                 ult <= 148) {
  1412  0002B6  EF8B  F001         	goto	i2l1101
  1413                           	
  1414  0002BA                     i2l1102:		; BSR set to: ?
  1415                           
  1416  0002BA  0E68               	movlw	(069h-1)
  1417  0002BC  0101               	movlb	1	; () banked
  1418  0002BE  0101               	movlb	1	; () banked
  1419  0002C0  651C               	cpfsgt	((getNote@lResult))&0ffh
  1420  0002C2  EF65  F001         	goto	i2u5791
  1421  0002C6  EF67  F001         	goto	i2u5790
  1422  0002CA                     i2u5791:
  1423  0002CA  EF83  F001         	goto	i2l1104
  1424  0002CE                     i2u5790:
  1425  0002CE  0E95               	movlw	(095h)&0ffh
  1426  0002D0  0101               	movlb	1	; () banked
  1427  0002D2  0101               	movlb	1	; () banked
  1428  0002D4  611C               	cpfslt	((getNote@lResult))&0ffh
  1429  0002D6  EF6F  F001         	goto	i2u5801
  1430  0002DA  EF71  F001         	goto	i2u5800
  1431  0002DE                     i2u5801:
  1432  0002DE  EF83  F001         	goto	i2l1104
  1433  0002E2                     i2u5800:
  1434                           	line	1141
  1435                           ;main.c: 1141: new_note = 0x29;
  1436  0002E2  0101               	movlb	1	; () banked
  1437  0002E4  6F20               	movwf	(??_getNote+3+0)&0ffh
  1438  0002E6  0E29               	movlw	low(029h)
  1439  0002E8  0101               	movlb	1	; () banked
  1440  0002EA  0101               	movlb	1	; () banked
  1441  0002EC  6F1D               	movwf	((getNote@new_note))&0ffh
  1442  0002EE  0101               	movlb	1	; () banked
  1443  0002F0  5120               	movf	(??_getNote+3+0)&0ffh,w
  1444                           	line	1142
  1445                           ;main.c: 1142: led_array[1] = 1;
  1446  0002F2  0E01               	movlw	low(01h)
  1447  0002F4  6E02               	movwf	(0+((c:0)+02h)),c
  1448  0002F6  0E00               	movlw	high(01h)
  1449  0002F8  6E03               	movwf	(1+((c:0)+02h)),c
  1450                           	line	1143
  1451                           ;main.c: 1143: led_array[10] = 1;
  1452  0002FA  0E01               	movlw	low(01h)
  1453  0002FC  6E14               	movwf	(0+((c:0)+014h)),c
  1454  0002FE  0E00               	movlw	high(01h)
  1455  000300  6E15               	movwf	(1+((c:0)+014h)),c
  1456                           	line	1144
  1457                           ;main.c: 1144: } else {
  1458  000302  EF8B  F001         	goto	i2l1101
  1459                           	
  1460  000306                     i2l1104:		; BSR set to: ?
  1461                           
  1462                           	line	1146
  1463                           ;main.c: 1146: new_note = 0x00;
  1464  000306  0101               	movlb	1	; () banked
  1465  000308  6F20               	movwf	(??_getNote+3+0)&0ffh
  1466  00030A  0E00               	movlw	low(0)
  1467  00030C  0101               	movlb	1	; () banked
  1468  00030E  0101               	movlb	1	; () banked
  1469  000310  6F1D               	movwf	((getNote@new_note))&0ffh
  1470  000312  0101               	movlb	1	; () banked
  1471  000314  5120               	movf	(??_getNote+3+0)&0ffh,w
  1472                           	line	1147
  1473                           	
  1474  000316                     i2l1105:		; BSR set to: ?
  1475                           
  1476                           	
  1477  000316                     i2l1103:		; BSR set to: ?
  1478                           
  1479                           	
  1480  000316                     i2l1101:		; BSR set to: ?
  1481                           
  1482                           	line	1149
  1483                           ;main.c: 1147: }
  1484                           ;main.c: 1149: } else if (hResult == 0x03) {
  1485  000316  EF16  F002         	goto	i2l1090
  1486                           	
  1487  00031A                     i2l1099:		; BSR set to: ?
  1488                           
  1489  00031A  0101               	movlb	1	; () banked
  1490  00031C  0101               	movlb	1	; () banked
  1491  00031E  511B               	movf	((getNote@hResult))&0ffh,w
  1492  000320  0A03               	xorlw	3
  1493                           
  1494  000322  A4D8               	btfss	status,2
  1495  000324  EF96  F001         	goto	i2u5811
  1496  000328  EF98  F001         	goto	i2u5810
  1497  00032C                     i2u5811:
  1498  00032C  EF16  F002         	goto	i2l1090
  1499  000330                     i2u5810:
  1500                           	line	1150
  1501                           ;main.c: 1150: if (lResult >= 15 && lResult <= 1
                                 08) {
  1502  000330  0E0E               	movlw	(0Fh-1)
  1503  000332  0101               	movlb	1	; () banked
  1504  000334  0101               	movlb	1	; () banked
  1505  000336  651C               	cpfsgt	((getNote@lResult))&0ffh
  1506  000338  EFA0  F001         	goto	i2u5821
  1507  00033C  EFA2  F001         	goto	i2u5820
  1508  000340                     i2u5821:
  1509  000340  EFBE  F001         	goto	i2l1108
  1510  000344                     i2u5820:
  1511  000344  0E6D               	movlw	(06Dh)&0ffh
  1512  000346  0101               	movlb	1	; () banked
  1513  000348  0101               	movlb	1	; () banked
  1514  00034A  611C               	cpfslt	((getNote@lResult))&0ffh
  1515  00034C  EFAA  F001         	goto	i2u5831
  1516  000350  EFAC  F001         	goto	i2u5830
  1517  000354                     i2u5831:
  1518  000354  EFBE  F001         	goto	i2l1108
  1519  000358                     i2u5830:
  1520                           	line	1152
  1521                           ;main.c: 1152: new_note = 0x11;
  1522  000358  0101               	movlb	1	; () banked
  1523  00035A  6F20               	movwf	(??_getNote+3+0)&0ffh
  1524  00035C  0E11               	movlw	low(011h)
  1525  00035E  0101               	movlb	1	; () banked
  1526  000360  0101               	movlb	1	; () banked
  1527  000362  6F1D               	movwf	((getNote@new_note))&0ffh
  1528  000364  0101               	movlb	1	; () banked
  1529  000366  5120               	movf	(??_getNote+3+0)&0ffh,w
  1530                           	line	1153
  1531                           ;main.c: 1153: led_array[1] = 1;
  1532  000368  0E01               	movlw	low(01h)
  1533  00036A  6E02               	movwf	(0+((c:0)+02h)),c
  1534  00036C  0E00               	movlw	high(01h)
  1535  00036E  6E03               	movwf	(1+((c:0)+02h)),c
  1536                           	line	1154
  1537                           ;main.c: 1154: led_array[7] = 1;
  1538  000370  0E01               	movlw	low(01h)
  1539  000372  6E0E               	movwf	(0+((c:0)+0Eh)),c
  1540  000374  0E00               	movlw	high(01h)
  1541  000376  6E0F               	movwf	(1+((c:0)+0Eh)),c
  1542                           	line	1155
  1543                           ;main.c: 1155: } else if (lResult >= 116 && lRes
                                 ult <= 183) {
  1544  000378  EF16  F002         	goto	i2l1090
  1545                           	
  1546  00037C                     i2l1108:		; BSR set to: ?
  1547                           
  1548  00037C  0E73               	movlw	(074h-1)
  1549  00037E  0101               	movlb	1	; () banked
  1550  000380  0101               	movlb	1	; () banked
  1551  000382  651C               	cpfsgt	((getNote@lResult))&0ffh
  1552  000384  EFC6  F001         	goto	i2u5841
  1553  000388  EFC8  F001         	goto	i2u5840
  1554  00038C                     i2u5841:
  1555  00038C  EFE8  F001         	goto	i2l1110
  1556  000390                     i2u5840:
  1557  000390  0EB8               	movlw	(0B8h)&0ffh
  1558  000392  0101               	movlb	1	; () banked
  1559  000394  0101               	movlb	1	; () banked
  1560  000396  611C               	cpfslt	((getNote@lResult))&0ffh
  1561  000398  EFD0  F001         	goto	i2u5851
  1562  00039C  EFD2  F001         	goto	i2u5850
  1563  0003A0                     i2u5851:
  1564  0003A0  EFE8  F001         	goto	i2l1110
  1565  0003A4                     i2u5850:
  1566                           	line	1157
  1567                           ;main.c: 1157: new_note = 0x01;
  1568  0003A4  0101               	movlb	1	; () banked
  1569  0003A6  6F20               	movwf	(??_getNote+3+0)&0ffh
  1570  0003A8  0E01               	movlw	low(01h)
  1571  0003AA  0101               	movlb	1	; () banked
  1572  0003AC  0101               	movlb	1	; () banked
  1573  0003AE  6F1D               	movwf	((getNote@new_note))&0ffh
  1574  0003B0  0101               	movlb	1	; () banked
  1575  0003B2  5120               	movf	(??_getNote+3+0)&0ffh,w
  1576                           	line	1158
  1577                           ;main.c: 1158: led_array[1] = 1;
  1578  0003B4  0E01               	movlw	low(01h)
  1579  0003B6  6E02               	movwf	(0+((c:0)+02h)),c
  1580  0003B8  0E00               	movlw	high(01h)
  1581  0003BA  6E03               	movwf	(1+((c:0)+02h)),c
  1582                           	line	1159
  1583                           ;main.c: 1159: led_array[7] = 1;
  1584  0003BC  0E01               	movlw	low(01h)
  1585  0003BE  6E0E               	movwf	(0+((c:0)+0Eh)),c
  1586  0003C0  0E00               	movlw	high(01h)
  1587  0003C2  6E0F               	movwf	(1+((c:0)+0Eh)),c
  1588                           	line	1160
  1589                           ;main.c: 1160: led_array[8] = 1;
  1590  0003C4  0E01               	movlw	low(01h)
  1591  0003C6  6E10               	movwf	(0+((c:0)+010h)),c
  1592  0003C8  0E00               	movlw	high(01h)
  1593  0003CA  6E11               	movwf	(1+((c:0)+010h)),c
  1594                           	line	1161
  1595                           ;main.c: 1161: } else if (lResult >= 192 && lRes
                                 ult <= 227) {
  1596  0003CC  EF16  F002         	goto	i2l1090
  1597                           	
  1598  0003D0                     i2l1110:		; BSR set to: ?
  1599                           
  1600  0003D0  0EBF               	movlw	(0C0h-1)
  1601  0003D2  0101               	movlb	1	; () banked
  1602  0003D4  0101               	movlb	1	; () banked
  1603  0003D6  651C               	cpfsgt	((getNote@lResult))&0ffh
  1604  0003D8  EFF0  F001         	goto	i2u5861
  1605  0003DC  EFF2  F001         	goto	i2u5860
  1606  0003E0                     i2u5861:
  1607  0003E0  EF0E  F002         	goto	i2l1112
  1608  0003E4                     i2u5860:
  1609  0003E4  0EE4               	movlw	(0E4h)&0ffh
  1610  0003E6  0101               	movlb	1	; () banked
  1611  0003E8  0101               	movlb	1	; () banked
  1612  0003EA  611C               	cpfslt	((getNote@lResult))&0ffh
  1613  0003EC  EFFA  F001         	goto	i2u5871
  1614  0003F0  EFFC  F001         	goto	i2u5870
  1615  0003F4                     i2u5871:
  1616  0003F4  EF0E  F002         	goto	i2l1112
  1617  0003F8                     i2u5870:
  1618                           	line	1163
  1619                           ;main.c: 1163: new_note = 0x09;
  1620  0003F8  0101               	movlb	1	; () banked
  1621  0003FA  6F20               	movwf	(??_getNote+3+0)&0ffh
  1622  0003FC  0E09               	movlw	low(09h)
  1623  0003FE  0101               	movlb	1	; () banked
  1624  000400  0101               	movlb	1	; () banked
  1625  000402  6F1D               	movwf	((getNote@new_note))&0ffh
  1626  000404  0101               	movlb	1	; () banked
  1627  000406  5120               	movf	(??_getNote+3+0)&0ffh,w
  1628                           	line	1164
  1629                           ;main.c: 1164: led_array[1] = 1;
  1630  000408  0E01               	movlw	low(01h)
  1631  00040A  6E02               	movwf	(0+((c:0)+02h)),c
  1632  00040C  0E00               	movlw	high(01h)
  1633  00040E  6E03               	movwf	(1+((c:0)+02h)),c
  1634                           	line	1165
  1635                           ;main.c: 1165: led_array[8] = 1;
  1636  000410  0E01               	movlw	low(01h)
  1637  000412  6E10               	movwf	(0+((c:0)+010h)),c
  1638  000414  0E00               	movlw	high(01h)
  1639  000416  6E11               	movwf	(1+((c:0)+010h)),c
  1640                           	line	1166
  1641                           ;main.c: 1166: } else {
  1642  000418  EF16  F002         	goto	i2l1090
  1643                           	
  1644  00041C                     i2l1112:		; BSR set to: ?
  1645                           
  1646                           	line	1168
  1647                           ;main.c: 1168: new_note = 0x00;
  1648  00041C  0101               	movlb	1	; () banked
  1649  00041E  6F20               	movwf	(??_getNote+3+0)&0ffh
  1650  000420  0E00               	movlw	low(0)
  1651  000422  0101               	movlb	1	; () banked
  1652  000424  0101               	movlb	1	; () banked
  1653  000426  6F1D               	movwf	((getNote@new_note))&0ffh
  1654  000428  0101               	movlb	1	; () banked
  1655  00042A  5120               	movf	(??_getNote+3+0)&0ffh,w
  1656                           	line	1169
  1657                           	
  1658  00042C                     i2l1113:		; BSR set to: ?
  1659                           
  1660                           	
  1661  00042C                     i2l1111:		; BSR set to: ?
  1662                           
  1663                           	
  1664  00042C                     i2l1109:		; BSR set to: ?
  1665                           
  1666                           	line	1170
  1667                           	
  1668  00042C                     i2l1107:		; BSR set to: ?
  1669                           
  1670                           	line	1172
  1671                           	
  1672  00042C                     i2l1106:		; BSR set to: ?
  1673                           
  1674                           	
  1675  00042C                     i2l1098:		; BSR set to: ?
  1676                           
  1677                           	
  1678  00042C                     i2l1090:		; BSR set to: ?
  1679                           
  1680                           ;main.c: 1169: }
  1681                           ;main.c: 1170: }
  1682                           ;main.c: 1172: } else if (adc_num == 1) {
  1683  00042C  EF55  F00C         	goto	i2l1114
  1684                           	
  1685  000430                     i2l1088:		; BSR set to: ?
  1686                           
  1687  000430  042A               	decf	((c:42)),c,w	;volatile
  1688                           
  1689  000432  A4D8               	btfss	status,2
  1690  000434  EF1E  F002         	goto	i2u5881
  1691  000438  EF20  F002         	goto	i2u5880
  1692  00043C                     i2u5881:
  1693  00043C  EFC9  F003         	goto	i2l1115
  1694  000440                     i2u5880:
  1695                           	line	1173
  1696                           ;main.c: 1173: if (hResult == 0x00) {
  1697  000440  0101               	movlb	1	; () banked
  1698  000442  0101               	movlb	1	; () banked
  1699  000444  671B               	tstfsz	((getNote@hResult))&0ffh
  1700  000446  EF27  F002         	goto	i2u5891
  1701  00044A  EF29  F002         	goto	i2u5890
  1702  00044E                     i2u5891:
  1703  00044E  EF33  F002         	goto	i2l1116
  1704  000452                     i2u5890:
  1705                           	line	1175
  1706                           ;main.c: 1175: new_note = 0x00;
  1707  000452  0101               	movlb	1	; () banked
  1708  000454  6F20               	movwf	(??_getNote+3+0)&0ffh
  1709  000456  0E00               	movlw	low(0)
  1710  000458  0101               	movlb	1	; () banked
  1711  00045A  0101               	movlb	1	; () banked
  1712  00045C  6F1D               	movwf	((getNote@new_note))&0ffh
  1713  00045E  0101               	movlb	1	; () banked
  1714  000460  5120               	movf	(??_getNote+3+0)&0ffh,w
  1715                           	line	1176
  1716                           ;main.c: 1176: } else if (hResult == 0x01) {
  1717  000462  EFC7  F003         	goto	i2l1117
  1718                           	
  1719  000466                     i2l1116:		; BSR set to: ?
  1720                           
  1721  000466  0101               	movlb	1	; () banked
  1722  000468  0101               	movlb	1	; () banked
  1723  00046A  051B               	decf	((getNote@hResult))&0ffh,w
  1724                           
  1725  00046C  A4D8               	btfss	status,2
  1726  00046E  EF3B  F002         	goto	i2u5901
  1727  000472  EF3D  F002         	goto	i2u5900
  1728  000476                     i2u5901:
  1729  000476  EFBD  F002         	goto	i2l1118
  1730  00047A                     i2u5900:
  1731                           	line	1177
  1732                           ;main.c: 1177: if (lResult >= 187 && lResult <= 
                                 213) {
  1733  00047A  0EBA               	movlw	(0BBh-1)
  1734  00047C  0101               	movlb	1	; () banked
  1735  00047E  0101               	movlb	1	; () banked
  1736  000480  651C               	cpfsgt	((getNote@lResult))&0ffh
  1737  000482  EF45  F002         	goto	i2u5911
  1738  000486  EF47  F002         	goto	i2u5910
  1739  00048A                     i2u5911:
  1740  00048A  EF63  F002         	goto	i2l1119
  1741  00048E                     i2u5910:
  1742  00048E  0ED6               	movlw	(0D6h)&0ffh
  1743  000490  0101               	movlb	1	; () banked
  1744  000492  0101               	movlb	1	; () banked
  1745  000494  611C               	cpfslt	((getNote@lResult))&0ffh
  1746  000496  EF4F  F002         	goto	i2u5921
  1747  00049A  EF51  F002         	goto	i2u5920
  1748  00049E                     i2u5921:
  1749  00049E  EF63  F002         	goto	i2l1119
  1750  0004A2                     i2u5920:
  1751                           	line	1179
  1752                           ;main.c: 1179: new_note = 0x52;
  1753  0004A2  0101               	movlb	1	; () banked
  1754  0004A4  6F20               	movwf	(??_getNote+3+0)&0ffh
  1755  0004A6  0E52               	movlw	low(052h)
  1756  0004A8  0101               	movlb	1	; () banked
  1757  0004AA  0101               	movlb	1	; () banked
  1758  0004AC  6F1D               	movwf	((getNote@new_note))&0ffh
  1759  0004AE  0101               	movlb	1	; () banked
  1760  0004B0  5120               	movf	(??_getNote+3+0)&0ffh,w
  1761                           	line	1180
  1762                           ;main.c: 1180: led_array[0] = 1;
  1763  0004B2  0E01               	movlw	low(01h)
  1764  0004B4  6E00               	movwf	((c:0)),c
  1765  0004B6  0E00               	movlw	high(01h)
  1766  0004B8  6E01               	movwf	((c:0+1)),c
  1767                           	line	1181
  1768                           ;main.c: 1181: led_array[11] = 1;
  1769  0004BA  0E01               	movlw	low(01h)
  1770  0004BC  6E16               	movwf	(0+((c:0)+016h)),c
  1771  0004BE  0E00               	movlw	high(01h)
  1772  0004C0  6E17               	movwf	(1+((c:0)+016h)),c
  1773                           	line	1182
  1774                           ;main.c: 1182: } else if (lResult >= 161 && lRes
                                 ult <= 182) {
  1775  0004C2  EFBB  F002         	goto	i2l1120
  1776                           	
  1777  0004C6                     i2l1119:		; BSR set to: ?
  1778                           
  1779  0004C6  0EA0               	movlw	(0A1h-1)
  1780  0004C8  0101               	movlb	1	; () banked
  1781  0004CA  0101               	movlb	1	; () banked
  1782  0004CC  651C               	cpfsgt	((getNote@lResult))&0ffh
  1783  0004CE  EF6B  F002         	goto	i2u5931
  1784  0004D2  EF6D  F002         	goto	i2u5930
  1785  0004D6                     i2u5931:
  1786  0004D6  EF8D  F002         	goto	i2l1121
  1787  0004DA                     i2u5930:
  1788  0004DA  0EB7               	movlw	(0B7h)&0ffh
  1789  0004DC  0101               	movlb	1	; () banked
  1790  0004DE  0101               	movlb	1	; () banked
  1791  0004E0  611C               	cpfslt	((getNote@lResult))&0ffh
  1792  0004E2  EF75  F002         	goto	i2u5941
  1793  0004E6  EF77  F002         	goto	i2u5940
  1794  0004EA                     i2u5941:
  1795  0004EA  EF8D  F002         	goto	i2l1121
  1796  0004EE                     i2u5940:
  1797                           	line	1184
  1798                           ;main.c: 1184: new_note = 0x42;
  1799  0004EE  0101               	movlb	1	; () banked
  1800  0004F0  6F20               	movwf	(??_getNote+3+0)&0ffh
  1801  0004F2  0E42               	movlw	low(042h)
  1802  0004F4  0101               	movlb	1	; () banked
  1803  0004F6  0101               	movlb	1	; () banked
  1804  0004F8  6F1D               	movwf	((getNote@new_note))&0ffh
  1805  0004FA  0101               	movlb	1	; () banked
  1806  0004FC  5120               	movf	(??_getNote+3+0)&0ffh,w
  1807                           	line	1185
  1808                           ;main.c: 1185: led_array[0] = 1;
  1809  0004FE  0E01               	movlw	low(01h)
  1810  000500  6E00               	movwf	((c:0)),c
  1811  000502  0E00               	movlw	high(01h)
  1812  000504  6E01               	movwf	((c:0+1)),c
  1813                           	line	1186
  1814                           ;main.c: 1186: led_array[11] = 1;
  1815  000506  0E01               	movlw	low(01h)
  1816  000508  6E16               	movwf	(0+((c:0)+016h)),c
  1817  00050A  0E00               	movlw	high(01h)
  1818  00050C  6E17               	movwf	(1+((c:0)+016h)),c
  1819                           	line	1187
  1820                           ;main.c: 1187: led_array[12] = 1;
  1821  00050E  0E01               	movlw	low(01h)
  1822  000510  6E18               	movwf	(0+((c:0)+018h)),c
  1823  000512  0E00               	movlw	high(01h)
  1824  000514  6E19               	movwf	(1+((c:0)+018h)),c
  1825                           	line	1188
  1826                           ;main.c: 1188: } else if (lResult >= 120 && lRes
                                 ult <= 150) {
  1827  000516  EFBB  F002         	goto	i2l1120
  1828                           	
  1829  00051A                     i2l1121:		; BSR set to: ?
  1830                           
  1831  00051A  0E77               	movlw	(078h-1)
  1832  00051C  0101               	movlb	1	; () banked
  1833  00051E  0101               	movlb	1	; () banked
  1834  000520  651C               	cpfsgt	((getNote@lResult))&0ffh
  1835  000522  EF95  F002         	goto	i2u5951
  1836  000526  EF97  F002         	goto	i2u5950
  1837  00052A                     i2u5951:
  1838  00052A  EFB3  F002         	goto	i2l1123
  1839  00052E                     i2u5950:
  1840  00052E  0E97               	movlw	(097h)&0ffh
  1841  000530  0101               	movlb	1	; () banked
  1842  000532  0101               	movlb	1	; () banked
  1843  000534  611C               	cpfslt	((getNote@lResult))&0ffh
  1844  000536  EF9F  F002         	goto	i2u5961
  1845  00053A  EFA1  F002         	goto	i2u5960
  1846  00053E                     i2u5961:
  1847  00053E  EFB3  F002         	goto	i2l1123
  1848  000542                     i2u5960:
  1849                           	line	1190
  1850                           ;main.c: 1190: new_note = 0x4a;
  1851  000542  0101               	movlb	1	; () banked
  1852  000544  6F20               	movwf	(??_getNote+3+0)&0ffh
  1853  000546  0E4A               	movlw	low(04Ah)
  1854  000548  0101               	movlb	1	; () banked
  1855  00054A  0101               	movlb	1	; () banked
  1856  00054C  6F1D               	movwf	((getNote@new_note))&0ffh
  1857  00054E  0101               	movlb	1	; () banked
  1858  000550  5120               	movf	(??_getNote+3+0)&0ffh,w
  1859                           	line	1191
  1860                           ;main.c: 1191: led_array[0] = 1;
  1861  000552  0E01               	movlw	low(01h)
  1862  000554  6E00               	movwf	((c:0)),c
  1863  000556  0E00               	movlw	high(01h)
  1864  000558  6E01               	movwf	((c:0+1)),c
  1865                           	line	1192
  1866                           ;main.c: 1192: led_array[12] = 1;
  1867  00055A  0E01               	movlw	low(01h)
  1868  00055C  6E18               	movwf	(0+((c:0)+018h)),c
  1869  00055E  0E00               	movlw	high(01h)
  1870  000560  6E19               	movwf	(1+((c:0)+018h)),c
  1871                           	line	1193
  1872                           ;main.c: 1193: } else {
  1873  000562  EFBB  F002         	goto	i2l1120
  1874                           	
  1875  000566                     i2l1123:		; BSR set to: ?
  1876                           
  1877                           	line	1195
  1878                           ;main.c: 1195: new_note = 0x00;
  1879  000566  0101               	movlb	1	; () banked
  1880  000568  6F20               	movwf	(??_getNote+3+0)&0ffh
  1881  00056A  0E00               	movlw	low(0)
  1882  00056C  0101               	movlb	1	; () banked
  1883  00056E  0101               	movlb	1	; () banked
  1884  000570  6F1D               	movwf	((getNote@new_note))&0ffh
  1885  000572  0101               	movlb	1	; () banked
  1886  000574  5120               	movf	(??_getNote+3+0)&0ffh,w
  1887                           	line	1196
  1888                           	
  1889  000576                     i2l1124:		; BSR set to: ?
  1890                           
  1891                           	
  1892  000576                     i2l1122:		; BSR set to: ?
  1893                           
  1894                           	
  1895  000576                     i2l1120:		; BSR set to: ?
  1896                           
  1897                           	line	1198
  1898                           ;main.c: 1196: }
  1899                           ;main.c: 1198: } else if (hResult == 0x02) {
  1900  000576  EFC7  F003         	goto	i2l1117
  1901                           	
  1902  00057A                     i2l1118:		; BSR set to: ?
  1903                           
  1904  00057A  0101               	movlb	1	; () banked
  1905  00057C  0101               	movlb	1	; () banked
  1906  00057E  511B               	movf	((getNote@hResult))&0ffh,w
  1907  000580  0A02               	xorlw	2
  1908                           
  1909  000582  A4D8               	btfss	status,2
  1910  000584  EFC6  F002         	goto	i2u5971
  1911  000588  EFC8  F002         	goto	i2u5970
  1912  00058C                     i2u5971:
  1913  00058C  EF48  F003         	goto	i2l1126
  1914  000590                     i2u5970:
  1915                           	line	1199
  1916                           ;main.c: 1199: if (lResult >= 206 && lResult <= 
                                 232) {
  1917  000590  0ECD               	movlw	(0CEh-1)
  1918  000592  0101               	movlb	1	; () banked
  1919  000594  0101               	movlb	1	; () banked
  1920  000596  651C               	cpfsgt	((getNote@lResult))&0ffh
  1921  000598  EFD0  F002         	goto	i2u5981
  1922  00059C  EFD2  F002         	goto	i2u5980
  1923  0005A0                     i2u5981:
  1924  0005A0  EFEE  F002         	goto	i2l1127
  1925  0005A4                     i2u5980:
  1926  0005A4  0EE9               	movlw	(0E9h)&0ffh
  1927  0005A6  0101               	movlb	1	; () banked
  1928  0005A8  0101               	movlb	1	; () banked
  1929  0005AA  611C               	cpfslt	((getNote@lResult))&0ffh
  1930  0005AC  EFDA  F002         	goto	i2u5991
  1931  0005B0  EFDC  F002         	goto	i2u5990
  1932  0005B4                     i2u5991:
  1933  0005B4  EFEE  F002         	goto	i2l1127
  1934  0005B8                     i2u5990:
  1935                           	line	1201
  1936                           ;main.c: 1201: new_note = 0x32;
  1937  0005B8  0101               	movlb	1	; () banked
  1938  0005BA  6F20               	movwf	(??_getNote+3+0)&0ffh
  1939  0005BC  0E32               	movlw	low(032h)
  1940  0005BE  0101               	movlb	1	; () banked
  1941  0005C0  0101               	movlb	1	; () banked
  1942  0005C2  6F1D               	movwf	((getNote@new_note))&0ffh
  1943  0005C4  0101               	movlb	1	; () banked
  1944  0005C6  5120               	movf	(??_getNote+3+0)&0ffh,w
  1945                           	line	1202
  1946                           ;main.c: 1202: led_array[0] = 1;
  1947  0005C8  0E01               	movlw	low(01h)
  1948  0005CA  6E00               	movwf	((c:0)),c
  1949  0005CC  0E00               	movlw	high(01h)
  1950  0005CE  6E01               	movwf	((c:0+1)),c
  1951                           	line	1203
  1952                           ;main.c: 1203: led_array[9] = 1;
  1953  0005D0  0E01               	movlw	low(01h)
  1954  0005D2  6E12               	movwf	(0+((c:0)+012h)),c
  1955  0005D4  0E00               	movlw	high(01h)
  1956  0005D6  6E13               	movwf	(1+((c:0)+012h)),c
  1957                           	line	1204
  1958                           ;main.c: 1204: } else if (lResult >= 165 && lRes
                                 ult <= 238) {
  1959  0005D8  EF46  F003         	goto	i2l1128
  1960                           	
  1961  0005DC                     i2l1127:		; BSR set to: ?
  1962                           
  1963  0005DC  0EA4               	movlw	(0A5h-1)
  1964  0005DE  0101               	movlb	1	; () banked
  1965  0005E0  0101               	movlb	1	; () banked
  1966  0005E2  651C               	cpfsgt	((getNote@lResult))&0ffh
  1967  0005E4  EFF6  F002         	goto	i2u6001
  1968  0005E8  EFF8  F002         	goto	i2u6000
  1969  0005EC                     i2u6001:
  1970  0005EC  EF0C  F003         	goto	i2l1129
  1971  0005F0                     i2u6000:
  1972  0005F0  0EEF               	movlw	(0EFh)&0ffh
  1973  0005F2  0101               	movlb	1	; () banked
  1974  0005F4  0101               	movlb	1	; () banked
  1975  0005F6  611C               	cpfslt	((getNote@lResult))&0ffh
  1976  0005F8  EF00  F003         	goto	i2u6011
  1977  0005FC  EF02  F003         	goto	i2u6010
  1978  000600                     i2u6011:
  1979  000600  EF0C  F003         	goto	i2l1129
  1980  000604                     i2u6010:
  1981                           	line	1206
  1982                           ;main.c: 1206: new_note = 0x22;
  1983  000604  0101               	movlb	1	; () banked
  1984  000606  6F20               	movwf	(??_getNote+3+0)&0ffh
  1985  000608  0E22               	movlw	low(022h)
  1986  00060A  0101               	movlb	1	; () banked
  1987  00060C  0101               	movlb	1	; () banked
  1988  00060E  6F1D               	movwf	((getNote@new_note))&0ffh
  1989  000610  0101               	movlb	1	; () banked
  1990  000612  5120               	movf	(??_getNote+3+0)&0ffh,w
  1991                           	line	1207
  1992                           ;main.c: 1207: } else if (lResult >= 109 && lRes
                                 ult <= 140) {
  1993  000614  EF46  F003         	goto	i2l1128
  1994                           	
  1995  000618                     i2l1129:		; BSR set to: ?
  1996                           
  1997  000618  0E6C               	movlw	(06Dh-1)
  1998  00061A  0101               	movlb	1	; () banked
  1999  00061C  0101               	movlb	1	; () banked
  2000  00061E  651C               	cpfsgt	((getNote@lResult))&0ffh
  2001  000620  EF14  F003         	goto	i2u6021
  2002  000624  EF16  F003         	goto	i2u6020
  2003  000628                     i2u6021:
  2004  000628  EF36  F003         	goto	i2l1131
  2005  00062C                     i2u6020:
  2006  00062C  0E8D               	movlw	(08Dh)&0ffh
  2007  00062E  0101               	movlb	1	; () banked
  2008  000630  0101               	movlb	1	; () banked
  2009  000632  611C               	cpfslt	((getNote@lResult))&0ffh
  2010  000634  EF1E  F003         	goto	i2u6031
  2011  000638  EF20  F003         	goto	i2u6030
  2012  00063C                     i2u6031:
  2013  00063C  EF36  F003         	goto	i2l1131
  2014  000640                     i2u6030:
  2015                           	line	1209
  2016                           ;main.c: 1209: new_note = 0x2a;
  2017  000640  0101               	movlb	1	; () banked
  2018  000642  6F20               	movwf	(??_getNote+3+0)&0ffh
  2019  000644  0E2A               	movlw	low(02Ah)
  2020  000646  0101               	movlb	1	; () banked
  2021  000648  0101               	movlb	1	; () banked
  2022  00064A  6F1D               	movwf	((getNote@new_note))&0ffh
  2023  00064C  0101               	movlb	1	; () banked
  2024  00064E  5120               	movf	(??_getNote+3+0)&0ffh,w
  2025                           	line	1210
  2026                           ;main.c: 1210: led_array[0] = 1;
  2027  000650  0E01               	movlw	low(01h)
  2028  000652  6E00               	movwf	((c:0)),c
  2029  000654  0E00               	movlw	high(01h)
  2030  000656  6E01               	movwf	((c:0+1)),c
  2031                           	line	1211
  2032                           ;main.c: 1211: led_array[9] = 1;
  2033  000658  0E01               	movlw	low(01h)
  2034  00065A  6E12               	movwf	(0+((c:0)+012h)),c
  2035  00065C  0E00               	movlw	high(01h)
  2036  00065E  6E13               	movwf	(1+((c:0)+012h)),c
  2037                           	line	1212
  2038                           ;main.c: 1212: led_array[10] = 1;
  2039  000660  0E01               	movlw	low(01h)
  2040  000662  6E14               	movwf	(0+((c:0)+014h)),c
  2041  000664  0E00               	movlw	high(01h)
  2042  000666  6E15               	movwf	(1+((c:0)+014h)),c
  2043                           	line	1213
  2044                           ;main.c: 1213: } else {
  2045  000668  EF46  F003         	goto	i2l1128
  2046                           	
  2047  00066C                     i2l1131:		; BSR set to: ?
  2048                           
  2049                           	line	1215
  2050                           ;main.c: 1215: new_note = 0x00;
  2051  00066C  0101               	movlb	1	; () banked
  2052  00066E  6F20               	movwf	(??_getNote+3+0)&0ffh
  2053  000670  0E00               	movlw	low(0)
  2054  000672  0101               	movlb	1	; () banked
  2055  000674  0101               	movlb	1	; () banked
  2056  000676  6F1D               	movwf	((getNote@new_note))&0ffh
  2057  000678  0101               	movlb	1	; () banked
  2058  00067A  5120               	movf	(??_getNote+3+0)&0ffh,w
  2059                           	line	1216
  2060                           ;main.c: 1216: led_array[0] = 1;
  2061  00067C  0E01               	movlw	low(01h)
  2062  00067E  6E00               	movwf	((c:0)),c
  2063  000680  0E00               	movlw	high(01h)
  2064  000682  6E01               	movwf	((c:0+1)),c
  2065                           	line	1217
  2066                           ;main.c: 1217: led_array[10] = 1;
  2067  000684  0E01               	movlw	low(01h)
  2068  000686  6E14               	movwf	(0+((c:0)+014h)),c
  2069  000688  0E00               	movlw	high(01h)
  2070  00068A  6E15               	movwf	(1+((c:0)+014h)),c
  2071                           	line	1218
  2072                           	
  2073  00068C                     i2l1132:		; BSR set to: ?
  2074                           
  2075                           	
  2076  00068C                     i2l1130:		; BSR set to: ?
  2077                           
  2078                           	
  2079  00068C                     i2l1128:		; BSR set to: ?
  2080                           
  2081                           	line	1220
  2082                           ;main.c: 1218: }
  2083                           ;main.c: 1220: } else if (hResult == 0x03) {
  2084  00068C  EFC7  F003         	goto	i2l1117
  2085                           	
  2086  000690                     i2l1126:		; BSR set to: ?
  2087                           
  2088  000690  0101               	movlb	1	; () banked
  2089  000692  0101               	movlb	1	; () banked
  2090  000694  511B               	movf	((getNote@hResult))&0ffh,w
  2091  000696  0A03               	xorlw	3
  2092                           
  2093  000698  A4D8               	btfss	status,2
  2094  00069A  EF51  F003         	goto	i2u6041
  2095  00069E  EF53  F003         	goto	i2u6040
  2096  0006A2                     i2u6041:
  2097  0006A2  EFC7  F003         	goto	i2l1117
  2098  0006A6                     i2u6040:
  2099                           	line	1221
  2100                           ;main.c: 1221: if (lResult >= 0 && lResult <= 17
                                 4) {
  2101  0006A6  0EAF               	movlw	(0AFh)&0ffh
  2102  0006A8  0101               	movlb	1	; () banked
  2103  0006AA  0101               	movlb	1	; () banked
  2104  0006AC  611C               	cpfslt	((getNote@lResult))&0ffh
  2105  0006AE  EF5B  F003         	goto	i2u6051
  2106  0006B2  EF5D  F003         	goto	i2u6050
  2107  0006B6                     i2u6051:
  2108  0006B6  EF6F  F003         	goto	i2l1135
  2109  0006BA                     i2u6050:
  2110                           	line	1223
  2111                           ;main.c: 1223: new_note = 0x12;
  2112  0006BA  0101               	movlb	1	; () banked
  2113  0006BC  6F20               	movwf	(??_getNote+3+0)&0ffh
  2114  0006BE  0E12               	movlw	low(012h)
  2115  0006C0  0101               	movlb	1	; () banked
  2116  0006C2  0101               	movlb	1	; () banked
  2117  0006C4  6F1D               	movwf	((getNote@new_note))&0ffh
  2118  0006C6  0101               	movlb	1	; () banked
  2119  0006C8  5120               	movf	(??_getNote+3+0)&0ffh,w
  2120                           	line	1224
  2121                           ;main.c: 1224: led_array[0] = 1;
  2122  0006CA  0E01               	movlw	low(01h)
  2123  0006CC  6E00               	movwf	((c:0)),c
  2124  0006CE  0E00               	movlw	high(01h)
  2125  0006D0  6E01               	movwf	((c:0+1)),c
  2126                           	line	1225
  2127                           ;main.c: 1225: led_array[7] = 1;
  2128  0006D2  0E01               	movlw	low(01h)
  2129  0006D4  6E0E               	movwf	(0+((c:0)+0Eh)),c
  2130  0006D6  0E00               	movlw	high(01h)
  2131  0006D8  6E0F               	movwf	(1+((c:0)+0Eh)),c
  2132                           	line	1226
  2133                           ;main.c: 1226: } else if (lResult >= 193 && lRes
                                 ult <= 210) {
  2134  0006DA  EFC7  F003         	goto	i2l1117
  2135                           	
  2136  0006DE                     i2l1135:		; BSR set to: ?
  2137                           
  2138  0006DE  0EC0               	movlw	(0C1h-1)
  2139  0006E0  0101               	movlb	1	; () banked
  2140  0006E2  0101               	movlb	1	; () banked
  2141  0006E4  651C               	cpfsgt	((getNote@lResult))&0ffh
  2142  0006E6  EF77  F003         	goto	i2u6061
  2143  0006EA  EF79  F003         	goto	i2u6060
  2144  0006EE                     i2u6061:
  2145  0006EE  EF99  F003         	goto	i2l1137
  2146  0006F2                     i2u6060:
  2147  0006F2  0ED3               	movlw	(0D3h)&0ffh
  2148  0006F4  0101               	movlb	1	; () banked
  2149  0006F6  0101               	movlb	1	; () banked
  2150  0006F8  611C               	cpfslt	((getNote@lResult))&0ffh
  2151  0006FA  EF81  F003         	goto	i2u6071
  2152  0006FE  EF83  F003         	goto	i2u6070
  2153  000702                     i2u6071:
  2154  000702  EF99  F003         	goto	i2l1137
  2155  000706                     i2u6070:
  2156                           	line	1228
  2157                           ;main.c: 1228: new_note = 0x02;
  2158  000706  0101               	movlb	1	; () banked
  2159  000708  6F20               	movwf	(??_getNote+3+0)&0ffh
  2160  00070A  0E02               	movlw	low(02h)
  2161  00070C  0101               	movlb	1	; () banked
  2162  00070E  0101               	movlb	1	; () banked
  2163  000710  6F1D               	movwf	((getNote@new_note))&0ffh
  2164  000712  0101               	movlb	1	; () banked
  2165  000714  5120               	movf	(??_getNote+3+0)&0ffh,w
  2166                           	line	1229
  2167                           ;main.c: 1229: led_array[0] = 1;
  2168  000716  0E01               	movlw	low(01h)
  2169  000718  6E00               	movwf	((c:0)),c
  2170  00071A  0E00               	movlw	high(01h)
  2171  00071C  6E01               	movwf	((c:0+1)),c
  2172                           	line	1230
  2173                           ;main.c: 1230: led_array[7] = 1;
  2174  00071E  0E01               	movlw	low(01h)
  2175  000720  6E0E               	movwf	(0+((c:0)+0Eh)),c
  2176  000722  0E00               	movlw	high(01h)
  2177  000724  6E0F               	movwf	(1+((c:0)+0Eh)),c
  2178                           	line	1231
  2179                           ;main.c: 1231: led_array[8] = 1;
  2180  000726  0E01               	movlw	low(01h)
  2181  000728  6E10               	movwf	(0+((c:0)+010h)),c
  2182  00072A  0E00               	movlw	high(01h)
  2183  00072C  6E11               	movwf	(1+((c:0)+010h)),c
  2184                           	line	1232
  2185                           ;main.c: 1232: } else if (lResult >= 221 && lRes
                                 ult <= 229) {
  2186  00072E  EFC7  F003         	goto	i2l1117
  2187                           	
  2188  000732                     i2l1137:		; BSR set to: ?
  2189                           
  2190  000732  0EDC               	movlw	(0DDh-1)
  2191  000734  0101               	movlb	1	; () banked
  2192  000736  0101               	movlb	1	; () banked
  2193  000738  651C               	cpfsgt	((getNote@lResult))&0ffh
  2194  00073A  EFA1  F003         	goto	i2u6081
  2195  00073E  EFA3  F003         	goto	i2u6080
  2196  000742                     i2u6081:
  2197  000742  EFBF  F003         	goto	i2l1139
  2198  000746                     i2u6080:
  2199  000746  0EE6               	movlw	(0E6h)&0ffh
  2200  000748  0101               	movlb	1	; () banked
  2201  00074A  0101               	movlb	1	; () banked
  2202  00074C  611C               	cpfslt	((getNote@lResult))&0ffh
  2203  00074E  EFAB  F003         	goto	i2u6091
  2204  000752  EFAD  F003         	goto	i2u6090
  2205  000756                     i2u6091:
  2206  000756  EFBF  F003         	goto	i2l1139
  2207  00075A                     i2u6090:
  2208                           	line	1234
  2209                           ;main.c: 1234: new_note = 0x0a;
  2210  00075A  0101               	movlb	1	; () banked
  2211  00075C  6F20               	movwf	(??_getNote+3+0)&0ffh
  2212  00075E  0E0A               	movlw	low(0Ah)
  2213  000760  0101               	movlb	1	; () banked
  2214  000762  0101               	movlb	1	; () banked
  2215  000764  6F1D               	movwf	((getNote@new_note))&0ffh
  2216  000766  0101               	movlb	1	; () banked
  2217  000768  5120               	movf	(??_getNote+3+0)&0ffh,w
  2218                           	line	1235
  2219                           ;main.c: 1235: led_array[0] = 1;
  2220  00076A  0E01               	movlw	low(01h)
  2221  00076C  6E00               	movwf	((c:0)),c
  2222  00076E  0E00               	movlw	high(01h)
  2223  000770  6E01               	movwf	((c:0+1)),c
  2224                           	line	1236
  2225                           ;main.c: 1236: led_array[8] = 1;
  2226  000772  0E01               	movlw	low(01h)
  2227  000774  6E10               	movwf	(0+((c:0)+010h)),c
  2228  000776  0E00               	movlw	high(01h)
  2229  000778  6E11               	movwf	(1+((c:0)+010h)),c
  2230                           	line	1237
  2231                           ;main.c: 1237: } else {
  2232  00077A  EFC7  F003         	goto	i2l1117
  2233                           	
  2234  00077E                     i2l1139:		; BSR set to: ?
  2235                           
  2236                           	line	1239
  2237                           ;main.c: 1239: new_note = 0x00;
  2238  00077E  0101               	movlb	1	; () banked
  2239  000780  6F20               	movwf	(??_getNote+3+0)&0ffh
  2240  000782  0E00               	movlw	low(0)
  2241  000784  0101               	movlb	1	; () banked
  2242  000786  0101               	movlb	1	; () banked
  2243  000788  6F1D               	movwf	((getNote@new_note))&0ffh
  2244  00078A  0101               	movlb	1	; () banked
  2245  00078C  5120               	movf	(??_getNote+3+0)&0ffh,w
  2246                           	line	1240
  2247                           	
  2248  00078E                     i2l1140:		; BSR set to: ?
  2249                           
  2250                           	
  2251  00078E                     i2l1138:		; BSR set to: ?
  2252                           
  2253                           	
  2254  00078E                     i2l1136:		; BSR set to: ?
  2255                           
  2256                           	line	1241
  2257                           	
  2258  00078E                     i2l1134:		; BSR set to: ?
  2259                           
  2260                           	line	1243
  2261                           	
  2262  00078E                     i2l1133:		; BSR set to: ?
  2263                           
  2264                           	
  2265  00078E                     i2l1125:		; BSR set to: ?
  2266                           
  2267                           	
  2268  00078E                     i2l1117:		; BSR set to: ?
  2269                           
  2270                           ;main.c: 1240: }
  2271                           ;main.c: 1241: }
  2272                           ;main.c: 1243: } else if (adc_num == 2) {
  2273  00078E  EF55  F00C         	goto	i2l1114
  2274                           	
  2275  000792                     i2l1115:		; BSR set to: ?
  2276                           
  2277  000792  502A               	movf	((c:42)),c,w	;volatile
  2278  000794  0A02               	xorlw	2
  2279                           
  2280  000796  A4D8               	btfss	status,2
  2281  000798  EFD0  F003         	goto	i2u6101
  2282  00079C  EFD2  F003         	goto	i2u6100
  2283  0007A0                     i2u6101:
  2284  0007A0  EF85  F005         	goto	i2l1142
  2285  0007A4                     i2u6100:
  2286                           	line	1244
  2287                           ;main.c: 1244: if (hResult == 0x00) {
  2288  0007A4  0101               	movlb	1	; () banked
  2289  0007A6  0101               	movlb	1	; () banked
  2290  0007A8  671B               	tstfsz	((getNote@hResult))&0ffh
  2291  0007AA  EFD9  F003         	goto	i2u6111
  2292  0007AE  EFDB  F003         	goto	i2u6110
  2293  0007B2                     i2u6111:
  2294  0007B2  EFE5  F003         	goto	i2l1143
  2295  0007B6                     i2u6110:
  2296                           	line	1246
  2297                           ;main.c: 1246: new_note = 0x00;
  2298  0007B6  0101               	movlb	1	; () banked
  2299  0007B8  6F20               	movwf	(??_getNote+3+0)&0ffh
  2300  0007BA  0E00               	movlw	low(0)
  2301  0007BC  0101               	movlb	1	; () banked
  2302  0007BE  0101               	movlb	1	; () banked
  2303  0007C0  6F1D               	movwf	((getNote@new_note))&0ffh
  2304  0007C2  0101               	movlb	1	; () banked
  2305  0007C4  5120               	movf	(??_getNote+3+0)&0ffh,w
  2306                           	line	1247
  2307                           ;main.c: 1247: } else if (hResult == 0x01) {
  2308  0007C6  EF83  F005         	goto	i2l1144
  2309                           	
  2310  0007CA                     i2l1143:		; BSR set to: ?
  2311                           
  2312  0007CA  0101               	movlb	1	; () banked
  2313  0007CC  0101               	movlb	1	; () banked
  2314  0007CE  051B               	decf	((getNote@hResult))&0ffh,w
  2315                           
  2316  0007D0  A4D8               	btfss	status,2
  2317  0007D2  EFED  F003         	goto	i2u6121
  2318  0007D6  EFEF  F003         	goto	i2u6120
  2319  0007DA                     i2u6121:
  2320  0007DA  EF6F  F004         	goto	i2l1145
  2321  0007DE                     i2u6120:
  2322                           	line	1248
  2323                           ;main.c: 1248: if (lResult >= 218 && lResult <= 
                                 242) {
  2324  0007DE  0ED9               	movlw	(0DAh-1)
  2325  0007E0  0101               	movlb	1	; () banked
  2326  0007E2  0101               	movlb	1	; () banked
  2327  0007E4  651C               	cpfsgt	((getNote@lResult))&0ffh
  2328  0007E6  EFF7  F003         	goto	i2u6131
  2329  0007EA  EFF9  F003         	goto	i2u6130
  2330  0007EE                     i2u6131:
  2331  0007EE  EF15  F004         	goto	i2l1146
  2332  0007F2                     i2u6130:
  2333  0007F2  0EF3               	movlw	(0F3h)&0ffh
  2334  0007F4  0101               	movlb	1	; () banked
  2335  0007F6  0101               	movlb	1	; () banked
  2336  0007F8  611C               	cpfslt	((getNote@lResult))&0ffh
  2337  0007FA  EF01  F004         	goto	i2u6141
  2338  0007FE  EF03  F004         	goto	i2u6140
  2339  000802                     i2u6141:
  2340  000802  EF15  F004         	goto	i2l1146
  2341  000806                     i2u6140:
  2342                           	line	1250
  2343                           ;main.c: 1250: new_note = 0x53;
  2344  000806  0101               	movlb	1	; () banked
  2345  000808  6F20               	movwf	(??_getNote+3+0)&0ffh
  2346  00080A  0E53               	movlw	low(053h)
  2347  00080C  0101               	movlb	1	; () banked
  2348  00080E  0101               	movlb	1	; () banked
  2349  000810  6F1D               	movwf	((getNote@new_note))&0ffh
  2350  000812  0101               	movlb	1	; () banked
  2351  000814  5120               	movf	(??_getNote+3+0)&0ffh,w
  2352                           	line	1251
  2353                           ;main.c: 1251: led_array[6] = 1;
  2354  000816  0E01               	movlw	low(01h)
  2355  000818  6E0C               	movwf	(0+((c:0)+0Ch)),c
  2356  00081A  0E00               	movlw	high(01h)
  2357  00081C  6E0D               	movwf	(1+((c:0)+0Ch)),c
  2358                           	line	1252
  2359                           ;main.c: 1252: led_array[11] = 1;
  2360  00081E  0E01               	movlw	low(01h)
  2361  000820  6E16               	movwf	(0+((c:0)+016h)),c
  2362  000822  0E00               	movlw	high(01h)
  2363  000824  6E17               	movwf	(1+((c:0)+016h)),c
  2364                           	line	1253
  2365                           ;main.c: 1253: } else if (lResult >= 167 && lRes
                                 ult <= 200) {
  2366  000826  EF6D  F004         	goto	i2l1147
  2367                           	
  2368  00082A                     i2l1146:		; BSR set to: ?
  2369                           
  2370  00082A  0EA6               	movlw	(0A7h-1)
  2371  00082C  0101               	movlb	1	; () banked
  2372  00082E  0101               	movlb	1	; () banked
  2373  000830  651C               	cpfsgt	((getNote@lResult))&0ffh
  2374  000832  EF1D  F004         	goto	i2u6151
  2375  000836  EF1F  F004         	goto	i2u6150
  2376  00083A                     i2u6151:
  2377  00083A  EF3F  F004         	goto	i2l1148
  2378  00083E                     i2u6150:
  2379  00083E  0EC9               	movlw	(0C9h)&0ffh
  2380  000840  0101               	movlb	1	; () banked
  2381  000842  0101               	movlb	1	; () banked
  2382  000844  611C               	cpfslt	((getNote@lResult))&0ffh
  2383  000846  EF27  F004         	goto	i2u6161
  2384  00084A  EF29  F004         	goto	i2u6160
  2385  00084E                     i2u6161:
  2386  00084E  EF3F  F004         	goto	i2l1148
  2387  000852                     i2u6160:
  2388                           	line	1255
  2389                           ;main.c: 1255: new_note = 0x43;
  2390  000852  0101               	movlb	1	; () banked
  2391  000854  6F20               	movwf	(??_getNote+3+0)&0ffh
  2392  000856  0E43               	movlw	low(043h)
  2393  000858  0101               	movlb	1	; () banked
  2394  00085A  0101               	movlb	1	; () banked
  2395  00085C  6F1D               	movwf	((getNote@new_note))&0ffh
  2396  00085E  0101               	movlb	1	; () banked
  2397  000860  5120               	movf	(??_getNote+3+0)&0ffh,w
  2398                           	line	1256
  2399                           ;main.c: 1256: led_array[6] = 1;
  2400  000862  0E01               	movlw	low(01h)
  2401  000864  6E0C               	movwf	(0+((c:0)+0Ch)),c
  2402  000866  0E00               	movlw	high(01h)
  2403  000868  6E0D               	movwf	(1+((c:0)+0Ch)),c
  2404                           	line	1257
  2405                           ;main.c: 1257: led_array[11] = 1;
  2406  00086A  0E01               	movlw	low(01h)
  2407  00086C  6E16               	movwf	(0+((c:0)+016h)),c
  2408  00086E  0E00               	movlw	high(01h)
  2409  000870  6E17               	movwf	(1+((c:0)+016h)),c
  2410                           	line	1258
  2411                           ;main.c: 1258: led_array[12] = 1;
  2412  000872  0E01               	movlw	low(01h)
  2413  000874  6E18               	movwf	(0+((c:0)+018h)),c
  2414  000876  0E00               	movlw	high(01h)
  2415  000878  6E19               	movwf	(1+((c:0)+018h)),c
  2416                           	line	1259
  2417                           ;main.c: 1259: } else if (lResult >= 38 && lResu
                                 lt <= 160) {
  2418  00087A  EF6D  F004         	goto	i2l1147
  2419                           	
  2420  00087E                     i2l1148:		; BSR set to: ?
  2421                           
  2422  00087E  0E25               	movlw	(026h-1)
  2423  000880  0101               	movlb	1	; () banked
  2424  000882  0101               	movlb	1	; () banked
  2425  000884  651C               	cpfsgt	((getNote@lResult))&0ffh
  2426  000886  EF47  F004         	goto	i2u6171
  2427  00088A  EF49  F004         	goto	i2u6170
  2428  00088E                     i2u6171:
  2429  00088E  EF65  F004         	goto	i2l1150
  2430  000892                     i2u6170:
  2431  000892  0EA1               	movlw	(0A1h)&0ffh
  2432  000894  0101               	movlb	1	; () banked
  2433  000896  0101               	movlb	1	; () banked
  2434  000898  611C               	cpfslt	((getNote@lResult))&0ffh
  2435  00089A  EF51  F004         	goto	i2u6181
  2436  00089E  EF53  F004         	goto	i2u6180
  2437  0008A2                     i2u6181:
  2438  0008A2  EF65  F004         	goto	i2l1150
  2439  0008A6                     i2u6180:
  2440                           	line	1261
  2441                           ;main.c: 1261: new_note = 0x4b;
  2442  0008A6  0101               	movlb	1	; () banked
  2443  0008A8  6F20               	movwf	(??_getNote+3+0)&0ffh
  2444  0008AA  0E4B               	movlw	low(04Bh)
  2445  0008AC  0101               	movlb	1	; () banked
  2446  0008AE  0101               	movlb	1	; () banked
  2447  0008B0  6F1D               	movwf	((getNote@new_note))&0ffh
  2448  0008B2  0101               	movlb	1	; () banked
  2449  0008B4  5120               	movf	(??_getNote+3+0)&0ffh,w
  2450                           	line	1262
  2451                           ;main.c: 1262: led_array[6] = 1;
  2452  0008B6  0E01               	movlw	low(01h)
  2453  0008B8  6E0C               	movwf	(0+((c:0)+0Ch)),c
  2454  0008BA  0E00               	movlw	high(01h)
  2455  0008BC  6E0D               	movwf	(1+((c:0)+0Ch)),c
  2456                           	line	1263
  2457                           ;main.c: 1263: led_array[12] = 1;
  2458  0008BE  0E01               	movlw	low(01h)
  2459  0008C0  6E18               	movwf	(0+((c:0)+018h)),c
  2460  0008C2  0E00               	movlw	high(01h)
  2461  0008C4  6E19               	movwf	(1+((c:0)+018h)),c
  2462                           	line	1264
  2463                           ;main.c: 1264: } else {
  2464  0008C6  EF6D  F004         	goto	i2l1147
  2465                           	
  2466  0008CA                     i2l1150:		; BSR set to: ?
  2467                           
  2468                           	line	1266
  2469                           ;main.c: 1266: new_note = 0x00;
  2470  0008CA  0101               	movlb	1	; () banked
  2471  0008CC  6F20               	movwf	(??_getNote+3+0)&0ffh
  2472  0008CE  0E00               	movlw	low(0)
  2473  0008D0  0101               	movlb	1	; () banked
  2474  0008D2  0101               	movlb	1	; () banked
  2475  0008D4  6F1D               	movwf	((getNote@new_note))&0ffh
  2476  0008D6  0101               	movlb	1	; () banked
  2477  0008D8  5120               	movf	(??_getNote+3+0)&0ffh,w
  2478                           	line	1267
  2479                           	
  2480  0008DA                     i2l1151:		; BSR set to: ?
  2481                           
  2482                           	
  2483  0008DA                     i2l1149:		; BSR set to: ?
  2484                           
  2485                           	
  2486  0008DA                     i2l1147:		; BSR set to: ?
  2487                           
  2488                           	line	1269
  2489                           ;main.c: 1267: }
  2490                           ;main.c: 1269: } else if (hResult == 0x02) {
  2491  0008DA  EF83  F005         	goto	i2l1144
  2492                           	
  2493  0008DE                     i2l1145:		; BSR set to: ?
  2494                           
  2495  0008DE  0101               	movlb	1	; () banked
  2496  0008E0  0101               	movlb	1	; () banked
  2497  0008E2  511B               	movf	((getNote@hResult))&0ffh,w
  2498  0008E4  0A02               	xorlw	2
  2499                           
  2500  0008E6  A4D8               	btfss	status,2
  2501  0008E8  EF78  F004         	goto	i2u6191
  2502  0008EC  EF7A  F004         	goto	i2u6190
  2503  0008F0                     i2u6191:
  2504  0008F0  EFFA  F004         	goto	i2l1153
  2505  0008F4                     i2u6190:
  2506                           	line	1270
  2507                           ;main.c: 1270: if (lResult >= 201 && lResult <= 
                                 235) {
  2508  0008F4  0EC8               	movlw	(0C9h-1)
  2509  0008F6  0101               	movlb	1	; () banked
  2510  0008F8  0101               	movlb	1	; () banked
  2511  0008FA  651C               	cpfsgt	((getNote@lResult))&0ffh
  2512  0008FC  EF82  F004         	goto	i2u6201
  2513  000900  EF84  F004         	goto	i2u6200
  2514  000904                     i2u6201:
  2515  000904  EFA0  F004         	goto	i2l1154
  2516  000908                     i2u6200:
  2517  000908  0EEC               	movlw	(0ECh)&0ffh
  2518  00090A  0101               	movlb	1	; () banked
  2519  00090C  0101               	movlb	1	; () banked
  2520  00090E  611C               	cpfslt	((getNote@lResult))&0ffh
  2521  000910  EF8C  F004         	goto	i2u6211
  2522  000914  EF8E  F004         	goto	i2u6210
  2523  000918                     i2u6211:
  2524  000918  EFA0  F004         	goto	i2l1154
  2525  00091C                     i2u6210:
  2526                           	line	1272
  2527                           ;main.c: 1272: new_note = 0x33;
  2528  00091C  0101               	movlb	1	; () banked
  2529  00091E  6F20               	movwf	(??_getNote+3+0)&0ffh
  2530  000920  0E33               	movlw	low(033h)
  2531  000922  0101               	movlb	1	; () banked
  2532  000924  0101               	movlb	1	; () banked
  2533  000926  6F1D               	movwf	((getNote@new_note))&0ffh
  2534  000928  0101               	movlb	1	; () banked
  2535  00092A  5120               	movf	(??_getNote+3+0)&0ffh,w
  2536                           	line	1273
  2537                           ;main.c: 1273: led_array[6] = 1;
  2538  00092C  0E01               	movlw	low(01h)
  2539  00092E  6E0C               	movwf	(0+((c:0)+0Ch)),c
  2540  000930  0E00               	movlw	high(01h)
  2541  000932  6E0D               	movwf	(1+((c:0)+0Ch)),c
  2542                           	line	1274
  2543                           ;main.c: 1274: led_array[9] = 1;
  2544  000934  0E01               	movlw	low(01h)
  2545  000936  6E12               	movwf	(0+((c:0)+012h)),c
  2546  000938  0E00               	movlw	high(01h)
  2547  00093A  6E13               	movwf	(1+((c:0)+012h)),c
  2548                           	line	1275
  2549                           ;main.c: 1275: } else if (lResult >= 124 && lRes
                                 ult <= 183) {
  2550  00093C  EFF8  F004         	goto	i2l1155
  2551                           	
  2552  000940                     i2l1154:		; BSR set to: ?
  2553                           
  2554  000940  0E7B               	movlw	(07Ch-1)
  2555  000942  0101               	movlb	1	; () banked
  2556  000944  0101               	movlb	1	; () banked
  2557  000946  651C               	cpfsgt	((getNote@lResult))&0ffh
  2558  000948  EFA8  F004         	goto	i2u6221
  2559  00094C  EFAA  F004         	goto	i2u6220
  2560  000950                     i2u6221:
  2561  000950  EFCA  F004         	goto	i2l1156
  2562  000954                     i2u6220:
  2563  000954  0EB8               	movlw	(0B8h)&0ffh
  2564  000956  0101               	movlb	1	; () banked
  2565  000958  0101               	movlb	1	; () banked
  2566  00095A  611C               	cpfslt	((getNote@lResult))&0ffh
  2567  00095C  EFB2  F004         	goto	i2u6231
  2568  000960  EFB4  F004         	goto	i2u6230
  2569  000964                     i2u6231:
  2570  000964  EFCA  F004         	goto	i2l1156
  2571  000968                     i2u6230:
  2572                           	line	1277
  2573                           ;main.c: 1277: new_note = 0x23;
  2574  000968  0101               	movlb	1	; () banked
  2575  00096A  6F20               	movwf	(??_getNote+3+0)&0ffh
  2576  00096C  0E23               	movlw	low(023h)
  2577  00096E  0101               	movlb	1	; () banked
  2578  000970  0101               	movlb	1	; () banked
  2579  000972  6F1D               	movwf	((getNote@new_note))&0ffh
  2580  000974  0101               	movlb	1	; () banked
  2581  000976  5120               	movf	(??_getNote+3+0)&0ffh,w
  2582                           	line	1278
  2583                           ;main.c: 1278: led_array[6] = 1;
  2584  000978  0E01               	movlw	low(01h)
  2585  00097A  6E0C               	movwf	(0+((c:0)+0Ch)),c
  2586  00097C  0E00               	movlw	high(01h)
  2587  00097E  6E0D               	movwf	(1+((c:0)+0Ch)),c
  2588                           	line	1279
  2589                           ;main.c: 1279: led_array[9] = 1;
  2590  000980  0E01               	movlw	low(01h)
  2591  000982  6E12               	movwf	(0+((c:0)+012h)),c
  2592  000984  0E00               	movlw	high(01h)
  2593  000986  6E13               	movwf	(1+((c:0)+012h)),c
  2594                           	line	1280
  2595                           ;main.c: 1280: led_array[10] = 1;
  2596  000988  0E01               	movlw	low(01h)
  2597  00098A  6E14               	movwf	(0+((c:0)+014h)),c
  2598  00098C  0E00               	movlw	high(01h)
  2599  00098E  6E15               	movwf	(1+((c:0)+014h)),c
  2600                           	line	1281
  2601                           ;main.c: 1281: } else if (lResult >= 70 && lResu
                                 lt <= 110) {
  2602  000990  EFF8  F004         	goto	i2l1155
  2603                           	
  2604  000994                     i2l1156:		; BSR set to: ?
  2605                           
  2606  000994  0E45               	movlw	(046h-1)
  2607  000996  0101               	movlb	1	; () banked
  2608  000998  0101               	movlb	1	; () banked
  2609  00099A  651C               	cpfsgt	((getNote@lResult))&0ffh
  2610  00099C  EFD2  F004         	goto	i2u6241
  2611  0009A0  EFD4  F004         	goto	i2u6240
  2612  0009A4                     i2u6241:
  2613  0009A4  EFF0  F004         	goto	i2l1158
  2614  0009A8                     i2u6240:
  2615  0009A8  0E6F               	movlw	(06Fh)&0ffh
  2616  0009AA  0101               	movlb	1	; () banked
  2617  0009AC  0101               	movlb	1	; () banked
  2618  0009AE  611C               	cpfslt	((getNote@lResult))&0ffh
  2619  0009B0  EFDC  F004         	goto	i2u6251
  2620  0009B4  EFDE  F004         	goto	i2u6250
  2621  0009B8                     i2u6251:
  2622  0009B8  EFF0  F004         	goto	i2l1158
  2623  0009BC                     i2u6250:
  2624                           	line	1283
  2625                           ;main.c: 1283: new_note = 0x2b;
  2626  0009BC  0101               	movlb	1	; () banked
  2627  0009BE  6F20               	movwf	(??_getNote+3+0)&0ffh
  2628  0009C0  0E2B               	movlw	low(02Bh)
  2629  0009C2  0101               	movlb	1	; () banked
  2630  0009C4  0101               	movlb	1	; () banked
  2631  0009C6  6F1D               	movwf	((getNote@new_note))&0ffh
  2632  0009C8  0101               	movlb	1	; () banked
  2633  0009CA  5120               	movf	(??_getNote+3+0)&0ffh,w
  2634                           	line	1284
  2635                           ;main.c: 1284: led_array[6] = 1;
  2636  0009CC  0E01               	movlw	low(01h)
  2637  0009CE  6E0C               	movwf	(0+((c:0)+0Ch)),c
  2638  0009D0  0E00               	movlw	high(01h)
  2639  0009D2  6E0D               	movwf	(1+((c:0)+0Ch)),c
  2640                           	line	1285
  2641                           ;main.c: 1285: led_array[10] = 1;
  2642  0009D4  0E01               	movlw	low(01h)
  2643  0009D6  6E14               	movwf	(0+((c:0)+014h)),c
  2644  0009D8  0E00               	movlw	high(01h)
  2645  0009DA  6E15               	movwf	(1+((c:0)+014h)),c
  2646                           	line	1286
  2647                           ;main.c: 1286: } else {
  2648  0009DC  EFF8  F004         	goto	i2l1155
  2649                           	
  2650  0009E0                     i2l1158:		; BSR set to: ?
  2651                           
  2652                           	line	1288
  2653                           ;main.c: 1288: new_note = 0x00;
  2654  0009E0  0101               	movlb	1	; () banked
  2655  0009E2  6F20               	movwf	(??_getNote+3+0)&0ffh
  2656  0009E4  0E00               	movlw	low(0)
  2657  0009E6  0101               	movlb	1	; () banked
  2658  0009E8  0101               	movlb	1	; () banked
  2659  0009EA  6F1D               	movwf	((getNote@new_note))&0ffh
  2660  0009EC  0101               	movlb	1	; () banked
  2661  0009EE  5120               	movf	(??_getNote+3+0)&0ffh,w
  2662                           	line	1289
  2663                           	
  2664  0009F0                     i2l1159:		; BSR set to: ?
  2665                           
  2666                           	
  2667  0009F0                     i2l1157:		; BSR set to: ?
  2668                           
  2669                           	
  2670  0009F0                     i2l1155:		; BSR set to: ?
  2671                           
  2672                           	line	1291
  2673                           ;main.c: 1289: }
  2674                           ;main.c: 1291: } else if (hResult == 0x03) {
  2675  0009F0  EF83  F005         	goto	i2l1144
  2676                           	
  2677  0009F4                     i2l1153:		; BSR set to: ?
  2678                           
  2679  0009F4  0101               	movlb	1	; () banked
  2680  0009F6  0101               	movlb	1	; () banked
  2681  0009F8  511B               	movf	((getNote@hResult))&0ffh,w
  2682  0009FA  0A03               	xorlw	3
  2683                           
  2684  0009FC  A4D8               	btfss	status,2
  2685  0009FE  EF03  F005         	goto	i2u6261
  2686  000A02  EF05  F005         	goto	i2u6260
  2687  000A06                     i2u6261:
  2688  000A06  EF83  F005         	goto	i2l1144
  2689  000A0A                     i2u6260:
  2690                           	line	1292
  2691                           ;main.c: 1292: if (lResult >= 60 && lResult <= 8
                                 7) {
  2692  000A0A  0E3B               	movlw	(03Ch-1)
  2693  000A0C  0101               	movlb	1	; () banked
  2694  000A0E  0101               	movlb	1	; () banked
  2695  000A10  651C               	cpfsgt	((getNote@lResult))&0ffh
  2696  000A12  EF0D  F005         	goto	i2u6271
  2697  000A16  EF0F  F005         	goto	i2u6270
  2698  000A1A                     i2u6271:
  2699  000A1A  EF2B  F005         	goto	i2l1162
  2700  000A1E                     i2u6270:
  2701  000A1E  0E58               	movlw	(058h)&0ffh
  2702  000A20  0101               	movlb	1	; () banked
  2703  000A22  0101               	movlb	1	; () banked
  2704  000A24  611C               	cpfslt	((getNote@lResult))&0ffh
  2705  000A26  EF17  F005         	goto	i2u6281
  2706  000A2A  EF19  F005         	goto	i2u6280
  2707  000A2E                     i2u6281:
  2708  000A2E  EF2B  F005         	goto	i2l1162
  2709  000A32                     i2u6280:
  2710                           	line	1294
  2711                           ;main.c: 1294: new_note = 0x13;
  2712  000A32  0101               	movlb	1	; () banked
  2713  000A34  6F20               	movwf	(??_getNote+3+0)&0ffh
  2714  000A36  0E13               	movlw	low(013h)
  2715  000A38  0101               	movlb	1	; () banked
  2716  000A3A  0101               	movlb	1	; () banked
  2717  000A3C  6F1D               	movwf	((getNote@new_note))&0ffh
  2718  000A3E  0101               	movlb	1	; () banked
  2719  000A40  5120               	movf	(??_getNote+3+0)&0ffh,w
  2720                           	line	1295
  2721                           ;main.c: 1295: led_array[6] = 1;
  2722  000A42  0E01               	movlw	low(01h)
  2723  000A44  6E0C               	movwf	(0+((c:0)+0Ch)),c
  2724  000A46  0E00               	movlw	high(01h)
  2725  000A48  6E0D               	movwf	(1+((c:0)+0Ch)),c
  2726                           	line	1296
  2727                           ;main.c: 1296: led_array[7] = 1;
  2728  000A4A  0E01               	movlw	low(01h)
  2729  000A4C  6E0E               	movwf	(0+((c:0)+0Eh)),c
  2730  000A4E  0E00               	movlw	high(01h)
  2731  000A50  6E0F               	movwf	(1+((c:0)+0Eh)),c
  2732                           	line	1297
  2733                           ;main.c: 1297: } else if (lResult >= 138 && lRes
                                 ult <= 200) {
  2734  000A52  EF83  F005         	goto	i2l1144
  2735                           	
  2736  000A56                     i2l1162:		; BSR set to: ?
  2737                           
  2738  000A56  0E89               	movlw	(08Ah-1)
  2739  000A58  0101               	movlb	1	; () banked
  2740  000A5A  0101               	movlb	1	; () banked
  2741  000A5C  651C               	cpfsgt	((getNote@lResult))&0ffh
  2742  000A5E  EF33  F005         	goto	i2u6291
  2743  000A62  EF35  F005         	goto	i2u6290
  2744  000A66                     i2u6291:
  2745  000A66  EF55  F005         	goto	i2l1164
  2746  000A6A                     i2u6290:
  2747  000A6A  0EC9               	movlw	(0C9h)&0ffh
  2748  000A6C  0101               	movlb	1	; () banked
  2749  000A6E  0101               	movlb	1	; () banked
  2750  000A70  611C               	cpfslt	((getNote@lResult))&0ffh
  2751  000A72  EF3D  F005         	goto	i2u6301
  2752  000A76  EF3F  F005         	goto	i2u6300
  2753  000A7A                     i2u6301:
  2754  000A7A  EF55  F005         	goto	i2l1164
  2755  000A7E                     i2u6300:
  2756                           	line	1299
  2757                           ;main.c: 1299: new_note = 0x03;
  2758  000A7E  0101               	movlb	1	; () banked
  2759  000A80  6F20               	movwf	(??_getNote+3+0)&0ffh
  2760  000A82  0E03               	movlw	low(03h)
  2761  000A84  0101               	movlb	1	; () banked
  2762  000A86  0101               	movlb	1	; () banked
  2763  000A88  6F1D               	movwf	((getNote@new_note))&0ffh
  2764  000A8A  0101               	movlb	1	; () banked
  2765  000A8C  5120               	movf	(??_getNote+3+0)&0ffh,w
  2766                           	line	1300
  2767                           ;main.c: 1300: led_array[6] = 1;
  2768  000A8E  0E01               	movlw	low(01h)
  2769  000A90  6E0C               	movwf	(0+((c:0)+0Ch)),c
  2770+ 000A92  0E00               	movlw	high(01h)
  2771+ 000A94  6E0D               	movwf	(1+((c:0)+0Ch)),c
  2772+                          	line	1301
  2773+                          ;main.c: 1301: led_array[7] = 1;
  2774+ 000A96  0E01               	movlw	low(01h)
  2775+ 000A98  6E0E               	movwf	(0+((c:0)+0Eh)),c
  2776+ 000A9A  0E00               	movlw	high(01h)
  2777+ 000A9C  6E0F               	movwf	(1+((c:0)+0Eh)),c
  2778+                          	line	1302
  2779+                          ;main.c: 1302: led_array[8] = 1;
  2780+ 000A9E  0E01               	movlw	low(01h)
  2781+ 000AA0  6E10               	movwf	(0+((c:0)+010h)),c
  2782+ 000AA2  0E00               	movlw	high(01h)
  2783+ 000AA4  6E11               	movwf	(1+((c:0)+010h)),c
  2784+                          	line	1303
  2785+                          ;main.c: 1303: } else if (lResult >= 212 && lRes
      +                          ult <= 232) {
  2786+ 000AA6  EF83  F005         	goto	i2l1144
  2787+                          	
  2788+ 000AAA                     i2l1164:		; BSR set to: ?
  2789+                          
  2790+ 000AAA  0ED3               	movlw	(0D4h-1)
  2791+ 000AAC  0101               	movlb	1	; () banked
  2792+ 000AAE  0101               	movlb	1	; () banked
  2793+ 000AB0  651C               	cpfsgt	((getNote@lResult))&0ffh
  2794+ 000AB2  EF5D  F005         	goto	i2u6311
  2795+ 000AB6  EF5F  F005         	goto	i2u6310
  2796+ 000ABA                     i2u6311:
  2797+ 000ABA  EF7B  F005         	goto	i2l1166
  2798+ 000ABE                     i2u6310:
  2799+ 000ABE  0EE9               	movlw	(0E9h)&0ffh
  2800+ 000AC0  0101               	movlb	1	; () banked
  2801+ 000AC2  0101               	movlb	1	; () banked
  2802+ 000AC4  611C               	cpfslt	((getNote@lResult))&0ffh
  2803+ 000AC6  EF67  F005         	goto	i2u6321
  2804+ 000ACA  EF69  F005         	goto	i2u6320
  2805+ 000ACE                     i2u6321:
  2806+ 000ACE  EF7B  F005         	goto	i2l1166
  2807+ 000AD2                     i2u6320:
  2808+                          	line	1305
  2809+                          ;main.c: 1305: new_note = 0x0b;
  2810+ 000AD2  0101               	movlb	1	; () banked
  2811+ 000AD4  6F20               	movwf	(??_getNote+3+0)&0ffh
  2812+ 000AD6  0E0B               	movlw	low(0Bh)
  2813+ 000AD8  0101               	movlb	1	; () banked
  2814+ 000ADA  0101               	movlb	1	; () banked
  2815+ 000ADC  6F1D               	movwf	((getNote@new_note))&0ffh
  2816+ 000ADE  0101               	movlb	1	; () banked
  2817+ 000AE0  5120               	movf	(??_getNote+3+0)&0ffh,w
  2818+                          	line	1306
  2819+                          ;main.c: 1306: led_array[6] = 1;
  2820+ 000AE2  0E01               	movlw	low(01h)
  2821+ 000AE4  6E0C               	movwf	(0+((c:0)+0Ch)),c
  2822+ 000AE6  0E00               	movlw	high(01h)
  2823+ 000AE8  6E0D               	movwf	(1+((c:0)+0Ch)),c
  2824+                          	line	1307
  2825+                          ;main.c: 1307: led_array[8] = 1;
  2826+ 000AEA  0E01               	movlw	low(01h)
  2827+ 000AEC  6E10               	movwf	(0+((c:0)+010h)),c
  2828+ 000AEE  0E00               	movlw	high(01h)
  2829+ 000AF0  6E11               	movwf	(1+((c:0)+010h)),c
  2830+                          	line	1308
  2831+                          ;main.c: 1308: } else {
  2832+ 000AF2  EF83  F005         	goto	i2l1144
  2833+                          	
  2834+ 000AF6                     i2l1166:		; BSR set to: ?
  2835+                          
  2836+                          	line	1310
  2837+                          ;main.c: 1310: new_note = 0x00;
  2838+ 000AF6  0101               	movlb	1	; () banked
  2839+ 000AF8  6F20               	movwf	(??_getNote+3+0)&0ffh
  2840+ 000AFA  0E00               	movlw	low(0)
  2841+ 000AFC  0101               	movlb	1	; () banked
  2842+ 000AFE  0101               	movlb	1	; () banked
  2843+ 000B00  6F1D               	movwf	((getNote@new_note))&0ffh
  2844+ 000B02  0101               	movlb	1	; () banked
  2845+ 000B04  5120               	movf	(??_getNote+3+0)&0ffh,w
  2846+                          	line	1311
  2847+                          	
  2848+ 000B06                     i2l1167:		; BSR set to: ?
  2849+                          
  2850+                          	
  2851+ 000B06                     i2l1165:		; BSR set to: ?
  2852+                          
  2853+                          	
  2854+ 000B06                     i2l1163:		; BSR set to: ?
  2855+                          
  2856+                          	line	1312
  2857+                          	
  2858+ 000B06                     i2l1161:		; BSR set to: ?
  2859+                          
  2860+                          	line	1314
  2861+                          	
  2862+ 000B06                     i2l1160:		; BSR set to: ?
  2863+                          
  2864+                          	
  2865+ 000B06                     i2l1152:		; BSR set to: ?
  2866+                          
  2867+                          	
  2868+ 000B06                     i2l1144:		; BSR set to: ?
  2869+                          
  2870+                          ;main.c: 1311: }
  2871+                          ;main.c: 1312: }
  2872+                          ;main.c: 1314: } else if (adc_num == 3) {
  2873+ 000B06  EF55  F00C         	goto	i2l1114
  2874+                          	
  2875+ 000B0A                     i2l1142:		; BSR set to: ?
  2876+                          
  2877+ 000B0A  502A               	movf	((c:42)),c,w	;volatile
  2878+ 000B0C  0A03               	xorlw	3
  2879+                          
  2880+ 000B0E  A4D8               	btfss	status,2
  2881+ 000B10  EF8C  F005         	goto	i2u6331
  2882+ 000B14  EF8E  F005         	goto	i2u6330
  2883+ 000B18                     i2u6331:
  2884+ 000B18  EF37  F007         	goto	i2l1169
  2885+ 000B1C                     i2u6330:
  2886+                          	line	1315
  2887+                          ;main.c: 1315: if (hResult == 0x00) {
  2888+ 000B1C  0101               	movlb	1	; () banked
  2889+ 000B1E  0101               	movlb	1	; () banked
  2890+ 000B20  671B               	tstfsz	((getNote@hResult))&0ffh
  2891+ 000B22  EF95  F005         	goto	i2u6341
  2892+ 000B26  EF97  F005         	goto	i2u6340
  2893+ 000B2A                     i2u6341:
  2894+ 000B2A  EFA1  F005         	goto	i2l1170
  2895+ 000B2E                     i2u6340:
  2896+                          	line	1317
  2897+                          ;main.c: 1317: new_note = 0x00;
  2898+ 000B2E  0101               	movlb	1	; () banked
  2899+ 000B30  6F20               	movwf	(??_getNote+3+0)&0ffh
  2900+ 000B32  0E00               	movlw	low(0)
  2901+ 000B34  0101               	movlb	1	; () banked
  2902+ 000B36  0101               	movlb	1	; () banked
  2903+ 000B38  6F1D               	movwf	((getNote@new_note))&0ffh
  2904+ 000B3A  0101               	movlb	1	; () banked
  2905+ 000B3C  5120               	movf	(??_getNote+3+0)&0ffh,w
  2906+                          	line	1319
  2907+                          ;main.c: 1319: } else if (hResult == 0x01) {
  2908+ 000B3E  EF35  F007         	goto	i2l1171
  2909+                          	
  2910+ 000B42                     i2l1170:		; BSR set to: ?
  2911+                          
  2912+ 000B42  0101               	movlb	1	; () banked
  2913+ 000B44  0101               	movlb	1	; () banked
  2914+ 000B46  051B               	decf	((getNote@hResult))&0ffh,w
  2915+                          
  2916+ 000B48  A4D8               	btfss	status,2
  2917+ 000B4A  EFA9  F005         	goto	i2u6351
  2918+ 000B4E  EFAB  F005         	goto	i2u6350
  2919+ 000B52                     i2u6351:
  2920+ 000B52  EF2B  F006         	goto	i2l1172
  2921+ 000B56                     i2u6350:
  2922                           	line	1320
  2923                           ;main.c: 1320: if (lResult >= 200 && lResult <= 
                                 230) {
  2924  000B56  0EC7               	movlw	(0C8h-1)
  2925  000B58  0101               	movlb	1	; () banked
  2926  000B5A  0101               	movlb	1	; () banked
  2927  000B5C  651C               	cpfsgt	((getNote@lResult))&0ffh
  2928  000B5E  EFB3  F005         	goto	i2u6361
  2929  000B62  EFB5  F005         	goto	i2u6360
  2930  000B66                     i2u6361:
  2931  000B66  EFD1  F005         	goto	i2l1173
  2932  000B6A                     i2u6360:
  2933  000B6A  0EE7               	movlw	(0E7h)&0ffh
  2934  000B6C  0101               	movlb	1	; () banked
  2935  000B6E  0101               	movlb	1	; () banked
  2936  000B70  611C               	cpfslt	((getNote@lResult))&0ffh
  2937  000B72  EFBD  F005         	goto	i2u6371
  2938  000B76  EFBF  F005         	goto	i2u6370
  2939  000B7A                     i2u6371:
  2940  000B7A  EFD1  F005         	goto	i2l1173
  2941  000B7E                     i2u6370:
  2942                           	line	1322
  2943                           ;main.c: 1322: new_note = 0x54;
  2944  000B7E  0101               	movlb	1	; () banked
  2945  000B80  6F20               	movwf	(??_getNote+3+0)&0ffh
  2946  000B82  0E54               	movlw	low(054h)
  2947  000B84  0101               	movlb	1	; () banked
  2948  000B86  0101               	movlb	1	; () banked
  2949  000B88  6F1D               	movwf	((getNote@new_note))&0ffh
  2950  000B8A  0101               	movlb	1	; () banked
  2951  000B8C  5120               	movf	(??_getNote+3+0)&0ffh,w
  2952                           	line	1323
  2953                           ;main.c: 1323: led_array[5] = 1;
  2954  000B8E  0E01               	movlw	low(01h)
  2955  000B90  6E0A               	movwf	(0+((c:0)+0Ah)),c
  2956  000B92  0E00               	movlw	high(01h)
  2957  000B94  6E0B               	movwf	(1+((c:0)+0Ah)),c
  2958                           	line	1324
  2959                           ;main.c: 1324: led_array[11] = 1;
  2960  000B96  0E01               	movlw	low(01h)
  2961  000B98  6E16               	movwf	(0+((c:0)+016h)),c
  2962  000B9A  0E00               	movlw	high(01h)
  2963  000B9C  6E17               	movwf	(1+((c:0)+016h)),c
  2964                           	line	1325
  2965                           ;main.c: 1325: } else if (lResult >= 130 && lRes
                                 ult <= 180) {
  2966  000B9E  EF29  F006         	goto	i2l1174
  2967                           	
  2968  000BA2                     i2l1173:		; BSR set to: ?
  2969                           
  2970  000BA2  0E81               	movlw	(082h-1)
  2971  000BA4  0101               	movlb	1	; () banked
  2972  000BA6  0101               	movlb	1	; () banked
  2973  000BA8  651C               	cpfsgt	((getNote@lResult))&0ffh
  2974  000BAA  EFD9  F005         	goto	i2u6381
  2975  000BAE  EFDB  F005         	goto	i2u6380
  2976  000BB2                     i2u6381:
  2977  000BB2  EFFB  F005         	goto	i2l1175
  2978  000BB6                     i2u6380:
  2979  000BB6  0EB5               	movlw	(0B5h)&0ffh
  2980  000BB8  0101               	movlb	1	; () banked
  2981  000BBA  0101               	movlb	1	; () banked
  2982  000BBC  611C               	cpfslt	((getNote@lResult))&0ffh
  2983  000BBE  EFE3  F005         	goto	i2u6391
  2984  000BC2  EFE5  F005         	goto	i2u6390
  2985  000BC6                     i2u6391:
  2986  000BC6  EFFB  F005         	goto	i2l1175
  2987  000BCA                     i2u6390:
  2988                           	line	1327
  2989                           ;main.c: 1327: new_note = 0x44;
  2990  000BCA  0101               	movlb	1	; () banked
  2991  000BCC  6F20               	movwf	(??_getNote+3+0)&0ffh
  2992  000BCE  0E44               	movlw	low(044h)
  2993  000BD0  0101               	movlb	1	; () banked
  2994  000BD2  0101               	movlb	1	; () banked
  2995  000BD4  6F1D               	movwf	((getNote@new_note))&0ffh
  2996  000BD6  0101               	movlb	1	; () banked
  2997  000BD8  5120               	movf	(??_getNote+3+0)&0ffh,w
  2998                           	line	1328
  2999                           ;main.c: 1328: led_array[5] = 1;
  3000  000BDA  0E01               	movlw	low(01h)
  3001  000BDC  6E0A               	movwf	(0+((c:0)+0Ah)),c
  3002  000BDE  0E00               	movlw	high(01h)
  3003  000BE0  6E0B               	movwf	(1+((c:0)+0Ah)),c
  3004                           	line	1329
  3005                           ;main.c: 1329: led_array[11] = 1;
  3006  000BE2  0E01               	movlw	low(01h)
  3007  000BE4  6E16               	movwf	(0+((c:0)+016h)),c
  3008  000BE6  0E00               	movlw	high(01h)
  3009  000BE8  6E17               	movwf	(1+((c:0)+016h)),c
  3010                           	line	1330
  3011                           ;main.c: 1330: led_array[12] = 1;
  3012  000BEA  0E01               	movlw	low(01h)
  3013  000BEC  6E18               	movwf	(0+((c:0)+018h)),c
  3014  000BEE  0E00               	movlw	high(01h)
  3015  000BF0  6E19               	movwf	(1+((c:0)+018h)),c
  3016                           	line	1331
  3017                           ;main.c: 1331: } else if (lResult >= 90 && lResu
                                 lt <= 120) {
  3018  000BF2  EF29  F006         	goto	i2l1174
  3019                           	
  3020  000BF6                     i2l1175:		; BSR set to: ?
  3021                           
  3022  000BF6  0E59               	movlw	(05Ah-1)
  3023  000BF8  0101               	movlb	1	; () banked
  3024  000BFA  0101               	movlb	1	; () banked
  3025  000BFC  651C               	cpfsgt	((getNote@lResult))&0ffh
  3026  000BFE  EF03  F006         	goto	i2u6401
  3027  000C02  EF05  F006         	goto	i2u6400
  3028  000C06                     i2u6401:
  3029  000C06  EF21  F006         	goto	i2l1177
  3030  000C0A                     i2u6400:
  3031  000C0A  0E79               	movlw	(079h)&0ffh
  3032  000C0C  0101               	movlb	1	; () banked
  3033  000C0E  0101               	movlb	1	; () banked
  3034  000C10  611C               	cpfslt	((getNote@lResult))&0ffh
  3035  000C12  EF0D  F006         	goto	i2u6411
  3036  000C16  EF0F  F006         	goto	i2u6410
  3037  000C1A                     i2u6411:
  3038  000C1A  EF21  F006         	goto	i2l1177
  3039  000C1E                     i2u6410:
  3040                           	line	1333
  3041                           ;main.c: 1333: led_array[5] = 1;
  3042  000C1E  0E01               	movlw	low(01h)
  3043  000C20  6E0A               	movwf	(0+((c:0)+0Ah)),c
  3044  000C22  0E00               	movlw	high(01h)
  3045  000C24  6E0B               	movwf	(1+((c:0)+0Ah)),c
  3046                           	line	1334
  3047                           ;main.c: 1334: led_array[12] = 1;
  3048  000C26  0E01               	movlw	low(01h)
  3049  000C28  6E18               	movwf	(0+((c:0)+018h)),c
  3050  000C2A  0E00               	movlw	high(01h)
  3051  000C2C  6E19               	movwf	(1+((c:0)+018h)),c
  3052                           	line	1335
  3053                           ;main.c: 1335: new_note = 0x4c;
  3054  000C2E  0101               	movlb	1	; () banked
  3055  000C30  6F20               	movwf	(??_getNote+3+0)&0ffh
  3056  000C32  0E4C               	movlw	low(04Ch)
  3057  000C34  0101               	movlb	1	; () banked
  3058  000C36  0101               	movlb	1	; () banked
  3059  000C38  6F1D               	movwf	((getNote@new_note))&0ffh
  3060  000C3A  0101               	movlb	1	; () banked
  3061  000C3C  5120               	movf	(??_getNote+3+0)&0ffh,w
  3062                           	line	1336
  3063                           ;main.c: 1336: } else {
  3064  000C3E  EF29  F006         	goto	i2l1174
  3065                           	
  3066  000C42                     i2l1177:		; BSR set to: ?
  3067                           
  3068                           	line	1338
  3069                           ;main.c: 1338: new_note = 0x00;
  3070  000C42  0101               	movlb	1	; () banked
  3071  000C44  6F20               	movwf	(??_getNote+3+0)&0ffh
  3072  000C46  0E00               	movlw	low(0)
  3073  000C48  0101               	movlb	1	; () banked
  3074  000C4A  0101               	movlb	1	; () banked
  3075  000C4C  6F1D               	movwf	((getNote@new_note))&0ffh
  3076  000C4E  0101               	movlb	1	; () banked
  3077  000C50  5120               	movf	(??_getNote+3+0)&0ffh,w
  3078                           	line	1339
  3079                           	
  3080  000C52                     i2l1178:		; BSR set to: ?
  3081                           
  3082                           	
  3083  000C52                     i2l1176:		; BSR set to: ?
  3084                           
  3085                           	
  3086  000C52                     i2l1174:		; BSR set to: ?
  3087                           
  3088                           	line	1341
  3089                           ;main.c: 1339: }
  3090                           ;main.c: 1341: } else if (hResult == 0x02) {
  3091  000C52  EF35  F007         	goto	i2l1171
  3092                           	
  3093  000C56                     i2l1172:		; BSR set to: ?
  3094                           
  3095  000C56  0101               	movlb	1	; () banked
  3096  000C58  0101               	movlb	1	; () banked
  3097  000C5A  511B               	movf	((getNote@hResult))&0ffh,w
  3098  000C5C  0A02               	xorlw	2
  3099                           
  3100  000C5E  A4D8               	btfss	status,2
  3101  000C60  EF34  F006         	goto	i2u6421
  3102  000C64  EF36  F006         	goto	i2u6420
  3103  000C68                     i2u6421:
  3104  000C68  EFAC  F006         	goto	i2l1180
  3105  000C6C                     i2u6420:
  3106                           	line	1342
  3107                           ;main.c: 1342: if (lResult >= 203 && lResult <= 
                                 255) {
  3108  000C6C  0ECA               	movlw	(0CBh-1)
  3109  000C6E  0101               	movlb	1	; () banked
  3110  000C70  0101               	movlb	1	; () banked
  3111  000C72  651C               	cpfsgt	((getNote@lResult))&0ffh
  3112  000C74  EF3E  F006         	goto	i2u6431
  3113  000C78  EF40  F006         	goto	i2u6430
  3114  000C7C                     i2u6431:
  3115  000C7C  EF52  F006         	goto	i2l1181
  3116  000C80                     i2u6430:
  3117                           	line	1344
  3118                           ;main.c: 1344: new_note = 0x34;
  3119  000C80  0101               	movlb	1	; () banked
  3120  000C82  6F20               	movwf	(??_getNote+3+0)&0ffh
  3121  000C84  0E34               	movlw	low(034h)
  3122  000C86  0101               	movlb	1	; () banked
  3123  000C88  0101               	movlb	1	; () banked
  3124  000C8A  6F1D               	movwf	((getNote@new_note))&0ffh
  3125  000C8C  0101               	movlb	1	; () banked
  3126  000C8E  5120               	movf	(??_getNote+3+0)&0ffh,w
  3127                           	line	1345
  3128                           ;main.c: 1345: led_array[5] = 1;
  3129  000C90  0E01               	movlw	low(01h)
  3130  000C92  6E0A               	movwf	(0+((c:0)+0Ah)),c
  3131  000C94  0E00               	movlw	high(01h)
  3132  000C96  6E0B               	movwf	(1+((c:0)+0Ah)),c
  3133                           	line	1346
  3134                           ;main.c: 1346: led_array[9] = 1;
  3135  000C98  0E01               	movlw	low(01h)
  3136  000C9A  6E12               	movwf	(0+((c:0)+012h)),c
  3137  000C9C  0E00               	movlw	high(01h)
  3138  000C9E  6E13               	movwf	(1+((c:0)+012h)),c
  3139                           	line	1347
  3140                           ;main.c: 1347: } else if (lResult >= 130 && lRes
                                 ult <= 167) {
  3141  000CA0  EFAA  F006         	goto	i2l1182
  3142                           	
  3143  000CA4                     i2l1181:		; BSR set to: ?
  3144                           
  3145  000CA4  0E81               	movlw	(082h-1)
  3146  000CA6  0101               	movlb	1	; () banked
  3147  000CA8  0101               	movlb	1	; () banked
  3148  000CAA  651C               	cpfsgt	((getNote@lResult))&0ffh
  3149  000CAC  EF5A  F006         	goto	i2u6441
  3150  000CB0  EF5C  F006         	goto	i2u6440
  3151  000CB4                     i2u6441:
  3152  000CB4  EF7C  F006         	goto	i2l1183
  3153  000CB8                     i2u6440:
  3154  000CB8  0EA8               	movlw	(0A8h)&0ffh
  3155  000CBA  0101               	movlb	1	; () banked
  3156  000CBC  0101               	movlb	1	; () banked
  3157  000CBE  611C               	cpfslt	((getNote@lResult))&0ffh
  3158  000CC0  EF64  F006         	goto	i2u6451
  3159  000CC4  EF66  F006         	goto	i2u6450
  3160  000CC8                     i2u6451:
  3161  000CC8  EF7C  F006         	goto	i2l1183
  3162  000CCC                     i2u6450:
  3163                           	line	1349
  3164                           ;main.c: 1349: new_note = 0x24;
  3165  000CCC  0101               	movlb	1	; () banked
  3166  000CCE  6F20               	movwf	(??_getNote+3+0)&0ffh
  3167  000CD0  0E24               	movlw	low(024h)
  3168  000CD2  0101               	movlb	1	; () banked
  3169  000CD4  0101               	movlb	1	; () banked
  3170  000CD6  6F1D               	movwf	((getNote@new_note))&0ffh
  3171  000CD8  0101               	movlb	1	; () banked
  3172  000CDA  5120               	movf	(??_getNote+3+0)&0ffh,w
  3173                           	line	1350
  3174                           ;main.c: 1350: led_array[5] = 1;
  3175  000CDC  0E01               	movlw	low(01h)
  3176  000CDE  6E0A               	movwf	(0+((c:0)+0Ah)),c
  3177  000CE0  0E00               	movlw	high(01h)
  3178  000CE2  6E0B               	movwf	(1+((c:0)+0Ah)),c
  3179                           	line	1351
  3180                           ;main.c: 1351: led_array[9] = 1;
  3181  000CE4  0E01               	movlw	low(01h)
  3182  000CE6  6E12               	movwf	(0+((c:0)+012h)),c
  3183  000CE8  0E00               	movlw	high(01h)
  3184  000CEA  6E13               	movwf	(1+((c:0)+012h)),c
  3185                           	line	1352
  3186                           ;main.c: 1352: led_array[10] = 1;
  3187  000CEC  0E01               	movlw	low(01h)
  3188  000CEE  6E14               	movwf	(0+((c:0)+014h)),c
  3189  000CF0  0E00               	movlw	high(01h)
  3190  000CF2  6E15               	movwf	(1+((c:0)+014h)),c
  3191                           	line	1353
  3192                           ;main.c: 1353: } else if (lResult >= 87 && lResu
                                 lt <= 124) {
  3193  000CF4  EFAA  F006         	goto	i2l1182
  3194                           	
  3195  000CF8                     i2l1183:		; BSR set to: ?
  3196                           
  3197  000CF8  0E56               	movlw	(057h-1)
  3198  000CFA  0101               	movlb	1	; () banked
  3199  000CFC  0101               	movlb	1	; () banked
  3200  000CFE  651C               	cpfsgt	((getNote@lResult))&0ffh
  3201  000D00  EF84  F006         	goto	i2u6461
  3202  000D04  EF86  F006         	goto	i2u6460
  3203  000D08                     i2u6461:
  3204  000D08  EFA2  F006         	goto	i2l1185
  3205  000D0C                     i2u6460:
  3206  000D0C  0E7D               	movlw	(07Dh)&0ffh
  3207  000D0E  0101               	movlb	1	; () banked
  3208  000D10  0101               	movlb	1	; () banked
  3209  000D12  611C               	cpfslt	((getNote@lResult))&0ffh
  3210  000D14  EF8E  F006         	goto	i2u6471
  3211  000D18  EF90  F006         	goto	i2u6470
  3212  000D1C                     i2u6471:
  3213  000D1C  EFA2  F006         	goto	i2l1185
  3214  000D20                     i2u6470:
  3215                           	line	1355
  3216                           ;main.c: 1355: new_note = 0x2c;
  3217  000D20  0101               	movlb	1	; () banked
  3218  000D22  6F20               	movwf	(??_getNote+3+0)&0ffh
  3219  000D24  0E2C               	movlw	low(02Ch)
  3220  000D26  0101               	movlb	1	; () banked
  3221  000D28  0101               	movlb	1	; () banked
  3222  000D2A  6F1D               	movwf	((getNote@new_note))&0ffh
  3223  000D2C  0101               	movlb	1	; () banked
  3224  000D2E  5120               	movf	(??_getNote+3+0)&0ffh,w
  3225                           	line	1356
  3226                           ;main.c: 1356: led_array[5] = 1;
  3227  000D30  0E01               	movlw	low(01h)
  3228  000D32  6E0A               	movwf	(0+((c:0)+0Ah)),c
  3229  000D34  0E00               	movlw	high(01h)
  3230  000D36  6E0B               	movwf	(1+((c:0)+0Ah)),c
  3231                           	line	1357
  3232                           ;main.c: 1357: led_array[10] = 1;
  3233  000D38  0E01               	movlw	low(01h)
  3234  000D3A  6E14               	movwf	(0+((c:0)+014h)),c
  3235  000D3C  0E00               	movlw	high(01h)
  3236  000D3E  6E15               	movwf	(1+((c:0)+014h)),c
  3237                           	line	1358
  3238                           ;main.c: 1358: } else {
  3239  000D40  EFAA  F006         	goto	i2l1182
  3240                           	
  3241  000D44                     i2l1185:		; BSR set to: ?
  3242                           
  3243                           	line	1360
  3244                           ;main.c: 1360: new_note = 0x00;
  3245  000D44  0101               	movlb	1	; () banked
  3246  000D46  6F20               	movwf	(??_getNote+3+0)&0ffh
  3247  000D48  0E00               	movlw	low(0)
  3248  000D4A  0101               	movlb	1	; () banked
  3249  000D4C  0101               	movlb	1	; () banked
  3250  000D4E  6F1D               	movwf	((getNote@new_note))&0ffh
  3251  000D50  0101               	movlb	1	; () banked
  3252  000D52  5120               	movf	(??_getNote+3+0)&0ffh,w
  3253                           	line	1361
  3254                           	
  3255  000D54                     i2l1186:		; BSR set to: ?
  3256                           
  3257                           	
  3258  000D54                     i2l1184:		; BSR set to: ?
  3259                           
  3260                           	
  3261  000D54                     i2l1182:		; BSR set to: ?
  3262                           
  3263                           	line	1363
  3264                           ;main.c: 1361: }
  3265                           ;main.c: 1363: } else if (hResult == 0x03) {
  3266  000D54  EF35  F007         	goto	i2l1171
  3267                           	
  3268  000D58                     i2l1180:		; BSR set to: ?
  3269                           
  3270  000D58  0101               	movlb	1	; () banked
  3271  000D5A  0101               	movlb	1	; () banked
  3272  000D5C  511B               	movf	((getNote@hResult))&0ffh,w
  3273  000D5E  0A03               	xorlw	3
  3274                           
  3275  000D60  A4D8               	btfss	status,2
  3276  000D62  EFB5  F006         	goto	i2u6481
  3277  000D66  EFB7  F006         	goto	i2u6480
  3278  000D6A                     i2u6481:
  3279  000D6A  EF35  F007         	goto	i2l1171
  3280  000D6E                     i2u6480:
  3281                           	line	1364
  3282                           ;main.c: 1364: if (lResult >= 60 && lResult <= 1
                                 60) {
  3283  000D6E  0E3B               	movlw	(03Ch-1)
  3284  000D70  0101               	movlb	1	; () banked
  3285  000D72  0101               	movlb	1	; () banked
  3286  000D74  651C               	cpfsgt	((getNote@lResult))&0ffh
  3287  000D76  EFBF  F006         	goto	i2u6491
  3288  000D7A  EFC1  F006         	goto	i2u6490
  3289  000D7E                     i2u6491:
  3290  000D7E  EFDD  F006         	goto	i2l1189
  3291  000D82                     i2u6490:
  3292  000D82  0EA1               	movlw	(0A1h)&0ffh
  3293  000D84  0101               	movlb	1	; () banked
  3294  000D86  0101               	movlb	1	; () banked
  3295  000D88  611C               	cpfslt	((getNote@lResult))&0ffh
  3296  000D8A  EFC9  F006         	goto	i2u6501
  3297  000D8E  EFCB  F006         	goto	i2u6500
  3298  000D92                     i2u6501:
  3299  000D92  EFDD  F006         	goto	i2l1189
  3300  000D96                     i2u6500:
  3301                           	line	1366
  3302                           ;main.c: 1366: new_note = 0x14;
  3303  000D96  0101               	movlb	1	; () banked
  3304  000D98  6F20               	movwf	(??_getNote+3+0)&0ffh
  3305  000D9A  0E14               	movlw	low(014h)
  3306  000D9C  0101               	movlb	1	; () banked
  3307  000D9E  0101               	movlb	1	; () banked
  3308  000DA0  6F1D               	movwf	((getNote@new_note))&0ffh
  3309  000DA2  0101               	movlb	1	; () banked
  3310  000DA4  5120               	movf	(??_getNote+3+0)&0ffh,w
  3311                           	line	1367
  3312                           ;main.c: 1367: led_array[5] = 1;
  3313  000DA6  0E01               	movlw	low(01h)
  3314  000DA8  6E0A               	movwf	(0+((c:0)+0Ah)),c
  3315  000DAA  0E00               	movlw	high(01h)
  3316  000DAC  6E0B               	movwf	(1+((c:0)+0Ah)),c
  3317                           	line	1368
  3318                           ;main.c: 1368: led_array[7] = 1;
  3319  000DAE  0E01               	movlw	low(01h)
  3320  000DB0  6E0E               	movwf	(0+((c:0)+0Eh)),c
  3321  000DB2  0E00               	movlw	high(01h)
  3322  000DB4  6E0F               	movwf	(1+((c:0)+0Eh)),c
  3323                           	line	1369
  3324                           ;main.c: 1369: } else if (lResult >= 145 && lRes
                                 ult <= 205) {
  3325  000DB6  EF35  F007         	goto	i2l1171
  3326                           	
  3327  000DBA                     i2l1189:		; BSR set to: ?
  3328                           
  3329  000DBA  0E90               	movlw	(091h-1)
  3330  000DBC  0101               	movlb	1	; () banked
  3331  000DBE  0101               	movlb	1	; () banked
  3332  000DC0  651C               	cpfsgt	((getNote@lResult))&0ffh
  3333  000DC2  EFE5  F006         	goto	i2u6511
  3334  000DC6  EFE7  F006         	goto	i2u6510
  3335  000DCA                     i2u6511:
  3336  000DCA  EF07  F007         	goto	i2l1191
  3337  000DCE                     i2u6510:
  3338  000DCE  0ECE               	movlw	(0CEh)&0ffh
  3339  000DD0  0101               	movlb	1	; () banked
  3340  000DD2  0101               	movlb	1	; () banked
  3341  000DD4  611C               	cpfslt	((getNote@lResult))&0ffh
  3342  000DD6  EFEF  F006         	goto	i2u6521
  3343  000DDA  EFF1  F006         	goto	i2u6520
  3344  000DDE                     i2u6521:
  3345  000DDE  EF07  F007         	goto	i2l1191
  3346  000DE2                     i2u6520:
  3347                           	line	1371
  3348                           ;main.c: 1371: new_note = 0x04;
  3349  000DE2  0101               	movlb	1	; () banked
  3350  000DE4  6F20               	movwf	(??_getNote+3+0)&0ffh
  3351  000DE6  0E04               	movlw	low(04h)
  3352  000DE8  0101               	movlb	1	; () banked
  3353  000DEA  0101               	movlb	1	; () banked
  3354  000DEC  6F1D               	movwf	((getNote@new_note))&0ffh
  3355  000DEE  0101               	movlb	1	; () banked
  3356  000DF0  5120               	movf	(??_getNote+3+0)&0ffh,w
  3357                           	line	1372
  3358                           ;main.c: 1372: led_array[5] = 1;
  3359  000DF2  0E01               	movlw	low(01h)
  3360  000DF4  6E0A               	movwf	(0+((c:0)+0Ah)),c
  3361  000DF6  0E00               	movlw	high(01h)
  3362  000DF8  6E0B               	movwf	(1+((c:0)+0Ah)),c
  3363                           	line	1373
  3364                           ;main.c: 1373: led_array[7] = 1;
  3365  000DFA  0E01               	movlw	low(01h)
  3366  000DFC  6E0E               	movwf	(0+((c:0)+0Eh)),c
  3367  000DFE  0E00               	movlw	high(01h)
  3368  000E00  6E0F               	movwf	(1+((c:0)+0Eh)),c
  3369                           	line	1374
  3370                           ;main.c: 1374: led_array[8] = 1;
  3371  000E02  0E01               	movlw	low(01h)
  3372  000E04  6E10               	movwf	(0+((c:0)+010h)),c
  3373  000E06  0E00               	movlw	high(01h)
  3374  000E08  6E11               	movwf	(1+((c:0)+010h)),c
  3375                           	line	1375
  3376                           ;main.c: 1375: } else if (lResult >= 227 && lRes
                                 ult <= 239) {
  3377  000E0A  EF35  F007         	goto	i2l1171
  3378                           	
  3379  000E0E                     i2l1191:		; BSR set to: ?
  3380                           
  3381  000E0E  0EE2               	movlw	(0E3h-1)
  3382  000E10  0101               	movlb	1	; () banked
  3383  000E12  0101               	movlb	1	; () banked
  3384  000E14  651C               	cpfsgt	((getNote@lResult))&0ffh
  3385  000E16  EF0F  F007         	goto	i2u6531
  3386  000E1A  EF11  F007         	goto	i2u6530
  3387  000E1E                     i2u6531:
  3388  000E1E  EF2D  F007         	goto	i2l1193
  3389  000E22                     i2u6530:
  3390  000E22  0EF0               	movlw	(0F0h)&0ffh
  3391  000E24  0101               	movlb	1	; () banked
  3392  000E26  0101               	movlb	1	; () banked
  3393  000E28  611C               	cpfslt	((getNote@lResult))&0ffh
  3394  000E2A  EF19  F007         	goto	i2u6541
  3395  000E2E  EF1B  F007         	goto	i2u6540
  3396  000E32                     i2u6541:
  3397  000E32  EF2D  F007         	goto	i2l1193
  3398  000E36                     i2u6540:
  3399                           	line	1377
  3400                           ;main.c: 1377: new_note = 0x0c;
  3401  000E36  0101               	movlb	1	; () banked
  3402  000E38  6F20               	movwf	(??_getNote+3+0)&0ffh
  3403  000E3A  0E0C               	movlw	low(0Ch)
  3404  000E3C  0101               	movlb	1	; () banked
  3405  000E3E  0101               	movlb	1	; () banked
  3406  000E40  6F1D               	movwf	((getNote@new_note))&0ffh
  3407  000E42  0101               	movlb	1	; () banked
  3408  000E44  5120               	movf	(??_getNote+3+0)&0ffh,w
  3409                           	line	1378
  3410                           ;main.c: 1378: led_array[5] = 1;
  3411  000E46  0E01               	movlw	low(01h)
  3412  000E48  6E0A               	movwf	(0+((c:0)+0Ah)),c
  3413  000E4A  0E00               	movlw	high(01h)
  3414  000E4C  6E0B               	movwf	(1+((c:0)+0Ah)),c
  3415                           	line	1379
  3416                           ;main.c: 1379: led_array[8] = 1;
  3417  000E4E  0E01               	movlw	low(01h)
  3418  000E50  6E10               	movwf	(0+((c:0)+010h)),c
  3419  000E52  0E00               	movlw	high(01h)
  3420  000E54  6E11               	movwf	(1+((c:0)+010h)),c
  3421                           	line	1380
  3422                           ;main.c: 1380: } else {
  3423  000E56  EF35  F007         	goto	i2l1171
  3424                           	
  3425  000E5A                     i2l1193:		; BSR set to: ?
  3426                           
  3427                           	line	1382
  3428                           ;main.c: 1382: new_note = 0x00;
  3429  000E5A  0101               	movlb	1	; () banked
  3430  000E5C  6F20               	movwf	(??_getNote+3+0)&0ffh
  3431  000E5E  0E00               	movlw	low(0)
  3432  000E60  0101               	movlb	1	; () banked
  3433  000E62  0101               	movlb	1	; () banked
  3434  000E64  6F1D               	movwf	((getNote@new_note))&0ffh
  3435  000E66  0101               	movlb	1	; () banked
  3436  000E68  5120               	movf	(??_getNote+3+0)&0ffh,w
  3437                           	line	1383
  3438                           	
  3439  000E6A                     i2l1194:		; BSR set to: ?
  3440                           
  3441                           	
  3442  000E6A                     i2l1192:		; BSR set to: ?
  3443                           
  3444                           	
  3445  000E6A                     i2l1190:		; BSR set to: ?
  3446                           
  3447                           	line	1385
  3448                           	
  3449  000E6A                     i2l1188:		; BSR set to: ?
  3450                           
  3451                           	line	1387
  3452                           	
  3453  000E6A                     i2l1187:		; BSR set to: ?
  3454                           
  3455                           	
  3456  000E6A                     i2l1179:		; BSR set to: ?
  3457                           
  3458                           	
  3459  000E6A                     i2l1171:		; BSR set to: ?
  3460                           
  3461                           ;main.c: 1383: }
  3462                           ;main.c: 1385: }
  3463                           ;main.c: 1387: } else if (adc_num == 4) {
  3464  000E6A  EF55  F00C         	goto	i2l1114
  3465                           	
  3466  000E6E                     i2l1169:		; BSR set to: ?
  3467                           
  3468  000E6E  502A               	movf	((c:42)),c,w	;volatile
  3469  000E70  0A04               	xorlw	4
  3470                           
  3471  000E72  A4D8               	btfss	status,2
  3472  000E74  EF3E  F007         	goto	i2u6551
  3473  000E78  EF40  F007         	goto	i2u6550
  3474  000E7C                     i2u6551:
  3475  000E7C  EFE9  F008         	goto	i2l1196
  3476  000E80                     i2u6550:
  3477                           	line	1388
  3478                           ;main.c: 1388: if (hResult == 0x00) {
  3479  000E80  0101               	movlb	1	; () banked
  3480  000E82  0101               	movlb	1	; () banked
  3481  000E84  671B               	tstfsz	((getNote@hResult))&0ffh
  3482  000E86  EF47  F007         	goto	i2u6561
  3483  000E8A  EF49  F007         	goto	i2u6560
  3484  000E8E                     i2u6561:
  3485  000E8E  EF53  F007         	goto	i2l1197
  3486  000E92                     i2u6560:
  3487                           	line	1390
  3488                           ;main.c: 1390: new_note = 0x00;
  3489  000E92  0101               	movlb	1	; () banked
  3490  000E94  6F20               	movwf	(??_getNote+3+0)&0ffh
  3491  000E96  0E00               	movlw	low(0)
  3492  000E98  0101               	movlb	1	; () banked
  3493  000E9A  0101               	movlb	1	; () banked
  3494  000E9C  6F1D               	movwf	((getNote@new_note))&0ffh
  3495  000E9E  0101               	movlb	1	; () banked
  3496  000EA0  5120               	movf	(??_getNote+3+0)&0ffh,w
  3497                           	line	1392
  3498                           ;main.c: 1392: } else if (hResult == 0x01) {
  3499  000EA2  EFE7  F008         	goto	i2l1198
  3500                           	
  3501  000EA6                     i2l1197:		; BSR set to: ?
  3502                           
  3503  000EA6  0101               	movlb	1	; () banked
  3504  000EA8  0101               	movlb	1	; () banked
  3505  000EAA  051B               	decf	((getNote@hResult))&0ffh,w
  3506                           
  3507  000EAC  A4D8               	btfss	status,2
  3508  000EAE  EF5B  F007         	goto	i2u6571
  3509  000EB2  EF5D  F007         	goto	i2u6570
  3510  000EB6                     i2u6571:
  3511  000EB6  EFDD  F007         	goto	i2l1199
  3512  000EBA                     i2u6570:
  3513                           	line	1393
  3514                           ;main.c: 1393: if (lResult >= 8 && lResult <= 69
                                 ) {
  3515  000EBA  0E07               	movlw	(08h-1)
  3516  000EBC  0101               	movlb	1	; () banked
  3517  000EBE  0101               	movlb	1	; () banked
  3518  000EC0  651C               	cpfsgt	((getNote@lResult))&0ffh
  3519  000EC2  EF65  F007         	goto	i2u6581
  3520  000EC6  EF67  F007         	goto	i2u6580
  3521  000ECA                     i2u6581:
  3522  000ECA  EF83  F007         	goto	i2l1200
  3523  000ECE                     i2u6580:
  3524  000ECE  0E46               	movlw	(046h)&0ffh
  3525  000ED0  0101               	movlb	1	; () banked
  3526  000ED2  0101               	movlb	1	; () banked
  3527  000ED4  611C               	cpfslt	((getNote@lResult))&0ffh
  3528  000ED6  EF6F  F007         	goto	i2u6591
  3529  000EDA  EF71  F007         	goto	i2u6590
  3530  000EDE                     i2u6591:
  3531  000EDE  EF83  F007         	goto	i2l1200
  3532  000EE2                     i2u6590:
  3533                           	line	1395
  3534                           ;main.c: 1395: new_note = 0x55;
  3535  000EE2  0101               	movlb	1	; () banked
  3536  000EE4  6F20               	movwf	(??_getNote+3+0)&0ffh
  3537  000EE6  0E55               	movlw	low(055h)
  3538  000EE8  0101               	movlb	1	; () banked
  3539  000EEA  0101               	movlb	1	; () banked
  3540  000EEC  6F1D               	movwf	((getNote@new_note))&0ffh
  3541  000EEE  0101               	movlb	1	; () banked
  3542  000EF0  5120               	movf	(??_getNote+3+0)&0ffh,w
  3543                           	line	1396
  3544                           ;main.c: 1396: led_array[4] = 1;
  3545  000EF2  0E01               	movlw	low(01h)
  3546  000EF4  6E08               	movwf	(0+((c:0)+08h)),c
  3547  000EF6  0E00               	movlw	high(01h)
  3548  000EF8  6E09               	movwf	(1+((c:0)+08h)),c
  3549                           	line	1397
  3550                           ;main.c: 1397: led_array[11] = 1;
  3551  000EFA  0E01               	movlw	low(01h)
  3552  000EFC  6E16               	movwf	(0+((c:0)+016h)),c
  3553  000EFE  0E00               	movlw	high(01h)
  3554  000F00  6E17               	movwf	(1+((c:0)+016h)),c
  3555                           	line	1398
  3556                           ;main.c: 1398: } else if (lResult >= 96 && lResu
                                 lt <= 210) {
  3557  000F02  EFDB  F007         	goto	i2l1201
  3558                           	
  3559  000F06                     i2l1200:		; BSR set to: ?
  3560                           
  3561  000F06  0E5F               	movlw	(060h-1)
  3562  000F08  0101               	movlb	1	; () banked
  3563  000F0A  0101               	movlb	1	; () banked
  3564  000F0C  651C               	cpfsgt	((getNote@lResult))&0ffh
  3565  000F0E  EF8B  F007         	goto	i2u6601
  3566  000F12  EF8D  F007         	goto	i2u6600
  3567  000F16                     i2u6601:
  3568  000F16  EFAD  F007         	goto	i2l1202
  3569  000F1A                     i2u6600:
  3570  000F1A  0ED3               	movlw	(0D3h)&0ffh
  3571  000F1C  0101               	movlb	1	; () banked
  3572  000F1E  0101               	movlb	1	; () banked
  3573  000F20  611C               	cpfslt	((getNote@lResult))&0ffh
  3574  000F22  EF95  F007         	goto	i2u6611
  3575  000F26  EF97  F007         	goto	i2u6610
  3576  000F2A                     i2u6611:
  3577  000F2A  EFAD  F007         	goto	i2l1202
  3578  000F2E                     i2u6610:
  3579                           	line	1400
  3580                           ;main.c: 1400: new_note = 0x45;
  3581  000F2E  0101               	movlb	1	; () banked
  3582  000F30  6F20               	movwf	(??_getNote+3+0)&0ffh
  3583  000F32  0E45               	movlw	low(045h)
  3584  000F34  0101               	movlb	1	; () banked
  3585  000F36  0101               	movlb	1	; () banked
  3586  000F38  6F1D               	movwf	((getNote@new_note))&0ffh
  3587  000F3A  0101               	movlb	1	; () banked
  3588  000F3C  5120               	movf	(??_getNote+3+0)&0ffh,w
  3589                           	line	1401
  3590                           ;main.c: 1401: led_array[4] = 1;
  3591  000F3E  0E01               	movlw	low(01h)
  3592  000F40  6E08               	movwf	(0+((c:0)+08h)),c
  3593  000F42  0E00               	movlw	high(01h)
  3594  000F44  6E09               	movwf	(1+((c:0)+08h)),c
  3595                           	line	1402
  3596                           ;main.c: 1402: led_array[11] = 1;
  3597  000F46  0E01               	movlw	low(01h)
  3598  000F48  6E16               	movwf	(0+((c:0)+016h)),c
  3599  000F4A  0E00               	movlw	high(01h)
  3600  000F4C  6E17               	movwf	(1+((c:0)+016h)),c
  3601                           	line	1403
  3602                           ;main.c: 1403: led_array[12] = 1;
  3603  000F4E  0E01               	movlw	low(01h)
  3604  000F50  6E18               	movwf	(0+((c:0)+018h)),c
  3605  000F52  0E00               	movlw	high(01h)
  3606  000F54  6E19               	movwf	(1+((c:0)+018h)),c
  3607                           	line	1404
  3608                           ;main.c: 1404: } else if (lResult >= 214 && lRes
                                 ult <= 227) {
  3609  000F56  EFDB  F007         	goto	i2l1201
  3610+                          	
  3611+ 000F5A                     i2l1202:		; BSR set to: ?
  3612+                          
  3613+ 000F5A  0ED5               	movlw	(0D6h-1)
  3614+ 000F5C  0101               	movlb	1	; () banked
  3615+ 000F5E  0101               	movlb	1	; () banked
  3616+ 000F60  651C               	cpfsgt	((getNote@lResult))&0ffh
  3617+ 000F62  EFB5  F007         	goto	i2u6621
  3618+ 000F66  EFB7  F007         	goto	i2u6620
  3619+ 000F6A                     i2u6621:
  3620+ 000F6A  EFD3  F007         	goto	i2l1204
  3621+ 000F6E                     i2u6620:
  3622+ 000F6E  0EE4               	movlw	(0E4h)&0ffh
  3623+ 000F70  0101               	movlb	1	; () banked
  3624+ 000F72  0101               	movlb	1	; () banked
  3625+ 000F74  611C               	cpfslt	((getNote@lResult))&0ffh
  3626+ 000F76  EFBF  F007         	goto	i2u6631
  3627+ 000F7A  EFC1  F007         	goto	i2u6630
  3628+ 000F7E                     i2u6631:
  3629+ 000F7E  EFD3  F007         	goto	i2l1204
  3630+ 000F82                     i2u6630:
  3631+                          	line	1406
  3632+                          ;main.c: 1406: new_note = 0x4d;
  3633+ 000F82  0101               	movlb	1	; () banked
  3634+ 000F84  6F20               	movwf	(??_getNote+3+0)&0ffh
  3635+ 000F86  0E4D               	movlw	low(04Dh)
  3636+ 000F88  0101               	movlb	1	; () banked
  3637+ 000F8A  0101               	movlb	1	; () banked
  3638+ 000F8C  6F1D               	movwf	((getNote@new_note))&0ffh
  3639+ 000F8E  0101               	movlb	1	; () banked
  3640+ 000F90  5120               	movf	(??_getNote+3+0)&0ffh,w
  3641+                          	line	1407
  3642+                          ;main.c: 1407: led_array[4] = 1;
  3643+ 000F92  0E01               	movlw	low(01h)
  3644+ 000F94  6E08               	movwf	(0+((c:0)+08h)),c
  3645+ 000F96  0E00               	movlw	high(01h)
  3646+ 000F98  6E09               	movwf	(1+((c:0)+08h)),c
  3647+                          	line	1408
  3648+                          ;main.c: 1408: led_array[12] = 1;
  3649+ 000F9A  0E01               	movlw	low(01h)
  3650+ 000F9C  6E18               	movwf	(0+((c:0)+018h)),c
  3651+ 000F9E  0E00               	movlw	high(01h)
  3652+ 000FA0  6E19               	movwf	(1+((c:0)+018h)),c
  3653+                          	line	1409
  3654+                          ;main.c: 1409: } else {
  3655+ 000FA2  EFDB  F007         	goto	i2l1201
  3656+                          	
  3657+ 000FA6                     i2l1204:		; BSR set to: ?
  3658+                          
  3659+                          	line	1411
  3660+                          ;main.c: 1411: new_note = 0x00;
  3661+ 000FA6  0101               	movlb	1	; () banked
  3662+ 000FA8  6F20               	movwf	(??_getNote+3+0)&0ffh
  3663+ 000FAA  0E00               	movlw	low(0)
  3664+ 000FAC  0101               	movlb	1	; () banked
  3665+ 000FAE  0101               	movlb	1	; () banked
  3666+ 000FB0  6F1D               	movwf	((getNote@new_note))&0ffh
  3667+ 000FB2  0101               	movlb	1	; () banked
  3668+ 000FB4  5120               	movf	(??_getNote+3+0)&0ffh,w
  3669+                          	line	1412
  3670+                          	
  3671+ 000FB6                     i2l1205:		; BSR set to: ?
  3672+                          
  3673+                          	
  3674+ 000FB6                     i2l1203:		; BSR set to: ?
  3675+                          
  3676+                          	
  3677+ 000FB6                     i2l1201:		; BSR set to: ?
  3678+                          
  3679+                          	line	1414
  3680+                          ;main.c: 1412: }
  3681+                          ;main.c: 1414: } else if (hResult == 0x02) {
  3682+ 000FB6  EFE7  F008         	goto	i2l1198
  3683+                          	
  3684+ 000FBA                     i2l1199:		; BSR set to: ?
  3685+                          
  3686+ 000FBA  0101               	movlb	1	; () banked
  3687+ 000FBC  0101               	movlb	1	; () banked
  3688+ 000FBE  511B               	movf	((getNote@hResult))&0ffh,w
  3689+ 000FC0  0A02               	xorlw	2
  3690+                          
  3691+ 000FC2  A4D8               	btfss	status,2
  3692+ 000FC4  EFE6  F007         	goto	i2u6641
  3693+ 000FC8  EFE8  F007         	goto	i2u6640
  3694+ 000FCC                     i2u6641:
  3695+ 000FCC  EF5E  F008         	goto	i2l1207
  3696+ 000FD0                     i2u6640:
  3697+                          	line	1415
  3698+                          ;main.c: 1415: if (lResult >= 217 && lResult <= 
      +                          255) {
  3699+ 000FD0  0ED8               	movlw	(0D9h-1)
  3700+ 000FD2  0101               	movlb	1	; () banked
  3701+ 000FD4  0101               	movlb	1	; () banked
  3702+ 000FD6  651C               	cpfsgt	((getNote@lResult))&0ffh
  3703+ 000FD8  EFF0  F007         	goto	i2u6651
  3704+ 000FDC  EFF2  F007         	goto	i2u6650
  3705+ 000FE0                     i2u6651:
  3706+ 000FE0  EF04  F008         	goto	i2l1208
  3707+ 000FE4                     i2u6650:
  3708+                          	line	1417
  3709+                          ;main.c: 1417: new_note = 0x35;
  3710+ 000FE4  0101               	movlb	1	; () banked
  3711+ 000FE6  6F20               	movwf	(??_getNote+3+0)&0ffh
  3712+ 000FE8  0E35               	movlw	low(035h)
  3713+ 000FEA  0101               	movlb	1	; () banked
  3714+ 000FEC  0101               	movlb	1	; () banked
  3715+ 000FEE  6F1D               	movwf	((getNote@new_note))&0ffh
  3716+ 000FF0  0101               	movlb	1	; () banked
  3717+ 000FF2  5120               	movf	(??_getNote+3+0)&0ffh,w
  3718+                          	line	1418
  3719+                          ;main.c: 1418: led_array[4] = 1;
  3720+ 000FF4  0E01               	movlw	low(01h)
  3721+ 000FF6  6E08               	movwf	(0+((c:0)+08h)),c
  3722+ 000FF8  0E00               	movlw	high(01h)
  3723+ 000FFA  6E09               	movwf	(1+((c:0)+08h)),c
  3724+                          	line	1419
  3725+                          ;main.c: 1419: led_array[9] = 1;
  3726+ 000FFC  0E01               	movlw	low(01h)
  3727+ 000FFE  6E12               	movwf	(0+((c:0)+012h)),c
  3728+ 001000  0E00               	movlw	high(01h)
  3729+ 001002  6E13               	movwf	(1+((c:0)+012h)),c
  3730+                          	line	1421
  3731+                          ;main.c: 1421: } else if (lResult >= 154 && lRes
      +                          ult <= 202) {
  3732+ 001004  EF5C  F008         	goto	i2l1209
  3733+                          	
  3734+ 001008                     i2l1208:		; BSR set to: ?
  3735+                          
  3736+ 001008  0E99               	movlw	(09Ah-1)
  3737+ 00100A  0101               	movlb	1	; () banked
  3738+ 00100C  0101               	movlb	1	; () banked
  3739+ 00100E  651C               	cpfsgt	((getNote@lResult))&0ffh
  3740+ 001010  EF0C  F008         	goto	i2u6661
  3741+ 001014  EF0E  F008         	goto	i2u6660
  3742+ 001018                     i2u6661:
  3743+ 001018  EF2E  F008         	goto	i2l1210
  3744+ 00101C                     i2u6660:
  3745+ 00101C  0ECB               	movlw	(0CBh)&0ffh
  3746+ 00101E  0101               	movlb	1	; () banked
  3747+ 001020  0101               	movlb	1	; () banked
  3748+ 001022  611C               	cpfslt	((getNote@lResult))&0ffh
  3749+ 001024  EF16  F008         	goto	i2u6671
  3750+ 001028  EF18  F008         	goto	i2u6670
  3751+ 00102C                     i2u6671:
  3752+ 00102C  EF2E  F008         	goto	i2l1210
  3753+ 001030                     i2u6670:
  3754+                          	line	1423
  3755+                          ;main.c: 1423: new_note = 0x25;
  3756+ 001030  0101               	movlb	1	; () banked
  3757+ 001032  6F20               	movwf	(??_getNote+3+0)&0ffh
  3758+ 001034  0E25               	movlw	low(025h)
  3759+ 001036  0101               	movlb	1	; () banked
  3760+ 001038  0101               	movlb	1	; () banked
  3761+ 00103A  6F1D               	movwf	((getNote@new_note))&0ffh
  3762+ 00103C  0101               	movlb	1	; () banked
  3763+ 00103E  5120               	movf	(??_getNote+3+0)&0ffh,w
  3764+                          	line	1424
  3765+                          ;main.c: 1424: led_array[4] = 1;
  3766+ 001040  0E01               	movlw	low(01h)
  3767+ 001042  6E08               	movwf	(0+((c:0)+08h)),c
  3768+ 001044  0E00               	movlw	high(01h)
  3769+ 001046  6E09               	movwf	(1+((c:0)+08h)),c
  3770+                          	line	1425
  3771+                          ;main.c: 1425: led_array[9] = 1;
  3772+ 001048  0E01               	movlw	low(01h)
  3773+ 00104A  6E12               	movwf	(0+((c:0)+012h)),c
  3774+ 00104C  0E00               	movlw	high(01h)
  3775+ 00104E  6E13               	movwf	(1+((c:0)+012h)),c
  3776+                          	line	1426
  3777+                          ;main.c: 1426: led_array[10] = 1;
  3778+ 001050  0E01               	movlw	low(01h)
  3779+ 001052  6E14               	movwf	(0+((c:0)+014h)),c
  3780+ 001054  0E00               	movlw	high(01h)
  3781+ 001056  6E15               	movwf	(1+((c:0)+014h)),c
  3782+                          	line	1427
  3783+                          ;main.c: 1427: } else if (lResult >= 115 && lRes
      +                          ult <= 145) {
  3784+ 001058  EF5C  F008         	goto	i2l1209
  3785+                          	
  3786+ 00105C                     i2l1210:		; BSR set to: ?
  3787+                          
  3788+ 00105C  0E72               	movlw	(073h-1)
  3789+ 00105E  0101               	movlb	1	; () banked
  3790+ 001060  0101               	movlb	1	; () banked
  3791+ 001062  651C               	cpfsgt	((getNote@lResult))&0ffh
  3792+ 001064  EF36  F008         	goto	i2u6681
  3793+ 001068  EF38  F008         	goto	i2u6680
  3794+ 00106C                     i2u6681:
  3795+ 00106C  EF54  F008         	goto	i2l1212
  3796+ 001070                     i2u6680:
  3797+ 001070  0E92               	movlw	(092h)&0ffh
  3798+ 001072  0101               	movlb	1	; () banked
  3799+ 001074  0101               	movlb	1	; () banked
  3800+ 001076  611C               	cpfslt	((getNote@lResult))&0ffh
  3801+ 001078  EF40  F008         	goto	i2u6691
  3802+ 00107C  EF42  F008         	goto	i2u6690
  3803+ 001080                     i2u6691:
  3804+ 001080  EF54  F008         	goto	i2l1212
  3805+ 001084                     i2u6690:
  3806+                          	line	1429
  3807+                          ;main.c: 1429: new_note = 0x2d;
  3808+ 001084  0101               	movlb	1	; () banked
  3809+ 001086  6F20               	movwf	(??_getNote+3+0)&0ffh
  3810+ 001088  0E2D               	movlw	low(02Dh)
  3811+ 00108A  0101               	movlb	1	; () banked
  3812+ 00108C  0101               	movlb	1	; () banked
  3813+ 00108E  6F1D               	movwf	((getNote@new_note))&0ffh
  3814+ 001090  0101               	movlb	1	; () banked
  3815+ 001092  5120               	movf	(??_getNote+3+0)&0ffh,w
  3816+                          	line	1430
  3817+                          ;main.c: 1430: led_array[4] = 1;
  3818+ 001094  0E01               	movlw	low(01h)
  3819+ 001096  6E08               	movwf	(0+((c:0)+08h)),c
  3820+ 001098  0E00               	movlw	high(01h)
  3821+ 00109A  6E09               	movwf	(1+((c:0)+08h)),c
  3822+                          	line	1431
  3823+                          ;main.c: 1431: led_array[10] = 1;
  3824+ 00109C  0E01               	movlw	low(01h)
  3825+ 00109E  6E14               	movwf	(0+((c:0)+014h)),c
  3826+ 0010A0  0E00               	movlw	high(01h)
  3827+ 0010A2  6E15               	movwf	(1+((c:0)+014h)),c
  3828+                          	line	1432
  3829+                          ;main.c: 1432: } else {
  3830+ 0010A4  EF5C  F008         	goto	i2l1209
  3831+                          	
  3832+ 0010A8                     i2l1212:		; BSR set to: ?
  3833+                          
  3834+                          	line	1434
  3835+                          ;main.c: 1434: new_note = 0x00;
  3836+ 0010A8  0101               	movlb	1	; () banked
  3837+ 0010AA  6F20               	movwf	(??_getNote+3+0)&0ffh
  3838+ 0010AC  0E00               	movlw	low(0)
  3839+ 0010AE  0101               	movlb	1	; () banked
  3840+ 0010B0  0101               	movlb	1	; () banked
  3841+ 0010B2  6F1D               	movwf	((getNote@new_note))&0ffh
  3842+ 0010B4  0101               	movlb	1	; () banked
  3843+ 0010B6  5120               	movf	(??_getNote+3+0)&0ffh,w
  3844+                          	line	1435
  3845+                          	
  3846+ 0010B8                     i2l1213:		; BSR set to: ?
  3847+                          
  3848+                          	
  3849+ 0010B8                     i2l1211:		; BSR set to: ?
  3850+                          
  3851+                          	
  3852+ 0010B8                     i2l1209:		; BSR set to: ?
  3853+                          
  3854+                          	line	1437
  3855+                          ;main.c: 1435: }
  3856+                          ;main.c: 1437: } else if (hResult == 0x03) {
  3857+ 0010B8  EFE7  F008         	goto	i2l1198
  3858+                          	
  3859+ 0010BC                     i2l1207:		; BSR set to: ?
  3860+                          
  3861+ 0010BC  0101               	movlb	1	; () banked
  3862+ 0010BE  0101               	movlb	1	; () banked
  3863+ 0010C0  511B               	movf	((getNote@hResult))&0ffh,w
  3864+ 0010C2  0A03               	xorlw	3
  3865+                          
  3866+ 0010C4  A4D8               	btfss	status,2
  3867+ 0010C6  EF67  F008         	goto	i2u6701
  3868+ 0010CA  EF69  F008         	goto	i2u6700
  3869+ 0010CE                     i2u6701:
  3870+ 0010CE  EFE7  F008         	goto	i2l1198
  3871+ 0010D2                     i2u6700:
  3872+                          	line	1438
  3873+                          ;main.c: 1438: if (lResult >= 227 && lResult <= 
      +                          240) {
  3874+ 0010D2  0EE2               	movlw	(0E3h-1)
  3875+ 0010D4  0101               	movlb	1	; () banked
  3876+ 0010D6  0101               	movlb	1	; () banked
  3877+ 0010D8  651C               	cpfsgt	((getNote@lResult))&0ffh
  3878+ 0010DA  EF71  F008         	goto	i2u6711
  3879+ 0010DE  EF73  F008         	goto	i2u6710
  3880+ 0010E2                     i2u6711:
  3881+ 0010E2  EF8F  F008         	goto	i2l1216
  3882+ 0010E6                     i2u6710:
  3883+ 0010E6  0EF1               	movlw	(0F1h)&0ffh
  3884+ 0010E8  0101               	movlb	1	; () banked
  3885+ 0010EA  0101               	movlb	1	; () banked
  3886+ 0010EC  611C               	cpfslt	((getNote@lResult))&0ffh
  3887+ 0010EE  EF7B  F008         	goto	i2u6721
  3888+ 0010F2  EF7D  F008         	goto	i2u6720
  3889+ 0010F6                     i2u6721:
  3890+ 0010F6  EF8F  F008         	goto	i2l1216
  3891+ 0010FA                     i2u6720:
  3892+                          	line	1440
  3893+                          ;main.c: 1440: new_note = 0x15;
  3894+ 0010FA  0101               	movlb	1	; () banked
  3895+ 0010FC  6F20               	movwf	(??_getNote+3+0)&0ffh
  3896+ 0010FE  0E15               	movlw	low(015h)
  3897+ 001100  0101               	movlb	1	; () banked
  3898+ 001102  0101               	movlb	1	; () banked
  3899+ 001104  6F1D               	movwf	((getNote@new_note))&0ffh
  3900+ 001106  0101               	movlb	1	; () banked
  3901+ 001108  5120               	movf	(??_getNote+3+0)&0ffh,w
  3902+                          	line	1441
  3903+                          ;main.c: 1441: led_array[4] = 1;
  3904+ 00110A  0E01               	movlw	low(01h)
  3905+ 00110C  6E08               	movwf	(0+((c:0)+08h)),c
  3906+ 00110E  0E00               	movlw	high(01h)
  3907+ 001110  6E09               	movwf	(1+((c:0)+08h)),c
  3908+                          	line	1442
  3909+                          ;main.c: 1442: led_array[7] = 1;
  3910+ 001112  0E01               	movlw	low(01h)
  3911+ 001114  6E0E               	movwf	(0+((c:0)+0Eh)),c
  3912+ 001116  0E00               	movlw	high(01h)
  3913+ 001118  6E0F               	movwf	(1+((c:0)+0Eh)),c
  3914+                          	line	1443
  3915+                          ;main.c: 1443: } else if (lResult >= 180 && lRes
      +                          ult <= 210) {
  3916+ 00111A  EFE7  F008         	goto	i2l1198
  3917+                          	
  3918+ 00111E                     i2l1216:		; BSR set to: ?
  3919+                          
  3920+ 00111E  0EB3               	movlw	(0B4h-1)
  3921+ 001120  0101               	movlb	1	; () banked
  3922+ 001122  0101               	movlb	1	; () banked
  3923+ 001124  651C               	cpfsgt	((getNote@lResult))&0ffh
  3924+ 001126  EF97  F008         	goto	i2u6731
  3925+ 00112A  EF99  F008         	goto	i2u6730
  3926+ 00112E                     i2u6731:
  3927+ 00112E  EFB9  F008         	goto	i2l1218
  3928+ 001132                     i2u6730:
  3929+ 001132  0ED3               	movlw	(0D3h)&0ffh
  3930+ 001134  0101               	movlb	1	; () banked
  3931+ 001136  0101               	movlb	1	; () banked
  3932+ 001138  611C               	cpfslt	((getNote@lResult))&0ffh
  3933+ 00113A  EFA1  F008         	goto	i2u6741
  3934+ 00113E  EFA3  F008         	goto	i2u6740
  3935+ 001142                     i2u6741:
  3936+ 001142  EFB9  F008         	goto	i2l1218
  3937+ 001146                     i2u6740:
  3938+                          	line	1445
  3939+                          ;main.c: 1445: new_note = 0x05;
  3940+ 001146  0101               	movlb	1	; () banked
  3941+ 001148  6F20               	movwf	(??_getNote+3+0)&0ffh
  3942+ 00114A  0E05               	movlw	low(05h)
  3943+ 00114C  0101               	movlb	1	; () banked
  3944+ 00114E  0101               	movlb	1	; () banked
  3945+ 001150  6F1D               	movwf	((getNote@new_note))&0ffh
  3946+ 001152  0101               	movlb	1	; () banked
  3947+ 001154  5120               	movf	(??_getNote+3+0)&0ffh,w
  3948+                          	line	1446
  3949+                          ;main.c: 1446: led_array[4] = 1;
  3950+ 001156  0E01               	movlw	low(01h)
  3951+ 001158  6E08               	movwf	(0+((c:0)+08h)),c
  3952+ 00115A  0E00               	movlw	high(01h)
  3953+ 00115C  6E09               	movwf	(1+((c:0)+08h)),c
  3954+                          	line	1447
  3955+                          ;main.c: 1447: led_array[7] = 1;
  3956+ 00115E  0E01               	movlw	low(01h)
  3957+ 001160  6E0E               	movwf	(0+((c:0)+0Eh)),c
  3958+ 001162  0E00               	movlw	high(01h)
  3959+ 001164  6E0F               	movwf	(1+((c:0)+0Eh)),c
  3960+                          	line	1448
  3961+                          ;main.c: 1448: led_array[8] = 1;
  3962+ 001166  0E01               	movlw	low(01h)
  3963+ 001168  6E10               	movwf	(0+((c:0)+010h)),c
  3964+ 00116A  0E00               	movlw	high(01h)
  3965+ 00116C  6E11               	movwf	(1+((c:0)+010h)),c
  3966+                          	line	1449
  3967+                          ;main.c: 1449: } else if (lResult >= 90 && lResu
      +                          lt <= 165) {
  3968+ 00116E  EFE7  F008         	goto	i2l1198
  3969+                          	
  3970+ 001172                     i2l1218:		; BSR set to: ?
  3971+                          
  3972+ 001172  0E59               	movlw	(05Ah-1)
  3973+ 001174  0101               	movlb	1	; () banked
  3974+ 001176  0101               	movlb	1	; () banked
  3975+ 001178  651C               	cpfsgt	((getNote@lResult))&0ffh
  3976+ 00117A  EFC1  F008         	goto	i2u6751
  3977+ 00117E  EFC3  F008         	goto	i2u6750
  3978+ 001182                     i2u6751:
  3979+ 001182  EFDF  F008         	goto	i2l1220
  3980+ 001186                     i2u6750:
  3981+ 001186  0EA6               	movlw	(0A6h)&0ffh
  3982+ 001188  0101               	movlb	1	; () banked
  3983+ 00118A  0101               	movlb	1	; () banked
  3984+ 00118C  611C               	cpfslt	((getNote@lResult))&0ffh
  3985+ 00118E  EFCB  F008         	goto	i2u6761
  3986+ 001192  EFCD  F008         	goto	i2u6760
  3987+ 001196                     i2u6761:
  3988+ 001196  EFDF  F008         	goto	i2l1220
  3989+ 00119A                     i2u6760:
  3990+                          	line	1451
  3991+                          ;main.c: 1451: new_note = 0x0d;
  3992+ 00119A  0101               	movlb	1	; () banked
  3993+ 00119C  6F20               	movwf	(??_getNote+3+0)&0ffh
  3994+ 00119E  0E0D               	movlw	low(0Dh)
  3995+ 0011A0  0101               	movlb	1	; () banked
  3996+ 0011A2  0101               	movlb	1	; () banked
  3997+ 0011A4  6F1D               	movwf	((getNote@new_note))&0ffh
  3998+ 0011A6  0101               	movlb	1	; () banked
  3999+ 0011A8  5120               	movf	(??_getNote+3+0)&0ffh,w
  4000+                          	line	1452
  4001+                          ;main.c: 1452: led_array[4] = 1;
  4002+ 0011AA  0E01               	movlw	low(01h)
  4003+ 0011AC  6E08               	movwf	(0+((c:0)+08h)),c
  4004+ 0011AE  0E00               	movlw	high(01h)
  4005+ 0011B0  6E09               	movwf	(1+((c:0)+08h)),c
  4006+                          	line	1453
  4007+                          ;main.c: 1453: led_array[8] = 1;
  4008+ 0011B2  0E01               	movlw	low(01h)
  4009+ 0011B4  6E10               	movwf	(0+((c:0)+010h)),c
  4010+ 0011B6  0E00               	movlw	high(01h)
  4011+ 0011B8  6E11               	movwf	(1+((c:0)+010h)),c
  4012+                          	line	1454
  4013+                          ;main.c: 1454: } else {
  4014+ 0011BA  EFE7  F008         	goto	i2l1198
  4015+                          	
  4016+ 0011BE                     i2l1220:		; BSR set to: ?
  4017+                          
  4018+                          	line	1456
  4019+                          ;main.c: 1456: new_note = 0x00;
  4020+ 0011BE  0101               	movlb	1	; () banked
  4021+ 0011C0  6F20               	movwf	(??_getNote+3+0)&0ffh
  4022  0011C2  0E00               	movlw	low(0)
  4023  0011C4  0101               	movlb	1	; () banked
  4024  0011C6  0101               	movlb	1	; () banked
  4025  0011C8  6F1D               	movwf	((getNote@new_note))&0ffh
  4026  0011CA  0101               	movlb	1	; () banked
  4027  0011CC  5120               	movf	(??_getNote+3+0)&0ffh,w
  4028                           	line	1457
  4029                           	
  4030  0011CE                     i2l1221:		; BSR set to: ?
  4031                           
  4032                           	
  4033  0011CE                     i2l1219:		; BSR set to: ?
  4034                           
  4035                           	
  4036  0011CE                     i2l1217:		; BSR set to: ?
  4037                           
  4038                           	line	1459
  4039                           	
  4040  0011CE                     i2l1215:		; BSR set to: ?
  4041                           
  4042                           	line	1461
  4043                           	
  4044  0011CE                     i2l1214:		; BSR set to: ?
  4045                           
  4046                           	
  4047  0011CE                     i2l1206:		; BSR set to: ?
  4048                           
  4049                           	
  4050  0011CE                     i2l1198:		; BSR set to: ?
  4051                           
  4052                           ;main.c: 1457: }
  4053                           ;main.c: 1459: }
  4054                           ;main.c: 1461: } else if (adc_num == 5) {
  4055  0011CE  EF55  F00C         	goto	i2l1114
  4056                           	
  4057  0011D2                     i2l1196:		; BSR set to: ?
  4058                           
  4059  0011D2  502A               	movf	((c:42)),c,w	;volatile
  4060  0011D4  0A05               	xorlw	5
  4061                           
  4062  0011D6  A4D8               	btfss	status,2
  4063  0011D8  EFF0  F008         	goto	i2u6771
  4064  0011DC  EFF2  F008         	goto	i2u6770
  4065  0011E0                     i2u6771:
  4066  0011E0  EF9B  F00A         	goto	i2l1223
  4067  0011E4                     i2u6770:
  4068                           	line	1462
  4069                           ;main.c: 1462: if (hResult == 0x00) {
  4070  0011E4  0101               	movlb	1	; () banked
  4071  0011E6  0101               	movlb	1	; () banked
  4072  0011E8  671B               	tstfsz	((getNote@hResult))&0ffh
  4073  0011EA  EFF9  F008         	goto	i2u6781
  4074  0011EE  EFFB  F008         	goto	i2u6780
  4075  0011F2                     i2u6781:
  4076  0011F2  EF05  F009         	goto	i2l1224
  4077  0011F6                     i2u6780:
  4078                           	line	1464
  4079                           ;main.c: 1464: new_note = 0x00;
  4080  0011F6  0101               	movlb	1	; () banked
  4081  0011F8  6F20               	movwf	(??_getNote+3+0)&0ffh
  4082  0011FA  0E00               	movlw	low(0)
  4083  0011FC  0101               	movlb	1	; () banked
  4084  0011FE  0101               	movlb	1	; () banked
  4085  001200  6F1D               	movwf	((getNote@new_note))&0ffh
  4086  001202  0101               	movlb	1	; () banked
  4087  001204  5120               	movf	(??_getNote+3+0)&0ffh,w
  4088                           	line	1466
  4089                           ;main.c: 1466: } else if (hResult == 0x01) {
  4090  001206  EF99  F00A         	goto	i2l1225
  4091                           	
  4092  00120A                     i2l1224:		; BSR set to: ?
  4093                           
  4094  00120A  0101               	movlb	1	; () banked
  4095  00120C  0101               	movlb	1	; () banked
  4096  00120E  051B               	decf	((getNote@hResult))&0ffh,w
  4097                           
  4098  001210  A4D8               	btfss	status,2
  4099  001212  EF0D  F009         	goto	i2u6791
  4100  001216  EF0F  F009         	goto	i2u6790
  4101  00121A                     i2u6791:
  4102  00121A  EF8F  F009         	goto	i2l1226
  4103  00121E                     i2u6790:
  4104                           	line	1467
  4105                           ;main.c: 1467: if (lResult >= 148 && lResult <= 
                                 174) {
  4106  00121E  0E93               	movlw	(094h-1)
  4107  001220  0101               	movlb	1	; () banked
  4108  001222  0101               	movlb	1	; () banked
  4109  001224  651C               	cpfsgt	((getNote@lResult))&0ffh
  4110  001226  EF17  F009         	goto	i2u6801
  4111  00122A  EF19  F009         	goto	i2u6800
  4112  00122E                     i2u6801:
  4113  00122E  EF35  F009         	goto	i2l1227
  4114  001232                     i2u6800:
  4115  001232  0EAF               	movlw	(0AFh)&0ffh
  4116  001234  0101               	movlb	1	; () banked
  4117  001236  0101               	movlb	1	; () banked
  4118  001238  611C               	cpfslt	((getNote@lResult))&0ffh
  4119  00123A  EF21  F009         	goto	i2u6811
  4120  00123E  EF23  F009         	goto	i2u6810
  4121  001242                     i2u6811:
  4122  001242  EF35  F009         	goto	i2l1227
  4123  001246                     i2u6810:
  4124                           	line	1469
  4125                           ;main.c: 1469: new_note = 0x56;
  4126  001246  0101               	movlb	1	; () banked
  4127  001248  6F20               	movwf	(??_getNote+3+0)&0ffh
  4128  00124A  0E56               	movlw	low(056h)
  4129  00124C  0101               	movlb	1	; () banked
  4130  00124E  0101               	movlb	1	; () banked
  4131  001250  6F1D               	movwf	((getNote@new_note))&0ffh
  4132  001252  0101               	movlb	1	; () banked
  4133  001254  5120               	movf	(??_getNote+3+0)&0ffh,w
  4134                           	line	1470
  4135                           ;main.c: 1470: led_array[3] = 1;
  4136  001256  0E01               	movlw	low(01h)
  4137  001258  6E06               	movwf	(0+((c:0)+06h)),c
  4138  00125A  0E00               	movlw	high(01h)
  4139  00125C  6E07               	movwf	(1+((c:0)+06h)),c
  4140                           	line	1471
  4141                           ;main.c: 1471: led_array[11] = 1;
  4142  00125E  0E01               	movlw	low(01h)
  4143  001260  6E16               	movwf	(0+((c:0)+016h)),c
  4144  001262  0E00               	movlw	high(01h)
  4145  001264  6E17               	movwf	(1+((c:0)+016h)),c
  4146                           	line	1472
  4147                           ;main.c: 1472: } else if (lResult >= 89 && lResu
                                 lt <= 120) {
  4148  001266  EF8D  F009         	goto	i2l1228
  4149                           	
  4150  00126A                     i2l1227:		; BSR set to: ?
  4151                           
  4152  00126A  0E58               	movlw	(059h-1)
  4153  00126C  0101               	movlb	1	; () banked
  4154  00126E  0101               	movlb	1	; () banked
  4155  001270  651C               	cpfsgt	((getNote@lResult))&0ffh
  4156  001272  EF3D  F009         	goto	i2u6821
  4157  001276  EF3F  F009         	goto	i2u6820
  4158  00127A                     i2u6821:
  4159  00127A  EF5B  F009         	goto	i2l1229
  4160  00127E                     i2u6820:
  4161  00127E  0E79               	movlw	(079h)&0ffh
  4162  001280  0101               	movlb	1	; () banked
  4163  001282  0101               	movlb	1	; () banked
  4164  001284  611C               	cpfslt	((getNote@lResult))&0ffh
  4165  001286  EF47  F009         	goto	i2u6831
  4166  00128A  EF49  F009         	goto	i2u6830
  4167  00128E                     i2u6831:
  4168  00128E  EF5B  F009         	goto	i2l1229
  4169  001292                     i2u6830:
  4170                           	line	1474
  4171                           ;main.c: 1474: new_note = 0x46;
  4172  001292  0101               	movlb	1	; () banked
  4173  001294  6F20               	movwf	(??_getNote+3+0)&0ffh
  4174  001296  0E46               	movlw	low(046h)
  4175  001298  0101               	movlb	1	; () banked
  4176  00129A  0101               	movlb	1	; () banked
  4177  00129C  6F1D               	movwf	((getNote@new_note))&0ffh
  4178  00129E  0101               	movlb	1	; () banked
  4179  0012A0  5120               	movf	(??_getNote+3+0)&0ffh,w
  4180                           	line	1475
  4181                           ;main.c: 1475: led_array[3] = 1;
  4182  0012A2  0E01               	movlw	low(01h)
  4183  0012A4  6E06               	movwf	(0+((c:0)+06h)),c
  4184  0012A6  0E00               	movlw	high(01h)
  4185  0012A8  6E07               	movwf	(1+((c:0)+06h)),c
  4186                           	line	1476
  4187                           ;main.c: 1476: led_array[12] = 1;
  4188  0012AA  0E01               	movlw	low(01h)
  4189  0012AC  6E18               	movwf	(0+((c:0)+018h)),c
  4190  0012AE  0E00               	movlw	high(01h)
  4191  0012B0  6E19               	movwf	(1+((c:0)+018h)),c
  4192                           	line	1477
  4193                           ;main.c: 1477: } else if (lResult >= 20 && lResu
                                 lt <= 72) {
  4194  0012B2  EF8D  F009         	goto	i2l1228
  4195                           	
  4196  0012B6                     i2l1229:		; BSR set to: ?
  4197                           
  4198  0012B6  0E13               	movlw	(014h-1)
  4199  0012B8  0101               	movlb	1	; () banked
  4200  0012BA  0101               	movlb	1	; () banked
  4201  0012BC  651C               	cpfsgt	((getNote@lResult))&0ffh
  4202  0012BE  EF63  F009         	goto	i2u6841
  4203  0012C2  EF65  F009         	goto	i2u6840
  4204  0012C6                     i2u6841:
  4205  0012C6  EF85  F009         	goto	i2l1231
  4206  0012CA                     i2u6840:
  4207  0012CA  0E49               	movlw	(049h)&0ffh
  4208  0012CC  0101               	movlb	1	; () banked
  4209  0012CE  0101               	movlb	1	; () banked
  4210  0012D0  611C               	cpfslt	((getNote@lResult))&0ffh
  4211  0012D2  EF6D  F009         	goto	i2u6851
  4212  0012D6  EF6F  F009         	goto	i2u6850
  4213  0012DA                     i2u6851:
  4214  0012DA  EF85  F009         	goto	i2l1231
  4215  0012DE                     i2u6850:
  4216                           	line	1479
  4217                           ;main.c: 1479: new_note = 0x4e;
  4218  0012DE  0101               	movlb	1	; () banked
  4219  0012E0  6F20               	movwf	(??_getNote+3+0)&0ffh
  4220  0012E2  0E4E               	movlw	low(04Eh)
  4221  0012E4  0101               	movlb	1	; () banked
  4222  0012E6  0101               	movlb	1	; () banked
  4223  0012E8  6F1D               	movwf	((getNote@new_note))&0ffh
  4224  0012EA  0101               	movlb	1	; () banked
  4225  0012EC  5120               	movf	(??_getNote+3+0)&0ffh,w
  4226                           	line	1480
  4227                           ;main.c: 1480: led_array[3] = 1;
  4228  0012EE  0E01               	movlw	low(01h)
  4229  0012F0  6E06               	movwf	(0+((c:0)+06h)),c
  4230  0012F2  0E00               	movlw	high(01h)
  4231  0012F4  6E07               	movwf	(1+((c:0)+06h)),c
  4232                           	line	1481
  4233                           ;main.c: 1481: led_array[11] = 1;
  4234  0012F6  0E01               	movlw	low(01h)
  4235  0012F8  6E16               	movwf	(0+((c:0)+016h)),c
  4236  0012FA  0E00               	movlw	high(01h)
  4237  0012FC  6E17               	movwf	(1+((c:0)+016h)),c
  4238                           	line	1482
  4239                           ;main.c: 1482: led_array[12] = 1;
  4240  0012FE  0E01               	movlw	low(01h)
  4241  001300  6E18               	movwf	(0+((c:0)+018h)),c
  4242  001302  0E00               	movlw	high(01h)
  4243  001304  6E19               	movwf	(1+((c:0)+018h)),c
  4244                           	line	1483
  4245                           ;main.c: 1483: } else {
  4246  001306  EF8D  F009         	goto	i2l1228
  4247                           	
  4248  00130A                     i2l1231:		; BSR set to: ?
  4249                           
  4250                           	line	1485
  4251                           ;main.c: 1485: new_note = 0x00;
  4252  00130A  0101               	movlb	1	; () banked
  4253  00130C  6F20               	movwf	(??_getNote+3+0)&0ffh
  4254  00130E  0E00               	movlw	low(0)
  4255  001310  0101               	movlb	1	; () banked
  4256  001312  0101               	movlb	1	; () banked
  4257  001314  6F1D               	movwf	((getNote@new_note))&0ffh
  4258  001316  0101               	movlb	1	; () banked
  4259  001318  5120               	movf	(??_getNote+3+0)&0ffh,w
  4260                           	line	1486
  4261                           	
  4262  00131A                     i2l1232:		; BSR set to: ?
  4263                           
  4264                           	
  4265  00131A                     i2l1230:		; BSR set to: ?
  4266                           
  4267                           	
  4268  00131A                     i2l1228:		; BSR set to: ?
  4269                           
  4270                           	line	1488
  4271                           ;main.c: 1486: }
  4272                           ;main.c: 1488: } else if (hResult == 0x02) {
  4273  00131A  EF99  F00A         	goto	i2l1225
  4274                           	
  4275  00131E                     i2l1226:		; BSR set to: ?
  4276                           
  4277  00131E  0101               	movlb	1	; () banked
  4278  001320  0101               	movlb	1	; () banked
  4279  001322  511B               	movf	((getNote@hResult))&0ffh,w
  4280  001324  0A02               	xorlw	2
  4281                           
  4282  001326  A4D8               	btfss	status,2
  4283  001328  EF98  F009         	goto	i2u6861
  4284  00132C  EF9A  F009         	goto	i2u6860
  4285  001330                     i2u6861:
  4286  001330  EF10  F00A         	goto	i2l1234
  4287  001334                     i2u6860:
  4288                           	line	1489
  4289                           ;main.c: 1489: if (lResult >= 223 && lResult <= 
                                 256) {
  4290  001334  0EDE               	movlw	(0DFh-1)
  4291  001336  0101               	movlb	1	; () banked
  4292  001338  0101               	movlb	1	; () banked
  4293  00133A  651C               	cpfsgt	((getNote@lResult))&0ffh
  4294  00133C  EFA2  F009         	goto	i2u6871
  4295  001340  EFA4  F009         	goto	i2u6870
  4296  001344                     i2u6871:
  4297  001344  EFB6  F009         	goto	i2l1235
  4298  001348                     i2u6870:
  4299                           	line	1491
  4300                           ;main.c: 1491: new_note = 0x36;
  4301  001348  0101               	movlb	1	; () banked
  4302  00134A  6F20               	movwf	(??_getNote+3+0)&0ffh
  4303  00134C  0E36               	movlw	low(036h)
  4304  00134E  0101               	movlb	1	; () banked
  4305  001350  0101               	movlb	1	; () banked
  4306  001352  6F1D               	movwf	((getNote@new_note))&0ffh
  4307  001354  0101               	movlb	1	; () banked
  4308  001356  5120               	movf	(??_getNote+3+0)&0ffh,w
  4309                           	line	1492
  4310                           ;main.c: 1492: led_array[3] = 1;
  4311  001358  0E01               	movlw	low(01h)
  4312  00135A  6E06               	movwf	(0+((c:0)+06h)),c
  4313  00135C  0E00               	movlw	high(01h)
  4314  00135E  6E07               	movwf	(1+((c:0)+06h)),c
  4315                           	line	1493
  4316                           ;main.c: 1493: led_array[9] = 1;
  4317  001360  0E01               	movlw	low(01h)
  4318  001362  6E12               	movwf	(0+((c:0)+012h)),c
  4319  001364  0E00               	movlw	high(01h)
  4320  001366  6E13               	movwf	(1+((c:0)+012h)),c
  4321                           	line	1494
  4322                           ;main.c: 1494: } else if (lResult >= 165 && lRes
                                 ult <= 207) {
  4323  001368  EF0E  F00A         	goto	i2l1236
  4324                           	
  4325  00136C                     i2l1235:		; BSR set to: ?
  4326                           
  4327  00136C  0EA4               	movlw	(0A5h-1)
  4328  00136E  0101               	movlb	1	; () banked
  4329  001370  0101               	movlb	1	; () banked
  4330  001372  651C               	cpfsgt	((getNote@lResult))&0ffh
  4331  001374  EFBE  F009         	goto	i2u6881
  4332  001378  EFC0  F009         	goto	i2u6880
  4333  00137C                     i2u6881:
  4334  00137C  EFE0  F009         	goto	i2l1237
  4335  001380                     i2u6880:
  4336  001380  0ED0               	movlw	(0D0h)&0ffh
  4337  001382  0101               	movlb	1	; () banked
  4338  001384  0101               	movlb	1	; () banked
  4339  001386  611C               	cpfslt	((getNote@lResult))&0ffh
  4340  001388  EFC8  F009         	goto	i2u6891
  4341  00138C  EFCA  F009         	goto	i2u6890
  4342  001390                     i2u6891:
  4343  001390  EFE0  F009         	goto	i2l1237
  4344  001394                     i2u6890:
  4345                           	line	1496
  4346                           ;main.c: 1496: new_note = 0x26;
  4347  001394  0101               	movlb	1	; () banked
  4348  001396  6F20               	movwf	(??_getNote+3+0)&0ffh
  4349  001398  0E26               	movlw	low(026h)
  4350  00139A  0101               	movlb	1	; () banked
  4351  00139C  0101               	movlb	1	; () banked
  4352  00139E  6F1D               	movwf	((getNote@new_note))&0ffh
  4353  0013A0  0101               	movlb	1	; () banked
  4354  0013A2  5120               	movf	(??_getNote+3+0)&0ffh,w
  4355                           	line	1497
  4356                           ;main.c: 1497: led_array[3] = 1;
  4357  0013A4  0E01               	movlw	low(01h)
  4358  0013A6  6E06               	movwf	(0+((c:0)+06h)),c
  4359  0013A8  0E00               	movlw	high(01h)
  4360  0013AA  6E07               	movwf	(1+((c:0)+06h)),c
  4361                           	line	1498
  4362                           ;main.c: 1498: led_array[9] = 1;
  4363  0013AC  0E01               	movlw	low(01h)
  4364  0013AE  6E12               	movwf	(0+((c:0)+012h)),c
  4365  0013B0  0E00               	movlw	high(01h)
  4366  0013B2  6E13               	movwf	(1+((c:0)+012h)),c
  4367                           	line	1499
  4368                           ;main.c: 1499: led_array[10] = 1;
  4369  0013B4  0E01               	movlw	low(01h)
  4370  0013B6  6E14               	movwf	(0+((c:0)+014h)),c
  4371  0013B8  0E00               	movlw	high(01h)
  4372  0013BA  6E15               	movwf	(1+((c:0)+014h)),c
  4373                           	line	1500
  4374                           ;main.c: 1500: } else if (lResult >= 132 && lRes
                                 ult <= 160) {
  4375  0013BC  EF0E  F00A         	goto	i2l1236
  4376                           	
  4377  0013C0                     i2l1237:		; BSR set to: ?
  4378                           
  4379  0013C0  0E83               	movlw	(084h-1)
  4380  0013C2  0101               	movlb	1	; () banked
  4381  0013C4  0101               	movlb	1	; () banked
  4382  0013C6  651C               	cpfsgt	((getNote@lResult))&0ffh
  4383  0013C8  EFE8  F009         	goto	i2u6901
  4384  0013CC  EFEA  F009         	goto	i2u6900
  4385  0013D0                     i2u6901:
  4386  0013D0  EF06  F00A         	goto	i2l1239
  4387  0013D4                     i2u6900:
  4388  0013D4  0EA1               	movlw	(0A1h)&0ffh
  4389  0013D6  0101               	movlb	1	; () banked
  4390  0013D8  0101               	movlb	1	; () banked
  4391  0013DA  611C               	cpfslt	((getNote@lResult))&0ffh
  4392  0013DC  EFF2  F009         	goto	i2u6911
  4393  0013E0  EFF4  F009         	goto	i2u6910
  4394  0013E4                     i2u6911:
  4395  0013E4  EF06  F00A         	goto	i2l1239
  4396  0013E8                     i2u6910:
  4397                           	line	1502
  4398                           ;main.c: 1502: new_note = 0x2e;
  4399  0013E8  0101               	movlb	1	; () banked
  4400  0013EA  6F20               	movwf	(??_getNote+3+0)&0ffh
  4401  0013EC  0E2E               	movlw	low(02Eh)
  4402  0013EE  0101               	movlb	1	; () banked
  4403  0013F0  0101               	movlb	1	; () banked
  4404  0013F2  6F1D               	movwf	((getNote@new_note))&0ffh
  4405  0013F4  0101               	movlb	1	; () banked
  4406  0013F6  5120               	movf	(??_getNote+3+0)&0ffh,w
  4407                           	line	1503
  4408                           ;main.c: 1503: led_array[3] = 1;
  4409  0013F8  0E01               	movlw	low(01h)
  4410  0013FA  6E06               	movwf	(0+((c:0)+06h)),c
  4411  0013FC  0E00               	movlw	high(01h)
  4412  0013FE  6E07               	movwf	(1+((c:0)+06h)),c
  4413                           	line	1504
  4414                           ;main.c: 1504: led_array[10] = 1;
  4415  001400  0E01               	movlw	low(01h)
  4416  001402  6E14               	movwf	(0+((c:0)+014h)),c
  4417  001404  0E00               	movlw	high(01h)
  4418  001406  6E15               	movwf	(1+((c:0)+014h)),c
  4419                           	line	1505
  4420                           ;main.c: 1505: } else {
  4421  001408  EF0E  F00A         	goto	i2l1236
  4422                           	
  4423  00140C                     i2l1239:		; BSR set to: ?
  4424                           
  4425                           	line	1507
  4426                           ;main.c: 1507: new_note = 0x00;
  4427  00140C  0101               	movlb	1	; () banked
  4428  00140E  6F20               	movwf	(??_getNote+3+0)&0ffh
  4429  001410  0E00               	movlw	low(0)
  4430  001412  0101               	movlb	1	; () banked
  4431  001414  0101               	movlb	1	; () banked
  4432  001416  6F1D               	movwf	((getNote@new_note))&0ffh
  4433  001418  0101               	movlb	1	; () banked
  4434  00141A  5120               	movf	(??_getNote+3+0)&0ffh,w
  4435                           	line	1508
  4436                           	
  4437  00141C                     i2l1240:		; BSR set to: ?
  4438                           
  4439                           	
  4440  00141C                     i2l1238:		; BSR set to: ?
  4441                           
  4442                           	
  4443  00141C                     i2l1236:		; BSR set to: ?
  4444                           
  4445                           	line	1510
  4446                           ;main.c: 1508: }
  4447                           ;main.c: 1510: } else if (hResult == 0x03) {
  4448  00141C  EF99  F00A         	goto	i2l1225
  4449                           	
  4450  001420                     i2l1234:		; BSR set to: ?
  4451                           
  4452  001420  0101               	movlb	1	; () banked
  4453  001422  0101               	movlb	1	; () banked
  4454  001424  511B               	movf	((getNote@hResult))&0ffh,w
  4455  001426  0A03               	xorlw	3
  4456                           
  4457  001428  A4D8               	btfss	status,2
  4458  00142A  EF19  F00A         	goto	i2u6921
  4459  00142E  EF1B  F00A         	goto	i2u6920
  4460  001432                     i2u6921:
  4461  001432  EF99  F00A         	goto	i2l1225
  4462  001436                     i2u6920:
  4463                           	line	1511
  4464                           ;main.c: 1511: if (lResult >= 148 && lResult <= 
                                 174) {
  4465  001436  0E93               	movlw	(094h-1)
  4466  001438  0101               	movlb	1	; () banked
  4467  00143A  0101               	movlb	1	; () banked
  4468  00143C  651C               	cpfsgt	((getNote@lResult))&0ffh
  4469  00143E  EF23  F00A         	goto	i2u6931
  4470  001442  EF25  F00A         	goto	i2u6930
  4471  001446                     i2u6931:
  4472  001446  EF41  F00A         	goto	i2l1243
  4473  00144A                     i2u6930:
  4474  00144A  0EAF               	movlw	(0AFh)&0ffh
  4475  00144C  0101               	movlb	1	; () banked
  4476  00144E  0101               	movlb	1	; () banked
  4477  001450  611C               	cpfslt	((getNote@lResult))&0ffh
  4478  001452  EF2D  F00A         	goto	i2u6941
  4479  001456  EF2F  F00A         	goto	i2u6940
  4480  00145A                     i2u6941:
  4481  00145A  EF41  F00A         	goto	i2l1243
  4482  00145E                     i2u6940:
  4483                           	line	1513
  4484                           ;main.c: 1513: new_note = 0x16;
  4485  00145E  0101               	movlb	1	; () banked
  4486  001460  6F20               	movwf	(??_getNote+3+0)&0ffh
  4487  001462  0E16               	movlw	low(016h)
  4488  001464  0101               	movlb	1	; () banked
  4489  001466  0101               	movlb	1	; () banked
  4490  001468  6F1D               	movwf	((getNote@new_note))&0ffh
  4491  00146A  0101               	movlb	1	; () banked
  4492  00146C  5120               	movf	(??_getNote+3+0)&0ffh,w
  4493                           	line	1514
  4494                           ;main.c: 1514: led_array[3] = 1;
  4495  00146E  0E01               	movlw	low(01h)
  4496  001470  6E06               	movwf	(0+((c:0)+06h)),c
  4497  001472  0E00               	movlw	high(01h)
  4498  001474  6E07               	movwf	(1+((c:0)+06h)),c
  4499                           	line	1515
  4500                           ;main.c: 1515: led_array[7] = 1;
  4501  001476  0E01               	movlw	low(01h)
  4502  001478  6E0E               	movwf	(0+((c:0)+0Eh)),c
  4503  00147A  0E00               	movlw	high(01h)
  4504  00147C  6E0F               	movwf	(1+((c:0)+0Eh)),c
  4505                           	line	1516
  4506                           ;main.c: 1516: } else if (lResult >= 89 && lResu
                                 lt <= 120) {
  4507  00147E  EF99  F00A         	goto	i2l1225
  4508                           	
  4509  001482                     i2l1243:		; BSR set to: ?
  4510                           
  4511  001482  0E58               	movlw	(059h-1)
  4512  001484  0101               	movlb	1	; () banked
  4513  001486  0101               	movlb	1	; () banked
  4514  001488  651C               	cpfsgt	((getNote@lResult))&0ffh
  4515  00148A  EF49  F00A         	goto	i2u6951
  4516  00148E  EF4B  F00A         	goto	i2u6950
  4517  001492                     i2u6951:
  4518  001492  EF6B  F00A         	goto	i2l1245
  4519  001496                     i2u6950:
  4520  001496  0E79               	movlw	(079h)&0ffh
  4521  001498  0101               	movlb	1	; () banked
  4522  00149A  0101               	movlb	1	; () banked
  4523  00149C  611C               	cpfslt	((getNote@lResult))&0ffh
  4524  00149E  EF53  F00A         	goto	i2u6961
  4525  0014A2  EF55  F00A         	goto	i2u6960
  4526  0014A6                     i2u6961:
  4527  0014A6  EF6B  F00A         	goto	i2l1245
  4528  0014AA                     i2u6960:
  4529                           	line	1518
  4530                           ;main.c: 1518: new_note = 0x06;
  4531  0014AA  0101               	movlb	1	; () banked
  4532  0014AC  6F20               	movwf	(??_getNote+3+0)&0ffh
  4533  0014AE  0E06               	movlw	low(06h)
  4534  0014B0  0101               	movlb	1	; () banked
  4535  0014B2  0101               	movlb	1	; () banked
  4536  0014B4  6F1D               	movwf	((getNote@new_note))&0ffh
  4537  0014B6  0101               	movlb	1	; () banked
  4538  0014B8  5120               	movf	(??_getNote+3+0)&0ffh,w
  4539                           	line	1519
  4540                           ;main.c: 1519: led_array[3] = 1;
  4541  0014BA  0E01               	movlw	low(01h)
  4542  0014BC  6E06               	movwf	(0+((c:0)+06h)),c
  4543  0014BE  0E00               	movlw	high(01h)
  4544  0014C0  6E07               	movwf	(1+((c:0)+06h)),c
  4545                           	line	1520
  4546                           ;main.c: 1520: led_array[7] = 1;
  4547  0014C2  0E01               	movlw	low(01h)
  4548  0014C4  6E0E               	movwf	(0+((c:0)+0Eh)),c
  4549  0014C6  0E00               	movlw	high(01h)
  4550  0014C8  6E0F               	movwf	(1+((c:0)+0Eh)),c
  4551                           	line	1521
  4552                           ;main.c: 1521: led_array[8] = 1;
  4553  0014CA  0E01               	movlw	low(01h)
  4554  0014CC  6E10               	movwf	(0+((c:0)+010h)),c
  4555  0014CE  0E00               	movlw	high(01h)
  4556  0014D0  6E11               	movwf	(1+((c:0)+010h)),c
  4557                           	line	1522
  4558                           ;main.c: 1522: } else if (lResult >= 20 && lResu
                                 lt <= 72) {
  4559  0014D2  EF99  F00A         	goto	i2l1225
  4560                           	
  4561  0014D6                     i2l1245:		; BSR set to: ?
  4562                           
  4563  0014D6  0E13               	movlw	(014h-1)
  4564  0014D8  0101               	movlb	1	; () banked
  4565  0014DA  0101               	movlb	1	; () banked
  4566  0014DC  651C               	cpfsgt	((getNote@lResult))&0ffh
  4567  0014DE  EF73  F00A         	goto	i2u6971
  4568  0014E2  EF75  F00A         	goto	i2u6970
  4569  0014E6                     i2u6971:
  4570  0014E6  EF91  F00A         	goto	i2l1247
  4571  0014EA                     i2u6970:
  4572  0014EA  0E49               	movlw	(049h)&0ffh
  4573  0014EC  0101               	movlb	1	; () banked
  4574  0014EE  0101               	movlb	1	; () banked
  4575  0014F0  611C               	cpfslt	((getNote@lResult))&0ffh
  4576  0014F2  EF7D  F00A         	goto	i2u6981
  4577  0014F6  EF7F  F00A         	goto	i2u6980
  4578  0014FA                     i2u6981:
  4579  0014FA  EF91  F00A         	goto	i2l1247
  4580  0014FE                     i2u6980:
  4581                           	line	1524
  4582                           ;main.c: 1524: new_note = 0x0e;
  4583  0014FE  0101               	movlb	1	; () banked
  4584  001500  6F20               	movwf	(??_getNote+3+0)&0ffh
  4585  001502  0E0E               	movlw	low(0Eh)
  4586  001504  0101               	movlb	1	; () banked
  4587  001506  0101               	movlb	1	; () banked
  4588  001508  6F1D               	movwf	((getNote@new_note))&0ffh
  4589  00150A  0101               	movlb	1	; () banked
  4590  00150C  5120               	movf	(??_getNote+3+0)&0ffh,w
  4591                           	line	1525
  4592                           ;main.c: 1525: led_array[3] = 1;
  4593  00150E  0E01               	movlw	low(01h)
  4594  001510  6E06               	movwf	(0+((c:0)+06h)),c
  4595  001512  0E00               	movlw	high(01h)
  4596  001514  6E07               	movwf	(1+((c:0)+06h)),c
  4597                           	line	1526
  4598                           ;main.c: 1526: led_array[8] = 1;
  4599  001516  0E01               	movlw	low(01h)
  4600  001518  6E10               	movwf	(0+((c:0)+010h)),c
  4601  00151A  0E00               	movlw	high(01h)
  4602  00151C  6E11               	movwf	(1+((c:0)+010h)),c
  4603                           	line	1527
  4604                           ;main.c: 1527: } else {
  4605  00151E  EF99  F00A         	goto	i2l1225
  4606                           	
  4607  001522                     i2l1247:		; BSR set to: ?
  4608                           
  4609                           	line	1529
  4610                           ;main.c: 1529: new_note = 0x00;
  4611  001522  0101               	movlb	1	; () banked
  4612  001524  6F20               	movwf	(??_getNote+3+0)&0ffh
  4613  001526  0E00               	movlw	low(0)
  4614  001528  0101               	movlb	1	; () banked
  4615  00152A  0101               	movlb	1	; () banked
  4616  00152C  6F1D               	movwf	((getNote@new_note))&0ffh
  4617  00152E  0101               	movlb	1	; () banked
  4618  001530  5120               	movf	(??_getNote+3+0)&0ffh,w
  4619                           	line	1530
  4620                           	
  4621  001532                     i2l1248:		; BSR set to: ?
  4622                           
  4623                           	
  4624  001532                     i2l1246:		; BSR set to: ?
  4625                           
  4626                           	
  4627  001532                     i2l1244:		; BSR set to: ?
  4628                           
  4629                           	line	1532
  4630                           	
  4631  001532                     i2l1242:		; BSR set to: ?
  4632                           
  4633                           	line	1534
  4634                           	
  4635  001532                     i2l1241:		; BSR set to: ?
  4636                           
  4637                           	
  4638  001532                     i2l1233:		; BSR set to: ?
  4639                           
  4640                           	
  4641  001532                     i2l1225:		; BSR set to: ?
  4642                           
  4643                           ;main.c: 1530: }
  4644                           ;main.c: 1532: }
  4645                           ;main.c: 1534: } else if (adc_num == 6) {
  4646  001532  EF55  F00C         	goto	i2l1114
  4647                           	
  4648  001536                     i2l1223:		; BSR set to: ?
  4649                           
  4650  001536  502A               	movf	((c:42)),c,w	;volatile
  4651  001538  0A06               	xorlw	6
  4652                           
  4653  00153A  A4D8               	btfss	status,2
  4654  00153C  EFA2  F00A         	goto	i2u6991
  4655  001540  EFA4  F00A         	goto	i2u6990
  4656  001544                     i2u6991:
  4657  001544  EF55  F00C         	goto	i2l1114
  4658  001548                     i2u6990:
  4659                           	line	1535
  4660                           ;main.c: 1535: if (hResult == 0x00) {
  4661  001548  0101               	movlb	1	; () banked
  4662  00154A  0101               	movlb	1	; () banked
  4663  00154C  671B               	tstfsz	((getNote@hResult))&0ffh
  4664  00154E  EFAB  F00A         	goto	i2u7001
  4665  001552  EFAD  F00A         	goto	i2u7000
  4666  001556                     i2u7001:
  4667  001556  EFB7  F00A         	goto	i2l1251
  4668  00155A                     i2u7000:
  4669                           	line	1537
  4670                           ;main.c: 1537: new_note = 0x00;
  4671  00155A  0101               	movlb	1	; () banked
  4672  00155C  6F20               	movwf	(??_getNote+3+0)&0ffh
  4673  00155E  0E00               	movlw	low(0)
  4674  001560  0101               	movlb	1	; () banked
  4675  001562  0101               	movlb	1	; () banked
  4676  001564  6F1D               	movwf	((getNote@new_note))&0ffh
  4677  001566  0101               	movlb	1	; () banked
  4678  001568  5120               	movf	(??_getNote+3+0)&0ffh,w
  4679                           	line	1539
  4680                           ;main.c: 1539: } else if (hResult == 0x01) {
  4681  00156A  EF55  F00C         	goto	i2l1114
  4682                           	
  4683  00156E                     i2l1251:		; BSR set to: ?
  4684                           
  4685  00156E  0101               	movlb	1	; () banked
  4686  001570  0101               	movlb	1	; () banked
  4687  001572  051B               	decf	((getNote@hResult))&0ffh,w
  4688                           
  4689  001574  A4D8               	btfss	status,2
  4690  001576  EFBF  F00A         	goto	i2u7011
  4691  00157A  EFC1  F00A         	goto	i2u7010
  4692  00157E                     i2u7011:
  4693  00157E  EF41  F00B         	goto	i2l1253
  4694  001582                     i2u7010:
  4695                           	line	1540
  4696                           ;main.c: 1540: if (lResult >= 87 && lResult <= 1
                                 60) {
  4697  001582  0E56               	movlw	(057h-1)
  4698  001584  0101               	movlb	1	; () banked
  4699  001586  0101               	movlb	1	; () banked
  4700  001588  651C               	cpfsgt	((getNote@lResult))&0ffh
  4701  00158A  EFC9  F00A         	goto	i2u7021
  4702  00158E  EFCB  F00A         	goto	i2u7020
  4703  001592                     i2u7021:
  4704  001592  EFE7  F00A         	goto	i2l1254
  4705  001596                     i2u7020:
  4706  001596  0EA1               	movlw	(0A1h)&0ffh
  4707  001598  0101               	movlb	1	; () banked
  4708  00159A  0101               	movlb	1	; () banked
  4709  00159C  611C               	cpfslt	((getNote@lResult))&0ffh
  4710  00159E  EFD3  F00A         	goto	i2u7031
  4711  0015A2  EFD5  F00A         	goto	i2u7030
  4712  0015A6                     i2u7031:
  4713  0015A6  EFE7  F00A         	goto	i2l1254
  4714  0015AA                     i2u7030:
  4715                           	line	1542
  4716                           ;main.c: 1542: new_note = 0x57;
  4717  0015AA  0101               	movlb	1	; () banked
  4718  0015AC  6F20               	movwf	(??_getNote+3+0)&0ffh
  4719  0015AE  0E57               	movlw	low(057h)
  4720  0015B0  0101               	movlb	1	; () banked
  4721  0015B2  0101               	movlb	1	; () banked
  4722  0015B4  6F1D               	movwf	((getNote@new_note))&0ffh
  4723  0015B6  0101               	movlb	1	; () banked
  4724  0015B8  5120               	movf	(??_getNote+3+0)&0ffh,w
  4725                           	line	1543
  4726                           ;main.c: 1543: led_array[2] = 1;
  4727  0015BA  0E01               	movlw	low(01h)
  4728  0015BC  6E04               	movwf	(0+((c:0)+04h)),c
  4729  0015BE  0E00               	movlw	high(01h)
  4730  0015C0  6E05               	movwf	(1+((c:0)+04h)),c
  4731                           	line	1544
  4732                           ;main.c: 1544: led_array[11] = 1;
  4733  0015C2  0E01               	movlw	low(01h)
  4734  0015C4  6E16               	movwf	(0+((c:0)+016h)),c
  4735  0015C6  0E00               	movlw	high(01h)
  4736  0015C8  6E17               	movwf	(1+((c:0)+016h)),c
  4737                           	line	1545
  4738                           ;main.c: 1545: } else if (lResult >= 175 && lRes
                                 ult <= 215) {
  4739  0015CA  EF3F  F00B         	goto	i2l1255
  4740                           	
  4741  0015CE                     i2l1254:		; BSR set to: ?
  4742                           
  4743  0015CE  0EAE               	movlw	(0AFh-1)
  4744  0015D0  0101               	movlb	1	; () banked
  4745  0015D2  0101               	movlb	1	; () banked
  4746  0015D4  651C               	cpfsgt	((getNote@lResult))&0ffh
  4747  0015D6  EFEF  F00A         	goto	i2u7041
  4748  0015DA  EFF1  F00A         	goto	i2u7040
  4749  0015DE                     i2u7041:
  4750  0015DE  EF11  F00B         	goto	i2l1256
  4751  0015E2                     i2u7040:
  4752  0015E2  0ED8               	movlw	(0D8h)&0ffh
  4753  0015E4  0101               	movlb	1	; () banked
  4754  0015E6  0101               	movlb	1	; () banked
  4755  0015E8  611C               	cpfslt	((getNote@lResult))&0ffh
  4756  0015EA  EFF9  F00A         	goto	i2u7051
  4757  0015EE  EFFB  F00A         	goto	i2u7050
  4758  0015F2                     i2u7051:
  4759  0015F2  EF11  F00B         	goto	i2l1256
  4760  0015F6                     i2u7050:
  4761                           	line	1547
  4762                           ;main.c: 1547: new_note = 0x47;
  4763  0015F6  0101               	movlb	1	; () banked
  4764  0015F8  6F20               	movwf	(??_getNote+3+0)&0ffh
  4765  0015FA  0E47               	movlw	low(047h)
  4766  0015FC  0101               	movlb	1	; () banked
  4767  0015FE  0101               	movlb	1	; () banked
  4768  001600  6F1D               	movwf	((getNote@new_note))&0ffh
  4769  001602  0101               	movlb	1	; () banked
  4770  001604  5120               	movf	(??_getNote+3+0)&0ffh,w
  4771                           	line	1548
  4772                           ;main.c: 1548: led_array[2] = 1;
  4773  001606  0E01               	movlw	low(01h)
  4774  001608  6E04               	movwf	(0+((c:0)+04h)),c
  4775  00160A  0E00               	movlw	high(01h)
  4776  00160C  6E05               	movwf	(1+((c:0)+04h)),c
  4777                           	line	1549
  4778                           ;main.c: 1549: led_array[11] = 1;
  4779  00160E  0E01               	movlw	low(01h)
  4780  001610  6E16               	movwf	(0+((c:0)+016h)),c
  4781  001612  0E00               	movlw	high(01h)
  4782  001614  6E17               	movwf	(1+((c:0)+016h)),c
  4783                           	line	1550
  4784                           ;main.c: 1550: led_array[12] = 1;
  4785  001616  0E01               	movlw	low(01h)
  4786  001618  6E18               	movwf	(0+((c:0)+018h)),c
  4787  00161A  0E00               	movlw	high(01h)
  4788  00161C  6E19               	movwf	(1+((c:0)+018h)),c
  4789                           	line	1551
  4790                           ;main.c: 1551: } else if (lResult >= 224 && lRes
                                 ult <= 228) {
  4791  00161E  EF3F  F00B         	goto	i2l1255
  4792                           	
  4793  001622                     i2l1256:		; BSR set to: ?
  4794                           
  4795  001622  0EDF               	movlw	(0E0h-1)
  4796  001624  0101               	movlb	1	; () banked
  4797  001626  0101               	movlb	1	; () banked
  4798  001628  651C               	cpfsgt	((getNote@lResult))&0ffh
  4799  00162A  EF19  F00B         	goto	i2u7061
  4800  00162E  EF1B  F00B         	goto	i2u7060
  4801  001632                     i2u7061:
  4802  001632  EF37  F00B         	goto	i2l1258
  4803  001636                     i2u7060:
  4804  001636  0EE5               	movlw	(0E5h)&0ffh
  4805  001638  0101               	movlb	1	; () banked
  4806  00163A  0101               	movlb	1	; () banked
  4807  00163C  611C               	cpfslt	((getNote@lResult))&0ffh
  4808  00163E  EF23  F00B         	goto	i2u7071
  4809  001642  EF25  F00B         	goto	i2u7070
  4810  001646                     i2u7071:
  4811  001646  EF37  F00B         	goto	i2l1258
  4812  00164A                     i2u7070:
  4813                           	line	1553
  4814                           ;main.c: 1553: new_note = 0x4f;
  4815  00164A  0101               	movlb	1	; () banked
  4816  00164C  6F20               	movwf	(??_getNote+3+0)&0ffh
  4817  00164E  0E4F               	movlw	low(04Fh)
  4818  001650  0101               	movlb	1	; () banked
  4819  001652  0101               	movlb	1	; () banked
  4820  001654  6F1D               	movwf	((getNote@new_note))&0ffh
  4821  001656  0101               	movlb	1	; () banked
  4822  001658  5120               	movf	(??_getNote+3+0)&0ffh,w
  4823                           	line	1554
  4824                           ;main.c: 1554: led_array[2] = 1;
  4825  00165A  0E01               	movlw	low(01h)
  4826  00165C  6E04               	movwf	(0+((c:0)+04h)),c
  4827  00165E  0E00               	movlw	high(01h)
  4828  001660  6E05               	movwf	(1+((c:0)+04h)),c
  4829                           	line	1555
  4830                           ;main.c: 1555: led_array[12] = 1;
  4831  001662  0E01               	movlw	low(01h)
  4832  001664  6E18               	movwf	(0+((c:0)+018h)),c
  4833  001666  0E00               	movlw	high(01h)
  4834  001668  6E19               	movwf	(1+((c:0)+018h)),c
  4835                           	line	1556
  4836                           ;main.c: 1556: } else {
  4837  00166A  EF3F  F00B         	goto	i2l1255
  4838                           	
  4839  00166E                     i2l1258:		; BSR set to: ?
  4840                           
  4841                           	line	1558
  4842                           ;main.c: 1558: new_note = 0x00;
  4843  00166E  0101               	movlb	1	; () banked
  4844  001670  6F20               	movwf	(??_getNote+3+0)&0ffh
  4845  001672  0E00               	movlw	low(0)
  4846  001674  0101               	movlb	1	; () banked
  4847  001676  0101               	movlb	1	; () banked
  4848  001678  6F1D               	movwf	((getNote@new_note))&0ffh
  4849  00167A  0101               	movlb	1	; () banked
  4850  00167C  5120               	movf	(??_getNote+3+0)&0ffh,w
  4851                           	line	1559
  4852                           	
  4853  00167E                     i2l1259:		; BSR set to: ?
  4854                           
  4855                           	
  4856  00167E                     i2l1257:		; BSR set to: ?
  4857                           
  4858                           	
  4859  00167E                     i2l1255:		; BSR set to: ?
  4860                           
  4861                           	line	1561
  4862                           ;main.c: 1559: }
  4863                           ;main.c: 1561: } else if (hResult == 0x02) {
  4864  00167E  EF55  F00C         	goto	i2l1114
  4865                           	
  4866  001682                     i2l1253:		; BSR set to: ?
  4867                           
  4868  001682  0101               	movlb	1	; () banked
  4869  001684  0101               	movlb	1	; () banked
  4870  001686  511B               	movf	((getNote@hResult))&0ffh,w
  4871  001688  0A02               	xorlw	2
  4872                           
  4873  00168A  A4D8               	btfss	status,2
  4874  00168C  EF4A  F00B         	goto	i2u7081
  4875  001690  EF4C  F00B         	goto	i2u7080
  4876  001694                     i2u7081:
  4877  001694  EFCC  F00B         	goto	i2l1261
  4878  001698                     i2u7080:
  4879                           	line	1562
  4880                           ;main.c: 1562: if (lResult >= 200 && lResult <= 
                                 229) {
  4881  001698  0EC7               	movlw	(0C8h-1)
  4882  00169A  0101               	movlb	1	; () banked
  4883  00169C  0101               	movlb	1	; () banked
  4884  00169E  651C               	cpfsgt	((getNote@lResult))&0ffh
  4885  0016A0  EF54  F00B         	goto	i2u7091
  4886  0016A4  EF56  F00B         	goto	i2u7090
  4887  0016A8                     i2u7091:
  4888  0016A8  EF72  F00B         	goto	i2l1262
  4889  0016AC                     i2u7090:
  4890  0016AC  0EE6               	movlw	(0E6h)&0ffh
  4891  0016AE  0101               	movlb	1	; () banked
  4892  0016B0  0101               	movlb	1	; () banked
  4893  0016B2  611C               	cpfslt	((getNote@lResult))&0ffh
  4894  0016B4  EF5E  F00B         	goto	i2u7101
  4895  0016B8  EF60  F00B         	goto	i2u7100
  4896  0016BC                     i2u7101:
  4897  0016BC  EF72  F00B         	goto	i2l1262
  4898  0016C0                     i2u7100:
  4899                           	line	1564
  4900                           ;main.c: 1564: new_note = 0x37;
  4901  0016C0  0101               	movlb	1	; () banked
  4902  0016C2  6F20               	movwf	(??_getNote+3+0)&0ffh
  4903  0016C4  0E37               	movlw	low(037h)
  4904  0016C6  0101               	movlb	1	; () banked
  4905  0016C8  0101               	movlb	1	; () banked
  4906  0016CA  6F1D               	movwf	((getNote@new_note))&0ffh
  4907  0016CC  0101               	movlb	1	; () banked
  4908  0016CE  5120               	movf	(??_getNote+3+0)&0ffh,w
  4909                           	line	1565
  4910                           ;main.c: 1565: led_array[2] = 1;
  4911  0016D0  0E01               	movlw	low(01h)
  4912  0016D2  6E04               	movwf	(0+((c:0)+04h)),c
  4913  0016D4  0E00               	movlw	high(01h)
  4914  0016D6  6E05               	movwf	(1+((c:0)+04h)),c
  4915                           	line	1566
  4916                           ;main.c: 1566: led_array[9] = 1;
  4917  0016D8  0E01               	movlw	low(01h)
  4918  0016DA  6E12               	movwf	(0+((c:0)+012h)),c
  4919  0016DC  0E00               	movlw	high(01h)
  4920  0016DE  6E13               	movwf	(1+((c:0)+012h)),c
  4921                           	line	1567
  4922                           ;main.c: 1567: } else if (lResult >= 139 && lRes
                                 ult <= 192) {
  4923  0016E0  EFCA  F00B         	goto	i2l1263
  4924                           	
  4925  0016E4                     i2l1262:		; BSR set to: ?
  4926                           
  4927  0016E4  0E8A               	movlw	(08Bh-1)
  4928  0016E6  0101               	movlb	1	; () banked
  4929  0016E8  0101               	movlb	1	; () banked
  4930  0016EA  651C               	cpfsgt	((getNote@lResult))&0ffh
  4931  0016EC  EF7A  F00B         	goto	i2u7111
  4932  0016F0  EF7C  F00B         	goto	i2u7110
  4933  0016F4                     i2u7111:
  4934  0016F4  EF9C  F00B         	goto	i2l1264
  4935  0016F8                     i2u7110:
  4936  0016F8  0EC1               	movlw	(0C1h)&0ffh
  4937  0016FA  0101               	movlb	1	; () banked
  4938  0016FC  0101               	movlb	1	; () banked
  4939  0016FE  611C               	cpfslt	((getNote@lResult))&0ffh
  4940  001700  EF84  F00B         	goto	i2u7121
  4941  001704  EF86  F00B         	goto	i2u7120
  4942  001708                     i2u7121:
  4943  001708  EF9C  F00B         	goto	i2l1264
  4944  00170C                     i2u7120:
  4945                           	line	1569
  4946                           ;main.c: 1569: new_note = 0x27;
  4947  00170C  0101               	movlb	1	; () banked
  4948  00170E  6F20               	movwf	(??_getNote+3+0)&0ffh
  4949  001710  0E27               	movlw	low(027h)
  4950  001712  0101               	movlb	1	; () banked
  4951  001714  0101               	movlb	1	; () banked
  4952  001716  6F1D               	movwf	((getNote@new_note))&0ffh
  4953  001718  0101               	movlb	1	; () banked
  4954  00171A  5120               	movf	(??_getNote+3+0)&0ffh,w
  4955                           	line	1570
  4956                           ;main.c: 1570: led_array[2] = 1;
  4957  00171C  0E01               	movlw	low(01h)
  4958  00171E  6E04               	movwf	(0+((c:0)+04h)),c
  4959  001720  0E00               	movlw	high(01h)
  4960  001722  6E05               	movwf	(1+((c:0)+04h)),c
  4961                           	line	1571
  4962                           ;main.c: 1571: led_array[9] = 1;
  4963  001724  0E01               	movlw	low(01h)
  4964  001726  6E12               	movwf	(0+((c:0)+012h)),c
  4965  001728  0E00               	movlw	high(01h)
  4966  00172A  6E13               	movwf	(1+((c:0)+012h)),c
  4967                           	line	1572
  4968                           ;main.c: 1572: led_array[10] = 1;
  4969  00172C  0E01               	movlw	low(01h)
  4970  00172E  6E14               	movwf	(0+((c:0)+014h)),c
  4971  001730  0E00               	movlw	high(01h)
  4972  001732  6E15               	movwf	(1+((c:0)+014h)),c
  4973                           	line	1573
  4974                           ;main.c: 1573: } else if (lResult >= 107 && lRes
                                 ult <= 140) {
  4975  001734  EFCA  F00B         	goto	i2l1263
  4976                           	
  4977  001738                     i2l1264:		; BSR set to: ?
  4978                           
  4979  001738  0E6A               	movlw	(06Bh-1)
  4980  00173A  0101               	movlb	1	; () banked
  4981  00173C  0101               	movlb	1	; () banked
  4982  00173E  651C               	cpfsgt	((getNote@lResult))&0ffh
  4983  001740  EFA4  F00B         	goto	i2u7131
  4984  001744  EFA6  F00B         	goto	i2u7130
  4985  001748                     i2u7131:
  4986  001748  EFC2  F00B         	goto	i2l1266
  4987  00174C                     i2u7130:
  4988  00174C  0E8D               	movlw	(08Dh)&0ffh
  4989  00174E  0101               	movlb	1	; () banked
  4990  001750  0101               	movlb	1	; () banked
  4991  001752  611C               	cpfslt	((getNote@lResult))&0ffh
  4992  001754  EFAE  F00B         	goto	i2u7141
  4993  001758  EFB0  F00B         	goto	i2u7140
  4994  00175C                     i2u7141:
  4995  00175C  EFC2  F00B         	goto	i2l1266
  4996  001760                     i2u7140:
  4997                           	line	1575
  4998                           ;main.c: 1575: new_note = 0x2f;
  4999  001760  0101               	movlb	1	; () banked
  5000  001762  6F20               	movwf	(??_getNote+3+0)&0ffh
  5001  001764  0E2F               	movlw	low(02Fh)
  5002  001766  0101               	movlb	1	; () banked
  5003  001768  0101               	movlb	1	; () banked
  5004  00176A  6F1D               	movwf	((getNote@new_note))&0ffh
  5005  00176C  0101               	movlb	1	; () banked
  5006  00176E  5120               	movf	(??_getNote+3+0)&0ffh,w
  5007                           	line	1576
  5008                           ;main.c: 1576: led_array[2] = 1;
  5009  001770  0E01               	movlw	low(01h)
  5010  001772  6E04               	movwf	(0+((c:0)+04h)),c
  5011  001774  0E00               	movlw	high(01h)
  5012  001776  6E05               	movwf	(1+((c:0)+04h)),c
  5013                           	line	1577
  5014                           ;main.c: 1577: led_array[10] = 1;
  5015  001778  0E01               	movlw	low(01h)
  5016  00177A  6E14               	movwf	(0+((c:0)+014h)),c
  5017  00177C  0E00               	movlw	high(01h)
  5018  00177E  6E15               	movwf	(1+((c:0)+014h)),c
  5019                           	line	1578
  5020                           ;main.c: 1578: } else {
  5021  001780  EFCA  F00B         	goto	i2l1263
  5022                           	
  5023  001784                     i2l1266:		; BSR set to: ?
  5024                           
  5025                           	line	1580
  5026                           ;main.c: 1580: new_note = 0x00;
  5027  001784  0101               	movlb	1	; () banked
  5028  001786  6F20               	movwf	(??_getNote+3+0)&0ffh
  5029  001788  0E00               	movlw	low(0)
  5030  00178A  0101               	movlb	1	; () banked
  5031  00178C  0101               	movlb	1	; () banked
  5032  00178E  6F1D               	movwf	((getNote@new_note))&0ffh
  5033  001790  0101               	movlb	1	; () banked
  5034  001792  5120               	movf	(??_getNote+3+0)&0ffh,w
  5035                           	line	1581
  5036                           	
  5037  001794                     i2l1267:		; BSR set to: ?
  5038                           
  5039                           	
  5040  001794                     i2l1265:		; BSR set to: ?
  5041                           
  5042                           	
  5043  001794                     i2l1263:		; BSR set to: ?
  5044                           
  5045                           	line	1583
  5046                           ;main.c: 1581: }
  5047                           ;main.c: 1583: } else if (hResult == 0x03) {
  5048  001794  EF55  F00C         	goto	i2l1114
  5049                           	
  5050  001798                     i2l1261:		; BSR set to: ?
  5051                           
  5052  001798  0101               	movlb	1	; () banked
  5053  00179A  0101               	movlb	1	; () banked
  5054  00179C  511B               	movf	((getNote@hResult))&0ffh,w
  5055  00179E  0A03               	xorlw	3
  5056                           
  5057  0017A0  A4D8               	btfss	status,2
  5058  0017A2  EFD5  F00B         	goto	i2u7151
  5059  0017A6  EFD7  F00B         	goto	i2u7150
  5060  0017AA                     i2u7151:
  5061  0017AA  EF55  F00C         	goto	i2l1114
  5062  0017AE                     i2u7150:
  5063                           	line	1584
  5064                           ;main.c: 1584: if (lResult >= 165 && lResult <= 
                                 190) {
  5065  0017AE  0EA4               	movlw	(0A5h-1)
  5066  0017B0  0101               	movlb	1	; () banked
  5067  0017B2  0101               	movlb	1	; () banked
  5068  0017B4  651C               	cpfsgt	((getNote@lResult))&0ffh
  5069  0017B6  EFDF  F00B         	goto	i2u7161
  5070  0017BA  EFE1  F00B         	goto	i2u7160
  5071  0017BE                     i2u7161:
  5072  0017BE  EFFD  F00B         	goto	i2l1270
  5073  0017C2                     i2u7160:
  5074  0017C2  0EBF               	movlw	(0BFh)&0ffh
  5075  0017C4  0101               	movlb	1	; () banked
  5076  0017C6  0101               	movlb	1	; () banked
  5077  0017C8  611C               	cpfslt	((getNote@lResult))&0ffh
  5078  0017CA  EFE9  F00B         	goto	i2u7171
  5079  0017CE  EFEB  F00B         	goto	i2u7170
  5080  0017D2                     i2u7171:
  5081  0017D2  EFFD  F00B         	goto	i2l1270
  5082  0017D6                     i2u7170:
  5083                           	line	1586
  5084                           ;main.c: 1586: new_note = 0x17;
  5085  0017D6  0101               	movlb	1	; () banked
  5086  0017D8  6F20               	movwf	(??_getNote+3+0)&0ffh
  5087  0017DA  0E17               	movlw	low(017h)
  5088  0017DC  0101               	movlb	1	; () banked
  5089  0017DE  0101               	movlb	1	; () banked
  5090  0017E0  6F1D               	movwf	((getNote@new_note))&0ffh
  5091  0017E2  0101               	movlb	1	; () banked
  5092  0017E4  5120               	movf	(??_getNote+3+0)&0ffh,w
  5093                           	line	1587
  5094                           ;main.c: 1587: led_array[2] = 1;
  5095  0017E6  0E01               	movlw	low(01h)
  5096  0017E8  6E04               	movwf	(0+((c:0)+04h)),c
  5097  0017EA  0E00               	movlw	high(01h)
  5098  0017EC  6E05               	movwf	(1+((c:0)+04h)),c
  5099                           	line	1588
  5100                           ;main.c: 1588: led_array[7] = 1;
  5101  0017EE  0E01               	movlw	low(01h)
  5102  0017F0  6E0E               	movwf	(0+((c:0)+0Eh)),c
  5103  0017F2  0E00               	movlw	high(01h)
  5104  0017F4  6E0F               	movwf	(1+((c:0)+0Eh)),c
  5105                           	line	1590
  5106                           ;main.c: 1590: } else if (lResult >= 130 && lRes
                                 ult <= 160) {
  5107  0017F6  EF55  F00C         	goto	i2l1114
  5108                           	
  5109  0017FA                     i2l1270:		; BSR set to: ?
  5110                           
  5111  0017FA  0E81               	movlw	(082h-1)
  5112  0017FC  0101               	movlb	1	; () banked
  5113  0017FE  0101               	movlb	1	; () banked
  5114  001800  651C               	cpfsgt	((getNote@lResult))&0ffh
  5115  001802  EF05  F00C         	goto	i2u7181
  5116  001806  EF07  F00C         	goto	i2u7180
  5117  00180A                     i2u7181:
  5118  00180A  EF27  F00C         	goto	i2l1272
  5119  00180E                     i2u7180:
  5120  00180E  0EA1               	movlw	(0A1h)&0ffh
  5121  001810  0101               	movlb	1	; () banked
  5122  001812  0101               	movlb	1	; () banked
  5123  001814  611C               	cpfslt	((getNote@lResult))&0ffh
  5124  001816  EF0F  F00C         	goto	i2u7191
  5125  00181A  EF11  F00C         	goto	i2u7190
  5126  00181E                     i2u7191:
  5127  00181E  EF27  F00C         	goto	i2l1272
  5128  001822                     i2u7190:
  5129                           	line	1592
  5130                           ;main.c: 1592: new_note = 0x07;
  5131  001822  0101               	movlb	1	; () banked
  5132  001824  6F20               	movwf	(??_getNote+3+0)&0ffh
  5133  001826  0E07               	movlw	low(07h)
  5134  001828  0101               	movlb	1	; () banked
  5135  00182A  0101               	movlb	1	; () banked
  5136  00182C  6F1D               	movwf	((getNote@new_note))&0ffh
  5137  00182E  0101               	movlb	1	; () banked
  5138  001830  5120               	movf	(??_getNote+3+0)&0ffh,w
  5139                           	line	1593
  5140                           ;main.c: 1593: led_array[2] = 1;
  5141  001832  0E01               	movlw	low(01h)
  5142  001834  6E04               	movwf	(0+((c:0)+04h)),c
  5143  001836  0E00               	movlw	high(01h)
  5144  001838  6E05               	movwf	(1+((c:0)+04h)),c
  5145                           	line	1594
  5146                           ;main.c: 1594: led_array[7] = 1;
  5147  00183A  0E01               	movlw	low(01h)
  5148  00183C  6E0E               	movwf	(0+((c:0)+0Eh)),c
  5149  00183E  0E00               	movlw	high(01h)
  5150  001840  6E0F               	movwf	(1+((c:0)+0Eh)),c
  5151                           	line	1595
  5152                           ;main.c: 1595: led_array[8] = 1;
  5153  001842  0E01               	movlw	low(01h)
  5154  001844  6E10               	movwf	(0+((c:0)+010h)),c
  5155  001846  0E00               	movlw	high(01h)
  5156  001848  6E11               	movwf	(1+((c:0)+010h)),c
  5157                           	line	1596
  5158                           ;main.c: 1596: } else if (lResult >= 107 && lRes
                                 ult <= 125) {
  5159  00184A  EF55  F00C         	goto	i2l1114
  5160                           	
  5161  00184E                     i2l1272:		; BSR set to: ?
  5162                           
  5163  00184E  0E6A               	movlw	(06Bh-1)
  5164  001850  0101               	movlb	1	; () banked
  5165  001852  0101               	movlb	1	; () banked
  5166  001854  651C               	cpfsgt	((getNote@lResult))&0ffh
  5167  001856  EF2F  F00C         	goto	i2u7201
  5168  00185A  EF31  F00C         	goto	i2u7200
  5169  00185E                     i2u7201:
  5170  00185E  EF4D  F00C         	goto	i2l1274
  5171  001862                     i2u7200:
  5172  001862  0E7E               	movlw	(07Eh)&0ffh
  5173  001864  0101               	movlb	1	; () banked
  5174  001866  0101               	movlb	1	; () banked
  5175  001868  611C               	cpfslt	((getNote@lResult))&0ffh
  5176  00186A  EF39  F00C         	goto	i2u7211
  5177  00186E  EF3B  F00C         	goto	i2u7210
  5178  001872                     i2u7211:
  5179  001872  EF4D  F00C         	goto	i2l1274
  5180  001876                     i2u7210:
  5181                           	line	1598
  5182                           ;main.c: 1598: new_note = 0x0f;
  5183  001876  0101               	movlb	1	; () banked
  5184  001878  6F20               	movwf	(??_getNote+3+0)&0ffh
  5185  00187A  0E0F               	movlw	low(0Fh)
  5186  00187C  0101               	movlb	1	; () banked
  5187  00187E  0101               	movlb	1	; () banked
  5188  001880  6F1D               	movwf	((getNote@new_note))&0ffh
  5189  001882  0101               	movlb	1	; () banked
  5190  001884  5120               	movf	(??_getNote+3+0)&0ffh,w
  5191                           	line	1599
  5192                           ;main.c: 1599: led_array[2] = 1;
  5193  001886  0E01               	movlw	low(01h)
  5194  001888  6E04               	movwf	(0+((c:0)+04h)),c
  5195  00188A  0E00               	movlw	high(01h)
  5196  00188C  6E05               	movwf	(1+((c:0)+04h)),c
  5197                           	line	1600
  5198                           ;main.c: 1600: led_array[8] = 1;
  5199  00188E  0E01               	movlw	low(01h)
  5200  001890  6E10               	movwf	(0+((c:0)+010h)),c
  5201  001892  0E00               	movlw	high(01h)
  5202  001894  6E11               	movwf	(1+((c:0)+010h)),c
  5203                           	line	1601
  5204                           ;main.c: 1601: } else {
  5205  001896  EF55  F00C         	goto	i2l1114
  5206                           	
  5207  00189A                     i2l1274:		; BSR set to: ?
  5208                           
  5209                           	line	1603
  5210                           ;main.c: 1603: new_note = 0x00;
  5211  00189A  0101               	movlb	1	; () banked
  5212  00189C  6F20               	movwf	(??_getNote+3+0)&0ffh
  5213  00189E  0E00               	movlw	low(0)
  5214  0018A0  0101               	movlb	1	; () banked
  5215  0018A2  0101               	movlb	1	; () banked
  5216  0018A4  6F1D               	movwf	((getNote@new_note))&0ffh
  5217  0018A6  0101               	movlb	1	; () banked
  5218  0018A8  5120               	movf	(??_getNote+3+0)&0ffh,w
  5219                           	line	1604
  5220                           	
  5221  0018AA                     i2l1275:		; BSR set to: ?
  5222                           
  5223                           	
  5224  0018AA                     i2l1273:		; BSR set to: ?
  5225                           
  5226                           	
  5227  0018AA                     i2l1271:		; BSR set to: ?
  5228                           
  5229                           	line	1606
  5230                           	
  5231  0018AA                     i2l1269:		; BSR set to: ?
  5232                           
  5233                           	line	1608
  5234                           	
  5235  0018AA                     i2l1268:		; BSR set to: ?
  5236                           
  5237                           	
  5238  0018AA                     i2l1260:		; BSR set to: ?
  5239                           
  5240                           	
  5241  0018AA                     i2l1252:		; BSR set to: ?
  5242                           
  5243                           	
  5244  0018AA                     i2l1250:		; BSR set to: ?
  5245                           
  5246                           	line	1609
  5247                           	
  5248  0018AA                     i2l1249:		; BSR set to: ?
  5249                           
  5250                           	
  5251  0018AA                     i2l1222:		; BSR set to: ?
  5252                           
  5253                           	
  5254  0018AA                     i2l1195:		; BSR set to: ?
  5255                           
  5256                           	
  5257  0018AA                     i2l1168:		; BSR set to: ?
  5258                           
  5259                           	
  5260  0018AA                     i2l1141:		; BSR set to: ?
  5261                           
  5262                           	
  5263  0018AA                     i2l1114:		; BSR set to: ?
  5264                           
  5265                           ;main.c: 1604: }
  5266                           ;main.c: 1606: }
  5267                           ;main.c: 1608: }
  5268                           ;main.c: 1609: return new_note;
  5269  0018AA  0101               	movlb	1	; () banked
  5270  0018AC  0101               	movlb	1	; () banked
  5271  0018AE  511D               	movf	((getNote@new_note))&0ffh,w
  5272  0018B0  EF5A  F00C         	goto	i2l1084
  5273                           	line	1610
  5274                           ;main.c: 1610: }
  5275  0018B4                     i2l1084:
  5276                           			; BSR set to: ?
  5277                           
  5278  0018B4  0012               	return
  5279                           	opt stack 0
  5280                           GLOBAL __end_of_getNote
  5281  0018B6                     	__end_of_getNote:
  5282                           	FNSIZE	_getNote,4,2
  5283                           ; =============== function _getNote ends =======
                                 =====
  5284                           
  5285                           	signat	_getNote,8313
  5286                           	FNROOT	_main
  5287                           	FNCALL	_my_isr,_adc_conversion
  5288                           	FNCALL	_adc_conversion,_getNote
  5289                           	FNCALL	intlevel2,_my_isr
  5290                           	global	intlevel2
  5291                           	FNROOT	intlevel2
  5292                                   psect   const,class=CODE,space=0,reloc=2
  5293                           	global	_led_array
  5294                           	global	_led_array
  5295  000000                     _led_array  equ     0
  5296                           
  5297                           	DABS	1,0,26	;_led_array
  5298                           	global	_cur_inputs
  5299                           	global	_cur_inputs
  5300  000000                     _cur_inputs  equ     26
  5301                           
  5302                           	DABS	1,26,7	;_cur_inputs
  5303                           	global	_prev_inputs
  5304                           	global	_prev_inputs
  5305  000000                     _prev_inputs  equ     35
  5306                           
  5307                           	DABS	1,35,7	;_prev_inputs
  5308                           	global	_conv_result
  5309                           	global	_conv_result
  5310  000000                     _conv_result  equ     33
  5311                           
  5312                           	DABS	1,33,2	;_conv_result
  5313                           	global	_index
  5314                           	global	_index
  5315  000000                     _index  equ     44
  5316                           
  5317                           	DABS	1,44,2	;_index
  5318                           	global	_USART_Status
  5319                           	global	_USART_Status
  5320  000000                     _USART_Status  equ     47
  5321                           
  5322                           	DABS	1,47,1	;_USART_Status
  5323                           	global	_adc_num
  5324                           	global	_adc_num
  5325  000000                     _adc_num  equ     42
  5326                           
  5327                           	DABS	1,42,1	;_adc_num
  5328                           	global	_change_val
  5329                           	global	_change_val
  5330  000000                     _change_val  equ     46
  5331                           
  5332                           	DABS	1,46,1	;_change_val
  5333                           	global	_new_note
  5334                           	global	_new_note
  5335  000000                     _new_note  equ     48
  5336                           
  5337                           	DABS	1,48,1	;_new_note
  5338                           	global	_uart_out
  5339                           	global	_uart_out
  5340  000000                     _uart_out  equ     43
  5341                           
  5342                           	DABS	1,43,1	;_uart_out
  5343                           	global	_ADCON0
  5344  000000                     _ADCON0	equ	0xFC2
  5345                           	global	_ADCON1
  5346  000000                     _ADCON1	equ	0xFC1
  5347                           	global	_ADCON2
  5348  000000                     _ADCON2	equ	0xFC0
  5349                           	global	_ADRESH
  5350  000000                     _ADRESH	equ	0xFC4
  5351                           	global	_ADRESL
  5352  000000                     _ADRESL	equ	0xFC3
  5353                           	global	_BAUDCON
  5354  000000                     _BAUDCON	equ	0xFB8
  5355                           	global	_INTCON
  5356  000000                     _INTCON	equ	0xFF2
  5357                           	global	_LATA
  5358  000000                     _LATA	equ	0xF89
  5359                           	global	_LATB
  5360  000000                     _LATB	equ	0xF8A
  5361                           	global	_LATC
  5362  000000                     _LATC	equ	0xF8B
  5363                           	global	_OSCCON
  5364  000000                     _OSCCON	equ	0xFD3
  5365                           	global	_PIR1
  5366  000000                     _PIR1	equ	0xF9E
  5367                           	global	_RCREG
  5368  000000                     _RCREG	equ	0xFAE
  5369                           	global	_RCSTA
  5370  000000                     _RCSTA	equ	0xFAB
  5371                           	global	_SPBRG
  5372  000000                     _SPBRG	equ	0xFAF
  5373                           	global	_SPBRGH
  5374  000000                     _SPBRGH	equ	0xFB0
  5375                           	global	_T0CON
  5376  000000                     _T0CON	equ	0xFD5
  5377                           	global	_TRISA
  5378  000000                     _TRISA	equ	0xF92
  5379                           	global	_TRISB
  5380  000000                     _TRISB	equ	0xF93
  5381                           	global	_TRISC
  5382  000000                     _TRISC	equ	0xF94
  5383                           	global	_TXREG
  5384  000000                     _TXREG	equ	0xFAD
  5385                           	global	_TXSTA
  5386  000000                     _TXSTA	equ	0xFAC
  5387                           	global	_ADON
  5388  000000                     _ADON	equ	0x7E10
  5389                           	global	_BRGH_x
  5390  000000                     _BRGH_x	equ	0x7D62
  5391                           	global	_CREN_x
  5392  000000                     _CREN_x	equ	0x7D5C
  5393                           	global	_CSRC_x
  5394  000000                     _CSRC_x	equ	0x7D67
  5395                           	global	_FERR
  5396  000000                     _FERR	equ	0x7D5A
  5397                           	global	_GODONE
  5398  000000                     _GODONE	equ	0x7E11
  5399                           	global	_OERR
  5400  000000                     _OERR	equ	0x7D59
  5401                           	global	_RCIE_x
  5402  000000                     _RCIE_x	equ	0x7CED
  5403                           	global	_RCIF
  5404  000000                     _RCIF	equ	0x7CF5
  5405                           	global	_RX9D
  5406  000000                     _RX9D	equ	0x7D58
  5407                           	global	_RX9_x
  5408  000000                     _RX9_x	equ	0x7D5E
  5409                           	global	_SENDB_x
  5410  000000                     _SENDB_x	equ	0x7D63
  5411                           	global	_SPEN_x
  5412  000000                     _SPEN_x	equ	0x7D5F
  5413                           	global	_SREN_x
  5414  000000                     _SREN_x	equ	0x7D5D
  5415                           	global	_SYNC_x
  5416  000000                     _SYNC_x	equ	0x7D64
  5417                           	global	_TMR0IE
  5418  000000                     _TMR0IE	equ	0x7F95
  5419                           	global	_TMR0IF
  5420  000000                     _TMR0IF	equ	0x7F92
  5421                           	global	_TMR0IP
  5422  000000                     _TMR0IP	equ	0x7F8A
  5423                           	global	_TRISC6
  5424  000000                     _TRISC6	equ	0x7CA6
  5425                           	global	_TRISC7
  5426  000000                     _TRISC7	equ	0x7CA7
  5427                           	global	_TRMT_x
  5428  000000                     _TRMT_x	equ	0x7D61
  5429                           	global	_TX9D
  5430  000000                     _TX9D	equ	0x7D60
  5431                           	global	_TX9_x
  5432  000000                     _TX9_x	equ	0x7D66
  5433                           	global	_TXEN_x
  5434  000000                     _TXEN_x	equ	0x7D65
  5435                           	global	_TXIE_x
  5436  000000                     _TXIE_x	equ	0x7CEC
  5437                           	global	_TXIF
  5438  000000                     _TXIF	equ	0x7CF4
  5439                           	psect	intsave_regs,class=BIGRAM,space=1
  5440                           	PSECT	param1,class=BANK1,space=1
  5441                           	GLOBAL	__Lparam1
  5442                           	FNCONF	param1,??,?
  5443                           	GLOBAL	__Labsbss0
  5444  000000                     __Labsbss0	EQU	0
  5445                           	GLOBAL	__Habsbss0
  5446  000000                     __Habsbss0	EQU	49
  5447                           GLOBAL	__Lparam, __Hparam
  5448                           GLOBAL	__Lparam1, __Hparam1
  5449  000000                     __Lparam	EQU	__Lparam1
  5450  000000                     __Hparam	EQU	__Hparam1


HI-TECH Software PICC-18 Macro Assembler V9.66 build 8870 
Symbol Table                                           Mon May 07 20:16:46 2012

                    l871 1948                      l872 199A  
                    l881 19E6                      l882 19FE  
                    l874 1976                      l875 19D2  
                    l868 1A18                      l884 1A0C  
                    l876 19C4                      l869 18FE  
                    l878 19D2                      l879 19D6  
                   _ADON 007E10                     _FERR 007D5A  
                   _LATA 000F89                     _LATB 000F8A  
                   _LATC 000F8B                     _RCIF 007CF5  
                   _PIR1 000F9E                     _OERR 007D59  
                   u8800 19E6                     u8801 19E2  
                   u8810 1A0C                     u8811 1A08  
                   u8750 1944                     u8751 1940  
                   u8760 1968                     u8761 1964  
                   u8770 199A                     u8771 1996  
                   u8780 19B0                     u8781 19AC  
                   u8790 19D2                     u8791 19CE  
                   _RX9D 007D58                     _TX9D 007D60  
                   _TXIF 007CF4                     _main 18B6  
                   fsr0h 000FEA                     fsr1h 000FE2  
                   indf0 000FEF                     fsr0l 000FE9  
                   fsr2h 000FDA                     indf1 000FE7  
                   fsr1l 000FE1                     fsr2l 000FD9  
                   pclat 000FFA                     prodh 000FF4  
                   prodl 000FF3                     start 0018  
           main@all_zero 0104                    ?_main 0100  
                  _T0CON 000FD5                    _RCREG 000FAE  
                  _RCSTA 000FAB                    _SPBRG 000FAF  
                  _TRISA 000F92                    _TRISB 000F93  
                  _TRISC 000F94                    _RX9_x 007D5E  
                  _TXREG 000FAD                    _TX9_x 007D66  
                  _TXSTA 000FAC          __end_of_getNote 18B6  
                  _index 00002C                    main@l 0106  
                  tablat 000FF5                    status 000FD8  
           __end_of_main 1A20                   ??_main 0104  
          __activetblptr 000000                   _ADCON0 000FC2  
                 _ADCON1 000FC1                   _ADCON2 000FC0  
                 _ADRESH 000FC4                   _ADRESL 000FC3  
                 _BRGH_x 007D62                   _GODONE 007E11  
                 _CREN_x 007D5C                   i2l1100 0266  
                 i2l1101 0316                   i2l1110 03D0  
                 i2l1102 02BA                   i2l1111 042C  
                 i2l1103 0316                   i2l1200 0F06  
                 i2l1120 0576                   i2l1112 041C  
                 i2l1104 0306                   i2l1201 0FB6  
                 i2l1121 051A                   i2l1113 042C  
                 i2l1105 0316                   _CSRC_x 007D67  
                 i2l1210 105C                   i2l1202 0F5A  
                 i2l1130 068C                   i2l1122 0576  
                 i2l1114 18AA                   i2l1106 042C  
                 i2l1211 10B8                   i2l1203 0FB6  
                 i2l1131 066C                   i2l1123 0566  
                 i2l1115 0792                   i2l1107 042C  
                 i2l1220 11BE                   i2l1212 10A8  
                 i2l1204 0FA6                   i2l1140 078E  
                 i2l1132 068C                   i2l1124 0576  
                 i2l1116 0466                   i2l1108 037C  
                 i2l1141 18AA                   i2l1221 11CE  
                 i2l1213 10B8                   i2l1205 0FB6  
                 i2l1125 078E                   i2l1133 078E  
                 i2l1117 078E                   i2l1109 042C  
                 i2l1222 18AA                   i2l1230 131A  
                 i2l1206 11CE                   i2l1214 11CE  
                 i2l1150 08CA                   i2l1142 0B0A  
                 i2l1134 078E                   i2l1126 0690  
                 i2l1118 057A                   i2l1070 1BF0  
                 i2l1231 130A                   i2l1223 1536  
                 i2l1215 11CE                   i2l1207 10BC  
                 i2l1151 08DA                   i2l1143 07CA  
                 i2l1135 06DE                   i2l1127 05DC  
                 i2l1119 04C6                   i2l1071 1BA2  
                 i2l1240 141C                   i2l1232 131A  
                 i2l1224 120A                   i2l1216 111E  
                 i2l1208 1008                   i2l1152 0B06  
                 i2l1160 0B06                   i2l1144 0B06  
                 i2l1136 078E                   i2l1128 068C  
                 i2l1080 1BAA                   i2l1072 1B80  
                 i2l1233 1532                   i2l1241 1532  
                 i2l1225 1532                   i2l1217 11CE  
                 i2l1209 10B8                   i2l1161 0B06  
                 i2l1153 09F4                   i2l1145 08DE  
                 i2l1137 0732                   i2l1129 0618  
                 i2l1073 1B48                   i2l1250 18AA  
                 i2l1242 1532                   i2l1234 1420  
                 i2l1226 131E                   i2l1218 1172  
                 i2l1170 0B42                   i2l1162 0A56  
                 i2l1154 0940                   i2l1146 082A  
                 i2l1138 078E                   i2l1090 042C  
                 i2l1082 1BB8                   i2l1074 1B50  
                 i2l1066 1B00                   i2l1251 156E  
                 i2l1243 1482                   i2l1235 136C  
                 i2l1227 126A                   i2l1219 11CE  
                 i2l1171 0E6A                   i2l1163 0B06  
                 i2l1155 09F0                   i2l1147 08DA  
                 i2l1139 077E                   i2l1091 0204  
                 i2l1083 1BF0                   i2l1075 1B58  
                 i2l1067 1AFE                   i2l1084 18B4  
                 i2l1252 18AA                   i2l1260 18AA  
                 i2l1244 1532                   i2l1236 141C  
                 i2l1228 131A                   i2l1180 0D58  
                 i2l1172 0C56                   i2l1164 0AAA  
                 i2l1156 0994                   i2l1148 087E  
                 i2l1092 0150                   i2l1076 1B60  
                 i2l1068 1AF0                   i2l1261 1798  
                 i2l1253 1682                   i2l1245 14D6  
                 i2l1237 13C0                   i2l1229 12B6  
                 i2l1181 0CA4                   i2l1173 0BA2  
                 i2l1165 0B06                   i2l1157 09F0  
                 i2l1149 08DA                   i2l1093 0200  
                 i2l1085 0074                   i2l1077 1B68  
                 i2l1069 1AFC                   i2l1270 17FA  
                 i2l1262 16E4                   i2l1254 15CE  
                 i2l1246 1532                   i2l1238 141C  
                 i2l1190 0E6A                   i2l1182 0D54  
                 i2l1174 0C52                   i2l1166 0AF6  
                 i2l1158 09E0                   i2l1094 01A4  
                 i2l1086 00BC                   i2l1078 1B70  
                 i2l1271 18AA                   i2l1263 1794  
                 i2l1255 167E                   i2l1247 1522  
                 i2l1239 140C                   i2l1191 0E0E  
                 i2l1183 0CF8                   i2l1175 0BF6  
                 i2l1167 0B06                   i2l1159 09F0  
                 i2l1095 0200                   i2l1079 1B78  
                 i2l1168 18AA                   i2l1272 184E  
                 i2l1264 1738                   i2l1256 1622  
                 i2l1248 1532                   i2l1192 0E6A  
                 i2l1184 0D54                   i2l1176 0C52  
                 i2l1096 01F0                   i2l1088 0430  
                 i2l1249 18AA                   i2l1273 18AA  
                 i2l1265 1794                   i2l1257 167E  
                 i2l1193 0E5A                   i2l1185 0D44  
                 i2l1177 0C42                   i2l1169 0E6E  
                 i2l1097 0200                   i2l1089 00F0  
                 i2l1274 189A                   i2l1266 1784  
                 i2l1258 166E                   i2l1194 0E6A  
                 i2l1186 0D54                   i2l1178 0C52  
                 i2l1098 042C                   i2l1195 18AA  
                 i2l1275 18AA                   i2l1267 1794  
                 i2l1259 167E                   i2l1179 0E6A  
                 i2l1187 0E6A                   i2l1099 031A  
                 i2l1268 18AA                   i2l1196 11D2  
                 i2l1188 0E6A                   i2l1269 18AA  
                 i2l1197 0EA6                   i2l1189 0DBA  
                 i2l1198 11CE                   i2l1199 0FBA  
                 _INTCON 000FF2                   _RCIE_x 007CED  
                 i2u6000 05F0                   i2u6001 05EC  
                 i2u6010 0604                   i2u6011 0600  
                 i2u6100 07A4                   i2u6020 062C  
                 i2u6101 07A0                   i2u6021 0628  
                 i2u6110 07B6                   i2u6030 0640  
                 i2u6111 07B2                   i2u6031 063C  
                 i2u7000 155A                   i2u6200 0908  
                 i2u6120 07DE                   i2u6040 06A6  
                 i2u7001 1556                   i2u6201 0904  
                 i2u6121 07DA                   i2u6041 06A2  
                 i2u7010 1582                   i2u6210 091C  
                 i2u6130 07F2                   i2u6050 06BA  
                 i2u7011 157E                   i2u6211 0918  
                 i2u6131 07EE                   i2u6051 06B6  
                 i2u7100 16C0                   i2u7020 1596  
                 i2u6300 0A7E                   i2u6220 0954  
                 i2u6140 0806                   i2u6060 06F2  
                 i2u7101 16BC                   i2u7021 1592  
                 i2u6301 0A7A                   i2u6221 0950  
                 i2u6141 0802                   i2u6061 06EE  
                 i2u7110 16F8                   i2u7030 15AA  
                 i2u6310 0ABE                   i2u6230 0968  
                 i2u6150 083E                   i2u6070 0706  
                 i2u7111 16F4                   i2u7031 15A6  
                 i2u6311 0ABA                   i2u6231 0964  
                 i2u6151 083A                   i2u6071 0702  
                 _OSCCON 000FD3                   i2u7200 1862  
                 i2u7120 170C                   i2u7040 15E2  
                 i2u6400 0C0A                   i2u6320 0AD2  
                 i2u6240 09A8                   i2u6160 0852  
                 i2u6080 0746                   i2u7201 185E  
                 i2u7121 1708                   i2u7041 15DE  
                 i2u6401 0C06                   i2u6321 0ACE  
                 i2u6241 09A4                   i2u6161 084E  
                 i2u6081 0742                   i2u7210 1876  
                 i2u7130 174C                   i2u7050 15F6  
                 i2u6410 0C1E                   i2u6330 0B1C  
                 i2u6250 09BC                   i2u6170 0892  
                 i2u6090 075A                   i2u7211 1872  
                 i2u7131 1748                   i2u7051 15F2  
                 i2u6411 0C1A                   i2u6331 0B18  
                 i2u6251 09B8                   i2u6171 088E  
                 i2u6091 0756                   i2u7140 1760  
                 i2u7060 1636                   i2u6500 0D96  
                 i2u6420 0C6C                   i2u6340 0B2E  
                 i2u6260 0A0A                   i2u6180 08A6  
                 i2u5700 0164                   i2u7220 1BB8  
                 i2u7141 175C                   i2u7061 1632  
                 i2u6501 0D92                   i2u6421 0C68  
                 i2u6341 0B2A                   i2u6261 0A06  
                 i2u6181 08A2                   i2u5701 0160  
                 i2u7221 1BB4                   i2u7150 17AE  
                 i2u7070 164A                   i2u6510 0DCE  
                 i2u6430 0C80                   i2u6350 0B56  
                 i2u6270 0A1E                   i2u6190 08F4  
                 i2u5710 0178                   i2u5630 0070  
                 i2u7230 1BEC                   i2u7151 17AA  
                 i2u7071 1646                   i2u6511 0DCA  
                 i2u6431 0C7C                   i2u6351 0B52  
                 i2u6271 0A1A                   i2u6191 08F0  
                 i2u5711 0174                   i2u5631 006C  
                 i2u7231 1BE8                   i2u7160 17C2  
                 i2u7080 1698                   i2u6600 0F1A  
                 i2u6520 0DE2                   i2u6440 0CB8  
                 i2u6360 0B6A                   i2u6280 0A32  
                 i2u5800 02E2                   i2u5720 01B8  
                 i2u5640 00BC                   i2u7240 1A5C  
                 i2u7161 17BE                   i2u7081 1694  
                 i2u6601 0F16                   i2u6521 0DDE  
                 i2u6441 0CB4                   i2u6361 0B66  
                 i2u6281 0A2E                   i2u5801 02DE  
                 i2u5721 01B4                   i2u5641 00B8  
                 i2u7241 1A58                   i2u7170 17D6  
                 i2u7090 16AC                   i2u6610 0F2E  
                 i2u6530 0E22                   i2u6450 0CCC  
                 i2u6370 0B7E                   i2u6290 0A6A  
                 i2u5810 0330                   i2u5730 01CC  
                 i2u5650 00CA                   i2u7250 1A6A  
                 i2u7171 17D2                   i2u7091 16A8  
                 i2u6611 0F2A                   i2u6531 0E1E  
                 i2u6451 0CC8                   i2u6371 0B7A  
                 i2u6291 0A66                   i2u5811 032C  
                 i2u5731 01C8                   i2u5651 00C6  
                 i2u7251 1A66                   i2u7180 180E  
                 i2u6700 10D2                   i2u6620 0F6E  
                 i2u6540 0E36                   i2u6460 0D0C  
                 i2u6380 0BB6                   i2u5900 047A  
                 i2u5820 0344                   i2u5740 021A  
                 i2u5660 00DC                   i2u7260 1A78  
                 i2u7181 180A                   i2u6701 10CE  
                 i2u6621 0F6A                   i2u6541 0E32  
                 i2u6461 0D08                   i2u6381 0BB2  
                 i2u5901 0476                   i2u5821 0340  
                 i2u5741 0216                   i2u5661 00D8  
                 i2u7261 1A74                   i2u7190 1822  
                 i2u6710 10E6                   i2u6630 0F82  
                 i2u6550 0E80                   i2u6470 0D20  
                 i2u6390 0BCA                   i2u5910 048E  
                 i2u5830 0358                   i2u5750 022E  
                 i2u5670 0104                   i2u7270 1ABE  
                 i2u7191 181E                   i2u6711 10E2  
                 i2u6631 0F7E                   i2u6551 0E7C  
                 i2u6471 0D1C                   i2u6391 0BC6  
                 i2u5911 048A                   i2u5831 0354  
                 i2u5751 022A                   i2u5671 0100  
                 i2u7271 1ABA                   i2u6800 1232  
                 i2u6720 10FA                   i2u6640 0FD0  
                 i2u6560 0E92                   i2u6480 0D6E  
                 i2u5920 04A2                   i2u5840 0390  
                 i2u5760 0242                   i2u5680 0118  
                 i2u6801 122E                   i2u6721 10F6  
                 i2u6641 0FCC                   i2u6561 0E8E  
                 i2u6481 0D6A                   i2u5921 049E  
                 i2u5841 038C                   i2u5761 023E  
                 i2u5681 0114                   i2u6810 1246  
                 i2u6730 1132                   i2u6650 0FE4  
                 i2u6570 0EBA                   i2u6490 0D82  
                 i2u5930 04DA                   i2u5850 03A4  
                 i2u5770 027A                   i2u5690 012C  
                 i2u6811 1242                   i2u6731 112E  
                 i2u6651 0FE0                   i2u6571 0EB6  
                 i2u6491 0D7E                   i2u5931 04D6  
                 i2u5851 03A0                   i2u5771 0276  
                 i2u5691 0128                   i2u6900 13D4  
                 i2u6820 127E                   i2u6740 1146  
                 i2u6660 101C                   i2u6580 0ECE  
                 i2u5940 04EE                   i2u5860 03E4  
                 i2u5780 028E                   i2u6901 13D0  
                 i2u6821 127A                   i2u6741 1142  
                 i2u6661 1018                   i2u6581 0ECA  
                 i2u5941 04EA                   i2u5861 03E0  
                 i2u5781 028A                   i2u6910 13E8  
                 i2u6830 1292                   i2u6750 1186  
                 i2u6670 1030                   i2u6590 0EE2  
                 i2u5950 052E                   i2u5870 03F8  
                 i2u5790 02CE                   i2u6911 13E4  
                 i2u6831 128E                   i2u6751 1182  
                 i2u6671 102C                   i2u6591 0EDE  
                 i2u5951 052A                   i2u5871 03F4  
                 i2u5791 02CA                   i2u6920 1436  
                 i2u6840 12CA                   i2u6760 119A  
                 i2u6680 1070                   i2u5960 0542  
                 i2u5880 0440                   i2u6921 1432  
                 i2u6841 12C6                   i2u6761 1196  
                 i2u6681 106C                   i2u5961 053E  
                 i2u5881 043C                   i2u6930 144A  
                 i2u6850 12DE                   i2u6770 11E4  
                 i2u6690 1084                   i2u5970 0590  
                 i2u5890 0452                   i2u6931 1446  
                 i2u6851 12DA                   i2u6771 11E0  
                 i2u6691 1080                   i2u5971 058C  
                 i2u5891 044E                   i2u6940 145E  
                 i2u6860 1334                   i2u6780 11F6  
                 i2u5980 05A4                   i2u6941 145A  
                 i2u6861 1330                   i2u6781 11F2  
                 i2u5981 05A0                   i2u6950 1496  
                 i2u6870 1348                   i2u6790 121E  
                 i2u5990 05B8                   i2u6951 1492  
                 i2u6871 1344                   i2u6791 121A  
                 i2u5991 05B4                   i2u6960 14AA  
                 i2u6880 1380                   i2u6961 14A6  
                 i2u6881 137C                   i2u6970 14EA  
                 i2u6890 1394                   i2u6971 14E6  
                 i2u6891 1390                   i2u6980 14FE  
                 i2u6981 14FA                   i2u6990 1548  
                 i2u6991 1544                   _TMR0IE 007F95  
                 _TMR0IF 007F92                   _TMR0IP 007F8A  
                 _SPBRGH 000FB0                   _TRISC6 007CA6  
                 _TRISC7 007CA7                   _SPEN_x 007D5F  
                 _SREN_x 007D5D                   _TRMT_x 007D61  
                 _TXIE_x 007CEC                   _TXEN_x 007D65  
                 _SYNC_x 007D64                   __Ldata 000000  
                 _my_isr 1A20                ??_getNote 011D  
           __mediumconst 0D00                   tblptrh 000FF7  
                 tblptrl 000FF6                   tblptru 000FF8  
             __accesstop 0060               _change_val 00002E  
                _BAUDCON 000FB8                  ?_my_isr 0109  
                _SENDB_x 007D63           _adc_conversion 1B3A  
                __Hparam 0121               _cur_inputs 00001A  
                __Lparam 0100                  _adc_num 00002A  
                __ramtop 0D00                  _getNote 0036  
 __end_of_adc_conversion 1BF2          getNote@new_note 011D  
          __Lmediumconst 0D00                  int_func 0008  
                postdec0 000FED                  postinc0 000FEE  
        ?_adc_conversion 0118           __end_of_my_isr 1B3A  
              __Habsbss0 000031                __Labsbss0 000000  
               ??_my_isr 0109       adc_conversion@note 011A  
               ?_getNote 011B                _led_array 000000  
            __smallconst 0D00           getNote@hResult 011B  
         getNote@lResult 011C         ??_adc_conversion 0118  
            _conv_result 000021                 __Hparam1 0121  
               __Lparam1 0100             __Lsmallconst 0D00  
               __config1 00F0FF                 __config2 00FEFF  
               __config3 007FFF                 __config4 00FFFB  
               __config5 00FFFF                 __config6 00FFFF  
               __config7 00FFFF                 _new_note 000030  
               getNote@i 011E                 _uart_out 00002B  
               main@argc 0100                 main@argv 0102  
               intlevel2 1BF2              _prev_inputs 000023  
  adc_conversion@hResult 0118    adc_conversion@lResult 0119  
           _USART_Status 00002F  
