

HI-TECH Software LITE Macro Assembler (PIC18) V9.66 build 8870 
                                                       Mon May 07 21:27:45 2012

HI-TECH Software Omniscient Code Generator build 8870
     1  000000                     opt subtitle "HI-TECH Software Omniscient Code G
                                 enerator build 8870"
     2                           
     3                           	processor	18F2682
     4  000000                     porta	equ	0F80h
     5  000000                     portb	equ	0F81h
     6  000000                     portc	equ	0F82h
     7  000000                     portd	equ	0F83h
     8  000000                     porte	equ	0F84h
     9  000000                     lata	equ	0F89h
    10  000000                     latb	equ	0F8Ah
    11  000000                     latc	equ	0F8Bh
    12  000000                     latd	equ	0F8Ch
    13  000000                     late	equ	0F8Dh
    14  000000                     trisa	equ	0F92h
    15  000000                     trisb	equ	0F93h
    16  000000                     trisc	equ	0F94h
    17  000000                     trisd	equ	0F95h
    18  000000                     trise	equ	0F96h
    19  000000                     pie1	equ	0F9Dh
    20  000000                     pir1	equ	0F9Eh
    21  000000                     ipr1	equ	0F9Fh
    22  000000                     pie2	equ	0FA0h
    23  000000                     pir2	equ	0FA1h
    24  000000                     ipr2	equ	0FA2h
    25  000000                     t3con	equ	0FB1h
    26  000000                     tmr3l	equ	0FB2h
    27  000000                     tmr3h	equ	0FB3h
    28  000000                     ccp1con	equ	0FBDh
    29  000000                     ccpr1l	equ	0FBEh
    30  000000                     ccpr1h	equ	0FBFh
    31  000000                     adcon1	equ	0FC1h
    32  000000                     adcon0	equ	0FC2h
    33  000000                     adresl	equ	0FC3h
    34  000000                     adresh	equ	0FC4h
    35  000000                     sspcon2	equ	0FC5h
    36  000000                     sspcon1	equ	0FC6h
    37  000000                     sspstat	equ	0FC7h
    38  000000                     sspadd	equ	0FC8h
    39  000000                     sspbuf	equ	0FC9h
    40  000000                     t2con	equ	0FCAh
    41  000000                     pr2	equ	0FCBh
    42  000000                     tmr2	equ	0FCCh
    43  000000                     t1con	equ	0FCDh
    44  000000                     tmr1l	equ	0FCEh
    45  000000                     tmr1h	equ	0FCFh
    46  000000                     rcon	equ	0FD0h
    47  000000                     wdtcon	equ	0FD1h
    48  000000                     lvdcon	equ	0FD2h
    49  000000                     osccon	equ	0FD3h
    50  000000                     t0con	equ	0FD5h
    51  000000                     tmr0l	equ	0FD6h
    52  000000                     tmr0h	equ	0FD7h
    53  000000                     status	equ	0FD8h
    54  000000                     fsr2	equ	0FD9h
    55  000000                     fsr2l	equ	0FD9h
    56  000000                     fsr2h	equ	0FDAh
    57  000000                     plusw2	equ	0FDBh
    58  000000                     preinc2	equ	0FDCh
    59  000000                     postdec2	equ	0FDDh
    60  000000                     postinc2	equ	0FDEh
    61  000000                     indf2	equ	0FDFh
    62  000000                     bsr	equ	0FE0h
    63  000000                     fsr1	equ	0FE1h
    64  000000                     fsr1l	equ	0FE1h
    65  000000                     fsr1h	equ	0FE2h
    66  000000                     plusw1	equ	0FE3h
    67  000000                     preinc1	equ	0FE4h
    68  000000                     postdec1	equ	0FE5h
    69  000000                     postinc1	equ	0FE6h
    70  000000                     indf1	equ	0FE7h
    71  000000                     wreg	equ	0FE8h
    72  000000                     fsr0	equ	0FE9h
    73  000000                     fsr0l	equ	0FE9h
    74  000000                     fsr0h	equ	0FEAh
    75  000000                     plusw0	equ	0FEBh
    76  000000                     preinc0	equ	0FECh
    77  000000                     postdec0	equ	0FEDh
    78  000000                     postinc0	equ	0FEEh
    79  000000                     indf0	equ	0FEFh
    80  000000                     intcon3	equ	0FF0h
    81  000000                     intcon2	equ	0FF1h
    82  000000                     intcon	equ	0FF2h
    83  000000                     prod	equ	0FF3h
    84  000000                     prodl	equ	0FF3h
    85  000000                     prodh	equ	0FF4h
    86  000000                     tablat	equ	0FF5h
    87  000000                     tblptr	equ	0FF6h
    88  000000                     tblptrl	equ	0FF6h
    89  000000                     tblptrh	equ	0FF7h
    90  000000                     tblptru	equ	0FF8h
    91  000000                     pcl	equ	0FF9h
    92  000000                     pclat	equ	0FFAh
    93  000000                     pclath	equ	0FFAh
    94  000000                     pclatu	equ	0FFBh
    95  000000                     stkptr	equ	0FFCh
    96  000000                     tosl	equ	0FFDh
    97  000000                     tosh	equ	0FFEh
    98  000000                     tosu	equ	0FFFh
    99                           	global	__ramtop
   100                           	global	__accesstop
   101                           # 20 "../code/main.c"
   102                           	global __config1 ;#
   103                           # 20 "../code/main.c"
   104  000000                     	__config1 equ 0xF0FF ;#
   105                           # 21 "../code/main.c"
   106                           	global __config2 ;#
   107                           # 21 "../code/main.c"
   108  000000                     	__config2 equ 0xFEFF ;#
   109                           # 22 "../code/main.c"
   110                           	global __config3 ;#
   111                           # 22 "../code/main.c"
   112  000000                     	__config3 equ 0x7FFF ;#
   113                           # 23 "../code/main.c"
   114                           	global __config4 ;#
   115                           # 23 "../code/main.c"
   116  000000                     	__config4 equ 0xFFFB & 0xFFFF ;#
   117                           # 24 "../code/main.c"
   118                           	global __config5 ;#
   119                           # 24 "../code/main.c"
   120  000000                     	__config5 equ 0xFFFF ;#
   121                           # 25 "../code/main.c"
   122                           	global __config6 ;#
   123                           # 25 "../code/main.c"
   124  000000                     	__config6 equ 0xFFFF ;#
   125                           # 26 "../code/main.c"
   126                           	global __config7 ;#
   127                           # 26 "../code/main.c"
   128  000000                     	__config7 equ 0xFFFF ;#
   129                           	GLOBAL	__activetblptr
   130  000000                     __activetblptr	EQU	0
   131                           	GLOBAL	__smallconst,__Lsmallconst
   132  000000                     __smallconst	EQU	__Lsmallconst
   133                           	GLOBAL	__mediumconst,__Lmediumconst
   134  000000                     __mediumconst	EQU	__Lmediumconst
   135                           	GLOBAL	__Ldata
   136  000000                     __Ldata	EQU	0
   137  000000                     main@argc	equ	?_main+0
   138                           	global	main@argc
   139  000000                     main@argv	equ	?_main+2
   140                           	global	main@argv
   141  000000                     adc_conversion@hResult	equ	??_adc_conversion+0
   142                           	global	adc_conversion@hResult
   143  000000                     adc_conversion@lResult	equ	??_adc_conversion+1
   144                           	global	adc_conversion@lResult
   145  000000                     adc_conversion@note	equ	??_adc_conversion+2
   146                           	global	adc_conversion@note
   147  000000                     getNote@new_note	equ	??_getNote+0
   148                           	global	getNote@new_note
   149  000000                     getNote@hResult	equ	?_getNote+0
   150                           	global	getNote@hResult
   151  000000                     getNote@lResult	equ	?_getNote+1
   152                           	global	getNote@lResult
   153                           ;Data sizes: Strings 0, constant 0, data 0, bss 
                                 0, persistent 0 stack 26
   154                           	global	_main
   155                           	global	??_main
   156                           	global	?_main
   157                           
   158                           ; *************** function _main ***************
                                 **
   159                           ; Defined at:
   160                           ;		line 179 in file "../code/main.c"
   161                           ; Parameters:
   162                           ;		argc           size:   2offs:   0	type: int 
   163                           ;		argv           size:   2offs:   2	type: PTR P
                                 TR unsigned char 
   164                           ; Auto variables:
   165                           ;		None
   166                           ; Return value:
   167                           ;		type: int 
   168                           ;		size: 2
   169                           ; Registers used:
   170                           ;		wreg, status,2, status,0
   171                           ; Tracked objects:
   172                           ;		On entry : 0/0
   173                           ;		On exit  : 0/0
   174                           ;		Unchanged: 0/0
   175                           ; Data sizes:
   176                           ;		Autos:    0
   177                           ;		Params:   4
   178                           ;		Temp:     1
   179                           ;		Total:    5
   180                           ; This function calls:
   181                           ;		Nothing
   182                           ; This function is called by:
   183                           ;		Startup code after reset
   184                           ; This function uses a non-reentrant model
   185                           ; 
   186                                   psect   text0,class=CODE,space=0,reloc=2
   187                           
   188                           	opt lm
   189                           	file	"../code/main.c"
   190                           	line	179
   191  000000                     	__size_of_main	equ	__end_of_main-_main
   192                                   psect   text0
   193                           ;stdio.h: 12: typedef int ptrdiff_t;
   194                           ;stdio.h: 13: typedef unsigned size_t;
   195                           ;stdio.h: 14: typedef unsigned short wchar_t;
   196                           ;stdarg.h: 36: typedef void * va_list[1];
   197                           ;stdarg.h: 39: extern void * __va_start(void);
   198                           ;stdarg.h: 42: extern void * __va_arg(void *);
   199                           ;stdio.h: 27: extern int errno;
   200                           ;stdio.h: 58: struct __prbuf
   201                           ;stdio.h: 59: {
   202                           ;stdio.h: 60: char * ptr;
   203                           ;stdio.h: 61: void (* func)(char);
   204                           ;stdio.h: 62: };
   205                           ;conio.h: 17: extern int errno;
   206                           ;conio.h: 20: extern void init_uart(void);
   207                           ;conio.h: 22: extern char getch(void);
   208                           	
   209  0024DE                     _main:		; BSR set to: ?
   210                           
   211                           	opt stack 28
   212                           	line	181
   213  0024DE  0E72               	movlw	(072h)&0ffh
   214  0024E0  12D3               	iorwf	((c:4051)),c	;volatile
   215                           	line	184
   216                           ;main.c: 184: TRISA = 0b10101111;
   217  0024E2  0EAF               	movlw	low(0AFh)
   218  0024E4  6E92               	movwf	((c:3986)),c	;volatile
   219+                          	line	185
   220+                          ;main.c: 185: TRISB = 0b00010010;
   221+ 0024E6  0E12               	movlw	low(012h)
   222+ 0024E8  6E93               	movwf	((c:3987)),c	;volatile
   223                           	line	186
   224                           ;main.c: 186: TRISC = 0b10000000;
   225  0024EA  0E80               	movlw	low(080h)
   226  0024EC  6E94               	movwf	((c:3988)),c	;volatile
   227                           	line	189
   228                           ;main.c: 189: ADCON0 = 0b00000000;
   229  0024EE  0E00               	movlw	low(0)
   230  0024F0  6EC2               	movwf	((c:4034)),c	;volatile
   231                           	line	190
   232                           ;main.c: 190: ADCON1 = 0b00000101;
   233  0024F2  0E05               	movlw	low(05h)
   234  0024F4  6EC1               	movwf	((c:4033)),c	;volatile
   235                           	line	191
   236                           ;main.c: 191: ADCON2 = 0b10001101;
   237  0024F6  0E8D               	movlw	low(08Dh)
   238  0024F8  6EC0               	movwf	((c:4032)),c	;volatile
   239                           	line	192
   240                           ;main.c: 192: adc_num = 0;
   241  0024FA  0E00               	movlw	low(0)
   242  0024FC  6E1D               	movwf	((c:29)),c	;volatile
   243                           	line	197
   244                           ;main.c: 197: T0CON = 0b10000000;
   245  0024FE  0E80               	movlw	low(080h)
   246  002500  6ED5               	movwf	((c:4053)),c	;volatile
   247                           	line	200
   248                           ;main.c: 200: INTCON = 0b00100000;
   249  002502  0E20               	movlw	low(020h)
   250  002504  6EF2               	movwf	((c:4082)),c	;volatile
   251                           	line	210
   252                           ;main.c: 210: SPBRGH = (((8000000L/19200UL)/16) 
                                 - 1) >> 8;
   253  002506  0E00               	movlw	low(0)
   254  002508  6EB0               	movwf	((c:4016)),c	;volatile
   255                           	line	211
   256                           ;main.c: 211: SPBRG = (((8000000L/19200UL)/16) -
                                  1);
   257  00250A  0E19               	movlw	low(019h)
   258  00250C  6EAF               	movwf	((c:4015)),c	;volatile
   259                           	line	212
   260                           ;main.c: 212: BAUDCON = 0b00001000;
   261  00250E  0E08               	movlw	low(08h)
   262  002510  6EB8               	movwf	((c:4024)),c	;volatile
   263                           	line	213
   264                           ;main.c: 213: RCSTA = 0b10010000;
   265  002512  0E90               	movlw	low(090h)
   266  002514  6EAB               	movwf	((c:4011)),c	;volatile
   267                           	line	214
   268                           ;main.c: 214: TXSTA = 0b00100000;
   269  002516  0E20               	movlw	low(020h)
   270  002518  6EAC               	movwf	((c:4012)),c	;volatile
   271                           	line	217
   272                           ;main.c: 217: LATA = 0b11111111;
   273  00251A  6889               	setf	((c:3977)),c	;volatile
   274                           	line	219
   275                           ;main.c: 219: LATB = 0b10000000;
   276  00251C  0E80               	movlw	low(080h)
   277  00251E  6E8A               	movwf	((c:3978)),c	;volatile
   278                           	line	221
   279                           ;main.c: 221: LATC = 0b00001111;
   280  002520  0E0F               	movlw	low(0Fh)
   281  002522  6E8B               	movwf	((c:3979)),c	;volatile
   282                           	line	224
   283                           ;main.c: 224: INTCON |= 0b10000000;
   284  002524  8EF2               	bsf	(0+(7/8)+(c:4082)),c,(7)&7	;volatile
   285                           	line	240
   286                           ;main.c: 240: while (1) {
   287                           	
   288  002526                     l869:		; BSR set to: ?
   289                           
   290                           	line	268
   291                           ;main.c: 268: change_val = 0;
   292  002526  0101               	movlb	1	; () banked
   293  002528  6F04               	movwf	(??_main+0+0)&0ffh
   294  00252A  0E00               	movlw	low(0)
   295  00252C  6E00               	movwf	((c:0)),c
   296  00252E  0101               	movlb	1	; () banked
   297  002530  5104               	movf	(??_main+0+0)&0ffh,w
   298                           	line	270
   299                           	
   300  002532                     l868:		; BSR set to: ?
   301                           
   302                           	line	240
   303  002532  EF93  F012         	goto	l869
   304                           	global	start
   305  002536  EF0C  F000         	goto	start
   306                           	opt stack 0
   307                           GLOBAL __end_of_main
   308  00253A                     	__end_of_main:
   309                           	FNSIZE	_main,1,4
   310                           ; =============== function _main ends ==========
                                 ==
   311                           
   312                                   psect   text1,class=CODE,space=0,reloc=2
   313                           	line	276
   314                           
   315                           	opt lm
   316                           	signat	_main,8314
   317                           	global	_my_isr
   318                           	global	??_my_isr
   319                           	global	?_my_isr
   320                           
   321                           ; *************** function _my_isr *************
                                 ****
   322                           ; Defined at:
   323                           ;		line 950 in file "../code/main.c"
   324                           ; Parameters:
   325                           ;		None
   326                           ; Auto variables:
   327                           ;		None
   328                           ; Return value:
   329                           ;		type: void 
   330                           ;		size: 0
   331                           ; Registers used:
   332                           ;		wreg, status,2, status,0, cstack
   333                           ; Tracked objects:
   334                           ;		On entry : 0/0
   335                           ;		On exit  : 0/0
   336                           ;		Unchanged: 0/0
   337                           ; Data sizes:
   338                           ;		Autos:    0
   339                           ;		Params:   0
   340                           ;		Temp:    14
   341                           ;		Total:   14
   342                           ; This function calls:
   343                           ;		_adc_conversion
   344                           ;		_ToggleLeds
   345                           ; This function is called by:
   346                           ;		Interrupt level 2
   347                           ; This function uses a non-reentrant model
   348                           ; 
   349                           	file	"../code/main.c"
   350                           	line	950
   351  000000                     	__size_of_my_isr	equ	__end_of_my_isr-_my_isr
   352                           ;main.c: 950: void interrupt my_isr(void) {
   353                           	
   354  002182                     _my_isr:		; BSR set to: ?
   355                           
   356                           	opt stack 31
   357                                   psect   intcode,class=CODE,space=0,reloc
                                 =2
   358                           	global	int_func
   359  000008                     int_func:
   360                                   psect   intcode
   361  000008  CFFA F105          	movff	pclat+0,??_my_isr+0
   362  00000C  CFFB F106          	movff	pclat+1,??_my_isr+1
   363  000010  CFE9 F107          	movff	fsr0l+0,??_my_isr+2
   364  000014  EFC1  F010         	goto	_my_isr
   365                                   psect   text1
   366  002182  CFEA F108          	movff	fsr0h+0,??_my_isr+3
   367  002186  CFE1 F109          	movff	fsr1l+0,??_my_isr+4
   368  00218A  CFE2 F10A          	movff	fsr1h+0,??_my_isr+5
   369  00218E  CFD9 F10B          	movff	fsr2l+0,??_my_isr+6
   370  002192  CFDA F10C          	movff	fsr2h+0,??_my_isr+7
   371  002196  CFF3 F10D          	movff	prodl+0,??_my_isr+8
   372  00219A  CFF4 F10E          	movff	prodh+0,??_my_isr+9
   373  00219E  CFF6 F10F          	movff	tblptrl+0,??_my_isr+10
   374  0021A2  CFF7 F110          	movff	tblptrh+0,??_my_isr+11
   375  0021A6  CFF8 F111          	movff	tblptru+0,??_my_isr+12
   376  0021AA  CFF5 F112          	movff	tablat+0,??_my_isr+13
   377                           	line	952
   378                           ;main.c: 952: INTCON &= 0b01111111;
   379  0021AE  9EF2               	bcf	(0+(7/8)+(c:4082)),c,(7)&7	;volatile
   380                           	line	954
   381                           ;main.c: 954: if (TMR0IE && TMR0IF && TMR0IP) {
   382  0021B0  AAF2               	btfss	c:(32661/8),(32661)&7	;volatile
   383  0021B2  EFDD  F010         	goto	i2u8791
   384  0021B6  EFDF  F010         	goto	i2u8790
   385  0021BA                     i2u8791:
   386  0021BA  EFF5  F011         	goto	i2l1053
   387  0021BE                     i2u8790:
   388  0021BE  A4F2               	btfss	c:(32658/8),(32658)&7	;volatile
   389  0021C0  EFE4  F010         	goto	i2u8801
   390  0021C4  EFE6  F010         	goto	i2u8800
   391  0021C8                     i2u8801:
   392  0021C8  EFF5  F011         	goto	i2l1053
   393  0021CC                     i2u8800:
   394  0021CC  A4F1               	btfss	c:(32650/8),(32650)&7	;volatile
   395  0021CE  EFEB  F010         	goto	i2u8811
   396  0021D2  EFED  F010         	goto	i2u8810
   397  0021D6                     i2u8811:
   398  0021D6  EFF5  F011         	goto	i2l1053
   399  0021DA                     i2u8810:
   400                           	line	955
   401                           ;main.c: 955: adc_conversion ();
   402  0021DA  EC13  F012         	call	_adc_conversion	;wreg free
   403                           	line	957
   404                           ;main.c: 957: if (conv_result.adc_channel == 0) 
                                 {
   405  0021DE  661C               	tstfsz	(0+((c:27)+01h)),c
   406  0021E0  EFF4  F010         	goto	i2u8821
   407  0021E4  EFF6  F010         	goto	i2u8820
   408  0021E8                     i2u8821:
   409  0021E8  EF13  F011         	goto	i2l1054
   410  0021EC                     i2u8820:
   411                           	line	958
   412                           ;main.c: 958: if ((chanA[0] & conv_result.result
                                 ) == conv_result.result) {
   413  0021EC  502A               	movf	((c:42)),c,w
   414  0021EE  141B               	andwf	((c:27)),c,w
   415  0021F0  181B               	xorwf	((c:27)),c,w
   416  0021F2  A4D8               	btfss	status,2
   417  0021F4  EFFE  F010         	goto	i2u8831
   418  0021F8  EF00  F011         	goto	i2u8830
   419  0021FC                     i2u8831:
   420  0021FC  EF0F  F011         	goto	i2l1059
   421  002200                     i2u8830:
   422                           	line	959
   423                           ;main.c: 959: TXREG = conv_result.result;
   424  002200  C01B FFAD          	movff	(c:27),(c:4013)	;volatile
   425                           	line	960
   426                           ;main.c: 960: while((PIR1 & 0b00010000) == 0);
   427  002204  EF04  F011         	goto	i2l1056
   428                           	
   429  002208                     i2l1056:		; BSR set to: ?
   430                           
   431                           	
   432  002208  A89E               	btfss	((c:3998)),c,(4)&7	;volatile
   433  00220A  EF09  F011         	goto	i2u8841
   434  00220E  EF0B  F011         	goto	i2u8840
   435  002212                     i2u8841:
   436  002212  EF04  F011         	goto	i2l1056
   437  002216                     i2u8840:
   438                           	
   439  002216                     i2l1058:		; BSR set to: ?
   440+                          
   441+                          	line	961
   442+                          ;main.c: 961: ToggleLeds();
   443+ 002216  ECCC  F009         	call	_ToggleLeds	;wreg free
   444+                          	line	962
   445+                          ;main.c: 962: } else {
   446+ 00221A  EF0F  F011         	goto	i2l1059
   447                           	line	964
   448                           	
   449  00221E                     i2l1059:		; BSR set to: ?
   450                           
   451                           	line	965
   452                           ;main.c: 964: }
   453                           ;main.c: 965: chanA[0] = conv_result.result;
   454  00221E  C01B F02A          	movff	(c:27),(c:42)
   455                           	line	966
   456                           ;main.c: 966: } else if (conv_result.adc_channel
                                  == 1) {
   457  002222  EFF4  F011         	goto	i2l1060
   458                           	
   459  002226                     i2l1054:		; BSR set to: ?
   460                           
   461  002226  041C               	decf	(0+((c:27)+01h)),c,w
   462                           
   463  002228  A4D8               	btfss	status,2
   464  00222A  EF19  F011         	goto	i2u8851
   465  00222E  EF1B  F011         	goto	i2u8850
   466  002232                     i2u8851:
   467  002232  EF38  F011         	goto	i2l1061
   468  002236                     i2u8850:
   469                           	line	967
   470                           ;main.c: 967: if ((chanB[0] & conv_result.result
                                 ) == conv_result.result) {
   471  002236  502D               	movf	((c:45)),c,w
   472  002238  141B               	andwf	((c:27)),c,w
   473  00223A  181B               	xorwf	((c:27)),c,w
   474  00223C  A4D8               	btfss	status,2
   475  00223E  EF23  F011         	goto	i2u8861
   476  002242  EF25  F011         	goto	i2u8860
   477  002246                     i2u8861:
   478  002246  EF34  F011         	goto	i2l1066
   479  00224A                     i2u8860:
   480                           	line	968
   481                           ;main.c: 968: TXREG = conv_result.result;
   482  00224A  C01B FFAD          	movff	(c:27),(c:4013)	;volatile
   483                           	line	969
   484                           ;main.c: 969: while((PIR1 & 0b00010000) == 0);
   485  00224E  EF29  F011         	goto	i2l1063
   486                           	
   487  002252                     i2l1063:		; BSR set to: ?
   488                           
   489                           	
   490  002252  A89E               	btfss	((c:3998)),c,(4)&7	;volatile
   491  002254  EF2E  F011         	goto	i2u8871
   492  002258  EF30  F011         	goto	i2u8870
   493  00225C                     i2u8871:
   494  00225C  EF29  F011         	goto	i2l1063
   495  002260                     i2u8870:
   496                           	
   497  002260                     i2l1065:		; BSR set to: ?
   498                           
   499                           	line	970
   500                           ;main.c: 970: ToggleLeds();
   501  002260  ECCC  F009         	call	_ToggleLeds	;wreg free
   502                           	line	971
   503                           ;main.c: 971: } else {
   504  002264  EF34  F011         	goto	i2l1066
   505                           	line	973
   506                           	
   507  002268                     i2l1066:		; BSR set to: ?
   508                           
   509                           	line	974
   510                           ;main.c: 973: }
   511                           ;main.c: 974: chanB[0] = conv_result.result;
   512  002268  C01B F02D          	movff	(c:27),(c:45)
   513                           	line	975
   514                           ;main.c: 975: } else if (conv_result.adc_channel
                                  == 2) {
   515  00226C  EFF4  F011         	goto	i2l1060
   516                           	
   517  002270                     i2l1061:		; BSR set to: ?
   518                           
   519  002270  501C               	movf	(0+((c:27)+01h)),c,w
   520  002272  0A02               	xorlw	2
   521                           
   522  002274  A4D8               	btfss	status,2
   523  002276  EF3F  F011         	goto	i2u8881
   524  00227A  EF41  F011         	goto	i2u8880
   525  00227E                     i2u8881:
   526  00227E  EF5E  F011         	goto	i2l1068
   527  002282                     i2u8880:
   528                           	line	976
   529                           ;main.c: 976: if ((chanC[0] & conv_result.result
                                 ) == conv_result.result) {
   530  002282  5030               	movf	((c:48)),c,w
   531  002284  141B               	andwf	((c:27)),c,w
   532  002286  181B               	xorwf	((c:27)),c,w
   533  002288  A4D8               	btfss	status,2
   534  00228A  EF49  F011         	goto	i2u8891
   535  00228E  EF4B  F011         	goto	i2u8890
   536  002292                     i2u8891:
   537  002292  EF5A  F011         	goto	i2l1073
   538  002296                     i2u8890:
   539                           	line	977
   540                           ;main.c: 977: TXREG = conv_result.result;
   541  002296  C01B FFAD          	movff	(c:27),(c:4013)	;volatile
   542                           	line	978
   543                           ;main.c: 978: while((PIR1 & 0b00010000) == 0);
   544  00229A  EF4F  F011         	goto	i2l1070
   545                           	
   546  00229E                     i2l1070:		; BSR set to: ?
   547                           
   548                           	
   549  00229E  A89E               	btfss	((c:3998)),c,(4)&7	;volatile
   550  0022A0  EF54  F011         	goto	i2u8901
   551  0022A4  EF56  F011         	goto	i2u8900
   552  0022A8                     i2u8901:
   553  0022A8  EF4F  F011         	goto	i2l1070
   554  0022AC                     i2u8900:
   555                           	
   556  0022AC                     i2l1072:		; BSR set to: ?
   557                           
   558                           	line	979
   559                           ;main.c: 979: ToggleLeds();
   560  0022AC  ECCC  F009         	call	_ToggleLeds	;wreg free
   561                           	line	980
   562                           ;main.c: 980: } else {
   563  0022B0  EF5A  F011         	goto	i2l1073
   564                           	line	982
   565                           	
   566  0022B4                     i2l1073:		; BSR set to: ?
   567                           
   568                           	line	983
   569                           ;main.c: 982: }
   570                           ;main.c: 983: chanC[0] = conv_result.result;
   571  0022B4  C01B F030          	movff	(c:27),(c:48)
   572                           	line	984
   573                           ;main.c: 984: } else if (conv_result.adc_channel
                                  == 3) {
   574  0022B8  EFF4  F011         	goto	i2l1060
   575                           	
   576  0022BC                     i2l1068:		; BSR set to: ?
   577                           
   578  0022BC  501C               	movf	(0+((c:27)+01h)),c,w
   579  0022BE  0A03               	xorlw	3
   580                           
   581  0022C0  A4D8               	btfss	status,2
   582  0022C2  EF65  F011         	goto	i2u8911
   583  0022C6  EF67  F011         	goto	i2u8910
   584  0022CA                     i2u8911:
   585  0022CA  EF84  F011         	goto	i2l1075
   586  0022CE                     i2u8910:
   587                           	line	985
   588                           ;main.c: 985: if ((chanD[0] & conv_result.result
                                 ) == conv_result.result) {
   589  0022CE  5027               	movf	((c:39)),c,w
   590  0022D0  141B               	andwf	((c:27)),c,w
   591  0022D2  181B               	xorwf	((c:27)),c,w
   592  0022D4  A4D8               	btfss	status,2
   593  0022D6  EF6F  F011         	goto	i2u8921
   594  0022DA  EF71  F011         	goto	i2u8920
   595  0022DE                     i2u8921:
   596  0022DE  EF80  F011         	goto	i2l1080
   597  0022E2                     i2u8920:
   598                           	line	986
   599                           ;main.c: 986: TXREG = conv_result.result;
   600  0022E2  C01B FFAD          	movff	(c:27),(c:4013)	;volatile
   601                           	line	987
   602                           ;main.c: 987: while((PIR1 & 0b00010000) == 0);
   603  0022E6  EF75  F011         	goto	i2l1077
   604                           	
   605  0022EA                     i2l1077:		; BSR set to: ?
   606                           
   607                           	
   608  0022EA  A89E               	btfss	((c:3998)),c,(4)&7	;volatile
   609  0022EC  EF7A  F011         	goto	i2u8931
   610  0022F0  EF7C  F011         	goto	i2u8930
   611  0022F4                     i2u8931:
   612  0022F4  EF75  F011         	goto	i2l1077
   613  0022F8                     i2u8930:
   614                           	
   615  0022F8                     i2l1079:		; BSR set to: ?
   616                           
   617                           	line	988
   618                           ;main.c: 988: ToggleLeds();
   619  0022F8  ECCC  F009         	call	_ToggleLeds	;wreg free
   620                           	line	989
   621                           ;main.c: 989: } else {
   622  0022FC  EF80  F011         	goto	i2l1080
   623                           	line	991
   624                           	
   625  002300                     i2l1080:		; BSR set to: ?
   626                           
   627                           	line	992
   628                           ;main.c: 991: }
   629                           ;main.c: 992: chanD[0] = conv_result.result;
   630  002300  C01B F027          	movff	(c:27),(c:39)
   631                           	line	993
   632                           ;main.c: 993: } else if (conv_result.adc_channel
                                  == 4) {
   633  002304  EFF4  F011         	goto	i2l1060
   634                           	
   635  002308                     i2l1075:		; BSR set to: ?
   636                           
   637  002308  501C               	movf	(0+((c:27)+01h)),c,w
   638  00230A  0A04               	xorlw	4
   639                           
   640  00230C  A4D8               	btfss	status,2
   641  00230E  EF8B  F011         	goto	i2u8941
   642  002312  EF8D  F011         	goto	i2u8940
   643  002316                     i2u8941:
   644  002316  EFAA  F011         	goto	i2l1082
   645  00231A                     i2u8940:
   646                           	line	994
   647                           ;main.c: 994: if ((chanE[0] & conv_result.result
                                 ) == conv_result.result) {
   648  00231A  501E               	movf	((c:30)),c,w
   649  00231C  141B               	andwf	((c:27)),c,w
   650  00231E  181B               	xorwf	((c:27)),c,w
   651  002320  A4D8               	btfss	status,2
   652  002322  EF95  F011         	goto	i2u8951
   653  002326  EF97  F011         	goto	i2u8950
   654  00232A                     i2u8951:
   655  00232A  EFA6  F011         	goto	i2l1087
   656  00232E                     i2u8950:
   657                           	line	995
   658                           ;main.c: 995: TXREG = conv_result.result;
   659  00232E  C01B FFAD          	movff	(c:27),(c:4013)	;volatile
   660                           	line	996
   661                           ;main.c: 996: while((PIR1 & 0b00010000) == 0);
   662  002332  EF9B  F011         	goto	i2l1084
   663                           	
   664  002336                     i2l1084:		; BSR set to: ?
   665                           
   666                           	
   667  002336  A89E               	btfss	((c:3998)),c,(4)&7	;volatile
   668  002338  EFA0  F011         	goto	i2u8961
   669  00233C  EFA2  F011         	goto	i2u8960
   670  002340                     i2u8961:
   671  002340  EF9B  F011         	goto	i2l1084
   672  002344                     i2u8960:
   673                           	
   674  002344                     i2l1086:		; BSR set to: ?
   675                           
   676                           	line	997
   677                           ;main.c: 997: ToggleLeds();
   678  002344  ECCC  F009         	call	_ToggleLeds	;wreg free
   679                           	line	998
   680                           ;main.c: 998: } else {
   681  002348  EFA6  F011         	goto	i2l1087
   682                           	line	1000
   683                           	
   684  00234C                     i2l1087:		; BSR set to: ?
   685                           
   686                           	line	1001
   687                           ;main.c: 1000: }
   688                           ;main.c: 1001: chanE[0] = conv_result.result;
   689  00234C  C01B F01E          	movff	(c:27),(c:30)
   690                           	line	1002
   691                           ;main.c: 1002: } else if (conv_result.adc_channe
                                 l == 5) {
   692  002350  EFF4  F011         	goto	i2l1060
   693                           	
   694  002354                     i2l1082:		; BSR set to: ?
   695                           
   696  002354  501C               	movf	(0+((c:27)+01h)),c,w
   697  002356  0A05               	xorlw	5
   698                           
   699  002358  A4D8               	btfss	status,2
   700  00235A  EFB1  F011         	goto	i2u8971
   701  00235E  EFB3  F011         	goto	i2u8970
   702  002362                     i2u8971:
   703  002362  EFD0  F011         	goto	i2l1089
   704  002366                     i2u8970:
   705                           	line	1003
   706                           ;main.c: 1003: if ((chanF[0] & conv_result.resul
                                 t) == conv_result.result) {
   707  002366  5021               	movf	((c:33)),c,w
   708  002368  141B               	andwf	((c:27)),c,w
   709  00236A  181B               	xorwf	((c:27)),c,w
   710  00236C  A4D8               	btfss	status,2
   711  00236E  EFBB  F011         	goto	i2u8981
   712  002372  EFBD  F011         	goto	i2u8980
   713  002376                     i2u8981:
   714  002376  EFCC  F011         	goto	i2l1094
   715  00237A                     i2u8980:
   716                           	line	1004
   717                           ;main.c: 1004: TXREG = conv_result.result;
   718  00237A  C01B FFAD          	movff	(c:27),(c:4013)	;volatile
   719                           	line	1005
   720                           ;main.c: 1005: while((PIR1 & 0b00010000) == 0);
   721  00237E  EFC1  F011         	goto	i2l1091
   722                           	
   723  002382                     i2l1091:		; BSR set to: ?
   724                           
   725                           	
   726  002382  A89E               	btfss	((c:3998)),c,(4)&7	;volatile
   727  002384  EFC6  F011         	goto	i2u8991
   728  002388  EFC8  F011         	goto	i2u8990
   729  00238C                     i2u8991:
   730  00238C  EFC1  F011         	goto	i2l1091
   731  002390                     i2u8990:
   732                           	
   733  002390                     i2l1093:		; BSR set to: ?
   734                           
   735                           	line	1006
   736                           ;main.c: 1006: ToggleLeds();
   737  002390  ECCC  F009         	call	_ToggleLeds	;wreg free
   738                           	line	1007
   739                           ;main.c: 1007: } else {
   740  002394  EFCC  F011         	goto	i2l1094
   741                           	line	1008
   742                           	
   743  002398                     i2l1094:		; BSR set to: ?
   744                           
   745                           	line	1009
   746                           ;main.c: 1008: }
   747                           ;main.c: 1009: chanF[0] = conv_result.result;
   748  002398  C01B F021          	movff	(c:27),(c:33)
   749                           	line	1010
   750                           ;main.c: 1010: } else if (conv_result.adc_channe
                                 l == 6) {
   751  00239C  EFF4  F011         	goto	i2l1060
   752                           	
   753  0023A0                     i2l1089:		; BSR set to: ?
   754                           
   755  0023A0  501C               	movf	(0+((c:27)+01h)),c,w
   756  0023A2  0A06               	xorlw	6
   757                           
   758  0023A4  A4D8               	btfss	status,2
   759  0023A6  EFD7  F011         	goto	i2u9001
   760  0023AA  EFD9  F011         	goto	i2u9000
   761  0023AE                     i2u9001:
   762  0023AE  EFF4  F011         	goto	i2l1060
   763  0023B2                     i2u9000:
   764                           	line	1011
   765                           ;main.c: 1011: if ((chanG[0] & conv_result.resul
                                 t) == conv_result.result) {
   766  0023B2  5024               	movf	((c:36)),c,w
   767  0023B4  141B               	andwf	((c:27)),c,w
   768  0023B6  181B               	xorwf	((c:27)),c,w
   769  0023B8  A4D8               	btfss	status,2
   770  0023BA  EFE1  F011         	goto	i2u9011
   771  0023BE  EFE3  F011         	goto	i2u9010
   772  0023C2                     i2u9011:
   773  0023C2  EFF2  F011         	goto	i2l1101
   774  0023C6                     i2u9010:
   775                           	line	1012
   776                           ;main.c: 1012: TXREG = conv_result.result;
   777  0023C6  C01B FFAD          	movff	(c:27),(c:4013)	;volatile
   778                           	line	1013
   779                           ;main.c: 1013: while((PIR1 & 0b00010000) == 0);
   780  0023CA  EFE7  F011         	goto	i2l1098
   781                           	
   782  0023CE                     i2l1098:		; BSR set to: ?
   783                           
   784                           	
   785  0023CE  A89E               	btfss	((c:3998)),c,(4)&7	;volatile
   786  0023D0  EFEC  F011         	goto	i2u9021
   787  0023D4  EFEE  F011         	goto	i2u9020
   788  0023D8                     i2u9021:
   789  0023D8  EFE7  F011         	goto	i2l1098
   790  0023DC                     i2u9020:
   791                           	
   792  0023DC                     i2l1100:		; BSR set to: ?
   793                           
   794                           	line	1014
   795                           ;main.c: 1014: ToggleLeds();
   796  0023DC  ECCC  F009         	call	_ToggleLeds	;wreg free
   797                           	line	1015
   798                           ;main.c: 1015: } else {
   799  0023E0  EFF2  F011         	goto	i2l1101
   800                           	line	1017
   801                           	
   802  0023E4                     i2l1101:		; BSR set to: ?
   803                           
   804                           	line	1018
   805                           ;main.c: 1017: }
   806                           ;main.c: 1018: chanG[0] = conv_result.result;
   807  0023E4  C01B F024          	movff	(c:27),(c:36)
   808                           	line	1019
   809                           	
   810  0023E8                     i2l1096:		; BSR set to: ?
   811                           
   812                           	line	1021
   813                           	
   814  0023E8                     i2l1095:		; BSR set to: ?
   815                           
   816                           	
   817  0023E8                     i2l1088:		; BSR set to: ?
   818                           
   819                           	
   820  0023E8                     i2l1081:		; BSR set to: ?
   821                           
   822                           	
   823  0023E8                     i2l1074:		; BSR set to: ?
   824                           
   825                           	
   826  0023E8                     i2l1067:		; BSR set to: ?
   827                           
   828                           	
   829  0023E8                     i2l1060:		; BSR set to: ?
   830                           
   831                           ;main.c: 1019: }
   832                           ;main.c: 1021: TMR0IF = 0;
   833  0023E8  94F2               	bcf	c:(32658/8),(32658)&7	;volatile
   834                           	line	1022
   835                           	
   836  0023EA                     i2l1053:		; BSR set to: ?
   837                           
   838                           	line	1025
   839                           ;main.c: 1022: }
   840                           ;main.c: 1025: INTCON |= 0b10000000;
   841  0023EA  8EF2               	bsf	(0+(7/8)+(c:4082)),c,(7)&7	;volatile
   842                           	line	1027
   843                           ;main.c: 1027: }
   844  0023EC                     i2l1052:
   845                           			; BSR set to: ?
   846                           
   847  0023EC  C112  FFF5         	movff	??_my_isr+13,tablat+0
   848  0023F0  C111  FFF8         	movff	??_my_isr+12,tblptru+0
   849  0023F4  C110  FFF7         	movff	??_my_isr+11,tblptrh+0
   850  0023F8  C10F  FFF6         	movff	??_my_isr+10,tblptrl+0
   851  0023FC  C10E  FFF4         	movff	??_my_isr+9,prodh+0
   852  002400  C10D  FFF3         	movff	??_my_isr+8,prodl+0
   853  002404  C10C  FFDA         	movff	??_my_isr+7,fsr2h+0
   854  002408  C10B  FFD9         	movff	??_my_isr+6,fsr2l+0
   855  00240C  C10A  FFE2         	movff	??_my_isr+5,fsr1h+0
   856  002410  C109  FFE1         	movff	??_my_isr+4,fsr1l+0
   857  002414  C108  FFEA         	movff	??_my_isr+3,fsr0h+0
   858  002418  C107  FFE9         	movff	??_my_isr+2,fsr0l+0
   859  00241C  C106  FFFB         	movff	??_my_isr+1,pclat+1
   860  002420  C105  FFFA         	movff	??_my_isr+0,pclat+0
   861  002424  0011               	retfie f
   862                           	opt stack 0
   863                           GLOBAL __end_of_my_isr
   864  002426                     	__end_of_my_isr:
   865                           	FNSIZE	_my_isr,14,0
   866                           ; =============== function _my_isr ends ========
                                 ====
   867                           
   868                           	signat	_my_isr,88
   869                                   psect   text2,class=CODE,space=0,reloc=2
   870                           	global	intlevel2
   871                           
   872                           	opt lm
   873                           	FNBREAK _ToggleLeds,intlevel2
   874                           	global	_ToggleLeds
   875                           	global	??_ToggleLeds
   876                           	global	?_ToggleLeds
   877                           
   878                           ; *************** function _ToggleLeds *********
                                 ********
   879                           ; Defined at:
   880                           ;		line 286 in file "../code/main.c"
   881                           ; Parameters:
   882                           ;		None
   883                           ; Auto variables:
   884                           ;		None
   885                           ; Return value:
   886                           ;		type: void 
   887                           ;		size: 0
   888                           ; Registers used:
   889                           ;		wreg, status,2, status,0
   890                           ; Tracked objects:
   891                           ;		On entry : 0/0
   892                           ;		On exit  : 0/0
   893                           ;		Unchanged: 0/0
   894                           ; Data sizes:
   895                           ;		Autos:    0
   896                           ;		Params:   0
   897                           ;		Temp:     0
   898                           ;		Total:    0
   899                           ; This function calls:
   900                           ;		Nothing
   901                           ; This function is called by:
   902                           ;		_my_isr
   903                           ; This function uses a non-reentrant model
   904                           ; 
   905                           	file	"../code/main.c"
   906                           	line	286
   907  000000                     	__size_of_ToggleLeds	equ	__end_of_ToggleLeds-_T
                                 oggleLeds
   908                           ;main.c: 286: void ToggleLeds () {
   909                           	
   910  001398                     _ToggleLeds:		; BSR set to: ?
   911                           
   912                           	opt stack 30
   913                           	line	291
   914                           ;main.c: 291: if (led_array[4] == 1 && led_array
                                 [5] == 1 && led_array[6] == 1) {
   915  001398  0409               	decf	(0+((c:1)+08h)),c,w
   916  00139A  100A               	iorwf (1+((c:1)+08h)),c,w
   917                           
   918  00139C  A4D8               	btfss	status,2
   919  00139E  EFD3  F009         	goto	i2u7321
   920  0013A2  EFD5  F009         	goto	i2u7320
   921  0013A6                     i2u7321:
   922  0013A6  EFEF  F009         	goto	i2l872
   923  0013AA                     i2u7320:
   924  0013AA  040B               	decf	(0+((c:1)+0Ah)),c,w
   925  0013AC  100C               	iorwf (1+((c:1)+0Ah)),c,w
   926                           
   927  0013AE  A4D8               	btfss	status,2
   928  0013B0  EFDC  F009         	goto	i2u7331
   929  0013B4  EFDE  F009         	goto	i2u7330
   930  0013B8                     i2u7331:
   931  0013B8  EFEF  F009         	goto	i2l872
   932  0013BC                     i2u7330:
   933  0013BC  040D               	decf	(0+((c:1)+0Ch)),c,w
   934  0013BE  100E               	iorwf (1+((c:1)+0Ch)),c,w
   935                           
   936  0013C0  A4D8               	btfss	status,2
   937  0013C2  EFE5  F009         	goto	i2u7341
   938  0013C6  EFE7  F009         	goto	i2u7340
   939  0013CA                     i2u7341:
   940  0013CA  EFEF  F009         	goto	i2l872
   941  0013CE                     i2u7340:
   942                           	line	294
   943                           ;main.c: 294: LATA = 0b11101111;
   944  0013CE  0EEF               	movlw	low(0EFh)
   945  0013D0  6E89               	movwf	((c:3977)),c	;volatile
   946                           	line	296
   947                           ;main.c: 296: LATB = 0b11100000;
   948  0013D2  0EE0               	movlw	low(0E0h)
   949  0013D4  6E8A               	movwf	((c:3978)),c	;volatile
   950                           	line	298
   951                           ;main.c: 298: LATC = 0b00001111;
   952  0013D6  0E0F               	movlw	low(0Fh)
   953  0013D8  6E8B               	movwf	((c:3979)),c	;volatile
   954                           	line	299
   955                           ;main.c: 299: } else if (led_array[4] == 1 && le
                                 d_array[5] == 1 && led_array[7] == 1) {
   956  0013DA  EFC0  F010         	goto	i2l873
   957                           	
   958  0013DE                     i2l872:		; BSR set to: ?
   959                           
   960  0013DE  0409               	decf	(0+((c:1)+08h)),c,w
   961  0013E0  100A               	iorwf (1+((c:1)+08h)),c,w
   962                           
   963  0013E2  A4D8               	btfss	status,2
   964  0013E4  EFF6  F009         	goto	i2u7351
   965  0013E8  EFF8  F009         	goto	i2u7350
   966  0013EC                     i2u7351:
   967  0013EC  EF12  F00A         	goto	i2l874
   968  0013F0                     i2u7350:
   969  0013F0  040B               	decf	(0+((c:1)+0Ah)),c,w
   970  0013F2  100C               	iorwf (1+((c:1)+0Ah)),c,w
   971                           
   972  0013F4  A4D8               	btfss	status,2
   973  0013F6  EFFF  F009         	goto	i2u7361
   974  0013FA  EF01  F00A         	goto	i2u7360
   975  0013FE                     i2u7361:
   976  0013FE  EF12  F00A         	goto	i2l874
   977  001402                     i2u7360:
   978  001402  040F               	decf	(0+((c:1)+0Eh)),c,w
   979  001404  1010               	iorwf (1+((c:1)+0Eh)),c,w
   980                           
   981  001406  A4D8               	btfss	status,2
   982  001408  EF08  F00A         	goto	i2u7371
   983  00140C  EF0A  F00A         	goto	i2u7370
   984  001410                     i2u7371:
   985  001410  EF12  F00A         	goto	i2l874
   986  001414                     i2u7370:
   987                           	line	302
   988                           ;main.c: 302: LATA = 0b10111111;
   989  001414  0EBF               	movlw	low(0BFh)
   990  001416  6E89               	movwf	((c:3977)),c	;volatile
   991                           	line	304
   992                           ;main.c: 304: LATB = 0b11100000;
   993  001418  0EE0               	movlw	low(0E0h)
   994  00141A  6E8A               	movwf	((c:3978)),c	;volatile
   995                           	line	306
   996                           ;main.c: 306: LATC = 0b00001111;
   997  00141C  0E0F               	movlw	low(0Fh)
   998  00141E  6E8B               	movwf	((c:3979)),c	;volatile
   999                           	line	307
  1000                           ;main.c: 307: } else if (led_array[4] == 1 && le
                                 d_array[5] == 1 && led_array[8] == 1) {
  1001  001420  EFC0  F010         	goto	i2l873
  1002                           	
  1003  001424                     i2l874:		; BSR set to: ?
  1004                           
  1005  001424  0409               	decf	(0+((c:1)+08h)),c,w
  1006  001426  100A               	iorwf (1+((c:1)+08h)),c,w
  1007                           
  1008  001428  A4D8               	btfss	status,2
  1009  00142A  EF19  F00A         	goto	i2u7381
  1010  00142E  EF1B  F00A         	goto	i2u7380
  1011  001432                     i2u7381:
  1012  001432  EF34  F00A         	goto	i2l876
  1013  001436                     i2u7380:
  1014  001436  040B               	decf	(0+((c:1)+0Ah)),c,w
  1015  001438  100C               	iorwf (1+((c:1)+0Ah)),c,w
  1016                           
  1017  00143A  A4D8               	btfss	status,2
  1018  00143C  EF22  F00A         	goto	i2u7391
  1019  001440  EF24  F00A         	goto	i2u7390
  1020  001444                     i2u7391:
  1021  001444  EF34  F00A         	goto	i2l876
  1022  001448                     i2u7390:
  1023  001448  0411               	decf	(0+((c:1)+010h)),c,w
  1024  00144A  1012               	iorwf (1+((c:1)+010h)),c,w
  1025                           
  1026  00144C  A4D8               	btfss	status,2
  1027  00144E  EF2B  F00A         	goto	i2u7401
  1028  001452  EF2D  F00A         	goto	i2u7400
  1029  001456                     i2u7401:
  1030  001456  EF34  F00A         	goto	i2l876
  1031  00145A                     i2u7400:
  1032                           	line	310
  1033                           ;main.c: 310: LATA = 0b11111111;
  1034  00145A  6889               	setf	((c:3977)),c	;volatile
  1035                           	line	312
  1036                           ;main.c: 312: LATB = 0b11100000;
  1037  00145C  0EE0               	movlw	low(0E0h)
  1038  00145E  6E8A               	movwf	((c:3978)),c	;volatile
  1039                           	line	314
  1040                           ;main.c: 314: LATC = 0b00001110;
  1041  001460  0E0E               	movlw	low(0Eh)
  1042  001462  6E8B               	movwf	((c:3979)),c	;volatile
  1043                           	line	315
  1044                           ;main.c: 315: } else if (led_array[4] == 1 && le
                                 d_array[5] == 1 && led_array[9] == 1) {
  1045  001464  EFC0  F010         	goto	i2l873
  1046                           	
  1047  001468                     i2l876:		; BSR set to: ?
  1048                           
  1049  001468  0409               	decf	(0+((c:1)+08h)),c,w
  1050  00146A  100A               	iorwf (1+((c:1)+08h)),c,w
  1051                           
  1052  00146C  A4D8               	btfss	status,2
  1053  00146E  EF3B  F00A         	goto	i2u7411
  1054  001472  EF3D  F00A         	goto	i2u7410
  1055  001476                     i2u7411:
  1056  001476  EF56  F00A         	goto	i2l878
  1057  00147A                     i2u7410:
  1058  00147A  040B               	decf	(0+((c:1)+0Ah)),c,w
  1059  00147C  100C               	iorwf (1+((c:1)+0Ah)),c,w
  1060                           
  1061  00147E  A4D8               	btfss	status,2
  1062  001480  EF44  F00A         	goto	i2u7421
  1063  001484  EF46  F00A         	goto	i2u7420
  1064  001488                     i2u7421:
  1065  001488  EF56  F00A         	goto	i2l878
  1066  00148C                     i2u7420:
  1067  00148C  0413               	decf	(0+((c:1)+012h)),c,w
  1068  00148E  1014               	iorwf (1+((c:1)+012h)),c,w
  1069                           
  1070  001490  A4D8               	btfss	status,2
  1071  001492  EF4D  F00A         	goto	i2u7431
  1072  001496  EF4F  F00A         	goto	i2u7430
  1073  00149A                     i2u7431:
  1074  00149A  EF56  F00A         	goto	i2l878
  1075  00149E                     i2u7430:
  1076                           	line	318
  1077                           ;main.c: 318: LATA = 0b11111111;
  1078  00149E  6889               	setf	((c:3977)),c	;volatile
  1079                           	line	320
  1080                           ;main.c: 320: LATB = 0b11100000;
  1081  0014A0  0EE0               	movlw	low(0E0h)
  1082  0014A2  6E8A               	movwf	((c:3978)),c	;volatile
  1083                           	line	322
  1084                           ;main.c: 322: LATC = 0b00001101;
  1085  0014A4  0E0D               	movlw	low(0Dh)
  1086  0014A6  6E8B               	movwf	((c:3979)),c	;volatile
  1087                           	line	323
  1088                           ;main.c: 323: } else if (led_array[4] == 1 && le
                                 d_array[5] == 1 && led_array[10] == 1) {
  1089  0014A8  EFC0  F010         	goto	i2l873
  1090                           	
  1091  0014AC                     i2l878:		; BSR set to: ?
  1092                           
  1093  0014AC  0409               	decf	(0+((c:1)+08h)),c,w
  1094  0014AE  100A               	iorwf (1+((c:1)+08h)),c,w
  1095                           
  1096  0014B0  A4D8               	btfss	status,2
  1097  0014B2  EF5D  F00A         	goto	i2u7441
  1098  0014B6  EF5F  F00A         	goto	i2u7440
  1099  0014BA                     i2u7441:
  1100  0014BA  EF78  F00A         	goto	i2l880
  1101  0014BE                     i2u7440:
  1102  0014BE  040B               	decf	(0+((c:1)+0Ah)),c,w
  1103  0014C0  100C               	iorwf (1+((c:1)+0Ah)),c,w
  1104                           
  1105  0014C2  A4D8               	btfss	status,2
  1106  0014C4  EF66  F00A         	goto	i2u7451
  1107  0014C8  EF68  F00A         	goto	i2u7450
  1108  0014CC                     i2u7451:
  1109  0014CC  EF78  F00A         	goto	i2l880
  1110  0014D0                     i2u7450:
  1111  0014D0  0415               	decf	(0+((c:1)+014h)),c,w
  1112  0014D2  1016               	iorwf (1+((c:1)+014h)),c,w
  1113                           
  1114  0014D4  A4D8               	btfss	status,2
  1115  0014D6  EF6F  F00A         	goto	i2u7461
  1116  0014DA  EF71  F00A         	goto	i2u7460
  1117  0014DE                     i2u7461:
  1118  0014DE  EF78  F00A         	goto	i2l880
  1119  0014E2                     i2u7460:
  1120                           	line	326
  1121                           ;main.c: 326: LATA = 0b11111111;
  1122  0014E2  6889               	setf	((c:3977)),c	;volatile
  1123                           	line	328
  1124                           ;main.c: 328: LATB = 0b01100000;
  1125  0014E4  0E60               	movlw	low(060h)
  1126  0014E6  6E8A               	movwf	((c:3978)),c	;volatile
  1127                           	line	330
  1128                           ;main.c: 330: LATC = 0b00001111;
  1129  0014E8  0E0F               	movlw	low(0Fh)
  1130  0014EA  6E8B               	movwf	((c:3979)),c	;volatile
  1131                           	line	331
  1132                           ;main.c: 331: } else if (led_array[4] == 1 && le
                                 d_array[5] == 1 && led_array[11] == 1) {
  1133  0014EC  EFC0  F010         	goto	i2l873
  1134                           	
  1135  0014F0                     i2l880:		; BSR set to: ?
  1136                           
  1137  0014F0  0409               	decf	(0+((c:1)+08h)),c,w
  1138  0014F2  100A               	iorwf (1+((c:1)+08h)),c,w
  1139                           
  1140  0014F4  A4D8               	btfss	status,2
  1141  0014F6  EF7F  F00A         	goto	i2u7471
  1142  0014FA  EF81  F00A         	goto	i2u7470
  1143  0014FE                     i2u7471:
  1144  0014FE  EF9A  F00A         	goto	i2l882
  1145  001502                     i2u7470:
  1146  001502  040B               	decf	(0+((c:1)+0Ah)),c,w
  1147  001504  100C               	iorwf (1+((c:1)+0Ah)),c,w
  1148                           
  1149  001506  A4D8               	btfss	status,2
  1150  001508  EF88  F00A         	goto	i2u7481
  1151  00150C  EF8A  F00A         	goto	i2u7480
  1152  001510                     i2u7481:
  1153  001510  EF9A  F00A         	goto	i2l882
  1154  001514                     i2u7480:
  1155  001514  0417               	decf	(0+((c:1)+016h)),c,w
  1156  001516  1018               	iorwf (1+((c:1)+016h)),c,w
  1157                           
  1158  001518  A4D8               	btfss	status,2
  1159  00151A  EF91  F00A         	goto	i2u7491
  1160  00151E  EF93  F00A         	goto	i2u7490
  1161  001522                     i2u7491:
  1162  001522  EF9A  F00A         	goto	i2l882
  1163  001526                     i2u7490:
  1164                           	line	334
  1165                           ;main.c: 334: LATA = 0b11111111;
  1166  001526  6889               	setf	((c:3977)),c	;volatile
  1167                           	line	336
  1168                           ;main.c: 336: LATB = 0b11100000;
  1169  001528  0EE0               	movlw	low(0E0h)
  1170  00152A  6E8A               	movwf	((c:3978)),c	;volatile
  1171                           	line	338
  1172                           ;main.c: 338: LATC = 0b00001011;
  1173  00152C  0E0B               	movlw	low(0Bh)
  1174  00152E  6E8B               	movwf	((c:3979)),c	;volatile
  1175                           	line	339
  1176                           ;main.c: 339: } else if (led_array[4] == 1 && le
                                 d_array[5] == 1 && led_array[12] == 1) {
  1177  001530  EFC0  F010         	goto	i2l873
  1178                           	
  1179  001534                     i2l882:		; BSR set to: ?
  1180                           
  1181  001534  0409               	decf	(0+((c:1)+08h)),c,w
  1182  001536  100A               	iorwf (1+((c:1)+08h)),c,w
  1183                           
  1184  001538  A4D8               	btfss	status,2
  1185  00153A  EFA1  F00A         	goto	i2u7501
  1186  00153E  EFA3  F00A         	goto	i2u7500
  1187  001542                     i2u7501:
  1188  001542  EFBC  F00A         	goto	i2l884
  1189  001546                     i2u7500:
  1190  001546  040B               	decf	(0+((c:1)+0Ah)),c,w
  1191  001548  100C               	iorwf (1+((c:1)+0Ah)),c,w
  1192                           
  1193  00154A  A4D8               	btfss	status,2
  1194  00154C  EFAA  F00A         	goto	i2u7511
  1195  001550  EFAC  F00A         	goto	i2u7510
  1196  001554                     i2u7511:
  1197  001554  EFBC  F00A         	goto	i2l884
  1198  001558                     i2u7510:
  1199  001558  0419               	decf	(0+((c:1)+018h)),c,w
  1200  00155A  101A               	iorwf (1+((c:1)+018h)),c,w
  1201                           
  1202  00155C  A4D8               	btfss	status,2
  1203  00155E  EFB3  F00A         	goto	i2u7521
  1204  001562  EFB5  F00A         	goto	i2u7520
  1205  001566                     i2u7521:
  1206  001566  EFBC  F00A         	goto	i2l884
  1207  00156A                     i2u7520:
  1208                           	line	342
  1209                           ;main.c: 342: LATA = 0b11111111;
  1210  00156A  6889               	setf	((c:3977)),c	;volatile
  1211                           	line	344
  1212                           ;main.c: 344: LATB = 0b11100000;
  1213  00156C  0EE0               	movlw	low(0E0h)
  1214  00156E  6E8A               	movwf	((c:3978)),c	;volatile
  1215                           	line	346
  1216                           ;main.c: 346: LATC = 0b00000111;
  1217  001570  0E07               	movlw	low(07h)
  1218  001572  6E8B               	movwf	((c:3979)),c	;volatile
  1219                           	line	348
  1220                           ;main.c: 348: } else if (led_array[4] == 1 && le
                                 d_array[6] == 1) {
  1221  001574  EFC0  F010         	goto	i2l873
  1222                           	
  1223  001578                     i2l884:		; BSR set to: ?
  1224                           
  1225  001578  0409               	decf	(0+((c:1)+08h)),c,w
  1226  00157A  100A               	iorwf (1+((c:1)+08h)),c,w
  1227                           
  1228  00157C  A4D8               	btfss	status,2
  1229  00157E  EFC3  F00A         	goto	i2u7531
  1230  001582  EFC5  F00A         	goto	i2u7530
  1231  001586                     i2u7531:
  1232  001586  EFD6  F00A         	goto	i2l886
  1233  00158A                     i2u7530:
  1234  00158A  040D               	decf	(0+((c:1)+0Ch)),c,w
  1235  00158C  100E               	iorwf (1+((c:1)+0Ch)),c,w
  1236                           
  1237  00158E  A4D8               	btfss	status,2
  1238  001590  EFCC  F00A         	goto	i2u7541
  1239  001594  EFCE  F00A         	goto	i2u7540
  1240  001598                     i2u7541:
  1241  001598  EFD6  F00A         	goto	i2l886
  1242  00159C                     i2u7540:
  1243                           	line	351
  1244                           ;main.c: 351: LATA = 0b11101111;
  1245  00159C  0EEF               	movlw	low(0EFh)
  1246  00159E  6E89               	movwf	((c:3977)),c	;volatile
  1247                           	line	353
  1248                           ;main.c: 353: LATB = 0b11000000;
  1249  0015A0  0EC0               	movlw	low(0C0h)
  1250  0015A2  6E8A               	movwf	((c:3978)),c	;volatile
  1251                           	line	355
  1252                           ;main.c: 355: LATC = 0b00001111;
  1253  0015A4  0E0F               	movlw	low(0Fh)
  1254  0015A6  6E8B               	movwf	((c:3979)),c	;volatile
  1255                           	line	356
  1256                           ;main.c: 356: } else if (led_array[4] == 1 && le
                                 d_array[7] == 1) {
  1257  0015A8  EFC0  F010         	goto	i2l873
  1258                           	
  1259  0015AC                     i2l886:		; BSR set to: ?
  1260                           
  1261  0015AC  0409               	decf	(0+((c:1)+08h)),c,w
  1262  0015AE  100A               	iorwf (1+((c:1)+08h)),c,w
  1263                           
  1264  0015B0  A4D8               	btfss	status,2
  1265  0015B2  EFDD  F00A         	goto	i2u7551
  1266  0015B6  EFDF  F00A         	goto	i2u7550
  1267  0015BA                     i2u7551:
  1268  0015BA  EFF0  F00A         	goto	i2l888
  1269  0015BE                     i2u7550:
  1270  0015BE  040F               	decf	(0+((c:1)+0Eh)),c,w
  1271  0015C0  1010               	iorwf (1+((c:1)+0Eh)),c,w
  1272                           
  1273  0015C2  A4D8               	btfss	status,2
  1274  0015C4  EFE6  F00A         	goto	i2u7561
  1275  0015C8  EFE8  F00A         	goto	i2u7560
  1276  0015CC                     i2u7561:
  1277  0015CC  EFF0  F00A         	goto	i2l888
  1278  0015D0                     i2u7560:
  1279                           	line	359
  1280                           ;main.c: 359: LATA = 0b10111111;
  1281  0015D0  0EBF               	movlw	low(0BFh)
  1282  0015D2  6E89               	movwf	((c:3977)),c	;volatile
  1283                           	line	361
  1284                           ;main.c: 361: LATB = 0b11000000;
  1285  0015D4  0EC0               	movlw	low(0C0h)
  1286  0015D6  6E8A               	movwf	((c:3978)),c	;volatile
  1287                           	line	363
  1288                           ;main.c: 363: LATC = 0b00001111;
  1289  0015D8  0E0F               	movlw	low(0Fh)
  1290  0015DA  6E8B               	movwf	((c:3979)),c	;volatile
  1291                           	line	364
  1292                           ;main.c: 364: } else if (led_array[4] == 1 && le
                                 d_array[8] == 1) {
  1293  0015DC  EFC0  F010         	goto	i2l873
  1294                           	
  1295  0015E0                     i2l888:		; BSR set to: ?
  1296                           
  1297  0015E0  0409               	decf	(0+((c:1)+08h)),c,w
  1298  0015E2  100A               	iorwf (1+((c:1)+08h)),c,w
  1299                           
  1300  0015E4  A4D8               	btfss	status,2
  1301  0015E6  EFF7  F00A         	goto	i2u7571
  1302  0015EA  EFF9  F00A         	goto	i2u7570
  1303  0015EE                     i2u7571:
  1304  0015EE  EF09  F00B         	goto	i2l890
  1305  0015F2                     i2u7570:
  1306  0015F2  0411               	decf	(0+((c:1)+010h)),c,w
  1307  0015F4  1012               	iorwf (1+((c:1)+010h)),c,w
  1308                           
  1309  0015F6  A4D8               	btfss	status,2
  1310  0015F8  EF00  F00B         	goto	i2u7581
  1311  0015FC  EF02  F00B         	goto	i2u7580
  1312  001600                     i2u7581:
  1313  001600  EF09  F00B         	goto	i2l890
  1314  001604                     i2u7580:
  1315                           	line	367
  1316                           ;main.c: 367: LATA = 0b11111111;
  1317  001604  6889               	setf	((c:3977)),c	;volatile
  1318                           	line	369
  1319                           ;main.c: 369: LATB = 0b11000000;
  1320  001606  0EC0               	movlw	low(0C0h)
  1321  001608  6E8A               	movwf	((c:3978)),c	;volatile
  1322                           	line	371
  1323                           ;main.c: 371: LATC = 0b00001110;
  1324  00160A  0E0E               	movlw	low(0Eh)
  1325  00160C  6E8B               	movwf	((c:3979)),c	;volatile
  1326                           	line	372
  1327                           ;main.c: 372: } else if (led_array[4] == 1 && le
                                 d_array[9] == 1) {
  1328  00160E  EFC0  F010         	goto	i2l873
  1329                           	
  1330  001612                     i2l890:		; BSR set to: ?
  1331                           
  1332  001612  0409               	decf	(0+((c:1)+08h)),c,w
  1333  001614  100A               	iorwf (1+((c:1)+08h)),c,w
  1334                           
  1335  001616  A4D8               	btfss	status,2
  1336  001618  EF10  F00B         	goto	i2u7591
  1337  00161C  EF12  F00B         	goto	i2u7590
  1338  001620                     i2u7591:
  1339  001620  EF22  F00B         	goto	i2l892
  1340  001624                     i2u7590:
  1341  001624  0413               	decf	(0+((c:1)+012h)),c,w
  1342  001626  1014               	iorwf (1+((c:1)+012h)),c,w
  1343                           
  1344  001628  A4D8               	btfss	status,2
  1345  00162A  EF19  F00B         	goto	i2u7601
  1346  00162E  EF1B  F00B         	goto	i2u7600
  1347  001632                     i2u7601:
  1348  001632  EF22  F00B         	goto	i2l892
  1349  001636                     i2u7600:
  1350                           	line	375
  1351                           ;main.c: 375: LATA = 0b11111111;
  1352  001636  6889               	setf	((c:3977)),c	;volatile
  1353                           	line	377
  1354                           ;main.c: 377: LATB = 0b11000000;
  1355  001638  0EC0               	movlw	low(0C0h)
  1356  00163A  6E8A               	movwf	((c:3978)),c	;volatile
  1357                           	line	379
  1358                           ;main.c: 379: LATC = 0b00001101;
  1359  00163C  0E0D               	movlw	low(0Dh)
  1360  00163E  6E8B               	movwf	((c:3979)),c	;volatile
  1361                           	line	381
  1362                           ;main.c: 381: } else if (led_array[4] == 1 && le
                                 d_array[10] == 1) {
  1363  001640  EFC0  F010         	goto	i2l873
  1364                           	
  1365  001644                     i2l892:		; BSR set to: ?
  1366                           
  1367  001644  0409               	decf	(0+((c:1)+08h)),c,w
  1368  001646  100A               	iorwf (1+((c:1)+08h)),c,w
  1369                           
  1370  001648  A4D8               	btfss	status,2
  1371  00164A  EF29  F00B         	goto	i2u7611
  1372  00164E  EF2B  F00B         	goto	i2u7610
  1373  001652                     i2u7611:
  1374  001652  EF3B  F00B         	goto	i2l894
  1375  001656                     i2u7610:
  1376  001656  0415               	decf	(0+((c:1)+014h)),c,w
  1377  001658  1016               	iorwf (1+((c:1)+014h)),c,w
  1378                           
  1379  00165A  A4D8               	btfss	status,2
  1380  00165C  EF32  F00B         	goto	i2u7621
  1381  001660  EF34  F00B         	goto	i2u7620
  1382  001664                     i2u7621:
  1383  001664  EF3B  F00B         	goto	i2l894
  1384  001668                     i2u7620:
  1385                           	line	384
  1386                           ;main.c: 384: LATA = 0b11111111;
  1387  001668  6889               	setf	((c:3977)),c	;volatile
  1388                           	line	386
  1389                           ;main.c: 386: LATB = 0b01000000;
  1390  00166A  0E40               	movlw	low(040h)
  1391  00166C  6E8A               	movwf	((c:3978)),c	;volatile
  1392                           	line	388
  1393                           ;main.c: 388: LATC = 0b00001111;
  1394  00166E  0E0F               	movlw	low(0Fh)
  1395  001670  6E8B               	movwf	((c:3979)),c	;volatile
  1396                           	line	390
  1397                           ;main.c: 390: } else if (led_array[4] == 1 && le
                                 d_array[11] == 1) {
  1398  001672  EFC0  F010         	goto	i2l873
  1399                           	
  1400  001676                     i2l894:		; BSR set to: ?
  1401                           
  1402  001676  0409               	decf	(0+((c:1)+08h)),c,w
  1403  001678  100A               	iorwf (1+((c:1)+08h)),c,w
  1404                           
  1405  00167A  A4D8               	btfss	status,2
  1406  00167C  EF42  F00B         	goto	i2u7631
  1407  001680  EF44  F00B         	goto	i2u7630
  1408  001684                     i2u7631:
  1409  001684  EF54  F00B         	goto	i2l896
  1410  001688                     i2u7630:
  1411  001688  0417               	decf	(0+((c:1)+016h)),c,w
  1412  00168A  1018               	iorwf (1+((c:1)+016h)),c,w
  1413                           
  1414  00168C  A4D8               	btfss	status,2
  1415  00168E  EF4B  F00B         	goto	i2u7641
  1416  001692  EF4D  F00B         	goto	i2u7640
  1417  001696                     i2u7641:
  1418  001696  EF54  F00B         	goto	i2l896
  1419  00169A                     i2u7640:
  1420                           	line	393
  1421                           ;main.c: 393: LATA = 0b11111111;
  1422  00169A  6889               	setf	((c:3977)),c	;volatile
  1423                           	line	395
  1424                           ;main.c: 395: LATB = 0b11000000;
  1425  00169C  0EC0               	movlw	low(0C0h)
  1426  00169E  6E8A               	movwf	((c:3978)),c	;volatile
  1427                           	line	397
  1428                           ;main.c: 397: LATC = 0b00001011;
  1429  0016A0  0E0B               	movlw	low(0Bh)
  1430  0016A2  6E8B               	movwf	((c:3979)),c	;volatile
  1431                           	line	399
  1432                           ;main.c: 399: } else if (led_array[4] == 1 && le
                                 d_array[12] == 1) {
  1433  0016A4  EFC0  F010         	goto	i2l873
  1434                           	
  1435  0016A8                     i2l896:		; BSR set to: ?
  1436                           
  1437  0016A8  0409               	decf	(0+((c:1)+08h)),c,w
  1438  0016AA  100A               	iorwf (1+((c:1)+08h)),c,w
  1439                           
  1440  0016AC  A4D8               	btfss	status,2
  1441  0016AE  EF5B  F00B         	goto	i2u7651
  1442  0016B2  EF5D  F00B         	goto	i2u7650
  1443  0016B6                     i2u7651:
  1444  0016B6  EF6D  F00B         	goto	i2l898
  1445  0016BA                     i2u7650:
  1446  0016BA  0419               	decf	(0+((c:1)+018h)),c,w
  1447  0016BC  101A               	iorwf (1+((c:1)+018h)),c,w
  1448                           
  1449  0016BE  A4D8               	btfss	status,2
  1450  0016C0  EF64  F00B         	goto	i2u7661
  1451  0016C4  EF66  F00B         	goto	i2u7660
  1452  0016C8                     i2u7661:
  1453  0016C8  EF6D  F00B         	goto	i2l898
  1454  0016CC                     i2u7660:
  1455                           	line	402
  1456                           ;main.c: 402: LATA = 0b11111111;
  1457  0016CC  6889               	setf	((c:3977)),c	;volatile
  1458                           	line	404
  1459                           ;main.c: 404: LATB = 0b11000000;
  1460  0016CE  0EC0               	movlw	low(0C0h)
  1461  0016D0  6E8A               	movwf	((c:3978)),c	;volatile
  1462                           	line	406
  1463                           ;main.c: 406: LATC = 0b00000111;
  1464  0016D2  0E07               	movlw	low(07h)
  1465  0016D4  6E8B               	movwf	((c:3979)),c	;volatile
  1466                           	line	408
  1467                           ;main.c: 408: } else if (led_array[5] == 1 && le
                                 d_array[6] == 1) {
  1468  0016D6  EFC0  F010         	goto	i2l873
  1469                           	
  1470  0016DA                     i2l898:		; BSR set to: ?
  1471                           
  1472  0016DA  040B               	decf	(0+((c:1)+0Ah)),c,w
  1473  0016DC  100C               	iorwf (1+((c:1)+0Ah)),c,w
  1474                           
  1475  0016DE  A4D8               	btfss	status,2
  1476  0016E0  EF74  F00B         	goto	i2u7671
  1477  0016E4  EF76  F00B         	goto	i2u7670
  1478  0016E8                     i2u7671:
  1479  0016E8  EF87  F00B         	goto	i2l900
  1480  0016EC                     i2u7670:
  1481  0016EC  040D               	decf	(0+((c:1)+0Ch)),c,w
  1482  0016EE  100E               	iorwf (1+((c:1)+0Ch)),c,w
  1483                           
  1484  0016F0  A4D8               	btfss	status,2
  1485  0016F2  EF7D  F00B         	goto	i2u7681
  1486  0016F6  EF7F  F00B         	goto	i2u7680
  1487  0016FA                     i2u7681:
  1488  0016FA  EF87  F00B         	goto	i2l900
  1489  0016FE                     i2u7680:
  1490                           	line	411
  1491                           ;main.c: 411: LATA = 0b11101111;
  1492  0016FE  0EEF               	movlw	low(0EFh)
  1493  001700  6E89               	movwf	((c:3977)),c	;volatile
  1494                           	line	413
  1495                           ;main.c: 413: LATB = 0b10100000;
  1496  001702  0EA0               	movlw	low(0A0h)
  1497  001704  6E8A               	movwf	((c:3978)),c	;volatile
  1498                           	line	415
  1499                           ;main.c: 415: LATC = 0b00001111;
  1500  001706  0E0F               	movlw	low(0Fh)
  1501  001708  6E8B               	movwf	((c:3979)),c	;volatile
  1502                           	line	417
  1503                           ;main.c: 417: } else if (led_array[5] == 1 && le
                                 d_array[7] == 1) {
  1504  00170A  EFC0  F010         	goto	i2l873
  1505                           	
  1506  00170E                     i2l900:		; BSR set to: ?
  1507                           
  1508  00170E  040B               	decf	(0+((c:1)+0Ah)),c,w
  1509  001710  100C               	iorwf (1+((c:1)+0Ah)),c,w
  1510                           
  1511  001712  A4D8               	btfss	status,2
  1512  001714  EF8E  F00B         	goto	i2u7691
  1513  001718  EF90  F00B         	goto	i2u7690
  1514  00171C                     i2u7691:
  1515  00171C  EFA1  F00B         	goto	i2l902
  1516  001720                     i2u7690:
  1517  001720  040F               	decf	(0+((c:1)+0Eh)),c,w
  1518  001722  1010               	iorwf (1+((c:1)+0Eh)),c,w
  1519                           
  1520  001724  A4D8               	btfss	status,2
  1521  001726  EF97  F00B         	goto	i2u7701
  1522  00172A  EF99  F00B         	goto	i2u7700
  1523  00172E                     i2u7701:
  1524  00172E  EFA1  F00B         	goto	i2l902
  1525  001732                     i2u7700:
  1526                           	line	420
  1527                           ;main.c: 420: LATA = 0b10111111;
  1528  001732  0EBF               	movlw	low(0BFh)
  1529  001734  6E89               	movwf	((c:3977)),c	;volatile
  1530                           	line	422
  1531                           ;main.c: 422: LATB = 0b10100000;
  1532  001736  0EA0               	movlw	low(0A0h)
  1533  001738  6E8A               	movwf	((c:3978)),c	;volatile
  1534                           	line	424
  1535                           ;main.c: 424: LATC = 0b00001111;
  1536  00173A  0E0F               	movlw	low(0Fh)
  1537  00173C  6E8B               	movwf	((c:3979)),c	;volatile
  1538                           	line	426
  1539                           ;main.c: 426: } else if (led_array[5] == 1 && le
                                 d_array[8] == 1) {
  1540  00173E  EFC0  F010         	goto	i2l873
  1541                           	
  1542  001742                     i2l902:		; BSR set to: ?
  1543                           
  1544  001742  040B               	decf	(0+((c:1)+0Ah)),c,w
  1545  001744  100C               	iorwf (1+((c:1)+0Ah)),c,w
  1546                           
  1547  001746  A4D8               	btfss	status,2
  1548  001748  EFA8  F00B         	goto	i2u7711
  1549  00174C  EFAA  F00B         	goto	i2u7710
  1550  001750                     i2u7711:
  1551  001750  EFBA  F00B         	goto	i2l904
  1552  001754                     i2u7710:
  1553  001754  0411               	decf	(0+((c:1)+010h)),c,w
  1554  001756  1012               	iorwf (1+((c:1)+010h)),c,w
  1555                           
  1556  001758  A4D8               	btfss	status,2
  1557  00175A  EFB1  F00B         	goto	i2u7721
  1558  00175E  EFB3  F00B         	goto	i2u7720
  1559  001762                     i2u7721:
  1560  001762  EFBA  F00B         	goto	i2l904
  1561  001766                     i2u7720:
  1562                           	line	429
  1563                           ;main.c: 429: LATA = 0b11111111;
  1564  001766  6889               	setf	((c:3977)),c	;volatile
  1565                           	line	431
  1566                           ;main.c: 431: LATB = 0b10100000;
  1567  001768  0EA0               	movlw	low(0A0h)
  1568  00176A  6E8A               	movwf	((c:3978)),c	;volatile
  1569                           	line	433
  1570                           ;main.c: 433: LATC = 0b00001110;
  1571  00176C  0E0E               	movlw	low(0Eh)
  1572  00176E  6E8B               	movwf	((c:3979)),c	;volatile
  1573                           	line	435
  1574                           ;main.c: 435: } else if (led_array[5] == 1 && le
                                 d_array[9] == 1) {
  1575  001770  EFC0  F010         	goto	i2l873
  1576                           	
  1577  001774                     i2l904:		; BSR set to: ?
  1578                           
  1579  001774  040B               	decf	(0+((c:1)+0Ah)),c,w
  1580  001776  100C               	iorwf (1+((c:1)+0Ah)),c,w
  1581                           
  1582  001778  A4D8               	btfss	status,2
  1583  00177A  EFC1  F00B         	goto	i2u7731
  1584  00177E  EFC3  F00B         	goto	i2u7730
  1585  001782                     i2u7731:
  1586  001782  EFD3  F00B         	goto	i2l906
  1587  001786                     i2u7730:
  1588  001786  0413               	decf	(0+((c:1)+012h)),c,w
  1589  001788  1014               	iorwf (1+((c:1)+012h)),c,w
  1590                           
  1591  00178A  A4D8               	btfss	status,2
  1592  00178C  EFCA  F00B         	goto	i2u7741
  1593  001790  EFCC  F00B         	goto	i2u7740
  1594  001794                     i2u7741:
  1595  001794  EFD3  F00B         	goto	i2l906
  1596  001798                     i2u7740:
  1597                           	line	438
  1598                           ;main.c: 438: LATA = 0b11111111;
  1599  001798  6889               	setf	((c:3977)),c	;volatile
  1600                           	line	440
  1601                           ;main.c: 440: LATB = 0b10100000;
  1602  00179A  0EA0               	movlw	low(0A0h)
  1603  00179C  6E8A               	movwf	((c:3978)),c	;volatile
  1604                           	line	442
  1605                           ;main.c: 442: LATC = 0b00001101;
  1606  00179E  0E0D               	movlw	low(0Dh)
  1607  0017A0  6E8B               	movwf	((c:3979)),c	;volatile
  1608                           	line	444
  1609                           ;main.c: 444: } else if (led_array[5] == 1 && le
                                 d_array[10] == 1) {
  1610  0017A2  EFC0  F010         	goto	i2l873
  1611                           	
  1612  0017A6                     i2l906:		; BSR set to: ?
  1613                           
  1614  0017A6  040B               	decf	(0+((c:1)+0Ah)),c,w
  1615  0017A8  100C               	iorwf (1+((c:1)+0Ah)),c,w
  1616                           
  1617  0017AA  A4D8               	btfss	status,2
  1618  0017AC  EFDA  F00B         	goto	i2u7751
  1619  0017B0  EFDC  F00B         	goto	i2u7750
  1620  0017B4                     i2u7751:
  1621  0017B4  EFEC  F00B         	goto	i2l908
  1622  0017B8                     i2u7750:
  1623  0017B8  0415               	decf	(0+((c:1)+014h)),c,w
  1624  0017BA  1016               	iorwf (1+((c:1)+014h)),c,w
  1625                           
  1626  0017BC  A4D8               	btfss	status,2
  1627  0017BE  EFE3  F00B         	goto	i2u7761
  1628  0017C2  EFE5  F00B         	goto	i2u7760
  1629  0017C6                     i2u7761:
  1630  0017C6  EFEC  F00B         	goto	i2l908
  1631  0017CA                     i2u7760:
  1632                           	line	447
  1633                           ;main.c: 447: LATA = 0b11111111;
  1634  0017CA  6889               	setf	((c:3977)),c	;volatile
  1635                           	line	449
  1636                           ;main.c: 449: LATB = 0b00100000;
  1637  0017CC  0E20               	movlw	low(020h)
  1638  0017CE  6E8A               	movwf	((c:3978)),c	;volatile
  1639                           	line	451
  1640                           ;main.c: 451: LATC = 0b00001111;
  1641  0017D0  0E0F               	movlw	low(0Fh)
  1642  0017D2  6E8B               	movwf	((c:3979)),c	;volatile
  1643                           	line	453
  1644                           ;main.c: 453: } else if (led_array[5] == 1 && le
                                 d_array[11] == 1) {
  1645  0017D4  EFC0  F010         	goto	i2l873
  1646                           	
  1647  0017D8                     i2l908:		; BSR set to: ?
  1648                           
  1649  0017D8  040B               	decf	(0+((c:1)+0Ah)),c,w
  1650  0017DA  100C               	iorwf (1+((c:1)+0Ah)),c,w
  1651                           
  1652  0017DC  A4D8               	btfss	status,2
  1653  0017DE  EFF3  F00B         	goto	i2u7771
  1654  0017E2  EFF5  F00B         	goto	i2u7770
  1655  0017E6                     i2u7771:
  1656  0017E6  EF05  F00C         	goto	i2l910
  1657  0017EA                     i2u7770:
  1658  0017EA  0417               	decf	(0+((c:1)+016h)),c,w
  1659  0017EC  1018               	iorwf (1+((c:1)+016h)),c,w
  1660                           
  1661  0017EE  A4D8               	btfss	status,2
  1662  0017F0  EFFC  F00B         	goto	i2u7781
  1663  0017F4  EFFE  F00B         	goto	i2u7780
  1664  0017F8                     i2u7781:
  1665  0017F8  EF05  F00C         	goto	i2l910
  1666  0017FC                     i2u7780:
  1667                           	line	456
  1668                           ;main.c: 456: LATA = 0b11111111;
  1669  0017FC  6889               	setf	((c:3977)),c	;volatile
  1670                           	line	458
  1671                           ;main.c: 458: LATB = 0b10100000;
  1672  0017FE  0EA0               	movlw	low(0A0h)
  1673  001800  6E8A               	movwf	((c:3978)),c	;volatile
  1674                           	line	460
  1675                           ;main.c: 460: LATC = 0b00001011;
  1676  001802  0E0B               	movlw	low(0Bh)
  1677  001804  6E8B               	movwf	((c:3979)),c	;volatile
  1678                           	line	462
  1679                           ;main.c: 462: } else if (led_array[5] == 1 && le
                                 d_array[12] == 1) {
  1680  001806  EFC0  F010         	goto	i2l873
  1681                           	
  1682  00180A                     i2l910:		; BSR set to: ?
  1683                           
  1684  00180A  040B               	decf	(0+((c:1)+0Ah)),c,w
  1685  00180C  100C               	iorwf (1+((c:1)+0Ah)),c,w
  1686                           
  1687  00180E  A4D8               	btfss	status,2
  1688  001810  EF0C  F00C         	goto	i2u7791
  1689  001814  EF0E  F00C         	goto	i2u7790
  1690  001818                     i2u7791:
  1691  001818  EF1E  F00C         	goto	i2l912
  1692  00181C                     i2u7790:
  1693  00181C  0419               	decf	(0+((c:1)+018h)),c,w
  1694  00181E  101A               	iorwf (1+((c:1)+018h)),c,w
  1695                           
  1696  001820  A4D8               	btfss	status,2
  1697  001822  EF15  F00C         	goto	i2u7801
  1698  001826  EF17  F00C         	goto	i2u7800
  1699  00182A                     i2u7801:
  1700  00182A  EF1E  F00C         	goto	i2l912
  1701  00182E                     i2u7800:
  1702                           	line	465
  1703                           ;main.c: 465: LATA = 0b11111111;
  1704  00182E  6889               	setf	((c:3977)),c	;volatile
  1705                           	line	467
  1706                           ;main.c: 467: LATB = 0b10100000;
  1707  001830  0EA0               	movlw	low(0A0h)
  1708  001832  6E8A               	movwf	((c:3978)),c	;volatile
  1709                           	line	469
  1710                           ;main.c: 469: LATC = 0b00000111;
  1711  001834  0E07               	movlw	low(07h)
  1712  001836  6E8B               	movwf	((c:3979)),c	;volatile
  1713                           	line	470
  1714                           ;main.c: 470: }
  1715  001838  EFC0  F010         	goto	i2l873
  1716                           	line	473
  1717                           	
  1718  00183C                     i2l912:		; BSR set to: ?
  1719                           
  1720                           ;main.c: 473: else if (led_array[2] == 1 && led_
                                 array[3] == 1 && led_array[6] == 1) {
  1721  00183C  0405               	decf	(0+((c:1)+04h)),c,w
  1722  00183E  1006               	iorwf (1+((c:1)+04h)),c,w
  1723                           
  1724  001840  A4D8               	btfss	status,2
  1725  001842  EF25  F00C         	goto	i2u7811
  1726  001846  EF27  F00C         	goto	i2u7810
  1727  00184A                     i2u7811:
  1728  00184A  EF41  F00C         	goto	i2l914
  1729  00184E                     i2u7810:
  1730  00184E  0407               	decf	(0+((c:1)+06h)),c,w
  1731  001850  1008               	iorwf (1+((c:1)+06h)),c,w
  1732                           
  1733  001852  A4D8               	btfss	status,2
  1734  001854  EF2E  F00C         	goto	i2u7821
  1735  001858  EF30  F00C         	goto	i2u7820
  1736  00185C                     i2u7821:
  1737  00185C  EF41  F00C         	goto	i2l914
  1738  001860                     i2u7820:
  1739  001860  040D               	decf	(0+((c:1)+0Ch)),c,w
  1740  001862  100E               	iorwf (1+((c:1)+0Ch)),c,w
  1741                           
  1742  001864  A4D8               	btfss	status,2
  1743  001866  EF37  F00C         	goto	i2u7831
  1744  00186A  EF39  F00C         	goto	i2u7830
  1745  00186E                     i2u7831:
  1746  00186E  EF41  F00C         	goto	i2l914
  1747  001872                     i2u7830:
  1748                           	line	476
  1749                           ;main.c: 476: LATA = 0b11101111;
  1750  001872  0EEF               	movlw	low(0EFh)
  1751  001874  6E89               	movwf	((c:3977)),c	;volatile
  1752                           	line	478
  1753                           ;main.c: 478: LATB = 0b10001100;
  1754  001876  0E8C               	movlw	low(08Ch)
  1755  001878  6E8A               	movwf	((c:3978)),c	;volatile
  1756                           	line	480
  1757                           ;main.c: 480: LATC = 0b00001111;
  1758  00187A  0E0F               	movlw	low(0Fh)
  1759  00187C  6E8B               	movwf	((c:3979)),c	;volatile
  1760                           	line	482
  1761                           ;main.c: 482: } else if (led_array[2] == 1 && le
                                 d_array[3] == 1 && led_array[7] == 1) {
  1762  00187E  EFC0  F010         	goto	i2l873
  1763                           	
  1764  001882                     i2l914:		; BSR set to: ?
  1765                           
  1766  001882  0405               	decf	(0+((c:1)+04h)),c,w
  1767  001884  1006               	iorwf (1+((c:1)+04h)),c,w
  1768                           
  1769  001886  A4D8               	btfss	status,2
  1770  001888  EF48  F00C         	goto	i2u7841
  1771  00188C  EF4A  F00C         	goto	i2u7840
  1772  001890                     i2u7841:
  1773  001890  EF64  F00C         	goto	i2l916
  1774  001894                     i2u7840:
  1775  001894  0407               	decf	(0+((c:1)+06h)),c,w
  1776  001896  1008               	iorwf (1+((c:1)+06h)),c,w
  1777                           
  1778  001898  A4D8               	btfss	status,2
  1779  00189A  EF51  F00C         	goto	i2u7851
  1780  00189E  EF53  F00C         	goto	i2u7850
  1781  0018A2                     i2u7851:
  1782  0018A2  EF64  F00C         	goto	i2l916
  1783  0018A6                     i2u7850:
  1784  0018A6  040F               	decf	(0+((c:1)+0Eh)),c,w
  1785  0018A8  1010               	iorwf (1+((c:1)+0Eh)),c,w
  1786                           
  1787  0018AA  A4D8               	btfss	status,2
  1788  0018AC  EF5A  F00C         	goto	i2u7861
  1789  0018B0  EF5C  F00C         	goto	i2u7860
  1790  0018B4                     i2u7861:
  1791  0018B4  EF64  F00C         	goto	i2l916
  1792  0018B8                     i2u7860:
  1793                           	line	485
  1794                           ;main.c: 485: LATA = 0b10111111;
  1795  0018B8  0EBF               	movlw	low(0BFh)
  1796  0018BA  6E89               	movwf	((c:3977)),c	;volatile
  1797                           	line	487
  1798                           ;main.c: 487: LATB = 0b10001100;
  1799  0018BC  0E8C               	movlw	low(08Ch)
  1800  0018BE  6E8A               	movwf	((c:3978)),c	;volatile
  1801                           	line	489
  1802                           ;main.c: 489: LATC = 0b00001111;
  1803  0018C0  0E0F               	movlw	low(0Fh)
  1804  0018C2  6E8B               	movwf	((c:3979)),c	;volatile
  1805                           	line	491
  1806                           ;main.c: 491: } else if (led_array[2] == 1 && le
                                 d_array[3] == 1 && led_array[8] == 1) {
  1807  0018C4  EFC0  F010         	goto	i2l873
  1808                           	
  1809  0018C8                     i2l916:		; BSR set to: ?
  1810                           
  1811  0018C8  0405               	decf	(0+((c:1)+04h)),c,w
  1812  0018CA  1006               	iorwf (1+((c:1)+04h)),c,w
  1813                           
  1814  0018CC  A4D8               	btfss	status,2
  1815  0018CE  EF6B  F00C         	goto	i2u7871
  1816  0018D2  EF6D  F00C         	goto	i2u7870
  1817  0018D6                     i2u7871:
  1818  0018D6  EF86  F00C         	goto	i2l918
  1819  0018DA                     i2u7870:
  1820  0018DA  0407               	decf	(0+((c:1)+06h)),c,w
  1821  0018DC  1008               	iorwf (1+((c:1)+06h)),c,w
  1822                           
  1823  0018DE  A4D8               	btfss	status,2
  1824  0018E0  EF74  F00C         	goto	i2u7881
  1825  0018E4  EF76  F00C         	goto	i2u7880
  1826  0018E8                     i2u7881:
  1827  0018E8  EF86  F00C         	goto	i2l918
  1828  0018EC                     i2u7880:
  1829  0018EC  0411               	decf	(0+((c:1)+010h)),c,w
  1830  0018EE  1012               	iorwf (1+((c:1)+010h)),c,w
  1831                           
  1832  0018F0  A4D8               	btfss	status,2
  1833  0018F2  EF7D  F00C         	goto	i2u7891
  1834  0018F6  EF7F  F00C         	goto	i2u7890
  1835  0018FA                     i2u7891:
  1836  0018FA  EF86  F00C         	goto	i2l918
  1837  0018FE                     i2u7890:
  1838                           	line	494
  1839                           ;main.c: 494: LATA = 0b11111111;
  1840  0018FE  6889               	setf	((c:3977)),c	;volatile
  1841                           	line	496
  1842                           ;main.c: 496: LATB = 0b10001100;
  1843  001900  0E8C               	movlw	low(08Ch)
  1844  001902  6E8A               	movwf	((c:3978)),c	;volatile
  1845                           	line	498
  1846                           ;main.c: 498: LATC = 0b00001110;
  1847  001904  0E0E               	movlw	low(0Eh)
  1848  001906  6E8B               	movwf	((c:3979)),c	;volatile
  1849                           	line	500
  1850                           ;main.c: 500: } else if (led_array[2] == 1 && le
                                 d_array[3] == 1 && led_array[9] == 1) {
  1851  001908  EFC0  F010         	goto	i2l873
  1852                           	
  1853  00190C                     i2l918:		; BSR set to: ?
  1854                           
  1855  00190C  0405               	decf	(0+((c:1)+04h)),c,w
  1856  00190E  1006               	iorwf (1+((c:1)+04h)),c,w
  1857                           
  1858  001910  A4D8               	btfss	status,2
  1859  001912  EF8D  F00C         	goto	i2u7901
  1860  001916  EF8F  F00C         	goto	i2u7900
  1861  00191A                     i2u7901:
  1862  00191A  EFA8  F00C         	goto	i2l920
  1863  00191E                     i2u7900:
  1864  00191E  0407               	decf	(0+((c:1)+06h)),c,w
  1865  001920  1008               	iorwf (1+((c:1)+06h)),c,w
  1866                           
  1867  001922  A4D8               	btfss	status,2
  1868  001924  EF96  F00C         	goto	i2u7911
  1869  001928  EF98  F00C         	goto	i2u7910
  1870  00192C                     i2u7911:
  1871  00192C  EFA8  F00C         	goto	i2l920
  1872  001930                     i2u7910:
  1873  001930  0413               	decf	(0+((c:1)+012h)),c,w
  1874  001932  1014               	iorwf (1+((c:1)+012h)),c,w
  1875                           
  1876  001934  A4D8               	btfss	status,2
  1877  001936  EF9F  F00C         	goto	i2u7921
  1878  00193A  EFA1  F00C         	goto	i2u7920
  1879  00193E                     i2u7921:
  1880  00193E  EFA8  F00C         	goto	i2l920
  1881  001942                     i2u7920:
  1882                           	line	503
  1883                           ;main.c: 503: LATA = 0b11111111;
  1884  001942  6889               	setf	((c:3977)),c	;volatile
  1885                           	line	505
  1886                           ;main.c: 505: LATB = 0b10001100;
  1887  001944  0E8C               	movlw	low(08Ch)
  1888  001946  6E8A               	movwf	((c:3978)),c	;volatile
  1889                           	line	507
  1890                           ;main.c: 507: LATC = 0b00001101;
  1891  001948  0E0D               	movlw	low(0Dh)
  1892  00194A  6E8B               	movwf	((c:3979)),c	;volatile
  1893                           	line	508
  1894                           ;main.c: 508: } else if (led_array[2] == 1 && le
                                 d_array[3] == 1 && led_array[10] == 1) {
  1895  00194C  EFC0  F010         	goto	i2l873
  1896                           	
  1897  001950                     i2l920:		; BSR set to: ?
  1898                           
  1899  001950  0405               	decf	(0+((c:1)+04h)),c,w
  1900  001952  1006               	iorwf (1+((c:1)+04h)),c,w
  1901                           
  1902  001954  A4D8               	btfss	status,2
  1903  001956  EFAF  F00C         	goto	i2u7931
  1904  00195A  EFB1  F00C         	goto	i2u7930
  1905  00195E                     i2u7931:
  1906  00195E  EFCA  F00C         	goto	i2l922
  1907  001962                     i2u7930:
  1908  001962  0407               	decf	(0+((c:1)+06h)),c,w
  1909  001964  1008               	iorwf (1+((c:1)+06h)),c,w
  1910                           
  1911  001966  A4D8               	btfss	status,2
  1912  001968  EFB8  F00C         	goto	i2u7941
  1913  00196C  EFBA  F00C         	goto	i2u7940
  1914  001970                     i2u7941:
  1915  001970  EFCA  F00C         	goto	i2l922
  1916  001974                     i2u7940:
  1917  001974  0415               	decf	(0+((c:1)+014h)),c,w
  1918  001976  1016               	iorwf (1+((c:1)+014h)),c,w
  1919                           
  1920  001978  A4D8               	btfss	status,2
  1921  00197A  EFC1  F00C         	goto	i2u7951
  1922  00197E  EFC3  F00C         	goto	i2u7950
  1923  001982                     i2u7951:
  1924  001982  EFCA  F00C         	goto	i2l922
  1925  001986                     i2u7950:
  1926                           	line	511
  1927                           ;main.c: 511: LATA = 0b11111111;
  1928  001986  6889               	setf	((c:3977)),c	;volatile
  1929                           	line	513
  1930                           ;main.c: 513: LATB = 0b00001100;
  1931  001988  0E0C               	movlw	low(0Ch)
  1932  00198A  6E8A               	movwf	((c:3978)),c	;volatile
  1933                           	line	515
  1934                           ;main.c: 515: LATC = 0b00001111;
  1935  00198C  0E0F               	movlw	low(0Fh)
  1936  00198E  6E8B               	movwf	((c:3979)),c	;volatile
  1937                           	line	516
  1938                           ;main.c: 516: } else if (led_array[2] == 1 && le
                                 d_array[3] == 1 && led_array[11] == 1) {
  1939  001990  EFC0  F010         	goto	i2l873
  1940                           	
  1941  001994                     i2l922:		; BSR set to: ?
  1942                           
  1943  001994  0405               	decf	(0+((c:1)+04h)),c,w
  1944  001996  1006               	iorwf (1+((c:1)+04h)),c,w
  1945                           
  1946  001998  A4D8               	btfss	status,2
  1947  00199A  EFD1  F00C         	goto	i2u7961
  1948  00199E  EFD3  F00C         	goto	i2u7960
  1949  0019A2                     i2u7961:
  1950  0019A2  EFEC  F00C         	goto	i2l924
  1951  0019A6                     i2u7960:
  1952  0019A6  0407               	decf	(0+((c:1)+06h)),c,w
  1953  0019A8  1008               	iorwf (1+((c:1)+06h)),c,w
  1954                           
  1955  0019AA  A4D8               	btfss	status,2
  1956  0019AC  EFDA  F00C         	goto	i2u7971
  1957  0019B0  EFDC  F00C         	goto	i2u7970
  1958  0019B4                     i2u7971:
  1959  0019B4  EFEC  F00C         	goto	i2l924
  1960  0019B8                     i2u7970:
  1961  0019B8  0417               	decf	(0+((c:1)+016h)),c,w
  1962  0019BA  1018               	iorwf (1+((c:1)+016h)),c,w
  1963                           
  1964  0019BC  A4D8               	btfss	status,2
  1965  0019BE  EFE3  F00C         	goto	i2u7981
  1966  0019C2  EFE5  F00C         	goto	i2u7980
  1967  0019C6                     i2u7981:
  1968  0019C6  EFEC  F00C         	goto	i2l924
  1969  0019CA                     i2u7980:
  1970                           	line	519
  1971                           ;main.c: 519: LATA = 0b11111111;
  1972  0019CA  6889               	setf	((c:3977)),c	;volatile
  1973                           	line	521
  1974                           ;main.c: 521: LATB = 0b10001100;
  1975  0019CC  0E8C               	movlw	low(08Ch)
  1976  0019CE  6E8A               	movwf	((c:3978)),c	;volatile
  1977                           	line	523
  1978                           ;main.c: 523: LATC = 0b00001011;
  1979  0019D0  0E0B               	movlw	low(0Bh)
  1980  0019D2  6E8B               	movwf	((c:3979)),c	;volatile
  1981                           	line	524
  1982                           ;main.c: 524: } else if (led_array[2] == 1 && le
                                 d_array[3] == 1 && led_array[12] == 1) {
  1983  0019D4  EFC0  F010         	goto	i2l873
  1984                           	
  1985  0019D8                     i2l924:		; BSR set to: ?
  1986                           
  1987  0019D8  0405               	decf	(0+((c:1)+04h)),c,w
  1988  0019DA  1006               	iorwf (1+((c:1)+04h)),c,w
  1989                           
  1990  0019DC  A4D8               	btfss	status,2
  1991  0019DE  EFF3  F00C         	goto	i2u7991
  1992  0019E2  EFF5  F00C         	goto	i2u7990
  1993  0019E6                     i2u7991:
  1994  0019E6  EF0E  F00D         	goto	i2l926
  1995  0019EA                     i2u7990:
  1996  0019EA  0407               	decf	(0+((c:1)+06h)),c,w
  1997  0019EC  1008               	iorwf (1+((c:1)+06h)),c,w
  1998                           
  1999  0019EE  A4D8               	btfss	status,2
  2000  0019F0  EFFC  F00C         	goto	i2u8001
  2001  0019F4  EFFE  F00C         	goto	i2u8000
  2002  0019F8                     i2u8001:
  2003  0019F8  EF0E  F00D         	goto	i2l926
  2004  0019FC                     i2u8000:
  2005  0019FC  0419               	decf	(0+((c:1)+018h)),c,w
  2006  0019FE  101A               	iorwf (1+((c:1)+018h)),c,w
  2007                           
  2008  001A00  A4D8               	btfss	status,2
  2009  001A02  EF05  F00D         	goto	i2u8011
  2010  001A06  EF07  F00D         	goto	i2u8010
  2011  001A0A                     i2u8011:
  2012  001A0A  EF0E  F00D         	goto	i2l926
  2013  001A0E                     i2u8010:
  2014                           	line	527
  2015                           ;main.c: 527: LATA = 0b11111111;
  2016  001A0E  6889               	setf	((c:3977)),c	;volatile
  2017                           	line	529
  2018                           ;main.c: 529: LATB = 0b10001100;
  2019  001A10  0E8C               	movlw	low(08Ch)
  2020  001A12  6E8A               	movwf	((c:3978)),c	;volatile
  2021                           	line	531
  2022                           ;main.c: 531: LATC = 0b00000111;
  2023  001A14  0E07               	movlw	low(07h)
  2024  001A16  6E8B               	movwf	((c:3979)),c	;volatile
  2025                           	line	532
  2026                           ;main.c: 532: } else if (led_array[2] == 1 && le
                                 d_array[6] == 1) {
  2027  001A18  EFC0  F010         	goto	i2l873
  2028                           	
  2029  001A1C                     i2l926:		; BSR set to: ?
  2030                           
  2031  001A1C  0405               	decf	(0+((c:1)+04h)),c,w
  2032  001A1E  1006               	iorwf (1+((c:1)+04h)),c,w
  2033                           
  2034  001A20  A4D8               	btfss	status,2
  2035  001A22  EF15  F00D         	goto	i2u8021
  2036  001A26  EF17  F00D         	goto	i2u8020
  2037  001A2A                     i2u8021:
  2038  001A2A  EF28  F00D         	goto	i2l928
  2039  001A2E                     i2u8020:
  2040  001A2E  040D               	decf	(0+((c:1)+0Ch)),c,w
  2041  001A30  100E               	iorwf (1+((c:1)+0Ch)),c,w
  2042                           
  2043  001A32  A4D8               	btfss	status,2
  2044  001A34  EF1E  F00D         	goto	i2u8031
  2045  001A38  EF20  F00D         	goto	i2u8030
  2046  001A3C                     i2u8031:
  2047  001A3C  EF28  F00D         	goto	i2l928
  2048  001A40                     i2u8030:
  2049                           	line	535
  2050                           ;main.c: 535: LATA = 0b11101111;
  2051  001A40  0EEF               	movlw	low(0EFh)
  2052  001A42  6E89               	movwf	((c:3977)),c	;volatile
  2053                           	line	537
  2054                           ;main.c: 537: LATB = 0b10000100;
  2055  001A44  0E84               	movlw	low(084h)
  2056  001A46  6E8A               	movwf	((c:3978)),c	;volatile
  2057                           	line	539
  2058                           ;main.c: 539: LATC = 0b00001111;
  2059  001A48  0E0F               	movlw	low(0Fh)
  2060  001A4A  6E8B               	movwf	((c:3979)),c	;volatile
  2061                           	line	541
  2062                           ;main.c: 541: } else if (led_array[2] == 1 && le
                                 d_array[7] == 1) {
  2063  001A4C  EFC0  F010         	goto	i2l873
  2064                           	
  2065  001A50                     i2l928:		; BSR set to: ?
  2066                           
  2067  001A50  0405               	decf	(0+((c:1)+04h)),c,w
  2068  001A52  1006               	iorwf (1+((c:1)+04h)),c,w
  2069                           
  2070  001A54  A4D8               	btfss	status,2
  2071  001A56  EF2F  F00D         	goto	i2u8041
  2072  001A5A  EF31  F00D         	goto	i2u8040
  2073  001A5E                     i2u8041:
  2074  001A5E  EF42  F00D         	goto	i2l930
  2075  001A62                     i2u8040:
  2076  001A62  040F               	decf	(0+((c:1)+0Eh)),c,w
  2077  001A64  1010               	iorwf (1+((c:1)+0Eh)),c,w
  2078                           
  2079  001A66  A4D8               	btfss	status,2
  2080  001A68  EF38  F00D         	goto	i2u8051
  2081  001A6C  EF3A  F00D         	goto	i2u8050
  2082  001A70                     i2u8051:
  2083  001A70  EF42  F00D         	goto	i2l930
  2084  001A74                     i2u8050:
  2085                           	line	544
  2086                           ;main.c: 544: LATA = 0b10111111;
  2087  001A74  0EBF               	movlw	low(0BFh)
  2088  001A76  6E89               	movwf	((c:3977)),c	;volatile
  2089                           	line	546
  2090                           ;main.c: 546: LATB = 0b10000100;
  2091  001A78  0E84               	movlw	low(084h)
  2092  001A7A  6E8A               	movwf	((c:3978)),c	;volatile
  2093                           	line	548
  2094                           ;main.c: 548: LATC = 0b00001111;
  2095  001A7C  0E0F               	movlw	low(0Fh)
  2096  001A7E  6E8B               	movwf	((c:3979)),c	;volatile
  2097                           	line	550
  2098                           ;main.c: 550: } else if (led_array[2] == 1 && le
                                 d_array[8] == 1) {
  2099  001A80  EFC0  F010         	goto	i2l873
  2100                           	
  2101  001A84                     i2l930:		; BSR set to: ?
  2102                           
  2103  001A84  0405               	decf	(0+((c:1)+04h)),c,w
  2104  001A86  1006               	iorwf (1+((c:1)+04h)),c,w
  2105                           
  2106  001A88  A4D8               	btfss	status,2
  2107  001A8A  EF49  F00D         	goto	i2u8061
  2108  001A8E  EF4B  F00D         	goto	i2u8060
  2109  001A92                     i2u8061:
  2110  001A92  EF5B  F00D         	goto	i2l932
  2111  001A96                     i2u8060:
  2112  001A96  0411               	decf	(0+((c:1)+010h)),c,w
  2113  001A98  1012               	iorwf (1+((c:1)+010h)),c,w
  2114                           
  2115  001A9A  A4D8               	btfss	status,2
  2116  001A9C  EF52  F00D         	goto	i2u8071
  2117  001AA0  EF54  F00D         	goto	i2u8070
  2118  001AA4                     i2u8071:
  2119  001AA4  EF5B  F00D         	goto	i2l932
  2120  001AA8                     i2u8070:
  2121                           	line	553
  2122                           ;main.c: 553: LATA = 0b11111111;
  2123  001AA8  6889               	setf	((c:3977)),c	;volatile
  2124                           	line	555
  2125                           ;main.c: 555: LATB = 0b10000100;
  2126  001AAA  0E84               	movlw	low(084h)
  2127  001AAC  6E8A               	movwf	((c:3978)),c	;volatile
  2128                           	line	557
  2129                           ;main.c: 557: LATC = 0b00001110;
  2130  001AAE  0E0E               	movlw	low(0Eh)
  2131  001AB0  6E8B               	movwf	((c:3979)),c	;volatile
  2132                           	line	559
  2133                           ;main.c: 559: } else if (led_array[2] == 1 && le
                                 d_array[9] == 1) {
  2134  001AB2  EFC0  F010         	goto	i2l873
  2135                           	
  2136  001AB6                     i2l932:		; BSR set to: ?
  2137                           
  2138  001AB6  0405               	decf	(0+((c:1)+04h)),c,w
  2139  001AB8  1006               	iorwf (1+((c:1)+04h)),c,w
  2140                           
  2141  001ABA  A4D8               	btfss	status,2
  2142  001ABC  EF62  F00D         	goto	i2u8081
  2143  001AC0  EF64  F00D         	goto	i2u8080
  2144  001AC4                     i2u8081:
  2145  001AC4  EF74  F00D         	goto	i2l934
  2146  001AC8                     i2u8080:
  2147  001AC8  0413               	decf	(0+((c:1)+012h)),c,w
  2148  001ACA  1014               	iorwf (1+((c:1)+012h)),c,w
  2149                           
  2150  001ACC  A4D8               	btfss	status,2
  2151  001ACE  EF6B  F00D         	goto	i2u8091
  2152  001AD2  EF6D  F00D         	goto	i2u8090
  2153  001AD6                     i2u8091:
  2154  001AD6  EF74  F00D         	goto	i2l934
  2155  001ADA                     i2u8090:
  2156                           	line	562
  2157                           ;main.c: 562: LATA = 0b11111111;
  2158  001ADA  6889               	setf	((c:3977)),c	;volatile
  2159                           	line	564
  2160                           ;main.c: 564: LATB = 0b10000100;
  2161  001ADC  0E84               	movlw	low(084h)
  2162  001ADE  6E8A               	movwf	((c:3978)),c	;volatile
  2163                           	line	566
  2164                           ;main.c: 566: LATC = 0b00001101;
  2165  001AE0  0E0D               	movlw	low(0Dh)
  2166  001AE2  6E8B               	movwf	((c:3979)),c	;volatile
  2167                           	line	568
  2168                           ;main.c: 568: } else if (led_array[2] == 1 && le
                                 d_array[10] == 1) {
  2169  001AE4  EFC0  F010         	goto	i2l873
  2170                           	
  2171  001AE8                     i2l934:		; BSR set to: ?
  2172                           
  2173  001AE8  0405               	decf	(0+((c:1)+04h)),c,w
  2174  001AEA  1006               	iorwf (1+((c:1)+04h)),c,w
  2175                           
  2176  001AEC  A4D8               	btfss	status,2
  2177  001AEE  EF7B  F00D         	goto	i2u8101
  2178  001AF2  EF7D  F00D         	goto	i2u8100
  2179  001AF6                     i2u8101:
  2180  001AF6  EF8D  F00D         	goto	i2l936
  2181  001AFA                     i2u8100:
  2182  001AFA  0415               	decf	(0+((c:1)+014h)),c,w
  2183  001AFC  1016               	iorwf (1+((c:1)+014h)),c,w
  2184                           
  2185  001AFE  A4D8               	btfss	status,2
  2186  001B00  EF84  F00D         	goto	i2u8111
  2187  001B04  EF86  F00D         	goto	i2u8110
  2188  001B08                     i2u8111:
  2189  001B08  EF8D  F00D         	goto	i2l936
  2190  001B0C                     i2u8110:
  2191                           	line	571
  2192                           ;main.c: 571: LATA = 0b11111111;
  2193  001B0C  6889               	setf	((c:3977)),c	;volatile
  2194                           	line	573
  2195                           ;main.c: 573: LATB = 0b00000100;
  2196  001B0E  0E04               	movlw	low(04h)
  2197  001B10  6E8A               	movwf	((c:3978)),c	;volatile
  2198                           	line	575
  2199                           ;main.c: 575: LATC = 0b00001111;
  2200  001B12  0E0F               	movlw	low(0Fh)
  2201  001B14  6E8B               	movwf	((c:3979)),c	;volatile
  2202                           	line	577
  2203                           ;main.c: 577: } else if (led_array[2] == 1 && le
                                 d_array[11] == 1) {
  2204  001B16  EFC0  F010         	goto	i2l873
  2205                           	
  2206  001B1A                     i2l936:		; BSR set to: ?
  2207                           
  2208  001B1A  0405               	decf	(0+((c:1)+04h)),c,w
  2209  001B1C  1006               	iorwf (1+((c:1)+04h)),c,w
  2210                           
  2211  001B1E  A4D8               	btfss	status,2
  2212  001B20  EF94  F00D         	goto	i2u8121
  2213  001B24  EF96  F00D         	goto	i2u8120
  2214  001B28                     i2u8121:
  2215  001B28  EFA6  F00D         	goto	i2l938
  2216  001B2C                     i2u8120:
  2217  001B2C  0417               	decf	(0+((c:1)+016h)),c,w
  2218  001B2E  1018               	iorwf (1+((c:1)+016h)),c,w
  2219                           
  2220  001B30  A4D8               	btfss	status,2
  2221  001B32  EF9D  F00D         	goto	i2u8131
  2222  001B36  EF9F  F00D         	goto	i2u8130
  2223  001B3A                     i2u8131:
  2224  001B3A  EFA6  F00D         	goto	i2l938
  2225  001B3E                     i2u8130:
  2226                           	line	580
  2227                           ;main.c: 580: LATA = 0b11111111;
  2228  001B3E  6889               	setf	((c:3977)),c	;volatile
  2229                           	line	582
  2230                           ;main.c: 582: LATB = 0b10000100;
  2231  001B40  0E84               	movlw	low(084h)
  2232  001B42  6E8A               	movwf	((c:3978)),c	;volatile
  2233                           	line	584
  2234                           ;main.c: 584: LATC = 0b00001011;
  2235  001B44  0E0B               	movlw	low(0Bh)
  2236  001B46  6E8B               	movwf	((c:3979)),c	;volatile
  2237                           	line	586
  2238                           ;main.c: 586: } else if (led_array[2] == 1 && le
                                 d_array[12] == 1) {
  2239  001B48  EFC0  F010         	goto	i2l873
  2240                           	
  2241  001B4C                     i2l938:		; BSR set to: ?
  2242                           
  2243  001B4C  0405               	decf	(0+((c:1)+04h)),c,w
  2244  001B4E  1006               	iorwf (1+((c:1)+04h)),c,w
  2245                           
  2246  001B50  A4D8               	btfss	status,2
  2247  001B52  EFAD  F00D         	goto	i2u8141
  2248  001B56  EFAF  F00D         	goto	i2u8140
  2249  001B5A                     i2u8141:
  2250  001B5A  EFBF  F00D         	goto	i2l940
  2251  001B5E                     i2u8140:
  2252  001B5E  0419               	decf	(0+((c:1)+018h)),c,w
  2253  001B60  101A               	iorwf (1+((c:1)+018h)),c,w
  2254                           
  2255  001B62  A4D8               	btfss	status,2
  2256  001B64  EFB6  F00D         	goto	i2u8151
  2257  001B68  EFB8  F00D         	goto	i2u8150
  2258  001B6C                     i2u8151:
  2259  001B6C  EFBF  F00D         	goto	i2l940
  2260  001B70                     i2u8150:
  2261                           	line	589
  2262                           ;main.c: 589: LATA = 0b11111111;
  2263  001B70  6889               	setf	((c:3977)),c	;volatile
  2264                           	line	591
  2265                           ;main.c: 591: LATB = 0b10000100;
  2266  001B72  0E84               	movlw	low(084h)
  2267  001B74  6E8A               	movwf	((c:3978)),c	;volatile
  2268                           	line	593
  2269                           ;main.c: 593: LATC = 0b00000111;
  2270  001B76  0E07               	movlw	low(07h)
  2271  001B78  6E8B               	movwf	((c:3979)),c	;volatile
  2272                           	line	595
  2273                           ;main.c: 595: } else if (led_array[3] == 1 && le
                                 d_array[6] == 1) {
  2274  001B7A  EFC0  F010         	goto	i2l873
  2275                           	
  2276  001B7E                     i2l940:		; BSR set to: ?
  2277                           
  2278  001B7E  0407               	decf	(0+((c:1)+06h)),c,w
  2279  001B80  1008               	iorwf (1+((c:1)+06h)),c,w
  2280                           
  2281  001B82  A4D8               	btfss	status,2
  2282  001B84  EFC6  F00D         	goto	i2u8161
  2283  001B88  EFC8  F00D         	goto	i2u8160
  2284  001B8C                     i2u8161:
  2285  001B8C  EFD9  F00D         	goto	i2l942
  2286  001B90                     i2u8160:
  2287  001B90  040D               	decf	(0+((c:1)+0Ch)),c,w
  2288  001B92  100E               	iorwf (1+((c:1)+0Ch)),c,w
  2289                           
  2290  001B94  A4D8               	btfss	status,2
  2291  001B96  EFCF  F00D         	goto	i2u8171
  2292  001B9A  EFD1  F00D         	goto	i2u8170
  2293  001B9E                     i2u8171:
  2294  001B9E  EFD9  F00D         	goto	i2l942
  2295  001BA2                     i2u8170:
  2296                           	line	598
  2297                           ;main.c: 598: LATA = 0b11101111;
  2298  001BA2  0EEF               	movlw	low(0EFh)
  2299  001BA4  6E89               	movwf	((c:3977)),c	;volatile
  2300                           	line	600
  2301                           ;main.c: 600: LATB = 0b10001000;
  2302  001BA6  0E88               	movlw	low(088h)
  2303  001BA8  6E8A               	movwf	((c:3978)),c	;volatile
  2304                           	line	602
  2305                           ;main.c: 602: LATC = 0b00001111;
  2306  001BAA  0E0F               	movlw	low(0Fh)
  2307  001BAC  6E8B               	movwf	((c:3979)),c	;volatile
  2308                           	line	604
  2309                           ;main.c: 604: } else if (led_array[3] == 1 && le
                                 d_array[7] == 1) {
  2310  001BAE  EFC0  F010         	goto	i2l873
  2311                           	
  2312  001BB2                     i2l942:		; BSR set to: ?
  2313                           
  2314  001BB2  0407               	decf	(0+((c:1)+06h)),c,w
  2315  001BB4  1008               	iorwf (1+((c:1)+06h)),c,w
  2316                           
  2317  001BB6  A4D8               	btfss	status,2
  2318  001BB8  EFE0  F00D         	goto	i2u8181
  2319  001BBC  EFE2  F00D         	goto	i2u8180
  2320  001BC0                     i2u8181:
  2321  001BC0  EFF3  F00D         	goto	i2l944
  2322  001BC4                     i2u8180:
  2323  001BC4  040F               	decf	(0+((c:1)+0Eh)),c,w
  2324  001BC6  1010               	iorwf (1+((c:1)+0Eh)),c,w
  2325                           
  2326  001BC8  A4D8               	btfss	status,2
  2327  001BCA  EFE9  F00D         	goto	i2u8191
  2328  001BCE  EFEB  F00D         	goto	i2u8190
  2329  001BD2                     i2u8191:
  2330  001BD2  EFF3  F00D         	goto	i2l944
  2331  001BD6                     i2u8190:
  2332                           	line	607
  2333                           ;main.c: 607: LATA = 0b10111111;
  2334  001BD6  0EBF               	movlw	low(0BFh)
  2335  001BD8  6E89               	movwf	((c:3977)),c	;volatile
  2336                           	line	609
  2337                           ;main.c: 609: LATB = 0b10001000;
  2338  001BDA  0E88               	movlw	low(088h)
  2339  001BDC  6E8A               	movwf	((c:3978)),c	;volatile
  2340                           	line	611
  2341                           ;main.c: 611: LATC = 0b00001111;
  2342  001BDE  0E0F               	movlw	low(0Fh)
  2343  001BE0  6E8B               	movwf	((c:3979)),c	;volatile
  2344                           	line	613
  2345                           ;main.c: 613: } else if (led_array[3] == 1 && le
                                 d_array[8] == 1) {
  2346  001BE2  EFC0  F010         	goto	i2l873
  2347                           	
  2348  001BE6                     i2l944:		; BSR set to: ?
  2349                           
  2350  001BE6  0407               	decf	(0+((c:1)+06h)),c,w
  2351  001BE8  1008               	iorwf (1+((c:1)+06h)),c,w
  2352                           
  2353  001BEA  A4D8               	btfss	status,2
  2354  001BEC  EFFA  F00D         	goto	i2u8201
  2355  001BF0  EFFC  F00D         	goto	i2u8200
  2356  001BF4                     i2u8201:
  2357  001BF4  EF0C  F00E         	goto	i2l946
  2358  001BF8                     i2u8200:
  2359  001BF8  0411               	decf	(0+((c:1)+010h)),c,w
  2360  001BFA  1012               	iorwf (1+((c:1)+010h)),c,w
  2361                           
  2362  001BFC  A4D8               	btfss	status,2
  2363  001BFE  EF03  F00E         	goto	i2u8211
  2364  001C02  EF05  F00E         	goto	i2u8210
  2365  001C06                     i2u8211:
  2366  001C06  EF0C  F00E         	goto	i2l946
  2367  001C0A                     i2u8210:
  2368                           	line	616
  2369                           ;main.c: 616: LATA = 0b11111111;
  2370  001C0A  6889               	setf	((c:3977)),c	;volatile
  2371                           	line	618
  2372                           ;main.c: 618: LATB = 0b10001000;
  2373  001C0C  0E88               	movlw	low(088h)
  2374  001C0E  6E8A               	movwf	((c:3978)),c	;volatile
  2375                           	line	620
  2376                           ;main.c: 620: LATC = 0b00001110;
  2377  001C10  0E0E               	movlw	low(0Eh)
  2378  001C12  6E8B               	movwf	((c:3979)),c	;volatile
  2379                           	line	622
  2380                           ;main.c: 622: } else if (led_array[3] == 1 && le
                                 d_array[9] == 1) {
  2381  001C14  EFC0  F010         	goto	i2l873
  2382                           	
  2383  001C18                     i2l946:		; BSR set to: ?
  2384                           
  2385  001C18  0407               	decf	(0+((c:1)+06h)),c,w
  2386  001C1A  1008               	iorwf (1+((c:1)+06h)),c,w
  2387                           
  2388  001C1C  A4D8               	btfss	status,2
  2389  001C1E  EF13  F00E         	goto	i2u8221
  2390  001C22  EF15  F00E         	goto	i2u8220
  2391  001C26                     i2u8221:
  2392  001C26  EF25  F00E         	goto	i2l948
  2393  001C2A                     i2u8220:
  2394  001C2A  0413               	decf	(0+((c:1)+012h)),c,w
  2395  001C2C  1014               	iorwf (1+((c:1)+012h)),c,w
  2396                           
  2397  001C2E  A4D8               	btfss	status,2
  2398  001C30  EF1C  F00E         	goto	i2u8231
  2399  001C34  EF1E  F00E         	goto	i2u8230
  2400  001C38                     i2u8231:
  2401  001C38  EF25  F00E         	goto	i2l948
  2402  001C3C                     i2u8230:
  2403                           	line	625
  2404                           ;main.c: 625: LATA = 0b11111111;
  2405  001C3C  6889               	setf	((c:3977)),c	;volatile
  2406                           	line	627
  2407                           ;main.c: 627: LATB = 0b10001000;
  2408  001C3E  0E88               	movlw	low(088h)
  2409  001C40  6E8A               	movwf	((c:3978)),c	;volatile
  2410                           	line	629
  2411                           ;main.c: 629: LATC = 0b00001101;
  2412  001C42  0E0D               	movlw	low(0Dh)
  2413  001C44  6E8B               	movwf	((c:3979)),c	;volatile
  2414                           	line	631
  2415                           ;main.c: 631: } else if (led_array[3] == 1 && le
                                 d_array[10] == 1) {
  2416  001C46  EFC0  F010         	goto	i2l873
  2417                           	
  2418  001C4A                     i2l948:		; BSR set to: ?
  2419                           
  2420  001C4A  0407               	decf	(0+((c:1)+06h)),c,w
  2421  001C4C  1008               	iorwf (1+((c:1)+06h)),c,w
  2422                           
  2423  001C4E  A4D8               	btfss	status,2
  2424  001C50  EF2C  F00E         	goto	i2u8241
  2425  001C54  EF2E  F00E         	goto	i2u8240
  2426  001C58                     i2u8241:
  2427  001C58  EF3E  F00E         	goto	i2l950
  2428  001C5C                     i2u8240:
  2429  001C5C  0415               	decf	(0+((c:1)+014h)),c,w
  2430  001C5E  1016               	iorwf (1+((c:1)+014h)),c,w
  2431                           
  2432  001C60  A4D8               	btfss	status,2
  2433  001C62  EF35  F00E         	goto	i2u8251
  2434  001C66  EF37  F00E         	goto	i2u8250
  2435  001C6A                     i2u8251:
  2436  001C6A  EF3E  F00E         	goto	i2l950
  2437  001C6E                     i2u8250:
  2438                           	line	634
  2439                           ;main.c: 634: LATA = 0b11111111;
  2440  001C6E  6889               	setf	((c:3977)),c	;volatile
  2441                           	line	636
  2442                           ;main.c: 636: LATB = 0b00001000;
  2443  001C70  0E08               	movlw	low(08h)
  2444  001C72  6E8A               	movwf	((c:3978)),c	;volatile
  2445                           	line	638
  2446                           ;main.c: 638: LATC = 0b00001111;
  2447  001C74  0E0F               	movlw	low(0Fh)
  2448  001C76  6E8B               	movwf	((c:3979)),c	;volatile
  2449                           	line	640
  2450                           ;main.c: 640: } else if (led_array[3] == 1 && le
                                 d_array[11] == 1) {
  2451  001C78  EFC0  F010         	goto	i2l873
  2452                           	
  2453  001C7C                     i2l950:		; BSR set to: ?
  2454                           
  2455  001C7C  0407               	decf	(0+((c:1)+06h)),c,w
  2456  001C7E  1008               	iorwf (1+((c:1)+06h)),c,w
  2457                           
  2458  001C80  A4D8               	btfss	status,2
  2459  001C82  EF45  F00E         	goto	i2u8261
  2460  001C86  EF47  F00E         	goto	i2u8260
  2461  001C8A                     i2u8261:
  2462  001C8A  EF57  F00E         	goto	i2l952
  2463  001C8E                     i2u8260:
  2464  001C8E  0417               	decf	(0+((c:1)+016h)),c,w
  2465  001C90  1018               	iorwf (1+((c:1)+016h)),c,w
  2466                           
  2467  001C92  A4D8               	btfss	status,2
  2468  001C94  EF4E  F00E         	goto	i2u8271
  2469  001C98  EF50  F00E         	goto	i2u8270
  2470  001C9C                     i2u8271:
  2471  001C9C  EF57  F00E         	goto	i2l952
  2472  001CA0                     i2u8270:
  2473                           	line	643
  2474                           ;main.c: 643: LATA = 0b11111111;
  2475  001CA0  6889               	setf	((c:3977)),c	;volatile
  2476                           	line	645
  2477                           ;main.c: 645: LATB = 0b10001000;
  2478  001CA2  0E88               	movlw	low(088h)
  2479  001CA4  6E8A               	movwf	((c:3978)),c	;volatile
  2480                           	line	647
  2481                           ;main.c: 647: LATC = 0b00001011;
  2482  001CA6  0E0B               	movlw	low(0Bh)
  2483  001CA8  6E8B               	movwf	((c:3979)),c	;volatile
  2484                           	line	649
  2485                           ;main.c: 649: } else if (led_array[3] == 1 && le
                                 d_array[12] == 1) {
  2486  001CAA  EFC0  F010         	goto	i2l873
  2487                           	
  2488  001CAE                     i2l952:		; BSR set to: ?
  2489                           
  2490  001CAE  0407               	decf	(0+((c:1)+06h)),c,w
  2491  001CB0  1008               	iorwf (1+((c:1)+06h)),c,w
  2492                           
  2493  001CB2  A4D8               	btfss	status,2
  2494  001CB4  EF5E  F00E         	goto	i2u8281
  2495  001CB8  EF60  F00E         	goto	i2u8280
  2496  001CBC                     i2u8281:
  2497  001CBC  EF70  F00E         	goto	i2l954
  2498  001CC0                     i2u8280:
  2499  001CC0  0419               	decf	(0+((c:1)+018h)),c,w
  2500  001CC2  101A               	iorwf (1+((c:1)+018h)),c,w
  2501                           
  2502  001CC4  A4D8               	btfss	status,2
  2503  001CC6  EF67  F00E         	goto	i2u8291
  2504  001CCA  EF69  F00E         	goto	i2u8290
  2505  001CCE                     i2u8291:
  2506  001CCE  EF70  F00E         	goto	i2l954
  2507  001CD2                     i2u8290:
  2508                           	line	652
  2509                           ;main.c: 652: LATA = 0b11111111;
  2510  001CD2  6889               	setf	((c:3977)),c	;volatile
  2511                           	line	654
  2512                           ;main.c: 654: LATB = 0b10001000;
  2513  001CD4  0E88               	movlw	low(088h)
  2514  001CD6  6E8A               	movwf	((c:3978)),c	;volatile
  2515                           	line	656
  2516                           ;main.c: 656: LATC = 0b00000111;
  2517  001CD8  0E07               	movlw	low(07h)
  2518  001CDA  6E8B               	movwf	((c:3979)),c	;volatile
  2519                           	line	657
  2520                           ;main.c: 657: }
  2521  001CDC  EFC0  F010         	goto	i2l873
  2522                           	line	660
  2523                           	
  2524  001CE0                     i2l954:		; BSR set to: ?
  2525                           
  2526                           ;main.c: 660: else if (led_array[0] == 1 && led_
                                 array[1] == 1 && led_array[6] == 1) {
  2527  001CE0  0401               	decf	((c:1)),c,w
  2528  001CE2  1002               	iorwf ((c:1+1)),c,w
  2529                           
  2530  001CE4  A4D8               	btfss	status,2
  2531  001CE6  EF77  F00E         	goto	i2u8301
  2532  001CEA  EF79  F00E         	goto	i2u8300
  2533  001CEE                     i2u8301:
  2534  001CEE  EF93  F00E         	goto	i2l956
  2535  001CF2                     i2u8300:
  2536  001CF2  0403               	decf	(0+((c:1)+02h)),c,w
  2537  001CF4  1004               	iorwf (1+((c:1)+02h)),c,w
  2538                           
  2539  001CF6  A4D8               	btfss	status,2
  2540  001CF8  EF80  F00E         	goto	i2u8311
  2541  001CFC  EF82  F00E         	goto	i2u8310
  2542  001D00                     i2u8311:
  2543  001D00  EF93  F00E         	goto	i2l956
  2544  001D04                     i2u8310:
  2545  001D04  040D               	decf	(0+((c:1)+0Ch)),c,w
  2546  001D06  100E               	iorwf (1+((c:1)+0Ch)),c,w
  2547                           
  2548  001D08  A4D8               	btfss	status,2
  2549  001D0A  EF89  F00E         	goto	i2u8321
  2550  001D0E  EF8B  F00E         	goto	i2u8320
  2551  001D12                     i2u8321:
  2552  001D12  EF93  F00E         	goto	i2l956
  2553  001D16                     i2u8320:
  2554                           	line	663
  2555                           ;main.c: 663: LATA = 0b11101111;
  2556  001D16  0EEF               	movlw	low(0EFh)
  2557  001D18  6E89               	movwf	((c:3977)),c	;volatile
  2558                           	line	665
  2559                           ;main.c: 665: LATB = 0b10000000;
  2560  001D1A  0E80               	movlw	low(080h)
  2561  001D1C  6E8A               	movwf	((c:3978)),c	;volatile
  2562                           	line	667
  2563                           ;main.c: 667: LATC = 0b00111111;
  2564  001D1E  0E3F               	movlw	low(03Fh)
  2565  001D20  6E8B               	movwf	((c:3979)),c	;volatile
  2566                           	line	669
  2567                           ;main.c: 669: } else if (led_array[0] == 1 && le
                                 d_array[1] == 1 && led_array[7] == 1) {
  2568  001D22  EFC0  F010         	goto	i2l873
  2569                           	
  2570  001D26                     i2l956:		; BSR set to: ?
  2571                           
  2572  001D26  0401               	decf	((c:1)),c,w
  2573  001D28  1002               	iorwf ((c:1+1)),c,w
  2574                           
  2575  001D2A  A4D8               	btfss	status,2
  2576  001D2C  EF9A  F00E         	goto	i2u8331
  2577  001D30  EF9C  F00E         	goto	i2u8330
  2578  001D34                     i2u8331:
  2579  001D34  EFB6  F00E         	goto	i2l958
  2580  001D38                     i2u8330:
  2581  001D38  0403               	decf	(0+((c:1)+02h)),c,w
  2582  001D3A  1004               	iorwf (1+((c:1)+02h)),c,w
  2583                           
  2584  001D3C  A4D8               	btfss	status,2
  2585  001D3E  EFA3  F00E         	goto	i2u8341
  2586  001D42  EFA5  F00E         	goto	i2u8340
  2587  001D46                     i2u8341:
  2588  001D46  EFB6  F00E         	goto	i2l958
  2589  001D4A                     i2u8340:
  2590  001D4A  040F               	decf	(0+((c:1)+0Eh)),c,w
  2591  001D4C  1010               	iorwf (1+((c:1)+0Eh)),c,w
  2592                           
  2593  001D4E  A4D8               	btfss	status,2
  2594  001D50  EFAC  F00E         	goto	i2u8351
  2595  001D54  EFAE  F00E         	goto	i2u8350
  2596  001D58                     i2u8351:
  2597  001D58  EFB6  F00E         	goto	i2l958
  2598  001D5C                     i2u8350:
  2599                           	line	672
  2600                           ;main.c: 672: LATA = 0b10111111;
  2601  001D5C  0EBF               	movlw	low(0BFh)
  2602  001D5E  6E89               	movwf	((c:3977)),c	;volatile
  2603                           	line	674
  2604                           ;main.c: 674: LATB = 0b10000000;
  2605  001D60  0E80               	movlw	low(080h)
  2606  001D62  6E8A               	movwf	((c:3978)),c	;volatile
  2607                           	line	676
  2608                           ;main.c: 676: LATC = 0b00111111;
  2609  001D64  0E3F               	movlw	low(03Fh)
  2610  001D66  6E8B               	movwf	((c:3979)),c	;volatile
  2611                           	line	678
  2612                           ;main.c: 678: } else if (led_array[0] == 1 && le
                                 d_array[1] == 1 && led_array[8] == 1) {
  2613  001D68  EFC0  F010         	goto	i2l873
  2614                           	
  2615  001D6C                     i2l958:		; BSR set to: ?
  2616                           
  2617  001D6C  0401               	decf	((c:1)),c,w
  2618  001D6E  1002               	iorwf ((c:1+1)),c,w
  2619                           
  2620  001D70  A4D8               	btfss	status,2
  2621  001D72  EFBD  F00E         	goto	i2u8361
  2622  001D76  EFBF  F00E         	goto	i2u8360
  2623  001D7A                     i2u8361:
  2624  001D7A  EFD8  F00E         	goto	i2l960
  2625  001D7E                     i2u8360:
  2626  001D7E  0403               	decf	(0+((c:1)+02h)),c,w
  2627  001D80  1004               	iorwf (1+((c:1)+02h)),c,w
  2628                           
  2629  001D82  A4D8               	btfss	status,2
  2630  001D84  EFC6  F00E         	goto	i2u8371
  2631  001D88  EFC8  F00E         	goto	i2u8370
  2632  001D8C                     i2u8371:
  2633  001D8C  EFD8  F00E         	goto	i2l960
  2634  001D90                     i2u8370:
  2635  001D90  0411               	decf	(0+((c:1)+010h)),c,w
  2636  001D92  1012               	iorwf (1+((c:1)+010h)),c,w
  2637                           
  2638  001D94  A4D8               	btfss	status,2
  2639  001D96  EFCF  F00E         	goto	i2u8381
  2640  001D9A  EFD1  F00E         	goto	i2u8380
  2641  001D9E                     i2u8381:
  2642  001D9E  EFD8  F00E         	goto	i2l960
  2643  001DA2                     i2u8380:
  2644                           	line	681
  2645                           ;main.c: 681: LATA = 0b11111111;
  2646  001DA2  6889               	setf	((c:3977)),c	;volatile
  2647                           	line	683
  2648                           ;main.c: 683: LATB = 0b10000000;
  2649  001DA4  0E80               	movlw	low(080h)
  2650  001DA6  6E8A               	movwf	((c:3978)),c	;volatile
  2651                           	line	685
  2652                           ;main.c: 685: LATC = 0b00111110;
  2653  001DA8  0E3E               	movlw	low(03Eh)
  2654  001DAA  6E8B               	movwf	((c:3979)),c	;volatile
  2655                           	line	687
  2656                           ;main.c: 687: } else if (led_array[0] == 1 && le
                                 d_array[1] == 1 && led_array[9] == 1) {
  2657  001DAC  EFC0  F010         	goto	i2l873
  2658                           	
  2659  001DB0                     i2l960:		; BSR set to: ?
  2660                           
  2661  001DB0  0401               	decf	((c:1)),c,w
  2662  001DB2  1002               	iorwf ((c:1+1)),c,w
  2663                           
  2664  001DB4  A4D8               	btfss	status,2
  2665  001DB6  EFDF  F00E         	goto	i2u8391
  2666  001DBA  EFE1  F00E         	goto	i2u8390
  2667  001DBE                     i2u8391:
  2668  001DBE  EFFA  F00E         	goto	i2l962
  2669  001DC2                     i2u8390:
  2670  001DC2  0403               	decf	(0+((c:1)+02h)),c,w
  2671  001DC4  1004               	iorwf (1+((c:1)+02h)),c,w
  2672                           
  2673  001DC6  A4D8               	btfss	status,2
  2674  001DC8  EFE8  F00E         	goto	i2u8401
  2675  001DCC  EFEA  F00E         	goto	i2u8400
  2676  001DD0                     i2u8401:
  2677  001DD0  EFFA  F00E         	goto	i2l962
  2678  001DD4                     i2u8400:
  2679  001DD4  0413               	decf	(0+((c:1)+012h)),c,w
  2680  001DD6  1014               	iorwf (1+((c:1)+012h)),c,w
  2681                           
  2682  001DD8  A4D8               	btfss	status,2
  2683  001DDA  EFF1  F00E         	goto	i2u8411
  2684  001DDE  EFF3  F00E         	goto	i2u8410
  2685  001DE2                     i2u8411:
  2686  001DE2  EFFA  F00E         	goto	i2l962
  2687  001DE6                     i2u8410:
  2688                           	line	690
  2689                           ;main.c: 690: LATA = 0b11111111;
  2690  001DE6  6889               	setf	((c:3977)),c	;volatile
  2691                           	line	692
  2692                           ;main.c: 692: LATB = 0b10000000;
  2693  001DE8  0E80               	movlw	low(080h)
  2694  001DEA  6E8A               	movwf	((c:3978)),c	;volatile
  2695                           	line	694
  2696                           ;main.c: 694: LATC = 0b00111101;
  2697  001DEC  0E3D               	movlw	low(03Dh)
  2698  001DEE  6E8B               	movwf	((c:3979)),c	;volatile
  2699                           	line	695
  2700                           ;main.c: 695: } else if (led_array[0] == 1 && le
                                 d_array[1] == 1 && led_array[10] == 1) {
  2701  001DF0  EFC0  F010         	goto	i2l873
  2702                           	
  2703  001DF4                     i2l962:		; BSR set to: ?
  2704                           
  2705  001DF4  0401               	decf	((c:1)),c,w
  2706  001DF6  1002               	iorwf ((c:1+1)),c,w
  2707                           
  2708  001DF8  A4D8               	btfss	status,2
  2709  001DFA  EF01  F00F         	goto	i2u8421
  2710  001DFE  EF03  F00F         	goto	i2u8420
  2711  001E02                     i2u8421:
  2712  001E02  EF1C  F00F         	goto	i2l964
  2713  001E06                     i2u8420:
  2714  001E06  0403               	decf	(0+((c:1)+02h)),c,w
  2715  001E08  1004               	iorwf (1+((c:1)+02h)),c,w
  2716                           
  2717  001E0A  A4D8               	btfss	status,2
  2718  001E0C  EF0A  F00F         	goto	i2u8431
  2719  001E10  EF0C  F00F         	goto	i2u8430
  2720  001E14                     i2u8431:
  2721  001E14  EF1C  F00F         	goto	i2l964
  2722  001E18                     i2u8430:
  2723  001E18  0415               	decf	(0+((c:1)+014h)),c,w
  2724  001E1A  1016               	iorwf (1+((c:1)+014h)),c,w
  2725                           
  2726  001E1C  A4D8               	btfss	status,2
  2727  001E1E  EF13  F00F         	goto	i2u8441
  2728  001E22  EF15  F00F         	goto	i2u8440
  2729  001E26                     i2u8441:
  2730  001E26  EF1C  F00F         	goto	i2l964
  2731  001E2A                     i2u8440:
  2732                           	line	698
  2733                           ;main.c: 698: LATA = 0b11111111;
  2734  001E2A  6889               	setf	((c:3977)),c	;volatile
  2735                           	line	700
  2736                           ;main.c: 700: LATB = 0b00000000;
  2737  001E2C  0E00               	movlw	low(0)
  2738  001E2E  6E8A               	movwf	((c:3978)),c	;volatile
  2739                           	line	702
  2740                           ;main.c: 702: LATC = 0b00111111;
  2741  001E30  0E3F               	movlw	low(03Fh)
  2742  001E32  6E8B               	movwf	((c:3979)),c	;volatile
  2743                           	line	703
  2744                           ;main.c: 703: } else if (led_array[0] == 1 && le
                                 d_array[1] == 1 && led_array[11] == 1) {
  2745  001E34  EFC0  F010         	goto	i2l873
  2746                           	
  2747  001E38                     i2l964:		; BSR set to: ?
  2748                           
  2749  001E38  0401               	decf	((c:1)),c,w
  2750  001E3A  1002               	iorwf ((c:1+1)),c,w
  2751                           
  2752  001E3C  A4D8               	btfss	status,2
  2753  001E3E  EF23  F00F         	goto	i2u8451
  2754  001E42  EF25  F00F         	goto	i2u8450
  2755  001E46                     i2u8451:
  2756  001E46  EF3E  F00F         	goto	i2l966
  2757  001E4A                     i2u8450:
  2758  001E4A  0403               	decf	(0+((c:1)+02h)),c,w
  2759  001E4C  1004               	iorwf (1+((c:1)+02h)),c,w
  2760                           
  2761  001E4E  A4D8               	btfss	status,2
  2762  001E50  EF2C  F00F         	goto	i2u8461
  2763  001E54  EF2E  F00F         	goto	i2u8460
  2764  001E58                     i2u8461:
  2765  001E58  EF3E  F00F         	goto	i2l966
  2766  001E5C                     i2u8460:
  2767  001E5C  0417               	decf	(0+((c:1)+016h)),c,w
  2768  001E5E  1018               	iorwf (1+((c:1)+016h)),c,w
  2769                           
  2770  001E60  A4D8               	btfss	status,2
  2771  001E62  EF35  F00F         	goto	i2u8471
  2772  001E66  EF37  F00F         	goto	i2u8470
  2773  001E6A                     i2u8471:
  2774  001E6A  EF3E  F00F         	goto	i2l966
  2775  001E6E                     i2u8470:
  2776                           	line	706
  2777                           ;main.c: 706: LATA = 0b11111111;
  2778  001E6E  6889               	setf	((c:3977)),c	;volatile
  2779                           	line	708
  2780                           ;main.c: 708: LATB = 0b10000000;
  2781  001E70  0E80               	movlw	low(080h)
  2782  001E72  6E8A               	movwf	((c:3978)),c	;volatile
  2783                           	line	710
  2784                           ;main.c: 710: LATC = 0b00111011;
  2785  001E74  0E3B               	movlw	low(03Bh)
  2786  001E76  6E8B               	movwf	((c:3979)),c	;volatile
  2787                           	line	711
  2788                           ;main.c: 711: } else if (led_array[0] == 1 && le
                                 d_array[1] == 1 && led_array[12] == 1) {
  2789  001E78  EFC0  F010         	goto	i2l873
  2790                           	
  2791  001E7C                     i2l966:		; BSR set to: ?
  2792                           
  2793  001E7C  0401               	decf	((c:1)),c,w
  2794  001E7E  1002               	iorwf ((c:1+1)),c,w
  2795                           
  2796  001E80  A4D8               	btfss	status,2
  2797  001E82  EF45  F00F         	goto	i2u8481
  2798  001E86  EF47  F00F         	goto	i2u8480
  2799  001E8A                     i2u8481:
  2800  001E8A  EF60  F00F         	goto	i2l968
  2801  001E8E                     i2u8480:
  2802  001E8E  0403               	decf	(0+((c:1)+02h)),c,w
  2803  001E90  1004               	iorwf (1+((c:1)+02h)),c,w
  2804                           
  2805  001E92  A4D8               	btfss	status,2
  2806  001E94  EF4E  F00F         	goto	i2u8491
  2807  001E98  EF50  F00F         	goto	i2u8490
  2808  001E9C                     i2u8491:
  2809  001E9C  EF60  F00F         	goto	i2l968
  2810  001EA0                     i2u8490:
  2811  001EA0  0419               	decf	(0+((c:1)+018h)),c,w
  2812  001EA2  101A               	iorwf (1+((c:1)+018h)),c,w
  2813                           
  2814  001EA4  A4D8               	btfss	status,2
  2815  001EA6  EF57  F00F         	goto	i2u8501
  2816  001EAA  EF59  F00F         	goto	i2u8500
  2817  001EAE                     i2u8501:
  2818  001EAE  EF60  F00F         	goto	i2l968
  2819  001EB2                     i2u8500:
  2820                           	line	714
  2821                           ;main.c: 714: LATA = 0b11111111;
  2822  001EB2  6889               	setf	((c:3977)),c	;volatile
  2823                           	line	716
  2824                           ;main.c: 716: LATB = 0b10000000;
  2825  001EB4  0E80               	movlw	low(080h)
  2826  001EB6  6E8A               	movwf	((c:3978)),c	;volatile
  2827                           	line	718
  2828                           ;main.c: 718: LATC = 0b00110111;
  2829  001EB8  0E37               	movlw	low(037h)
  2830  001EBA  6E8B               	movwf	((c:3979)),c	;volatile
  2831                           	line	720
  2832                           ;main.c: 720: } else if (led_array[0] == 1 && le
                                 d_array[6] == 1) {
  2833  001EBC  EFC0  F010         	goto	i2l873
  2834                           	
  2835  001EC0                     i2l968:		; BSR set to: ?
  2836                           
  2837  001EC0  0401               	decf	((c:1)),c,w
  2838  001EC2  1002               	iorwf ((c:1+1)),c,w
  2839                           
  2840  001EC4  A4D8               	btfss	status,2
  2841  001EC6  EF67  F00F         	goto	i2u8511
  2842  001ECA  EF69  F00F         	goto	i2u8510
  2843  001ECE                     i2u8511:
  2844  001ECE  EF7A  F00F         	goto	i2l970
  2845  001ED2                     i2u8510:
  2846  001ED2  040D               	decf	(0+((c:1)+0Ch)),c,w
  2847  001ED4  100E               	iorwf (1+((c:1)+0Ch)),c,w
  2848                           
  2849  001ED6  A4D8               	btfss	status,2
  2850  001ED8  EF70  F00F         	goto	i2u8521
  2851  001EDC  EF72  F00F         	goto	i2u8520
  2852  001EE0                     i2u8521:
  2853  001EE0  EF7A  F00F         	goto	i2l970
  2854  001EE4                     i2u8520:
  2855                           	line	723
  2856                           ;main.c: 723: LATA = 0b11101111;
  2857  001EE4  0EEF               	movlw	low(0EFh)
  2858  001EE6  6E89               	movwf	((c:3977)),c	;volatile
  2859                           	line	725
  2860                           ;main.c: 725: LATB = 0b10000000;
  2861  001EE8  0E80               	movlw	low(080h)
  2862  001EEA  6E8A               	movwf	((c:3978)),c	;volatile
  2863                           	line	727
  2864                           ;main.c: 727: LATC = 0b00011111;
  2865  001EEC  0E1F               	movlw	low(01Fh)
  2866  001EEE  6E8B               	movwf	((c:3979)),c	;volatile
  2867                           	line	729
  2868                           ;main.c: 729: } else if (led_array[0] == 1 && le
                                 d_array[7] == 1) {
  2869  001EF0  EFC0  F010         	goto	i2l873
  2870                           	
  2871  001EF4                     i2l970:		; BSR set to: ?
  2872                           
  2873  001EF4  0401               	decf	((c:1)),c,w
  2874  001EF6  1002               	iorwf ((c:1+1)),c,w
  2875                           
  2876  001EF8  A4D8               	btfss	status,2
  2877  001EFA  EF81  F00F         	goto	i2u8531
  2878  001EFE  EF83  F00F         	goto	i2u8530
  2879  001F02                     i2u8531:
  2880  001F02  EF94  F00F         	goto	i2l972
  2881  001F06                     i2u8530:
  2882  001F06  040F               	decf	(0+((c:1)+0Eh)),c,w
  2883  001F08  1010               	iorwf (1+((c:1)+0Eh)),c,w
  2884                           
  2885  001F0A  A4D8               	btfss	status,2
  2886  001F0C  EF8A  F00F         	goto	i2u8541
  2887  001F10  EF8C  F00F         	goto	i2u8540
  2888  001F14                     i2u8541:
  2889  001F14  EF94  F00F         	goto	i2l972
  2890  001F18                     i2u8540:
  2891                           	line	732
  2892                           ;main.c: 732: LATA = 0b10111111;
  2893  001F18  0EBF               	movlw	low(0BFh)
  2894  001F1A  6E89               	movwf	((c:3977)),c	;volatile
  2895                           	line	734
  2896                           ;main.c: 734: LATB = 0b10000000;
  2897  001F1C  0E80               	movlw	low(080h)
  2898  001F1E  6E8A               	movwf	((c:3978)),c	;volatile
  2899                           	line	736
  2900                           ;main.c: 736: LATC = 0b00011111;
  2901  001F20  0E1F               	movlw	low(01Fh)
  2902  001F22  6E8B               	movwf	((c:3979)),c	;volatile
  2903                           	line	738
  2904                           ;main.c: 738: } else if (led_array[0] == 1 && le
                                 d_array[8] == 1) {
  2905  001F24  EFC0  F010         	goto	i2l873
  2906                           	
  2907  001F28                     i2l972:		; BSR set to: ?
  2908                           
  2909  001F28  0401               	decf	((c:1)),c,w
  2910  001F2A  1002               	iorwf ((c:1+1)),c,w
  2911                           
  2912  001F2C  A4D8               	btfss	status,2
  2913  001F2E  EF9B  F00F         	goto	i2u8551
  2914  001F32  EF9D  F00F         	goto	i2u8550
  2915  001F36                     i2u8551:
  2916  001F36  EFAD  F00F         	goto	i2l974
  2917  001F3A                     i2u8550:
  2918  001F3A  0411               	decf	(0+((c:1)+010h)),c,w
  2919  001F3C  1012               	iorwf (1+((c:1)+010h)),c,w
  2920                           
  2921  001F3E  A4D8               	btfss	status,2
  2922  001F40  EFA4  F00F         	goto	i2u8561
  2923  001F44  EFA6  F00F         	goto	i2u8560
  2924  001F48                     i2u8561:
  2925  001F48  EFAD  F00F         	goto	i2l974
  2926  001F4C                     i2u8560:
  2927                           	line	741
  2928                           ;main.c: 741: LATA = 0b11111111;
  2929  001F4C  6889               	setf	((c:3977)),c	;volatile
  2930                           	line	743
  2931                           ;main.c: 743: LATB = 0b10000000;
  2932  001F4E  0E80               	movlw	low(080h)
  2933  001F50  6E8A               	movwf	((c:3978)),c	;volatile
  2934                           	line	745
  2935                           ;main.c: 745: LATC = 0b00011110;
  2936  001F52  0E1E               	movlw	low(01Eh)
  2937  001F54  6E8B               	movwf	((c:3979)),c	;volatile
  2938                           	line	747
  2939                           ;main.c: 747: } else if (led_array[0] == 1 && le
                                 d_array[9] == 1) {
  2940  001F56  EFC0  F010         	goto	i2l873
  2941                           	
  2942  001F5A                     i2l974:		; BSR set to: ?
  2943                           
  2944  001F5A  0401               	decf	((c:1)),c,w
  2945  001F5C  1002               	iorwf ((c:1+1)),c,w
  2946                           
  2947  001F5E  A4D8               	btfss	status,2
  2948  001F60  EFB4  F00F         	goto	i2u8571
  2949  001F64  EFB6  F00F         	goto	i2u8570
  2950  001F68                     i2u8571:
  2951  001F68  EFC6  F00F         	goto	i2l976
  2952  001F6C                     i2u8570:
  2953  001F6C  0413               	decf	(0+((c:1)+012h)),c,w
  2954  001F6E  1014               	iorwf (1+((c:1)+012h)),c,w
  2955                           
  2956  001F70  A4D8               	btfss	status,2
  2957  001F72  EFBD  F00F         	goto	i2u8581
  2958  001F76  EFBF  F00F         	goto	i2u8580
  2959  001F7A                     i2u8581:
  2960  001F7A  EFC6  F00F         	goto	i2l976
  2961  001F7E                     i2u8580:
  2962                           	line	750
  2963                           ;main.c: 750: LATA = 0b11111111;
  2964  001F7E  6889               	setf	((c:3977)),c	;volatile
  2965                           	line	752
  2966                           ;main.c: 752: LATB = 0b10000000;
  2967  001F80  0E80               	movlw	low(080h)
  2968  001F82  6E8A               	movwf	((c:3978)),c	;volatile
  2969                           	line	754
  2970                           ;main.c: 754: LATC = 0b00011101;
  2971  001F84  0E1D               	movlw	low(01Dh)
  2972  001F86  6E8B               	movwf	((c:3979)),c	;volatile
  2973                           	line	756
  2974                           ;main.c: 756: } else if (led_array[0] == 1 && le
                                 d_array[10] == 1) {
  2975  001F88  EFC0  F010         	goto	i2l873
  2976                           	
  2977  001F8C                     i2l976:		; BSR set to: ?
  2978                           
  2979  001F8C  0401               	decf	((c:1)),c,w
  2980  001F8E  1002               	iorwf ((c:1+1)),c,w
  2981                           
  2982  001F90  A4D8               	btfss	status,2
  2983  001F92  EFCD  F00F         	goto	i2u8591
  2984  001F96  EFCF  F00F         	goto	i2u8590
  2985  001F9A                     i2u8591:
  2986  001F9A  EFDF  F00F         	goto	i2l978
  2987  001F9E                     i2u8590:
  2988  001F9E  0415               	decf	(0+((c:1)+014h)),c,w
  2989  001FA0  1016               	iorwf (1+((c:1)+014h)),c,w
  2990                           
  2991  001FA2  A4D8               	btfss	status,2
  2992  001FA4  EFD6  F00F         	goto	i2u8601
  2993  001FA8  EFD8  F00F         	goto	i2u8600
  2994  001FAC                     i2u8601:
  2995  001FAC  EFDF  F00F         	goto	i2l978
  2996  001FB0                     i2u8600:
  2997                           	line	759
  2998                           ;main.c: 759: LATA = 0b11111111;
  2999  001FB0  6889               	setf	((c:3977)),c	;volatile
  3000                           	line	761
  3001                           ;main.c: 761: LATB = 0b00000000;
  3002  001FB2  0E00               	movlw	low(0)
  3003  001FB4  6E8A               	movwf	((c:3978)),c	;volatile
  3004                           	line	763
  3005                           ;main.c: 763: LATC = 0b00011111;
  3006  001FB6  0E1F               	movlw	low(01Fh)
  3007  001FB8  6E8B               	movwf	((c:3979)),c	;volatile
  3008                           	line	765
  3009                           ;main.c: 765: } else if (led_array[0] == 1 && le
                                 d_array[11] == 1) {
  3010  001FBA  EFC0  F010         	goto	i2l873
  3011                           	
  3012  001FBE                     i2l978:		; BSR set to: ?
  3013                           
  3014  001FBE  0401               	decf	((c:1)),c,w
  3015  001FC0  1002               	iorwf ((c:1+1)),c,w
  3016                           
  3017  001FC2  A4D8               	btfss	status,2
  3018  001FC4  EFE6  F00F         	goto	i2u8611
  3019  001FC8  EFE8  F00F         	goto	i2u8610
  3020  001FCC                     i2u8611:
  3021  001FCC  EFF8  F00F         	goto	i2l980
  3022  001FD0                     i2u8610:
  3023  001FD0  0417               	decf	(0+((c:1)+016h)),c,w
  3024  001FD2  1018               	iorwf (1+((c:1)+016h)),c,w
  3025                           
  3026  001FD4  A4D8               	btfss	status,2
  3027  001FD6  EFEF  F00F         	goto	i2u8621
  3028  001FDA  EFF1  F00F         	goto	i2u8620
  3029  001FDE                     i2u8621:
  3030  001FDE  EFF8  F00F         	goto	i2l980
  3031  001FE2                     i2u8620:
  3032                           	line	768
  3033                           ;main.c: 768: LATA = 0b11111111;
  3034  001FE2  6889               	setf	((c:3977)),c	;volatile
  3035                           	line	770
  3036                           ;main.c: 770: LATB = 0b10000000;
  3037  001FE4  0E80               	movlw	low(080h)
  3038  001FE6  6E8A               	movwf	((c:3978)),c	;volatile
  3039                           	line	772
  3040                           ;main.c: 772: LATC = 0b00011011;
  3041  001FE8  0E1B               	movlw	low(01Bh)
  3042  001FEA  6E8B               	movwf	((c:3979)),c	;volatile
  3043                           	line	774
  3044                           ;main.c: 774: } else if (led_array[0] == 1 && le
                                 d_array[12] == 1) {
  3045  001FEC  EFC0  F010         	goto	i2l873
  3046                           	
  3047  001FF0                     i2l980:		; BSR set to: ?
  3048                           
  3049  001FF0  0401               	decf	((c:1)),c,w
  3050  001FF2  1002               	iorwf ((c:1+1)),c,w
  3051                           
  3052  001FF4  A4D8               	btfss	status,2
  3053  001FF6  EFFF  F00F         	goto	i2u8631
  3054  001FFA  EF01  F010         	goto	i2u8630
  3055  001FFE                     i2u8631:
  3056  001FFE  EF11  F010         	goto	i2l982
  3057  002002                     i2u8630:
  3058  002002  0419               	decf	(0+((c:1)+018h)),c,w
  3059  002004  101A               	iorwf (1+((c:1)+018h)),c,w
  3060                           
  3061  002006  A4D8               	btfss	status,2
  3062  002008  EF08  F010         	goto	i2u8641
  3063  00200C  EF0A  F010         	goto	i2u8640
  3064  002010                     i2u8641:
  3065  002010  EF11  F010         	goto	i2l982
  3066  002014                     i2u8640:
  3067                           	line	777
  3068                           ;main.c: 777: LATA = 0b11111111;
  3069  002014  6889               	setf	((c:3977)),c	;volatile
  3070                           	line	779
  3071                           ;main.c: 779: LATB = 0b10000000;
  3072  002016  0E80               	movlw	low(080h)
  3073  002018  6E8A               	movwf	((c:3978)),c	;volatile
  3074                           	line	781
  3075                           ;main.c: 781: LATC = 0b00010111;
  3076  00201A  0E17               	movlw	low(017h)
  3077  00201C  6E8B               	movwf	((c:3979)),c	;volatile
  3078                           	line	783
  3079                           ;main.c: 783: } else if (led_array[1] == 1 && le
                                 d_array[6] == 1) {
  3080  00201E  EFC0  F010         	goto	i2l873
  3081                           	
  3082  002022                     i2l982:		; BSR set to: ?
  3083                           
  3084  002022  0403               	decf	(0+((c:1)+02h)),c,w
  3085  002024  1004               	iorwf (1+((c:1)+02h)),c,w
  3086                           
  3087  002026  A4D8               	btfss	status,2
  3088  002028  EF18  F010         	goto	i2u8651
  3089  00202C  EF1A  F010         	goto	i2u8650
  3090  002030                     i2u8651:
  3091  002030  EF2B  F010         	goto	i2l984
  3092  002034                     i2u8650:
  3093  002034  040D               	decf	(0+((c:1)+0Ch)),c,w
  3094  002036  100E               	iorwf (1+((c:1)+0Ch)),c,w
  3095                           
  3096  002038  A4D8               	btfss	status,2
  3097  00203A  EF21  F010         	goto	i2u8661
  3098  00203E  EF23  F010         	goto	i2u8660
  3099  002042                     i2u8661:
  3100  002042  EF2B  F010         	goto	i2l984
  3101  002046                     i2u8660:
  3102                           	line	786
  3103                           ;main.c: 786: LATA = 0b11101111;
  3104  002046  0EEF               	movlw	low(0EFh)
  3105  002048  6E89               	movwf	((c:3977)),c	;volatile
  3106                           	line	788
  3107                           ;main.c: 788: LATB = 0b10000000;
  3108  00204A  0E80               	movlw	low(080h)
  3109  00204C  6E8A               	movwf	((c:3978)),c	;volatile
  3110                           	line	790
  3111                           ;main.c: 790: LATC = 0b00101111;
  3112  00204E  0E2F               	movlw	low(02Fh)
  3113  002050  6E8B               	movwf	((c:3979)),c	;volatile
  3114                           	line	792
  3115                           ;main.c: 792: } else if (led_array[1] == 1 && le
                                 d_array[7] == 1) {
  3116  002052  EFC0  F010         	goto	i2l873
  3117                           	
  3118  002056                     i2l984:		; BSR set to: ?
  3119                           
  3120  002056  0403               	decf	(0+((c:1)+02h)),c,w
  3121  002058  1004               	iorwf (1+((c:1)+02h)),c,w
  3122                           
  3123  00205A  A4D8               	btfss	status,2
  3124  00205C  EF32  F010         	goto	i2u8671
  3125  002060  EF34  F010         	goto	i2u8670
  3126  002064                     i2u8671:
  3127  002064  EF45  F010         	goto	i2l986
  3128  002068                     i2u8670:
  3129  002068  040F               	decf	(0+((c:1)+0Eh)),c,w
  3130  00206A  1010               	iorwf (1+((c:1)+0Eh)),c,w
  3131                           
  3132  00206C  A4D8               	btfss	status,2
  3133  00206E  EF3B  F010         	goto	i2u8681
  3134  002072  EF3D  F010         	goto	i2u8680
  3135  002076                     i2u8681:
  3136  002076  EF45  F010         	goto	i2l986
  3137  00207A                     i2u8680:
  3138                           	line	795
  3139                           ;main.c: 795: LATA = 0b10111111;
  3140  00207A  0EBF               	movlw	low(0BFh)
  3141  00207C  6E89               	movwf	((c:3977)),c	;volatile
  3142                           	line	797
  3143                           ;main.c: 797: LATB = 0b10000000;
  3144  00207E  0E80               	movlw	low(080h)
  3145  002080  6E8A               	movwf	((c:3978)),c	;volatile
  3146                           	line	799
  3147                           ;main.c: 799: LATC = 0b00101111;
  3148  002082  0E2F               	movlw	low(02Fh)
  3149  002084  6E8B               	movwf	((c:3979)),c	;volatile
  3150                           	line	801
  3151                           ;main.c: 801: } else if (led_array[1] == 1 && le
                                 d_array[8] == 1) {
  3152  002086  EFC0  F010         	goto	i2l873
  3153                           	
  3154  00208A                     i2l986:		; BSR set to: ?
  3155                           
  3156  00208A  0403               	decf	(0+((c:1)+02h)),c,w
  3157  00208C  1004               	iorwf (1+((c:1)+02h)),c,w
  3158                           
  3159  00208E  A4D8               	btfss	status,2
  3160  002090  EF4C  F010         	goto	i2u8691
  3161  002094  EF4E  F010         	goto	i2u8690
  3162  002098                     i2u8691:
  3163  002098  EF5E  F010         	goto	i2l988
  3164  00209C                     i2u8690:
  3165  00209C  0411               	decf	(0+((c:1)+010h)),c,w
  3166  00209E  1012               	iorwf (1+((c:1)+010h)),c,w
  3167                           
  3168  0020A0  A4D8               	btfss	status,2
  3169  0020A2  EF55  F010         	goto	i2u8701
  3170  0020A6  EF57  F010         	goto	i2u8700
  3171  0020AA                     i2u8701:
  3172  0020AA  EF5E  F010         	goto	i2l988
  3173  0020AE                     i2u8700:
  3174                           	line	804
  3175                           ;main.c: 804: LATA = 0b11111111;
  3176  0020AE  6889               	setf	((c:3977)),c	;volatile
  3177                           	line	806
  3178                           ;main.c: 806: LATB = 0b10000000;
  3179  0020B0  0E80               	movlw	low(080h)
  3180  0020B2  6E8A               	movwf	((c:3978)),c	;volatile
  3181                           	line	808
  3182                           ;main.c: 808: LATC = 0b00101110;
  3183  0020B4  0E2E               	movlw	low(02Eh)
  3184  0020B6  6E8B               	movwf	((c:3979)),c	;volatile
  3185                           	line	810
  3186                           ;main.c: 810: } else if (led_array[1] == 1 && le
                                 d_array[9] == 1) {
  3187  0020B8  EFC0  F010         	goto	i2l873
  3188                           	
  3189  0020BC                     i2l988:		; BSR set to: ?
  3190                           
  3191  0020BC  0403               	decf	(0+((c:1)+02h)),c,w
  3192  0020BE  1004               	iorwf (1+((c:1)+02h)),c,w
  3193                           
  3194  0020C0  A4D8               	btfss	status,2
  3195  0020C2  EF65  F010         	goto	i2u8711
  3196  0020C6  EF67  F010         	goto	i2u8710
  3197  0020CA                     i2u8711:
  3198  0020CA  EF77  F010         	goto	i2l990
  3199  0020CE                     i2u8710:
  3200  0020CE  0413               	decf	(0+((c:1)+012h)),c,w
  3201  0020D0  1014               	iorwf (1+((c:1)+012h)),c,w
  3202                           
  3203  0020D2  A4D8               	btfss	status,2
  3204  0020D4  EF6E  F010         	goto	i2u8721
  3205  0020D8  EF70  F010         	goto	i2u8720
  3206  0020DC                     i2u8721:
  3207  0020DC  EF77  F010         	goto	i2l990
  3208  0020E0                     i2u8720:
  3209                           	line	813
  3210                           ;main.c: 813: LATA = 0b11111111;
  3211  0020E0  6889               	setf	((c:3977)),c	;volatile
  3212                           	line	815
  3213                           ;main.c: 815: LATB = 0b10000000;
  3214  0020E2  0E80               	movlw	low(080h)
  3215  0020E4  6E8A               	movwf	((c:3978)),c	;volatile
  3216                           	line	817
  3217                           ;main.c: 817: LATC = 0b00101101;
  3218  0020E6  0E2D               	movlw	low(02Dh)
  3219  0020E8  6E8B               	movwf	((c:3979)),c	;volatile
  3220                           	line	819
  3221                           ;main.c: 819: } else if (led_array[1] == 1 && le
                                 d_array[10] == 1) {
  3222  0020EA  EFC0  F010         	goto	i2l873
  3223                           	
  3224  0020EE                     i2l990:		; BSR set to: ?
  3225                           
  3226  0020EE  0403               	decf	(0+((c:1)+02h)),c,w
  3227  0020F0  1004               	iorwf (1+((c:1)+02h)),c,w
  3228                           
  3229  0020F2  A4D8               	btfss	status,2
  3230  0020F4  EF7E  F010         	goto	i2u8731
  3231  0020F8  EF80  F010         	goto	i2u8730
  3232  0020FC                     i2u8731:
  3233  0020FC  EF90  F010         	goto	i2l992
  3234  002100                     i2u8730:
  3235  002100  0415               	decf	(0+((c:1)+014h)),c,w
  3236  002102  1016               	iorwf (1+((c:1)+014h)),c,w
  3237                           
  3238  002104  A4D8               	btfss	status,2
  3239  002106  EF87  F010         	goto	i2u8741
  3240  00210A  EF89  F010         	goto	i2u8740
  3241  00210E                     i2u8741:
  3242  00210E  EF90  F010         	goto	i2l992
  3243  002112                     i2u8740:
  3244                           	line	822
  3245                           ;main.c: 822: LATA = 0b11111111;
  3246  002112  6889               	setf	((c:3977)),c	;volatile
  3247                           	line	824
  3248                           ;main.c: 824: LATB = 0b00000000;
  3249  002114  0E00               	movlw	low(0)
  3250  002116  6E8A               	movwf	((c:3978)),c	;volatile
  3251                           	line	826
  3252                           ;main.c: 826: LATC = 0b00101111;
  3253  002118  0E2F               	movlw	low(02Fh)
  3254  00211A  6E8B               	movwf	((c:3979)),c	;volatile
  3255                           	line	828
  3256                           ;main.c: 828: } else if (led_array[1] == 1 && le
                                 d_array[11] == 1) {
  3257  00211C  EFC0  F010         	goto	i2l873
  3258                           	
  3259  002120                     i2l992:		; BSR set to: ?
  3260                           
  3261  002120  0403               	decf	(0+((c:1)+02h)),c,w
  3262  002122  1004               	iorwf (1+((c:1)+02h)),c,w
  3263                           
  3264  002124  A4D8               	btfss	status,2
  3265  002126  EF97  F010         	goto	i2u8751
  3266  00212A  EF99  F010         	goto	i2u8750
  3267  00212E                     i2u8751:
  3268  00212E  EFA9  F010         	goto	i2l994
  3269  002132                     i2u8750:
  3270  002132  0417               	decf	(0+((c:1)+016h)),c,w
  3271  002134  1018               	iorwf (1+((c:1)+016h)),c,w
  3272                           
  3273  002136  A4D8               	btfss	status,2
  3274  002138  EFA0  F010         	goto	i2u8761
  3275  00213C  EFA2  F010         	goto	i2u8760
  3276  002140                     i2u8761:
  3277  002140  EFA9  F010         	goto	i2l994
  3278  002144                     i2u8760:
  3279                           	line	831
  3280                           ;main.c: 831: LATA = 0b11111111;
  3281  002144  6889               	setf	((c:3977)),c	;volatile
  3282                           	line	833
  3283                           ;main.c: 833: LATB = 0b10000000;
  3284  002146  0E80               	movlw	low(080h)
  3285  002148  6E8A               	movwf	((c:3978)),c	;volatile
  3286                           	line	835
  3287                           ;main.c: 835: LATC = 0b00101011;
  3288  00214A  0E2B               	movlw	low(02Bh)
  3289  00214C  6E8B               	movwf	((c:3979)),c	;volatile
  3290                           	line	837
  3291                           ;main.c: 837: } else if (led_array[1] == 1 && le
                                 d_array[12] == 1) {
  3292  00214E  EFC0  F010         	goto	i2l873
  3293                           	
  3294  002152                     i2l994:		; BSR set to: ?
  3295                           
  3296  002152  0403               	decf	(0+((c:1)+02h)),c,w
  3297  002154  1004               	iorwf (1+((c:1)+02h)),c,w
  3298                           
  3299  002156  A4D8               	btfss	status,2
  3300  002158  EFB0  F010         	goto	i2u8771
  3301  00215C  EFB2  F010         	goto	i2u8770
  3302  002160                     i2u8771:
  3303  002160  EFC0  F010         	goto	i2l873
  3304  002164                     i2u8770:
  3305  002164  0419               	decf	(0+((c:1)+018h)),c,w
  3306  002166  101A               	iorwf (1+((c:1)+018h)),c,w
  3307                           
  3308  002168  A4D8               	btfss	status,2
  3309  00216A  EFB9  F010         	goto	i2u8781
  3310  00216E  EFBB  F010         	goto	i2u8780
  3311  002172                     i2u8781:
  3312  002172  EFC0  F010         	goto	i2l873
  3313  002176                     i2u8780:
  3314                           	line	840
  3315                           ;main.c: 840: LATA = 0b11111111;
  3316  002176  6889               	setf	((c:3977)),c	;volatile
  3317                           	line	842
  3318                           ;main.c: 842: LATB = 0b10000000;
  3319  002178  0E80               	movlw	low(080h)
  3320  00217A  6E8A               	movwf	((c:3978)),c	;volatile
  3321                           	line	844
  3322                           ;main.c: 844: LATC = 0b00100111;
  3323  00217C  0E27               	movlw	low(027h)
  3324  00217E  6E8B               	movwf	((c:3979)),c	;volatile
  3325                           	line	845
  3326                           	
  3327  002180                     i2l996:		; BSR set to: ?
  3328                           
  3329                           	line	846
  3330                           	
  3331  002180                     i2l995:		; BSR set to: ?
  3332                           
  3333                           	
  3334  002180                     i2l993:		; BSR set to: ?
  3335                           
  3336                           	
  3337  002180                     i2l991:		; BSR set to: ?
  3338                           
  3339                           	
  3340  002180                     i2l989:		; BSR set to: ?
  3341                           
  3342                           	
  3343  002180                     i2l987:		; BSR set to: ?
  3344                           
  3345                           	
  3346  002180                     i2l985:		; BSR set to: ?
  3347                           
  3348                           	
  3349  002180                     i2l983:		; BSR set to: ?
  3350                           
  3351                           	
  3352  002180                     i2l981:		; BSR set to: ?
  3353                           
  3354                           	
  3355  002180                     i2l979:		; BSR set to: ?
  3356                           
  3357                           	
  3358  002180                     i2l977:		; BSR set to: ?
  3359                           
  3360                           	
  3361  002180                     i2l975:		; BSR set to: ?
  3362                           
  3363                           	
  3364  002180                     i2l973:		; BSR set to: ?
  3365                           
  3366                           	
  3367  002180                     i2l971:		; BSR set to: ?
  3368                           
  3369                           	
  3370  002180                     i2l969:		; BSR set to: ?
  3371                           
  3372                           	
  3373  002180                     i2l967:		; BSR set to: ?
  3374                           
  3375                           	
  3376  002180                     i2l965:		; BSR set to: ?
  3377                           
  3378                           	
  3379  002180                     i2l963:		; BSR set to: ?
  3380                           
  3381                           	
  3382  002180                     i2l961:		; BSR set to: ?
  3383                           
  3384                           	
  3385  002180                     i2l959:		; BSR set to: ?
  3386                           
  3387                           	
  3388  002180                     i2l957:		; BSR set to: ?
  3389                           
  3390                           	
  3391  002180                     i2l955:		; BSR set to: ?
  3392                           
  3393                           	
  3394  002180                     i2l953:		; BSR set to: ?
  3395                           
  3396                           	
  3397  002180                     i2l951:		; BSR set to: ?
  3398                           
  3399                           	
  3400  002180                     i2l949:		; BSR set to: ?
  3401                           
  3402                           	
  3403  002180                     i2l947:		; BSR set to: ?
  3404                           
  3405                           	
  3406  002180                     i2l945:		; BSR set to: ?
  3407                           
  3408                           	
  3409  002180                     i2l943:		; BSR set to: ?
  3410                           
  3411                           	
  3412  002180                     i2l941:		; BSR set to: ?
  3413                           
  3414                           	
  3415  002180                     i2l939:		; BSR set to: ?
  3416                           
  3417                           	
  3418  002180                     i2l937:		; BSR set to: ?
  3419                           
  3420                           	
  3421  002180                     i2l935:		; BSR set to: ?
  3422                           
  3423                           	
  3424  002180                     i2l933:		; BSR set to: ?
  3425                           
  3426                           	
  3427  002180                     i2l931:		; BSR set to: ?
  3428                           
  3429                           	
  3430  002180                     i2l929:		; BSR set to: ?
  3431                           
  3432                           	
  3433  002180                     i2l927:		; BSR set to: ?
  3434                           
  3435                           	
  3436  002180                     i2l925:		; BSR set to: ?
  3437                           
  3438                           	
  3439  002180                     i2l923:		; BSR set to: ?
  3440                           
  3441                           	
  3442  002180                     i2l921:		; BSR set to: ?
  3443                           
  3444                           	
  3445  002180                     i2l919:		; BSR set to: ?
  3446                           
  3447                           	
  3448  002180                     i2l917:		; BSR set to: ?
  3449                           
  3450                           	
  3451  002180                     i2l915:		; BSR set to: ?
  3452                           
  3453                           	
  3454  002180                     i2l913:		; BSR set to: ?
  3455                           
  3456                           	
  3457  002180                     i2l911:		; BSR set to: ?
  3458                           
  3459                           	
  3460  002180                     i2l909:		; BSR set to: ?
  3461                           
  3462                           	
  3463  002180                     i2l907:		; BSR set to: ?
  3464                           
  3465                           	
  3466  002180                     i2l905:		; BSR set to: ?
  3467                           
  3468                           	
  3469  002180                     i2l903:		; BSR set to: ?
  3470                           
  3471                           	
  3472  002180                     i2l901:		; BSR set to: ?
  3473                           
  3474                           	
  3475  002180                     i2l899:		; BSR set to: ?
  3476                           
  3477                           	
  3478  002180                     i2l897:		; BSR set to: ?
  3479                           
  3480                           	
  3481  002180                     i2l895:		; BSR set to: ?
  3482                           
  3483                           	
  3484  002180                     i2l893:		; BSR set to: ?
  3485                           
  3486                           	
  3487  002180                     i2l891:		; BSR set to: ?
  3488                           
  3489                           	
  3490  002180                     i2l889:		; BSR set to: ?
  3491                           
  3492                           	
  3493  002180                     i2l887:		; BSR set to: ?
  3494                           
  3495                           	
  3496  002180                     i2l885:		; BSR set to: ?
  3497                           
  3498                           	
  3499  002180                     i2l883:		; BSR set to: ?
  3500                           
  3501                           	
  3502  002180                     i2l881:		; BSR set to: ?
  3503                           
  3504                           	
  3505  002180                     i2l879:		; BSR set to: ?
  3506                           
  3507                           	
  3508  002180                     i2l877:		; BSR set to: ?
  3509                           
  3510                           	
  3511  002180                     i2l875:		; BSR set to: ?
  3512                           
  3513                           	
  3514  002180                     i2l873:		; BSR set to: ?
  3515                           
  3516                           ;main.c: 845: }
  3517                           ;main.c: 846: }
  3518  002180                     i2l871:
  3519                           			; BSR set to: ?
  3520                           
  3521  002180  0012               	return
  3522                           	opt stack 0
  3523                           GLOBAL __end_of_ToggleLeds
  3524  002182                     	__end_of_ToggleLeds:
  3525                           	FNSIZE	_ToggleLeds,0,0
  3526                           ; =============== function _ToggleLeds ends ====
                                 ========
  3527                           
  3528                           	signat	_ToggleLeds,88
  3529                                   psect   text3,class=CODE,space=0,reloc=2
  3530                           	global	intlevel2
  3531                           
  3532                           	opt lm
  3533                           	FNBREAK _adc_conversion,intlevel2
  3534                           	global	_adc_conversion
  3535                           	global	??_adc_conversion
  3536                           	global	?_adc_conversion
  3537                           
  3538                           ; *************** function _adc_conversion *****
                                 ************
  3539                           ; Defined at:
  3540                           ;		line 1035 in file "../code/main.c"
  3541                           ; Parameters:
  3542                           ;		None
  3543                           ; Auto variables:
  3544                           ;		hResult     	       	type: unsigned char 
  3545                           ;		lResult     	       	type: unsigned char 
  3546                           ;		note        	       	type: unsigned char 
  3547                           ; Return value:
  3548                           ;		type: void 
  3549                           ;		size: 0
  3550                           ; Registers used:
  3551                           ;		wreg, status,2, status,0, cstack
  3552                           ; Tracked objects:
  3553                           ;		On entry : 0/0
  3554                           ;		On exit  : 0/0
  3555                           ;		Unchanged: 0/0
  3556                           ; Data sizes:
  3557                           ;		Autos:    3
  3558                           ;		Params:   0
  3559                           ;		Temp:     0
  3560                           ;		Total:    3
  3561                           ; This function calls:
  3562                           ;		_getNote
  3563                           ; This function is called by:
  3564                           ;		_my_isr
  3565                           ; This function uses a non-reentrant model
  3566                           ; 
  3567                           	file	"../code/main.c"
  3568                           	line	1035
  3569  000000                     	__size_of_adc_conversion	equ	__end_of_adc_conve
                                 rsion-_adc_conversion
  3570                           ;main.c: 1035: void adc_conversion() {
  3571                           	
  3572  002426                     _adc_conversion:		; BSR set to: ?
  3573                           
  3574                           	opt stack 30
  3575                           	line	1037
  3576                           ;main.c: 1037: ADON = 0;
  3577  002426  90C2               	bcf	c:(32272/8),(32272)&7	;volatile
  3578                           	line	1039
  3579                           ;main.c: 1039: ADRESH = 0;
  3580  002428  0E00               	movlw	low(0)
  3581  00242A  6EC4               	movwf	((c:4036)),c	;volatile
  3582                           	line	1040
  3583                           ;main.c: 1040: ADRESL = 0;
  3584  00242C  0E00               	movlw	low(0)
  3585  00242E  6EC3               	movwf	((c:4035)),c	;volatile
  3586                           	line	1043
  3587                           ;main.c: 1043: switch (adc_num) {
  3588  002430  EF36  F012         	goto	i2l1104
  3589                           	line	1044
  3590                           ;main.c: 1044: case 0 :
  3591                           	
  3592  002434                     i2l1105:		; BSR set to: ?
  3593                           
  3594                           	line	1045
  3595                           ;main.c: 1045: ADCON0 = 0b00100000;
  3596  002434  0E20               	movlw	low(020h)
  3597  002436  6EC2               	movwf	((c:4034)),c	;volatile
  3598                           	line	1046
  3599                           ;main.c: 1046: break;
  3600  002438  EF47  F012         	goto	i2l1103
  3601                           	line	1047
  3602                           ;main.c: 1047: case 1 :
  3603                           	
  3604  00243C                     i2l1106:		; BSR set to: ?
  3605                           
  3606                           	line	1048
  3607                           ;main.c: 1048: ADCON0 = 0b00100100;
  3608  00243C  0E24               	movlw	low(024h)
  3609  00243E  6EC2               	movwf	((c:4034)),c	;volatile
  3610                           	line	1049
  3611                           ;main.c: 1049: break;
  3612  002440  EF47  F012         	goto	i2l1103
  3613                           	line	1050
  3614                           ;main.c: 1050: case 2 :
  3615                           	
  3616  002444                     i2l1107:		; BSR set to: ?
  3617                           
  3618                           	line	1051
  3619                           ;main.c: 1051: ADCON0 = 0b00000000;
  3620  002444  0E00               	movlw	low(0)
  3621  002446  6EC2               	movwf	((c:4034)),c	;volatile
  3622                           	line	1052
  3623                           ;main.c: 1052: break;
  3624  002448  EF47  F012         	goto	i2l1103
  3625                           	line	1053
  3626                           ;main.c: 1053: case 3 :
  3627                           	
  3628  00244C                     i2l1108:		; BSR set to: ?
  3629                           
  3630                           	line	1054
  3631                           ;main.c: 1054: ADCON0 = 0b00000100;
  3632  00244C  0E04               	movlw	low(04h)
  3633  00244E  6EC2               	movwf	((c:4034)),c	;volatile
  3634                           	line	1055
  3635                           ;main.c: 1055: break;
  3636  002450  EF47  F012         	goto	i2l1103
  3637                           	line	1056
  3638                           ;main.c: 1056: case 4 :
  3639                           	
  3640  002454                     i2l1109:		; BSR set to: ?
  3641                           
  3642                           	line	1057
  3643                           ;main.c: 1057: ADCON0 = 0b00001000;
  3644  002454  0E08               	movlw	low(08h)
  3645  002456  6EC2               	movwf	((c:4034)),c	;volatile
  3646                           	line	1058
  3647                           ;main.c: 1058: break;
  3648  002458  EF47  F012         	goto	i2l1103
  3649                           	line	1059
  3650                           ;main.c: 1059: case 5 :
  3651                           	
  3652  00245C                     i2l1110:		; BSR set to: ?
  3653                           
  3654                           	line	1060
  3655                           ;main.c: 1060: ADCON0 = 0b00001100;
  3656  00245C  0E0C               	movlw	low(0Ch)
  3657  00245E  6EC2               	movwf	((c:4034)),c	;volatile
  3658                           	line	1061
  3659                           ;main.c: 1061: break;
  3660  002460  EF47  F012         	goto	i2l1103
  3661                           	line	1062
  3662                           ;main.c: 1062: case 6 :
  3663                           	
  3664  002464                     i2l1111:		; BSR set to: ?
  3665                           
  3666                           	line	1063
  3667                           ;main.c: 1063: ADCON0 = 0b00010000;
  3668  002464  0E10               	movlw	low(010h)
  3669  002466  6EC2               	movwf	((c:4034)),c	;volatile
  3670                           	line	1064
  3671                           ;main.c: 1064: break;
  3672  002468  EF47  F012         	goto	i2l1103
  3673                           	line	1043
  3674                           	
  3675  00246C                     i2l1104:		; BSR set to: ?
  3676                           
  3677  00246C  501D               	movf	((c:29)),c,w	;volatile
  3678  00246E  0A00               	xorlw	0 ^ 0
  3679  002470  E0E1               	bz	i2l1105
  3680  002472  0A01               	xorlw	1 ^ 0
  3681  002474  E0E3               	bz	i2l1106
  3682  002476  0A03               	xorlw	2 ^ 1
  3683  002478  E0E5               	bz	i2l1107
  3684  00247A  0A01               	xorlw	3 ^ 2
  3685  00247C  E0E7               	bz	i2l1108
  3686  00247E  0A07               	xorlw	4 ^ 3
  3687  002480  E0E9               	bz	i2l1109
  3688  002482  0A01               	xorlw	5 ^ 4
  3689  002484  E0EB               	bz	i2l1110
  3690  002486  0A03               	xorlw	6 ^ 5
  3691  002488  E0ED               	bz	i2l1111
  3692  00248A  EF47  F012         	goto	i2l1103
  3693                           
  3694                           	line	1065
  3695                           	
  3696  00248E                     i2l1103:		; BSR set to: ?
  3697                           
  3698                           	line	1069
  3699                           ;main.c: 1069: ADON = 1;
  3700  00248E  80C2               	bsf	c:(32272/8),(32272)&7	;volatile
  3701                           	line	1070
  3702                           ;main.c: 1070: GODONE = 1;
  3703  002490  82C2               	bsf	c:(32273/8),(32273)&7	;volatile
  3704                           	line	1073
  3705                           ;main.c: 1073: while (GODONE);
  3706  002492  EF4B  F012         	goto	i2l1112
  3707                           	
  3708  002496                     i2l1112:		; BSR set to: ?
  3709                           
  3710  002496  B2C2               	btfsc	c:(32273/8),(32273)&7	;volatile
  3711  002498  EF50  F012         	goto	i2u9031
  3712  00249C  EF52  F012         	goto	i2u9030
  3713  0024A0                     i2u9031:
  3714  0024A0  EF4B  F012         	goto	i2l1112
  3715  0024A4                     i2u9030:
  3716                           	
  3717  0024A4                     i2l1114:		; BSR set to: ?
  3718                           
  3719                           	line	1074
  3720                           ;main.c: 1074: unsigned char hResult = ADRESH;
  3721  0024A4  CFC4 F113          	movff	(c:4036),(adc_conversion@hResult)	;volati
                                 le
  3722                           	line	1075
  3723                           ;main.c: 1075: unsigned char lResult = ADRESL;
  3724  0024A8  CFC3 F114          	movff	(c:4035),(adc_conversion@lResult)	;volati
                                 le
  3725                           	line	1076
  3726                           ;main.c: 1076: unsigned char note = getNote(hRes
                                 ult, lResult);
  3727  0024AC  C114  F117         	movff	(adc_conversion@lResult),0+(?_getNote+01h
                                 )
  3728  0024B0  C113  F116         	movff	(adc_conversion@hResult),(?_getNote)
  3729  0024B4  EC1B  F000         	call	_getNote	;wreg free
  3730  0024B8  0101               	movlb	1	; () banked
  3731  0024BA  0101               	movlb	1	; () banked
  3732  0024BC  6F15               	movwf	((adc_conversion@note))&0ffh
  3733                           	line	1079
  3734                           ;main.c: 1079: conv_result.result = note;
  3735  0024BE  C115  F01B         	movff	(adc_conversion@note),(c:27)
  3736                           	line	1080
  3737                           ;main.c: 1080: conv_result.adc_channel = adc_num
                                 ;
  3738  0024C2  C01D F01C          	movff	(c:29),0+((c:27)+01h)	;volatile
  3739                           	line	1083
  3740                           ;main.c: 1083: adc_num++;
  3741  0024C6  2A1D               	incf	((c:29)),c	;volatile
  3742                           	line	1084
  3743                           ;main.c: 1084: if (adc_num >= 7) {
  3744  0024C8  0E06               	movlw	(07h-1)
  3745  0024CA  641D               	cpfsgt	((c:29)),c	;volatile
  3746  0024CC  EF6A  F012         	goto	i2u9041
  3747  0024D0  EF6C  F012         	goto	i2u9040
  3748  0024D4                     i2u9041:
  3749  0024D4  EF6E  F012         	goto	i2l1115
  3750  0024D8                     i2u9040:
  3751                           	line	1085
  3752                           ;main.c: 1085: adc_num = 0;
  3753  0024D8  0E00               	movlw	low(0)
  3754  0024DA  6E1D               	movwf	((c:29)),c	;volatile
  3755                           	line	1086
  3756                           	
  3757  0024DC                     i2l1115:		; BSR set to: ?
  3758                           
  3759                           	line	1087
  3760                           ;main.c: 1086: }
  3761                           ;main.c: 1087: }
  3762  0024DC                     i2l1102:
  3763                           			; BSR set to: ?
  3764                           
  3765  0024DC  0012               	return
  3766                           	opt stack 0
  3767                           GLOBAL __end_of_adc_conversion
  3768  0024DE                     	__end_of_adc_conversion:
  3769                           	FNSIZE	_adc_conversion,3,0
  3770                           ; =============== function _adc_conversion ends 
                                 ============
  3771                           
  3772                           	signat	_adc_conversion,88
  3773                                   psect   text4,class=CODE,space=0,reloc=2
  3774                           	global	intlevel2
  3775                           
  3776                           	opt lm
  3777                           	FNBREAK _getNote,intlevel2
  3778                           	global	_getNote
  3779                           	global	??_getNote
  3780                           	global	?_getNote
  3781                           
  3782                           ; *************** function _getNote ************
                                 *****
  3783                           ; Defined at:
  3784                           ;		line 1095 in file "../code/main.c"
  3785                           ; Parameters:
  3786                           ;		hResult        size:   1offs:   0	type: unsig
                                 ned char 
  3787                           ;		lResult        size:   1offs:   1	type: unsig
                                 ned char 
  3788                           ; Auto variables:
  3789                           ;		new_note    	       	type: unsigned char 
  3790                           ; Return value:
  3791                           ;		type: unsigned char 
  3792                           ;		size: 1
  3793                           ; Registers used:
  3794                           ;		wreg, status,2, status,0
  3795                           ; Tracked objects:
  3796                           ;		On entry : 0/0
  3797                           ;		On exit  : 0/0
  3798                           ;		Unchanged: 0/0
  3799                           ; Data sizes:
  3800                           ;		Autos:    1
  3801                           ;		Params:   2
  3802                           ;		Temp:     1
  3803                           ;		Total:    4
  3804                           ; This function calls:
  3805                           ;		Nothing
  3806                           ; This function is called by:
  3807                           ;		_adc_conversion
  3808                           ; This function uses a non-reentrant model
  3809                           ; 
  3810                           	file	"../code/main.c"
  3811                           	line	1095
  3812  000000                     	__size_of_getNote	equ	__end_of_getNote-_getNote
  3813                           ;main.c: 1095: unsigned char getNote (unsigned c
                                 har hResult, unsigned char lResult) {
  3814                           	
  3815  000036                     _getNote:		; BSR set to: ?
  3816                           
  3817                           	opt stack 29
  3818                           	line	1098
  3819                           ;main.c: 1096: unsigned char new_note;
  3820                           ;main.c: 1098: if (adc_num == 0) {
  3821  000036  661D               	tstfsz	((c:29)),c	;volatile
  3822  000038  EF20  F000         	goto	i2u9051
  3823  00003C  EF22  F000         	goto	i2u9050
  3824  000040                     i2u9051:
  3825  000040  EF81  F001         	goto	i2l1117
  3826  000044                     i2u9050:
  3827                           	line	1099
  3828                           ;main.c: 1099: if (hResult == 0x00) {
  3829  000044  0101               	movlb	1	; () banked
  3830  000046  0101               	movlb	1	; () banked
  3831  000048  6716               	tstfsz	((getNote@hResult))&0ffh
  3832  00004A  EF29  F000         	goto	i2u9061
  3833  00004E  EF2B  F000         	goto	i2u9060
  3834  000052                     i2u9061:
  3835  000052  EF35  F000         	goto	i2l1118
  3836  000056                     i2u9060:
  3837                           	line	1101
  3838                           ;main.c: 1101: new_note = 0x00;
  3839  000056  0101               	movlb	1	; () banked
  3840  000058  6F19               	movwf	(??_getNote+1+0)&0ffh
  3841  00005A  0E00               	movlw	low(0)
  3842  00005C  0101               	movlb	1	; () banked
  3843  00005E  0101               	movlb	1	; () banked
  3844  000060  6F18               	movwf	((getNote@new_note))&0ffh
  3845  000062  0101               	movlb	1	; () banked
  3846  000064  5119               	movf	(??_getNote+1+0)&0ffh,w
  3847                           	line	1103
  3848                           ;main.c: 1103: } else if (hResult == 0x01) {
  3849  000066  EF7F  F001         	goto	i2l1119
  3850                           	
  3851  00006A                     i2l1118:		; BSR set to: ?
  3852                           
  3853  00006A  0101               	movlb	1	; () banked
  3854  00006C  0101               	movlb	1	; () banked
  3855  00006E  0516               	decf	((getNote@hResult))&0ffh,w
  3856                           
  3857  000070  A4D8               	btfss	status,2
  3858  000072  EF3D  F000         	goto	i2u9071
  3859  000076  EF3F  F000         	goto	i2u9070
  3860  00007A                     i2u9071:
  3861  00007A  EFA3  F000         	goto	i2l1120
  3862  00007E                     i2u9070:
  3863                           	line	1104
  3864                           ;main.c: 1104: if (lResult >= 190 && lResult <= 
                                 210) {
  3865  00007E  0EBD               	movlw	(0BEh-1)
  3866  000080  0101               	movlb	1	; () banked
  3867  000082  0101               	movlb	1	; () banked
  3868  000084  6517               	cpfsgt	((getNote@lResult))&0ffh
  3869  000086  EF47  F000         	goto	i2u9081
  3870  00008A  EF49  F000         	goto	i2u9080
  3871  00008E                     i2u9081:
  3872  00008E  EF5D  F000         	goto	i2l1121
  3873  000092                     i2u9080:
  3874  000092  0ED3               	movlw	(0D3h)&0ffh
  3875  000094  0101               	movlb	1	; () banked
  3876  000096  0101               	movlb	1	; () banked
  3877  000098  6117               	cpfslt	((getNote@lResult))&0ffh
  3878  00009A  EF51  F000         	goto	i2u9091
  3879  00009E  EF53  F000         	goto	i2u9090
  3880  0000A2                     i2u9091:
  3881  0000A2  EF5D  F000         	goto	i2l1121
  3882  0000A6                     i2u9090:
  3883                           	line	1106
  3884                           ;main.c: 1106: new_note = 0x51;
  3885  0000A6  0101               	movlb	1	; () banked
  3886  0000A8  6F19               	movwf	(??_getNote+1+0)&0ffh
  3887  0000AA  0E51               	movlw	low(051h)
  3888  0000AC  0101               	movlb	1	; () banked
  3889  0000AE  0101               	movlb	1	; () banked
  3890  0000B0  6F18               	movwf	((getNote@new_note))&0ffh
  3891  0000B2  0101               	movlb	1	; () banked
  3892  0000B4  5119               	movf	(??_getNote+1+0)&0ffh,w
  3893                           	line	1107
  3894                           ;main.c: 1107: } else if (lResult >= 195 && lRes
                                 ult <= 216) {
  3895  0000B6  EFA1  F000         	goto	i2l1122
  3896                           	
  3897  0000BA                     i2l1121:		; BSR set to: ?
  3898                           
  3899  0000BA  0EC2               	movlw	(0C3h-1)
  3900  0000BC  0101               	movlb	1	; () banked
  3901  0000BE  0101               	movlb	1	; () banked
  3902  0000C0  6517               	cpfsgt	((getNote@lResult))&0ffh
  3903  0000C2  EF65  F000         	goto	i2u9101
  3904  0000C6  EF67  F000         	goto	i2u9100
  3905  0000CA                     i2u9101:
  3906  0000CA  EF7B  F000         	goto	i2l1123
  3907  0000CE                     i2u9100:
  3908  0000CE  0ED9               	movlw	(0D9h)&0ffh
  3909  0000D0  0101               	movlb	1	; () banked
  3910  0000D2  0101               	movlb	1	; () banked
  3911  0000D4  6117               	cpfslt	((getNote@lResult))&0ffh
  3912  0000D6  EF6F  F000         	goto	i2u9111
  3913  0000DA  EF71  F000         	goto	i2u9110
  3914  0000DE                     i2u9111:
  3915  0000DE  EF7B  F000         	goto	i2l1123
  3916  0000E2                     i2u9110:
  3917                           	line	1109
  3918                           ;main.c: 1109: new_note = 0x41;
  3919  0000E2  0101               	movlb	1	; () banked
  3920  0000E4  6F19               	movwf	(??_getNote+1+0)&0ffh
  3921  0000E6  0E41               	movlw	low(041h)
  3922  0000E8  0101               	movlb	1	; () banked
  3923  0000EA  0101               	movlb	1	; () banked
  3924  0000EC  6F18               	movwf	((getNote@new_note))&0ffh
  3925  0000EE  0101               	movlb	1	; () banked
  3926  0000F0  5119               	movf	(??_getNote+1+0)&0ffh,w
  3927                           	line	1110
  3928                           ;main.c: 1110: } else if (lResult >= 128 && lRes
                                 ult <= 154) {
  3929  0000F2  EFA1  F000         	goto	i2l1122
  3930                           	
  3931  0000F6                     i2l1123:		; BSR set to: ?
  3932                           
  3933  0000F6  0E7F               	movlw	(080h-1)
  3934  0000F8  0101               	movlb	1	; () banked
  3935  0000FA  0101               	movlb	1	; () banked
  3936  0000FC  6517               	cpfsgt	((getNote@lResult))&0ffh
  3937  0000FE  EF83  F000         	goto	i2u9121
  3938  000102  EF85  F000         	goto	i2u9120
  3939  000106                     i2u9121:
  3940  000106  EF99  F000         	goto	i2l1125
  3941  00010A                     i2u9120:
  3942  00010A  0E9B               	movlw	(09Bh)&0ffh
  3943  00010C  0101               	movlb	1	; () banked
  3944  00010E  0101               	movlb	1	; () banked
  3945  000110  6117               	cpfslt	((getNote@lResult))&0ffh
  3946  000112  EF8D  F000         	goto	i2u9131
  3947  000116  EF8F  F000         	goto	i2u9130
  3948  00011A                     i2u9131:
  3949  00011A  EF99  F000         	goto	i2l1125
  3950  00011E                     i2u9130:
  3951                           	line	1112
  3952                           ;main.c: 1112: new_note = 0x49;
  3953  00011E  0101               	movlb	1	; () banked
  3954  000120  6F19               	movwf	(??_getNote+1+0)&0ffh
  3955  000122  0E49               	movlw	low(049h)
  3956  000124  0101               	movlb	1	; () banked
  3957  000126  0101               	movlb	1	; () banked
  3958  000128  6F18               	movwf	((getNote@new_note))&0ffh
  3959  00012A  0101               	movlb	1	; () banked
  3960  00012C  5119               	movf	(??_getNote+1+0)&0ffh,w
  3961                           	line	1113
  3962                           ;main.c: 1113: } else {
  3963  00012E  EFA1  F000         	goto	i2l1122
  3964                           	
  3965  000132                     i2l1125:		; BSR set to: ?
  3966                           
  3967                           	line	1115
  3968                           ;main.c: 1115: new_note = 0x00;
  3969  000132  0101               	movlb	1	; () banked
  3970  000134  6F19               	movwf	(??_getNote+1+0)&0ffh
  3971  000136  0E00               	movlw	low(0)
  3972  000138  0101               	movlb	1	; () banked
  3973  00013A  0101               	movlb	1	; () banked
  3974  00013C  6F18               	movwf	((getNote@new_note))&0ffh
  3975  00013E  0101               	movlb	1	; () banked
  3976  000140  5119               	movf	(??_getNote+1+0)&0ffh,w
  3977                           	line	1116
  3978                           	
  3979  000142                     i2l1126:		; BSR set to: ?
  3980                           
  3981                           	
  3982  000142                     i2l1124:		; BSR set to: ?
  3983                           
  3984                           	
  3985  000142                     i2l1122:		; BSR set to: ?
  3986                           
  3987                           	line	1118
  3988                           ;main.c: 1116: }
  3989                           ;main.c: 1118: } else if (hResult == 0x02) {
  3990  000142  EF7F  F001         	goto	i2l1119
  3991                           	
  3992  000146                     i2l1120:		; BSR set to: ?
  3993                           
  3994  000146  0101               	movlb	1	; () banked
  3995  000148  0101               	movlb	1	; () banked
  3996  00014A  5116               	movf	((getNote@hResult))&0ffh,w
  3997  00014C  0A02               	xorlw	2
  3998                           
  3999  00014E  A4D8               	btfss	status,2
  4000  000150  EFAC  F000         	goto	i2u9141
  4001  000154  EFAE  F000         	goto	i2u9140
  4002  000158                     i2u9141:
  4003  000158  EF12  F001         	goto	i2l1128
  4004  00015C                     i2u9140:
  4005                           	line	1119
  4006                           ;main.c: 1119: if (lResult >= 222 && lResult <= 
                                 252) {
  4007  00015C  0EDD               	movlw	(0DEh-1)
  4008  00015E  0101               	movlb	1	; () banked
  4009  000160  0101               	movlb	1	; () banked
  4010  000162  6517               	cpfsgt	((getNote@lResult))&0ffh
  4011  000164  EFB6  F000         	goto	i2u9151
  4012  000168  EFB8  F000         	goto	i2u9150
  4013  00016C                     i2u9151:
  4014  00016C  EFCC  F000         	goto	i2l1129
  4015  000170                     i2u9150:
  4016  000170  0EFD               	movlw	(0FDh)&0ffh
  4017  000172  0101               	movlb	1	; () banked
  4018  000174  0101               	movlb	1	; () banked
  4019  000176  6117               	cpfslt	((getNote@lResult))&0ffh
  4020+ 000178  EFC0  F000         	goto	i2u9161
  4021+ 00017C  EFC2  F000         	goto	i2u9160
  4022+ 000180                     i2u9161:
  4023+ 000180  EFCC  F000         	goto	i2l1129
  4024+ 000184                     i2u9160:
  4025+                          	line	1121
  4026+                          ;main.c: 1121: new_note = 0x31;
  4027+ 000184  0101               	movlb	1	; () banked
  4028+ 000186  6F19               	movwf	(??_getNote+1+0)&0ffh
  4029+ 000188  0E31               	movlw	low(031h)
  4030+ 00018A  0101               	movlb	1	; () banked
  4031+ 00018C  0101               	movlb	1	; () banked
  4032+ 00018E  6F18               	movwf	((getNote@new_note))&0ffh
  4033+ 000190  0101               	movlb	1	; () banked
  4034+ 000192  5119               	movf	(??_getNote+1+0)&0ffh,w
  4035+                          	line	1122
  4036+                          ;main.c: 1122: } else if (lResult >= 105 && lRes
      +                          ult <= 175) {
  4037+ 000194  EF10  F001         	goto	i2l1130
  4038+                          	
  4039+ 000198                     i2l1129:		; BSR set to: ?
  4040+                          
  4041+ 000198  0E68               	movlw	(069h-1)
  4042+ 00019A  0101               	movlb	1	; () banked
  4043+ 00019C  0101               	movlb	1	; () banked
  4044+ 00019E  6517               	cpfsgt	((getNote@lResult))&0ffh
  4045+ 0001A0  EFD4  F000         	goto	i2u9171
  4046+ 0001A4  EFD6  F000         	goto	i2u9170
  4047+ 0001A8                     i2u9171:
  4048+ 0001A8  EFEA  F000         	goto	i2l1131
  4049+ 0001AC                     i2u9170:
  4050+ 0001AC  0EB0               	movlw	(0B0h)&0ffh
  4051+ 0001AE  0101               	movlb	1	; () banked
  4052+ 0001B0  0101               	movlb	1	; () banked
  4053+ 0001B2  6117               	cpfslt	((getNote@lResult))&0ffh
  4054+ 0001B4  EFDE  F000         	goto	i2u9181
  4055+ 0001B8  EFE0  F000         	goto	i2u9180
  4056+ 0001BC                     i2u9181:
  4057+ 0001BC  EFEA  F000         	goto	i2l1131
  4058+ 0001C0                     i2u9180:
  4059+                          	line	1124
  4060+                          ;main.c: 1124: new_note = 0x21;
  4061+ 0001C0  0101               	movlb	1	; () banked
  4062+ 0001C2  6F19               	movwf	(??_getNote+1+0)&0ffh
  4063+ 0001C4  0E21               	movlw	low(021h)
  4064+ 0001C6  0101               	movlb	1	; () banked
  4065+ 0001C8  0101               	movlb	1	; () banked
  4066+ 0001CA  6F18               	movwf	((getNote@new_note))&0ffh
  4067+ 0001CC  0101               	movlb	1	; () banked
  4068+ 0001CE  5119               	movf	(??_getNote+1+0)&0ffh,w
  4069+                          	line	1125
  4070+                          ;main.c: 1125: } else if (lResult >= 105 && lRes
      +                          ult <= 148) {
  4071+ 0001D0  EF10  F001         	goto	i2l1130
  4072+                          	
  4073+ 0001D4                     i2l1131:		; BSR set to: ?
  4074+                          
  4075+ 0001D4  0E68               	movlw	(069h-1)
  4076+ 0001D6  0101               	movlb	1	; () banked
  4077+ 0001D8  0101               	movlb	1	; () banked
  4078+ 0001DA  6517               	cpfsgt	((getNote@lResult))&0ffh
  4079+ 0001DC  EFF2  F000         	goto	i2u9191
  4080+ 0001E0  EFF4  F000         	goto	i2u9190
  4081+ 0001E4                     i2u9191:
  4082+ 0001E4  EF08  F001         	goto	i2l1133
  4083+ 0001E8                     i2u9190:
  4084+ 0001E8  0E95               	movlw	(095h)&0ffh
  4085+ 0001EA  0101               	movlb	1	; () banked
  4086+ 0001EC  0101               	movlb	1	; () banked
  4087+ 0001EE  6117               	cpfslt	((getNote@lResult))&0ffh
  4088+ 0001F0  EFFC  F000         	goto	i2u9201
  4089+ 0001F4  EFFE  F000         	goto	i2u9200
  4090+ 0001F8                     i2u9201:
  4091+ 0001F8  EF08  F001         	goto	i2l1133
  4092+ 0001FC                     i2u9200:
  4093+                          	line	1127
  4094+                          ;main.c: 1127: new_note = 0x29;
  4095+ 0001FC  0101               	movlb	1	; () banked
  4096+ 0001FE  6F19               	movwf	(??_getNote+1+0)&0ffh
  4097+ 000200  0E29               	movlw	low(029h)
  4098+ 000202  0101               	movlb	1	; () banked
  4099+ 000204  0101               	movlb	1	; () banked
  4100+ 000206  6F18               	movwf	((getNote@new_note))&0ffh
  4101+ 000208  0101               	movlb	1	; () banked
  4102+ 00020A  5119               	movf	(??_getNote+1+0)&0ffh,w
  4103+                          	line	1128
  4104+                          ;main.c: 1128: } else {
  4105+ 00020C  EF10  F001         	goto	i2l1130
  4106+                          	
  4107+ 000210                     i2l1133:		; BSR set to: ?
  4108+                          
  4109+                          	line	1130
  4110+                          ;main.c: 1130: new_note = 0x00;
  4111+ 000210  0101               	movlb	1	; () banked
  4112+ 000212  6F19               	movwf	(??_getNote+1+0)&0ffh
  4113+ 000214  0E00               	movlw	low(0)
  4114+ 000216  0101               	movlb	1	; () banked
  4115+ 000218  0101               	movlb	1	; () banked
  4116+ 00021A  6F18               	movwf	((getNote@new_note))&0ffh
  4117+ 00021C  0101               	movlb	1	; () banked
  4118+ 00021E  5119               	movf	(??_getNote+1+0)&0ffh,w
  4119+                          	line	1131
  4120+                          	
  4121+ 000220                     i2l1134:		; BSR set to: ?
  4122+                          
  4123+                          	
  4124+ 000220                     i2l1132:		; BSR set to: ?
  4125+                          
  4126+                          	
  4127+ 000220                     i2l1130:		; BSR set to: ?
  4128+                          
  4129+                          	line	1133
  4130+                          ;main.c: 1131: }
  4131+                          ;main.c: 1133: } else if (hResult == 0x03) {
  4132+ 000220  EF7F  F001         	goto	i2l1119
  4133+                          	
  4134+ 000224                     i2l1128:		; BSR set to: ?
  4135+                          
  4136+ 000224  0101               	movlb	1	; () banked
  4137+ 000226  0101               	movlb	1	; () banked
  4138+ 000228  5116               	movf	((getNote@hResult))&0ffh,w
  4139+ 00022A  0A03               	xorlw	3
  4140+                          
  4141+ 00022C  A4D8               	btfss	status,2
  4142+ 00022E  EF1B  F001         	goto	i2u9211
  4143+ 000232  EF1D  F001         	goto	i2u9210
  4144+ 000236                     i2u9211:
  4145+ 000236  EF7F  F001         	goto	i2l1119
  4146+ 00023A                     i2u9210:
  4147+                          	line	1134
  4148+                          ;main.c: 1134: if (lResult >= 15 && lResult <= 1
      +                          08) {
  4149+ 00023A  0E0E               	movlw	(0Fh-1)
  4150+ 00023C  0101               	movlb	1	; () banked
  4151+ 00023E  0101               	movlb	1	; () banked
  4152+ 000240  6517               	cpfsgt	((getNote@lResult))&0ffh
  4153+ 000242  EF25  F001         	goto	i2u9221
  4154+ 000246  EF27  F001         	goto	i2u9220
  4155+ 00024A                     i2u9221:
  4156+ 00024A  EF3B  F001         	goto	i2l1137
  4157+ 00024E                     i2u9220:
  4158+ 00024E  0E6D               	movlw	(06Dh)&0ffh
  4159+ 000250  0101               	movlb	1	; () banked
  4160+ 000252  0101               	movlb	1	; () banked
  4161+ 000254  6117               	cpfslt	((getNote@lResult))&0ffh
  4162+ 000256  EF2F  F001         	goto	i2u9231
  4163+ 00025A  EF31  F001         	goto	i2u9230
  4164+ 00025E                     i2u9231:
  4165+ 00025E  EF3B  F001         	goto	i2l1137
  4166+ 000262                     i2u9230:
  4167+                          	line	1136
  4168+                          ;main.c: 1136: new_note = 0x11;
  4169+ 000262  0101               	movlb	1	; () banked
  4170+ 000264  6F19               	movwf	(??_getNote+1+0)&0ffh
  4171+ 000266  0E11               	movlw	low(011h)
  4172+ 000268  0101               	movlb	1	; () banked
  4173+ 00026A  0101               	movlb	1	; () banked
  4174+ 00026C  6F18               	movwf	((getNote@new_note))&0ffh
  4175+ 00026E  0101               	movlb	1	; () banked
  4176+ 000270  5119               	movf	(??_getNote+1+0)&0ffh,w
  4177+                          	line	1137
  4178+                          ;main.c: 1137: } else if (lResult >= 116 && lRes
      +                          ult <= 183) {
  4179+ 000272  EF7F  F001         	goto	i2l1119
  4180+                          	
  4181+ 000276                     i2l1137:		; BSR set to: ?
  4182+                          
  4183+ 000276  0E73               	movlw	(074h-1)
  4184+ 000278  0101               	movlb	1	; () banked
  4185+ 00027A  0101               	movlb	1	; () banked
  4186+ 00027C  6517               	cpfsgt	((getNote@lResult))&0ffh
  4187+ 00027E  EF43  F001         	goto	i2u9241
  4188+ 000282  EF45  F001         	goto	i2u9240
  4189+ 000286                     i2u9241:
  4190+ 000286  EF59  F001         	goto	i2l1139
  4191+ 00028A                     i2u9240:
  4192+ 00028A  0EB8               	movlw	(0B8h)&0ffh
  4193+ 00028C  0101               	movlb	1	; () banked
  4194+ 00028E  0101               	movlb	1	; () banked
  4195+ 000290  6117               	cpfslt	((getNote@lResult))&0ffh
  4196+ 000292  EF4D  F001         	goto	i2u9251
  4197+ 000296  EF4F  F001         	goto	i2u9250
  4198+ 00029A                     i2u9251:
  4199+ 00029A  EF59  F001         	goto	i2l1139
  4200+ 00029E                     i2u9250:
  4201+                          	line	1139
  4202+                          ;main.c: 1139: new_note = 0x01;
  4203+ 00029E  0101               	movlb	1	; () banked
  4204+ 0002A0  6F19               	movwf	(??_getNote+1+0)&0ffh
  4205+ 0002A2  0E01               	movlw	low(01h)
  4206+ 0002A4  0101               	movlb	1	; () banked
  4207+ 0002A6  0101               	movlb	1	; () banked
  4208+ 0002A8  6F18               	movwf	((getNote@new_note))&0ffh
  4209+ 0002AA  0101               	movlb	1	; () banked
  4210+ 0002AC  5119               	movf	(??_getNote+1+0)&0ffh,w
  4211+                          	line	1140
  4212+                          ;main.c: 1140: } else if (lResult >= 192 && lRes
      +                          ult <= 227) {
  4213+ 0002AE  EF7F  F001         	goto	i2l1119
  4214+                          	
  4215+ 0002B2                     i2l1139:		; BSR set to: ?
  4216+                          
  4217+ 0002B2  0EBF               	movlw	(0C0h-1)
  4218+ 0002B4  0101               	movlb	1	; () banked
  4219+ 0002B6  0101               	movlb	1	; () banked
  4220+ 0002B8  6517               	cpfsgt	((getNote@lResult))&0ffh
  4221+ 0002BA  EF61  F001         	goto	i2u9261
  4222+ 0002BE  EF63  F001         	goto	i2u9260
  4223+ 0002C2                     i2u9261:
  4224+ 0002C2  EF77  F001         	goto	i2l1141
  4225+ 0002C6                     i2u9260:
  4226+ 0002C6  0EE4               	movlw	(0E4h)&0ffh
  4227+ 0002C8  0101               	movlb	1	; () banked
  4228+ 0002CA  0101               	movlb	1	; () banked
  4229+ 0002CC  6117               	cpfslt	((getNote@lResult))&0ffh
  4230+ 0002CE  EF6B  F001         	goto	i2u9271
  4231+ 0002D2  EF6D  F001         	goto	i2u9270
  4232+ 0002D6                     i2u9271:
  4233+ 0002D6  EF77  F001         	goto	i2l1141
  4234+ 0002DA                     i2u9270:
  4235+                          	line	1142
  4236+                          ;main.c: 1142: new_note = 0x09;
  4237+ 0002DA  0101               	movlb	1	; () banked
  4238+ 0002DC  6F19               	movwf	(??_getNote+1+0)&0ffh
  4239+ 0002DE  0E09               	movlw	low(09h)
  4240+ 0002E0  0101               	movlb	1	; () banked
  4241+ 0002E2  0101               	movlb	1	; () banked
  4242+ 0002E4  6F18               	movwf	((getNote@new_note))&0ffh
  4243+ 0002E6  0101               	movlb	1	; () banked
  4244+ 0002E8  5119               	movf	(??_getNote+1+0)&0ffh,w
  4245+                          	line	1143
  4246+                          ;main.c: 1143: } else {
  4247+ 0002EA  EF7F  F001         	goto	i2l1119
  4248+                          	
  4249+ 0002EE                     i2l1141:		; BSR set to: ?
  4250+                          
  4251+                          	line	1145
  4252+                          ;main.c: 1145: new_note = 0x00;
  4253+ 0002EE  0101               	movlb	1	; () banked
  4254+ 0002F0  6F19               	movwf	(??_getNote+1+0)&0ffh
  4255+ 0002F2  0E00               	movlw	low(0)
  4256+ 0002F4  0101               	movlb	1	; () banked
  4257+ 0002F6  0101               	movlb	1	; () banked
  4258+ 0002F8  6F18               	movwf	((getNote@new_note))&0ffh
  4259+ 0002FA  0101               	movlb	1	; () banked
  4260+ 0002FC  5119               	movf	(??_getNote+1+0)&0ffh,w
  4261+                          	line	1146
  4262+                          	
  4263+ 0002FE                     i2l1142:		; BSR set to: ?
  4264+                          
  4265+                          	
  4266+ 0002FE                     i2l1140:		; BSR set to: ?
  4267+                          
  4268+                          	
  4269+ 0002FE                     i2l1138:		; BSR set to: ?
  4270+                          
  4271+                          	line	1147
  4272+                          	
  4273+ 0002FE                     i2l1136:		; BSR set to: ?
  4274+                          
  4275+                          	line	1149
  4276+                          	
  4277+ 0002FE                     i2l1135:		; BSR set to: ?
  4278+                          
  4279+                          	
  4280+ 0002FE                     i2l1127:		; BSR set to: ?
  4281+                          
  4282+                          	
  4283+ 0002FE                     i2l1119:		; BSR set to: ?
  4284+                          
  4285+                          ;main.c: 1146: }
  4286+                          ;main.c: 1147: }
  4287+                          ;main.c: 1149: } else if (adc_num == 1) {
  4288+ 0002FE  EFC6  F009         	goto	i2l1143
  4289+                          	
  4290+ 000302                     i2l1117:		; BSR set to: ?
  4291+                          
  4292+ 000302  041D               	decf	((c:29)),c,w	;volatile
  4293+                          
  4294+ 000304  A4D8               	btfss	status,2
  4295+ 000306  EF87  F001         	goto	i2u9281
  4296+ 00030A  EF89  F001         	goto	i2u9280
  4297+ 00030E                     i2u9281:
  4298+ 00030E  EFDE  F002         	goto	i2l1144
  4299+ 000312                     i2u9280:
  4300+                          	line	1150
  4301+                          ;main.c: 1150: if (hResult == 0x00) {
  4302+ 000312  0101               	movlb	1	; () banked
  4303+ 000314  0101               	movlb	1	; () banked
  4304+ 000316  6716               	tstfsz	((getNote@hResult))&0ffh
  4305+ 000318  EF90  F001         	goto	i2u9291
  4306+ 00031C  EF92  F001         	goto	i2u9290
  4307+ 000320                     i2u9291:
  4308+ 000320  EF9C  F001         	goto	i2l1145
  4309+ 000324                     i2u9290:
  4310+                          	line	1152
  4311+                          ;main.c: 1152: new_note = 0x00;
  4312+ 000324  0101               	movlb	1	; () banked
  4313+ 000326  6F19               	movwf	(??_getNote+1+0)&0ffh
  4314+ 000328  0E00               	movlw	low(0)
  4315+ 00032A  0101               	movlb	1	; () banked
  4316+ 00032C  0101               	movlb	1	; () banked
  4317+ 00032E  6F18               	movwf	((getNote@new_note))&0ffh
  4318+ 000330  0101               	movlb	1	; () banked
  4319+ 000332  5119               	movf	(??_getNote+1+0)&0ffh,w
  4320+                          	line	1153
  4321+                          ;main.c: 1153: } else if (hResult == 0x01) {
  4322+ 000334  EFDC  F002         	goto	i2l1146
  4323+                          	
  4324+ 000338                     i2l1145:		; BSR set to: ?
  4325+                          
  4326+ 000338  0101               	movlb	1	; () banked
  4327+ 00033A  0101               	movlb	1	; () banked
  4328+ 00033C  0516               	decf	((getNote@hResult))&0ffh,w
  4329+                          
  4330+ 00033E  A4D8               	btfss	status,2
  4331+ 000340  EFA4  F001         	goto	i2u9301
  4332+ 000344  EFA6  F001         	goto	i2u9300
  4333+ 000348                     i2u9301:
  4334+ 000348  EF0A  F002         	goto	i2l1147
  4335+ 00034C                     i2u9300:
  4336+                          	line	1154
  4337+                          ;main.c: 1154: if (lResult >= 187 && lResult <= 
      +                          213) {
  4338+ 00034C  0EBA               	movlw	(0BBh-1)
  4339+ 00034E  0101               	movlb	1	; () banked
  4340+ 000350  0101               	movlb	1	; () banked
  4341+ 000352  6517               	cpfsgt	((getNote@lResult))&0ffh
  4342+ 000354  EFAE  F001         	goto	i2u9311
  4343+ 000358  EFB0  F001         	goto	i2u9310
  4344+ 00035C                     i2u9311:
  4345+ 00035C  EFC4  F001         	goto	i2l1148
  4346+ 000360                     i2u9310:
  4347+ 000360  0ED6               	movlw	(0D6h)&0ffh
  4348+ 000362  0101               	movlb	1	; () banked
  4349+ 000364  0101               	movlb	1	; () banked
  4350+ 000366  6117               	cpfslt	((getNote@lResult))&0ffh
  4351+ 000368  EFB8  F001         	goto	i2u9321
  4352+ 00036C  EFBA  F001         	goto	i2u9320
  4353+ 000370                     i2u9321:
  4354+ 000370  EFC4  F001         	goto	i2l1148
  4355+ 000374                     i2u9320:
  4356+                          	line	1156
  4357+                          ;main.c: 1156: new_note = 0x52;
  4358+ 000374  0101               	movlb	1	; () banked
  4359+ 000376  6F19               	movwf	(??_getNote+1+0)&0ffh
  4360+ 000378  0E52               	movlw	low(052h)
  4361+ 00037A  0101               	movlb	1	; () banked
  4362+ 00037C  0101               	movlb	1	; () banked
  4363+ 00037E  6F18               	movwf	((getNote@new_note))&0ffh
  4364+ 000380  0101               	movlb	1	; () banked
  4365+ 000382  5119               	movf	(??_getNote+1+0)&0ffh,w
  4366+                          	line	1157
  4367+                          ;main.c: 1157: } else if (lResult >= 161 && lRes
      +                          ult <= 182) {
  4368+ 000384  EF08  F002         	goto	i2l1149
  4369+                          	
  4370+ 000388                     i2l1148:		; BSR set to: ?
  4371+                          
  4372+ 000388  0EA0               	movlw	(0A1h-1)
  4373+ 00038A  0101               	movlb	1	; () banked
  4374+ 00038C  0101               	movlb	1	; () banked
  4375+ 00038E  6517               	cpfsgt	((getNote@lResult))&0ffh
  4376+ 000390  EFCC  F001         	goto	i2u9331
  4377+ 000394  EFCE  F001         	goto	i2u9330
  4378+ 000398                     i2u9331:
  4379+ 000398  EFE2  F001         	goto	i2l1150
  4380+ 00039C                     i2u9330:
  4381+ 00039C  0EB7               	movlw	(0B7h)&0ffh
  4382+ 00039E  0101               	movlb	1	; () banked
  4383+ 0003A0  0101               	movlb	1	; () banked
  4384+ 0003A2  6117               	cpfslt	((getNote@lResult))&0ffh
  4385+ 0003A4  EFD6  F001         	goto	i2u9341
  4386+ 0003A8  EFD8  F001         	goto	i2u9340
  4387+ 0003AC                     i2u9341:
  4388+ 0003AC  EFE2  F001         	goto	i2l1150
  4389+ 0003B0                     i2u9340:
  4390+                          	line	1159
  4391+                          ;main.c: 1159: new_note = 0x42;
  4392+ 0003B0  0101               	movlb	1	; () banked
  4393+ 0003B2  6F19               	movwf	(??_getNote+1+0)&0ffh
  4394+ 0003B4  0E42               	movlw	low(042h)
  4395+ 0003B6  0101               	movlb	1	; () banked
  4396+ 0003B8  0101               	movlb	1	; () banked
  4397+ 0003BA  6F18               	movwf	((getNote@new_note))&0ffh
  4398+ 0003BC  0101               	movlb	1	; () banked
  4399+ 0003BE  5119               	movf	(??_getNote+1+0)&0ffh,w
  4400+                          	line	1160
  4401+                          ;main.c: 1160: } else if (lResult >= 120 && lRes
      +                          ult <= 150) {
  4402+ 0003C0  EF08  F002         	goto	i2l1149
  4403+                          	
  4404+ 0003C4                     i2l1150:		; BSR set to: ?
  4405+                          
  4406+ 0003C4  0E77               	movlw	(078h-1)
  4407+ 0003C6  0101               	movlb	1	; () banked
  4408+ 0003C8  0101               	movlb	1	; () banked
  4409+ 0003CA  6517               	cpfsgt	((getNote@lResult))&0ffh
  4410+ 0003CC  EFEA  F001         	goto	i2u9351
  4411+ 0003D0  EFEC  F001         	goto	i2u9350
  4412+ 0003D4                     i2u9351:
  4413+ 0003D4  EF00  F002         	goto	i2l1152
  4414+ 0003D8                     i2u9350:
  4415+ 0003D8  0E97               	movlw	(097h)&0ffh
  4416+ 0003DA  0101               	movlb	1	; () banked
  4417+ 0003DC  0101               	movlb	1	; () banked
  4418+ 0003DE  6117               	cpfslt	((getNote@lResult))&0ffh
  4419+ 0003E0  EFF4  F001         	goto	i2u9361
  4420+ 0003E4  EFF6  F001         	goto	i2u9360
  4421+ 0003E8                     i2u9361:
  4422+ 0003E8  EF00  F002         	goto	i2l1152
  4423+ 0003EC                     i2u9360:
  4424+                          	line	1162
  4425+                          ;main.c: 1162: new_note = 0x4a;
  4426+ 0003EC  0101               	movlb	1	; () banked
  4427+ 0003EE  6F19               	movwf	(??_getNote+1+0)&0ffh
  4428+ 0003F0  0E4A               	movlw	low(04Ah)
  4429+ 0003F2  0101               	movlb	1	; () banked
  4430+ 0003F4  0101               	movlb	1	; () banked
  4431+ 0003F6  6F18               	movwf	((getNote@new_note))&0ffh
  4432+ 0003F8  0101               	movlb	1	; () banked
  4433+ 0003FA  5119               	movf	(??_getNote+1+0)&0ffh,w
  4434+                          	line	1163
  4435+                          ;main.c: 1163: } else {
  4436+ 0003FC  EF08  F002         	goto	i2l1149
  4437+                          	
  4438+ 000400                     i2l1152:		; BSR set to: ?
  4439+                          
  4440+                          	line	1165
  4441+                          ;main.c: 1165: new_note = 0x00;
  4442+ 000400  0101               	movlb	1	; () banked
  4443+ 000402  6F19               	movwf	(??_getNote+1+0)&0ffh
  4444+ 000404  0E00               	movlw	low(0)
  4445+ 000406  0101               	movlb	1	; () banked
  4446+ 000408  0101               	movlb	1	; () banked
  4447+ 00040A  6F18               	movwf	((getNote@new_note))&0ffh
  4448+ 00040C  0101               	movlb	1	; () banked
  4449+ 00040E  5119               	movf	(??_getNote+1+0)&0ffh,w
  4450+                          	line	1166
  4451+                          	
  4452+ 000410                     i2l1153:		; BSR set to: ?
  4453+                          
  4454+                          	
  4455+ 000410                     i2l1151:		; BSR set to: ?
  4456+                          
  4457+                          	
  4458+ 000410                     i2l1149:		; BSR set to: ?
  4459+                          
  4460+                          	line	1168
  4461+                          ;main.c: 1166: }
  4462+                          ;main.c: 1168: } else if (hResult == 0x02) {
  4463+ 000410  EFDC  F002         	goto	i2l1146
  4464+                          	
  4465+ 000414                     i2l1147:		; BSR set to: ?
  4466+                          
  4467+ 000414  0101               	movlb	1	; () banked
  4468+ 000416  0101               	movlb	1	; () banked
  4469+ 000418  5116               	movf	((getNote@hResult))&0ffh,w
  4470+ 00041A  0A02               	xorlw	2
  4471+                          
  4472+ 00041C  A4D8               	btfss	status,2
  4473+ 00041E  EF13  F002         	goto	i2u9371
  4474+ 000422  EF15  F002         	goto	i2u9370
  4475+ 000426                     i2u9371:
  4476+ 000426  EF79  F002         	goto	i2l1155
  4477+ 00042A                     i2u9370:
  4478+                          	line	1169
  4479+                          ;main.c: 1169: if (lResult >= 206 && lResult <= 
      +                          232) {
  4480+ 00042A  0ECD               	movlw	(0CEh-1)
  4481+ 00042C  0101               	movlb	1	; () banked
  4482+ 00042E  0101               	movlb	1	; () banked
  4483+ 000430  6517               	cpfsgt	((getNote@lResult))&0ffh
  4484+ 000432  EF1D  F002         	goto	i2u9381
  4485+ 000436  EF1F  F002         	goto	i2u9380
  4486+ 00043A                     i2u9381:
  4487+ 00043A  EF33  F002         	goto	i2l1156
  4488+ 00043E                     i2u9380:
  4489+ 00043E  0EE9               	movlw	(0E9h)&0ffh
  4490+ 000440  0101               	movlb	1	; () banked
  4491+ 000442  0101               	movlb	1	; () banked
  4492+ 000444  6117               	cpfslt	((getNote@lResult))&0ffh
  4493+ 000446  EF27  F002         	goto	i2u9391
  4494+ 00044A  EF29  F002         	goto	i2u9390
  4495+ 00044E                     i2u9391:
  4496+ 00044E  EF33  F002         	goto	i2l1156
  4497+ 000452                     i2u9390:
  4498+                          	line	1171
  4499+                          ;main.c: 1171: new_note = 0x32;
  4500+ 000452  0101               	movlb	1	; () banked
  4501+ 000454  6F19               	movwf	(??_getNote+1+0)&0ffh
  4502+ 000456  0E32               	movlw	low(032h)
  4503+ 000458  0101               	movlb	1	; () banked
  4504+ 00045A  0101               	movlb	1	; () banked
  4505+ 00045C  6F18               	movwf	((getNote@new_note))&0ffh
  4506+ 00045E  0101               	movlb	1	; () banked
  4507+ 000460  5119               	movf	(??_getNote+1+0)&0ffh,w
  4508+                          	line	1172
  4509+                          ;main.c: 1172: } else if (lResult >= 165 && lRes
      +                          ult <= 238) {
  4510+ 000462  EF77  F002         	goto	i2l1157
  4511+                          	
  4512+ 000466                     i2l1156:		; BSR set to: ?
  4513+                          
  4514+ 000466  0EA4               	movlw	(0A5h-1)
  4515+ 000468  0101               	movlb	1	; () banked
  4516+ 00046A  0101               	movlb	1	; () banked
  4517+ 00046C  6517               	cpfsgt	((getNote@lResult))&0ffh
  4518+ 00046E  EF3B  F002         	goto	i2u9401
  4519+ 000472  EF3D  F002         	goto	i2u9400
  4520+ 000476                     i2u9401:
  4521+ 000476  EF51  F002         	goto	i2l1158
  4522+ 00047A                     i2u9400:
  4523+ 00047A  0EEF               	movlw	(0EFh)&0ffh
  4524+ 00047C  0101               	movlb	1	; () banked
  4525+ 00047E  0101               	movlb	1	; () banked
  4526+ 000480  6117               	cpfslt	((getNote@lResult))&0ffh
  4527+ 000482  EF45  F002         	goto	i2u9411
  4528+ 000486  EF47  F002         	goto	i2u9410
  4529+ 00048A                     i2u9411:
  4530+ 00048A  EF51  F002         	goto	i2l1158
  4531+ 00048E                     i2u9410:
  4532+                          	line	1174
  4533+                          ;main.c: 1174: new_note = 0x22;
  4534+ 00048E  0101               	movlb	1	; () banked
  4535+ 000490  6F19               	movwf	(??_getNote+1+0)&0ffh
  4536+ 000492  0E22               	movlw	low(022h)
  4537+ 000494  0101               	movlb	1	; () banked
  4538+ 000496  0101               	movlb	1	; () banked
  4539+ 000498  6F18               	movwf	((getNote@new_note))&0ffh
  4540+ 00049A  0101               	movlb	1	; () banked
  4541+ 00049C  5119               	movf	(??_getNote+1+0)&0ffh,w
  4542+                          	line	1175
  4543+                          ;main.c: 1175: } else if (lResult >= 109 && lRes
      +                          ult <= 140) {
  4544+ 00049E  EF77  F002         	goto	i2l1157
  4545+                          	
  4546+ 0004A2                     i2l1158:		; BSR set to: ?
  4547+                          
  4548+ 0004A2  0E6C               	movlw	(06Dh-1)
  4549+ 0004A4  0101               	movlb	1	; () banked
  4550+ 0004A6  0101               	movlb	1	; () banked
  4551+ 0004A8  6517               	cpfsgt	((getNote@lResult))&0ffh
  4552+ 0004AA  EF59  F002         	goto	i2u9421
  4553+ 0004AE  EF5B  F002         	goto	i2u9420
  4554+ 0004B2                     i2u9421:
  4555+ 0004B2  EF6F  F002         	goto	i2l1160
  4556  0004B6                     i2u9420:
  4557  0004B6  0E8D               	movlw	(08Dh)&0ffh
  4558  0004B8  0101               	movlb	1	; () banked
  4559  0004BA  0101               	movlb	1	; () banked
  4560  0004BC  6117               	cpfslt	((getNote@lResult))&0ffh
  4561  0004BE  EF63  F002         	goto	i2u9431
  4562  0004C2  EF65  F002         	goto	i2u9430
  4563  0004C6                     i2u9431:
  4564  0004C6  EF6F  F002         	goto	i2l1160
  4565  0004CA                     i2u9430:
  4566                           	line	1177
  4567                           ;main.c: 1177: new_note = 0x2a;
  4568  0004CA  0101               	movlb	1	; () banked
  4569  0004CC  6F19               	movwf	(??_getNote+1+0)&0ffh
  4570  0004CE  0E2A               	movlw	low(02Ah)
  4571  0004D0  0101               	movlb	1	; () banked
  4572  0004D2  0101               	movlb	1	; () banked
  4573  0004D4  6F18               	movwf	((getNote@new_note))&0ffh
  4574  0004D6  0101               	movlb	1	; () banked
  4575  0004D8  5119               	movf	(??_getNote+1+0)&0ffh,w
  4576                           	line	1178
  4577                           ;main.c: 1178: } else {
  4578  0004DA  EF77  F002         	goto	i2l1157
  4579                           	
  4580  0004DE                     i2l1160:		; BSR set to: ?
  4581                           
  4582                           	line	1180
  4583                           ;main.c: 1180: new_note = 0x00;
  4584  0004DE  0101               	movlb	1	; () banked
  4585  0004E0  6F19               	movwf	(??_getNote+1+0)&0ffh
  4586  0004E2  0E00               	movlw	low(0)
  4587  0004E4  0101               	movlb	1	; () banked
  4588  0004E6  0101               	movlb	1	; () banked
  4589  0004E8  6F18               	movwf	((getNote@new_note))&0ffh
  4590  0004EA  0101               	movlb	1	; () banked
  4591  0004EC  5119               	movf	(??_getNote+1+0)&0ffh,w
  4592                           	line	1181
  4593                           	
  4594  0004EE                     i2l1161:		; BSR set to: ?
  4595                           
  4596                           	
  4597  0004EE                     i2l1159:		; BSR set to: ?
  4598                           
  4599                           	
  4600  0004EE                     i2l1157:		; BSR set to: ?
  4601                           
  4602                           	line	1183
  4603                           ;main.c: 1181: }
  4604                           ;main.c: 1183: } else if (hResult == 0x03) {
  4605  0004EE  EFDC  F002         	goto	i2l1146
  4606                           	
  4607  0004F2                     i2l1155:		; BSR set to: ?
  4608                           
  4609  0004F2  0101               	movlb	1	; () banked
  4610  0004F4  0101               	movlb	1	; () banked
  4611  0004F6  5116               	movf	((getNote@hResult))&0ffh,w
  4612  0004F8  0A03               	xorlw	3
  4613                           
  4614  0004FA  A4D8               	btfss	status,2
  4615  0004FC  EF82  F002         	goto	i2u9441
  4616  000500  EF84  F002         	goto	i2u9440
  4617  000504                     i2u9441:
  4618  000504  EFDC  F002         	goto	i2l1146
  4619  000508                     i2u9440:
  4620                           	line	1184
  4621                           ;main.c: 1184: if (lResult >= 0 && lResult <= 17
                                 4) {
  4622  000508  0EAF               	movlw	(0AFh)&0ffh
  4623  00050A  0101               	movlb	1	; () banked
  4624  00050C  0101               	movlb	1	; () banked
  4625  00050E  6117               	cpfslt	((getNote@lResult))&0ffh
  4626  000510  EF8C  F002         	goto	i2u9451
  4627  000514  EF8E  F002         	goto	i2u9450
  4628  000518                     i2u9451:
  4629  000518  EF98  F002         	goto	i2l1164
  4630  00051C                     i2u9450:
  4631                           	line	1186
  4632                           ;main.c: 1186: new_note = 0x12;
  4633  00051C  0101               	movlb	1	; () banked
  4634  00051E  6F19               	movwf	(??_getNote+1+0)&0ffh
  4635  000520  0E12               	movlw	low(012h)
  4636  000522  0101               	movlb	1	; () banked
  4637  000524  0101               	movlb	1	; () banked
  4638  000526  6F18               	movwf	((getNote@new_note))&0ffh
  4639  000528  0101               	movlb	1	; () banked
  4640  00052A  5119               	movf	(??_getNote+1+0)&0ffh,w
  4641                           	line	1187
  4642                           ;main.c: 1187: } else if (lResult >= 193 && lRes
                                 ult <= 210) {
  4643  00052C  EFDC  F002         	goto	i2l1146
  4644                           	
  4645  000530                     i2l1164:		; BSR set to: ?
  4646                           
  4647  000530  0EC0               	movlw	(0C1h-1)
  4648  000532  0101               	movlb	1	; () banked
  4649  000534  0101               	movlb	1	; () banked
  4650  000536  6517               	cpfsgt	((getNote@lResult))&0ffh
  4651  000538  EFA0  F002         	goto	i2u9461
  4652  00053C  EFA2  F002         	goto	i2u9460
  4653  000540                     i2u9461:
  4654  000540  EFB6  F002         	goto	i2l1166
  4655  000544                     i2u9460:
  4656  000544  0ED3               	movlw	(0D3h)&0ffh
  4657  000546  0101               	movlb	1	; () banked
  4658  000548  0101               	movlb	1	; () banked
  4659  00054A  6117               	cpfslt	((getNote@lResult))&0ffh
  4660  00054C  EFAA  F002         	goto	i2u9471
  4661  000550  EFAC  F002         	goto	i2u9470
  4662  000554                     i2u9471:
  4663  000554  EFB6  F002         	goto	i2l1166
  4664  000558                     i2u9470:
  4665                           	line	1189
  4666                           ;main.c: 1189: new_note = 0x02;
  4667  000558  0101               	movlb	1	; () banked
  4668  00055A  6F19               	movwf	(??_getNote+1+0)&0ffh
  4669  00055C  0E02               	movlw	low(02h)
  4670  00055E  0101               	movlb	1	; () banked
  4671  000560  0101               	movlb	1	; () banked
  4672  000562  6F18               	movwf	((getNote@new_note))&0ffh
  4673  000564  0101               	movlb	1	; () banked
  4674  000566  5119               	movf	(??_getNote+1+0)&0ffh,w
  4675                           	line	1190
  4676                           ;main.c: 1190: } else if (lResult >= 221 && lRes
                                 ult <= 229) {
  4677  000568  EFDC  F002         	goto	i2l1146
  4678                           	
  4679  00056C                     i2l1166:		; BSR set to: ?
  4680                           
  4681  00056C  0EDC               	movlw	(0DDh-1)
  4682  00056E  0101               	movlb	1	; () banked
  4683  000570  0101               	movlb	1	; () banked
  4684  000572  6517               	cpfsgt	((getNote@lResult))&0ffh
  4685  000574  EFBE  F002         	goto	i2u9481
  4686  000578  EFC0  F002         	goto	i2u9480
  4687  00057C                     i2u9481:
  4688  00057C  EFD4  F002         	goto	i2l1168
  4689  000580                     i2u9480:
  4690  000580  0EE6               	movlw	(0E6h)&0ffh
  4691  000582  0101               	movlb	1	; () banked
  4692  000584  0101               	movlb	1	; () banked
  4693  000586  6117               	cpfslt	((getNote@lResult))&0ffh
  4694  000588  EFC8  F002         	goto	i2u9491
  4695  00058C  EFCA  F002         	goto	i2u9490
  4696  000590                     i2u9491:
  4697  000590  EFD4  F002         	goto	i2l1168
  4698  000594                     i2u9490:
  4699                           	line	1192
  4700                           ;main.c: 1192: new_note = 0x0a;
  4701  000594  0101               	movlb	1	; () banked
  4702  000596  6F19               	movwf	(??_getNote+1+0)&0ffh
  4703  000598  0E0A               	movlw	low(0Ah)
  4704  00059A  0101               	movlb	1	; () banked
  4705  00059C  0101               	movlb	1	; () banked
  4706  00059E  6F18               	movwf	((getNote@new_note))&0ffh
  4707  0005A0  0101               	movlb	1	; () banked
  4708  0005A2  5119               	movf	(??_getNote+1+0)&0ffh,w
  4709                           	line	1193
  4710                           ;main.c: 1193: } else {
  4711  0005A4  EFDC  F002         	goto	i2l1146
  4712                           	
  4713  0005A8                     i2l1168:		; BSR set to: ?
  4714                           
  4715                           	line	1195
  4716                           ;main.c: 1195: new_note = 0x00;
  4717  0005A8  0101               	movlb	1	; () banked
  4718  0005AA  6F19               	movwf	(??_getNote+1+0)&0ffh
  4719  0005AC  0E00               	movlw	low(0)
  4720  0005AE  0101               	movlb	1	; () banked
  4721  0005B0  0101               	movlb	1	; () banked
  4722  0005B2  6F18               	movwf	((getNote@new_note))&0ffh
  4723  0005B4  0101               	movlb	1	; () banked
  4724  0005B6  5119               	movf	(??_getNote+1+0)&0ffh,w
  4725                           	line	1196
  4726                           	
  4727  0005B8                     i2l1169:		; BSR set to: ?
  4728                           
  4729                           	
  4730  0005B8                     i2l1167:		; BSR set to: ?
  4731                           
  4732                           	
  4733  0005B8                     i2l1165:		; BSR set to: ?
  4734                           
  4735                           	line	1197
  4736                           	
  4737  0005B8                     i2l1163:		; BSR set to: ?
  4738                           
  4739                           	line	1199
  4740                           	
  4741  0005B8                     i2l1162:		; BSR set to: ?
  4742                           
  4743                           	
  4744  0005B8                     i2l1154:		; BSR set to: ?
  4745                           
  4746                           	
  4747  0005B8                     i2l1146:		; BSR set to: ?
  4748                           
  4749                           ;main.c: 1196: }
  4750                           ;main.c: 1197: }
  4751                           ;main.c: 1199: } else if (adc_num == 2) {
  4752  0005B8  EFC6  F009         	goto	i2l1143
  4753                           	
  4754  0005BC                     i2l1144:		; BSR set to: ?
  4755                           
  4756  0005BC  501D               	movf	((c:29)),c,w	;volatile
  4757  0005BE  0A02               	xorlw	2
  4758                           
  4759  0005C0  A4D8               	btfss	status,2
  4760  0005C2  EFE5  F002         	goto	i2u9501
  4761  0005C6  EFE7  F002         	goto	i2u9500
  4762  0005CA                     i2u9501:
  4763  0005CA  EF46  F004         	goto	i2l1171
  4764  0005CE                     i2u9500:
  4765                           	line	1200
  4766                           ;main.c: 1200: if (hResult == 0x00) {
  4767  0005CE  0101               	movlb	1	; () banked
  4768  0005D0  0101               	movlb	1	; () banked
  4769  0005D2  6716               	tstfsz	((getNote@hResult))&0ffh
  4770  0005D4  EFEE  F002         	goto	i2u9511
  4771  0005D8  EFF0  F002         	goto	i2u9510
  4772  0005DC                     i2u9511:
  4773  0005DC  EFFA  F002         	goto	i2l1172
  4774  0005E0                     i2u9510:
  4775                           	line	1202
  4776                           ;main.c: 1202: new_note = 0x00;
  4777  0005E0  0101               	movlb	1	; () banked
  4778  0005E2  6F19               	movwf	(??_getNote+1+0)&0ffh
  4779  0005E4  0E00               	movlw	low(0)
  4780  0005E6  0101               	movlb	1	; () banked
  4781  0005E8  0101               	movlb	1	; () banked
  4782  0005EA  6F18               	movwf	((getNote@new_note))&0ffh
  4783  0005EC  0101               	movlb	1	; () banked
  4784  0005EE  5119               	movf	(??_getNote+1+0)&0ffh,w
  4785                           	line	1203
  4786                           ;main.c: 1203: } else if (hResult == 0x01) {
  4787  0005F0  EF44  F004         	goto	i2l1173
  4788                           	
  4789  0005F4                     i2l1172:		; BSR set to: ?
  4790                           
  4791  0005F4  0101               	movlb	1	; () banked
  4792  0005F6  0101               	movlb	1	; () banked
  4793  0005F8  0516               	decf	((getNote@hResult))&0ffh,w
  4794                           
  4795  0005FA  A4D8               	btfss	status,2
  4796  0005FC  EF02  F003         	goto	i2u9521
  4797  000600  EF04  F003         	goto	i2u9520
  4798  000604                     i2u9521:
  4799  000604  EF68  F003         	goto	i2l1174
  4800  000608                     i2u9520:
  4801                           	line	1204
  4802                           ;main.c: 1204: if (lResult >= 218 && lResult <= 
                                 242) {
  4803  000608  0ED9               	movlw	(0DAh-1)
  4804  00060A  0101               	movlb	1	; () banked
  4805  00060C  0101               	movlb	1	; () banked
  4806  00060E  6517               	cpfsgt	((getNote@lResult))&0ffh
  4807  000610  EF0C  F003         	goto	i2u9531
  4808  000614  EF0E  F003         	goto	i2u9530
  4809  000618                     i2u9531:
  4810  000618  EF22  F003         	goto	i2l1175
  4811  00061C                     i2u9530:
  4812  00061C  0EF3               	movlw	(0F3h)&0ffh
  4813  00061E  0101               	movlb	1	; () banked
  4814  000620  0101               	movlb	1	; () banked
  4815  000622  6117               	cpfslt	((getNote@lResult))&0ffh
  4816  000624  EF16  F003         	goto	i2u9541
  4817  000628  EF18  F003         	goto	i2u9540
  4818  00062C                     i2u9541:
  4819  00062C  EF22  F003         	goto	i2l1175
  4820  000630                     i2u9540:
  4821                           	line	1206
  4822                           ;main.c: 1206: new_note = 0x53;
  4823  000630  0101               	movlb	1	; () banked
  4824  000632  6F19               	movwf	(??_getNote+1+0)&0ffh
  4825  000634  0E53               	movlw	low(053h)
  4826  000636  0101               	movlb	1	; () banked
  4827  000638  0101               	movlb	1	; () banked
  4828  00063A  6F18               	movwf	((getNote@new_note))&0ffh
  4829  00063C  0101               	movlb	1	; () banked
  4830  00063E  5119               	movf	(??_getNote+1+0)&0ffh,w
  4831                           	line	1207
  4832                           ;main.c: 1207: } else if (lResult >= 167 && lRes
                                 ult <= 200) {
  4833  000640  EF66  F003         	goto	i2l1176
  4834                           	
  4835  000644                     i2l1175:		; BSR set to: ?
  4836                           
  4837  000644  0EA6               	movlw	(0A7h-1)
  4838  000646  0101               	movlb	1	; () banked
  4839  000648  0101               	movlb	1	; () banked
  4840  00064A  6517               	cpfsgt	((getNote@lResult))&0ffh
  4841  00064C  EF2A  F003         	goto	i2u9551
  4842  000650  EF2C  F003         	goto	i2u9550
  4843  000654                     i2u9551:
  4844  000654  EF40  F003         	goto	i2l1177
  4845  000658                     i2u9550:
  4846  000658  0EC9               	movlw	(0C9h)&0ffh
  4847  00065A  0101               	movlb	1	; () banked
  4848  00065C  0101               	movlb	1	; () banked
  4849  00065E  6117               	cpfslt	((getNote@lResult))&0ffh
  4850  000660  EF34  F003         	goto	i2u9561
  4851  000664  EF36  F003         	goto	i2u9560
  4852  000668                     i2u9561:
  4853  000668  EF40  F003         	goto	i2l1177
  4854  00066C                     i2u9560:
  4855                           	line	1209
  4856                           ;main.c: 1209: new_note = 0x43;
  4857  00066C  0101               	movlb	1	; () banked
  4858  00066E  6F19               	movwf	(??_getNote+1+0)&0ffh
  4859  000670  0E43               	movlw	low(043h)
  4860  000672  0101               	movlb	1	; () banked
  4861  000674  0101               	movlb	1	; () banked
  4862  000676  6F18               	movwf	((getNote@new_note))&0ffh
  4863  000678  0101               	movlb	1	; () banked
  4864  00067A  5119               	movf	(??_getNote+1+0)&0ffh,w
  4865                           	line	1210
  4866                           ;main.c: 1210: } else if (lResult >= 38 && lResu
                                 lt <= 160) {
  4867  00067C  EF66  F003         	goto	i2l1176
  4868                           	
  4869  000680                     i2l1177:		; BSR set to: ?
  4870                           
  4871  000680  0E25               	movlw	(026h-1)
  4872  000682  0101               	movlb	1	; () banked
  4873  000684  0101               	movlb	1	; () banked
  4874  000686  6517               	cpfsgt	((getNote@lResult))&0ffh
  4875  000688  EF48  F003         	goto	i2u9571
  4876  00068C  EF4A  F003         	goto	i2u9570
  4877  000690                     i2u9571:
  4878  000690  EF5E  F003         	goto	i2l1179
  4879  000694                     i2u9570:
  4880  000694  0EA1               	movlw	(0A1h)&0ffh
  4881  000696  0101               	movlb	1	; () banked
  4882  000698  0101               	movlb	1	; () banked
  4883  00069A  6117               	cpfslt	((getNote@lResult))&0ffh
  4884  00069C  EF52  F003         	goto	i2u9581
  4885  0006A0  EF54  F003         	goto	i2u9580
  4886  0006A4                     i2u9581:
  4887  0006A4  EF5E  F003         	goto	i2l1179
  4888  0006A8                     i2u9580:
  4889                           	line	1212
  4890                           ;main.c: 1212: new_note = 0x4b;
  4891  0006A8  0101               	movlb	1	; () banked
  4892  0006AA  6F19               	movwf	(??_getNote+1+0)&0ffh
  4893  0006AC  0E4B               	movlw	low(04Bh)
  4894  0006AE  0101               	movlb	1	; () banked
  4895  0006B0  0101               	movlb	1	; () banked
  4896  0006B2  6F18               	movwf	((getNote@new_note))&0ffh
  4897  0006B4  0101               	movlb	1	; () banked
  4898  0006B6  5119               	movf	(??_getNote+1+0)&0ffh,w
  4899                           	line	1213
  4900                           ;main.c: 1213: } else {
  4901  0006B8  EF66  F003         	goto	i2l1176
  4902                           	
  4903  0006BC                     i2l1179:		; BSR set to: ?
  4904                           
  4905                           	line	1215
  4906                           ;main.c: 1215: new_note = 0x00;
  4907  0006BC  0101               	movlb	1	; () banked
  4908  0006BE  6F19               	movwf	(??_getNote+1+0)&0ffh
  4909  0006C0  0E00               	movlw	low(0)
  4910  0006C2  0101               	movlb	1	; () banked
  4911  0006C4  0101               	movlb	1	; () banked
  4912  0006C6  6F18               	movwf	((getNote@new_note))&0ffh
  4913  0006C8  0101               	movlb	1	; () banked
  4914  0006CA  5119               	movf	(??_getNote+1+0)&0ffh,w
  4915                           	line	1216
  4916                           	
  4917  0006CC                     i2l1180:		; BSR set to: ?
  4918                           
  4919                           	
  4920  0006CC                     i2l1178:		; BSR set to: ?
  4921                           
  4922                           	
  4923  0006CC                     i2l1176:		; BSR set to: ?
  4924                           
  4925                           	line	1218
  4926                           ;main.c: 1216: }
  4927                           ;main.c: 1218: } else if (hResult == 0x02) {
  4928  0006CC  EF44  F004         	goto	i2l1173
  4929                           	
  4930  0006D0                     i2l1174:		; BSR set to: ?
  4931                           
  4932  0006D0  0101               	movlb	1	; () banked
  4933  0006D2  0101               	movlb	1	; () banked
  4934  0006D4  5116               	movf	((getNote@hResult))&0ffh,w
  4935  0006D6  0A02               	xorlw	2
  4936                           
  4937  0006D8  A4D8               	btfss	status,2
  4938  0006DA  EF71  F003         	goto	i2u9591
  4939  0006DE  EF73  F003         	goto	i2u9590
  4940  0006E2                     i2u9591:
  4941  0006E2  EFD7  F003         	goto	i2l1182
  4942  0006E6                     i2u9590:
  4943                           	line	1219
  4944                           ;main.c: 1219: if (lResult >= 201 && lResult <= 
                                 235) {
  4945  0006E6  0EC8               	movlw	(0C9h-1)
  4946  0006E8  0101               	movlb	1	; () banked
  4947  0006EA  0101               	movlb	1	; () banked
  4948  0006EC  6517               	cpfsgt	((getNote@lResult))&0ffh
  4949  0006EE  EF7B  F003         	goto	i2u9601
  4950  0006F2  EF7D  F003         	goto	i2u9600
  4951  0006F6                     i2u9601:
  4952  0006F6  EF91  F003         	goto	i2l1183
  4953  0006FA                     i2u9600:
  4954  0006FA  0EEC               	movlw	(0ECh)&0ffh
  4955  0006FC  0101               	movlb	1	; () banked
  4956  0006FE  0101               	movlb	1	; () banked
  4957  000700  6117               	cpfslt	((getNote@lResult))&0ffh
  4958  000702  EF85  F003         	goto	i2u9611
  4959  000706  EF87  F003         	goto	i2u9610
  4960  00070A                     i2u9611:
  4961  00070A  EF91  F003         	goto	i2l1183
  4962  00070E                     i2u9610:
  4963                           	line	1221
  4964                           ;main.c: 1221: new_note = 0x33;
  4965  00070E  0101               	movlb	1	; () banked
  4966  000710  6F19               	movwf	(??_getNote+1+0)&0ffh
  4967  000712  0E33               	movlw	low(033h)
  4968  000714  0101               	movlb	1	; () banked
  4969  000716  0101               	movlb	1	; () banked
  4970  000718  6F18               	movwf	((getNote@new_note))&0ffh
  4971  00071A  0101               	movlb	1	; () banked
  4972  00071C  5119               	movf	(??_getNote+1+0)&0ffh,w
  4973                           	line	1222
  4974                           ;main.c: 1222: } else if (lResult >= 124 && lRes
                                 ult <= 183) {
  4975  00071E  EFD5  F003         	goto	i2l1184
  4976                           	
  4977  000722                     i2l1183:		; BSR set to: ?
  4978                           
  4979  000722  0E7B               	movlw	(07Ch-1)
  4980  000724  0101               	movlb	1	; () banked
  4981  000726  0101               	movlb	1	; () banked
  4982  000728  6517               	cpfsgt	((getNote@lResult))&0ffh
  4983  00072A  EF99  F003         	goto	i2u9621
  4984  00072E  EF9B  F003         	goto	i2u9620
  4985  000732                     i2u9621:
  4986  000732  EFAF  F003         	goto	i2l1185
  4987  000736                     i2u9620:
  4988  000736  0EB8               	movlw	(0B8h)&0ffh
  4989  000738  0101               	movlb	1	; () banked
  4990  00073A  0101               	movlb	1	; () banked
  4991  00073C  6117               	cpfslt	((getNote@lResult))&0ffh
  4992  00073E  EFA3  F003         	goto	i2u9631
  4993  000742  EFA5  F003         	goto	i2u9630
  4994  000746                     i2u9631:
  4995  000746  EFAF  F003         	goto	i2l1185
  4996  00074A                     i2u9630:
  4997                           	line	1224
  4998                           ;main.c: 1224: new_note = 0x23;
  4999  00074A  0101               	movlb	1	; () banked
  5000  00074C  6F19               	movwf	(??_getNote+1+0)&0ffh
  5001  00074E  0E23               	movlw	low(023h)
  5002  000750  0101               	movlb	1	; () banked
  5003  000752  0101               	movlb	1	; () banked
  5004  000754  6F18               	movwf	((getNote@new_note))&0ffh
  5005  000756  0101               	movlb	1	; () banked
  5006  000758  5119               	movf	(??_getNote+1+0)&0ffh,w
  5007                           	line	1225
  5008                           ;main.c: 1225: } else if (lResult >= 70 && lResu
                                 lt <= 110) {
  5009  00075A  EFD5  F003         	goto	i2l1184
  5010                           	
  5011  00075E                     i2l1185:		; BSR set to: ?
  5012                           
  5013  00075E  0E45               	movlw	(046h-1)
  5014  000760  0101               	movlb	1	; () banked
  5015  000762  0101               	movlb	1	; () banked
  5016  000764  6517               	cpfsgt	((getNote@lResult))&0ffh
  5017  000766  EFB7  F003         	goto	i2u9641
  5018  00076A  EFB9  F003         	goto	i2u9640
  5019  00076E                     i2u9641:
  5020  00076E  EFCD  F003         	goto	i2l1187
  5021  000772                     i2u9640:
  5022  000772  0E6F               	movlw	(06Fh)&0ffh
  5023  000774  0101               	movlb	1	; () banked
  5024  000776  0101               	movlb	1	; () banked
  5025  000778  6117               	cpfslt	((getNote@lResult))&0ffh
  5026  00077A  EFC1  F003         	goto	i2u9651
  5027  00077E  EFC3  F003         	goto	i2u9650
  5028  000782                     i2u9651:
  5029  000782  EFCD  F003         	goto	i2l1187
  5030  000786                     i2u9650:
  5031                           	line	1227
  5032                           ;main.c: 1227: new_note = 0x2b;
  5033  000786  0101               	movlb	1	; () banked
  5034  000788  6F19               	movwf	(??_getNote+1+0)&0ffh
  5035  00078A  0E2B               	movlw	low(02Bh)
  5036  00078C  0101               	movlb	1	; () banked
  5037  00078E  0101               	movlb	1	; () banked
  5038  000790  6F18               	movwf	((getNote@new_note))&0ffh
  5039  000792  0101               	movlb	1	; () banked
  5040  000794  5119               	movf	(??_getNote+1+0)&0ffh,w
  5041                           	line	1228
  5042                           ;main.c: 1228: } else {
  5043  000796  EFD5  F003         	goto	i2l1184
  5044                           	
  5045  00079A                     i2l1187:		; BSR set to: ?
  5046                           
  5047                           	line	1230
  5048                           ;main.c: 1230: new_note = 0x00;
  5049  00079A  0101               	movlb	1	; () banked
  5050  00079C  6F19               	movwf	(??_getNote+1+0)&0ffh
  5051  00079E  0E00               	movlw	low(0)
  5052  0007A0  0101               	movlb	1	; () banked
  5053  0007A2  0101               	movlb	1	; () banked
  5054  0007A4  6F18               	movwf	((getNote@new_note))&0ffh
  5055  0007A6  0101               	movlb	1	; () banked
  5056  0007A8  5119               	movf	(??_getNote+1+0)&0ffh,w
  5057                           	line	1231
  5058                           	
  5059  0007AA                     i2l1188:		; BSR set to: ?
  5060                           
  5061                           	
  5062  0007AA                     i2l1186:		; BSR set to: ?
  5063                           
  5064                           	
  5065  0007AA                     i2l1184:		; BSR set to: ?
  5066                           
  5067                           	line	1233
  5068                           ;main.c: 1231: }
  5069                           ;main.c: 1233: } else if (hResult == 0x03) {
  5070  0007AA  EF44  F004         	goto	i2l1173
  5071                           	
  5072  0007AE                     i2l1182:		; BSR set to: ?
  5073                           
  5074  0007AE  0101               	movlb	1	; () banked
  5075  0007B0  0101               	movlb	1	; () banked
  5076  0007B2  5116               	movf	((getNote@hResult))&0ffh,w
  5077  0007B4  0A03               	xorlw	3
  5078                           
  5079  0007B6  A4D8               	btfss	status,2
  5080  0007B8  EFE0  F003         	goto	i2u9661
  5081  0007BC  EFE2  F003         	goto	i2u9660
  5082  0007C0                     i2u9661:
  5083  0007C0  EF44  F004         	goto	i2l1173
  5084  0007C4                     i2u9660:
  5085                           	line	1234
  5086                           ;main.c: 1234: if (lResult >= 60 && lResult <= 8
                                 7) {
  5087  0007C4  0E3B               	movlw	(03Ch-1)
  5088  0007C6  0101               	movlb	1	; () banked
  5089  0007C8  0101               	movlb	1	; () banked
  5090  0007CA  6517               	cpfsgt	((getNote@lResult))&0ffh
  5091  0007CC  EFEA  F003         	goto	i2u9671
  5092  0007D0  EFEC  F003         	goto	i2u9670
  5093  0007D4                     i2u9671:
  5094  0007D4  EF00  F004         	goto	i2l1191
  5095  0007D8                     i2u9670:
  5096  0007D8  0E58               	movlw	(058h)&0ffh
  5097  0007DA  0101               	movlb	1	; () banked
  5098  0007DC  0101               	movlb	1	; () banked
  5099  0007DE  6117               	cpfslt	((getNote@lResult))&0ffh
  5100  0007E0  EFF4  F003         	goto	i2u9681
  5101  0007E4  EFF6  F003         	goto	i2u9680
  5102  0007E8                     i2u9681:
  5103  0007E8  EF00  F004         	goto	i2l1191
  5104  0007EC                     i2u9680:
  5105                           	line	1236
  5106                           ;main.c: 1236: new_note = 0x13;
  5107  0007EC  0101               	movlb	1	; () banked
  5108  0007EE  6F19               	movwf	(??_getNote+1+0)&0ffh
  5109  0007F0  0E13               	movlw	low(013h)
  5110  0007F2  0101               	movlb	1	; () banked
  5111  0007F4  0101               	movlb	1	; () banked
  5112  0007F6  6F18               	movwf	((getNote@new_note))&0ffh
  5113  0007F8  0101               	movlb	1	; () banked
  5114  0007FA  5119               	movf	(??_getNote+1+0)&0ffh,w
  5115                           	line	1237
  5116                           ;main.c: 1237: } else if (lResult >= 138 && lRes
                                 ult <= 200) {
  5117  0007FC  EF44  F004         	goto	i2l1173
  5118                           	
  5119  000800                     i2l1191:		; BSR set to: ?
  5120                           
  5121  000800  0E89               	movlw	(08Ah-1)
  5122  000802  0101               	movlb	1	; () banked
  5123  000804  0101               	movlb	1	; () banked
  5124  000806  6517               	cpfsgt	((getNote@lResult))&0ffh
  5125  000808  EF08  F004         	goto	i2u9691
  5126  00080C  EF0A  F004         	goto	i2u9690
  5127  000810                     i2u9691:
  5128  000810  EF1E  F004         	goto	i2l1193
  5129  000814                     i2u9690:
  5130  000814  0EC9               	movlw	(0C9h)&0ffh
  5131  000816  0101               	movlb	1	; () banked
  5132  000818  0101               	movlb	1	; () banked
  5133  00081A  6117               	cpfslt	((getNote@lResult))&0ffh
  5134  00081C  EF12  F004         	goto	i2u9701
  5135  000820  EF14  F004         	goto	i2u9700
  5136  000824                     i2u9701:
  5137  000824  EF1E  F004         	goto	i2l1193
  5138  000828                     i2u9700:
  5139                           	line	1239
  5140                           ;main.c: 1239: new_note = 0x03;
  5141  000828  0101               	movlb	1	; () banked
  5142  00082A  6F19               	movwf	(??_getNote+1+0)&0ffh
  5143  00082C  0E03               	movlw	low(03h)
  5144  00082E  0101               	movlb	1	; () banked
  5145  000830  0101               	movlb	1	; () banked
  5146  000832  6F18               	movwf	((getNote@new_note))&0ffh
  5147  000834  0101               	movlb	1	; () banked
  5148  000836  5119               	movf	(??_getNote+1+0)&0ffh,w
  5149                           	line	1240
  5150                           ;main.c: 1240: } else if (lResult >= 212 && lRes
                                 ult <= 232) {
  5151  000838  EF44  F004         	goto	i2l1173
  5152                           	
  5153  00083C                     i2l1193:		; BSR set to: ?
  5154                           
  5155  00083C  0ED3               	movlw	(0D4h-1)
  5156  00083E  0101               	movlb	1	; () banked
  5157  000840  0101               	movlb	1	; () banked
  5158  000842  6517               	cpfsgt	((getNote@lResult))&0ffh
  5159  000844  EF26  F004         	goto	i2u9711
  5160  000848  EF28  F004         	goto	i2u9710
  5161  00084C                     i2u9711:
  5162  00084C  EF3C  F004         	goto	i2l1195
  5163  000850                     i2u9710:
  5164  000850  0EE9               	movlw	(0E9h)&0ffh
  5165  000852  0101               	movlb	1	; () banked
  5166  000854  0101               	movlb	1	; () banked
  5167  000856  6117               	cpfslt	((getNote@lResult))&0ffh
  5168  000858  EF30  F004         	goto	i2u9721
  5169  00085C  EF32  F004         	goto	i2u9720
  5170  000860                     i2u9721:
  5171  000860  EF3C  F004         	goto	i2l1195
  5172  000864                     i2u9720:
  5173                           	line	1242
  5174                           ;main.c: 1242: new_note = 0x0b;
  5175  000864  0101               	movlb	1	; () banked
  5176  000866  6F19               	movwf	(??_getNote+1+0)&0ffh
  5177  000868  0E0B               	movlw	low(0Bh)
  5178  00086A  0101               	movlb	1	; () banked
  5179  00086C  0101               	movlb	1	; () banked
  5180  00086E  6F18               	movwf	((getNote@new_note))&0ffh
  5181  000870  0101               	movlb	1	; () banked
  5182  000872  5119               	movf	(??_getNote+1+0)&0ffh,w
  5183                           	line	1243
  5184                           ;main.c: 1243: } else {
  5185  000874  EF44  F004         	goto	i2l1173
  5186                           	
  5187  000878                     i2l1195:		; BSR set to: ?
  5188                           
  5189                           	line	1245
  5190                           ;main.c: 1245: new_note = 0x00;
  5191  000878  0101               	movlb	1	; () banked
  5192  00087A  6F19               	movwf	(??_getNote+1+0)&0ffh
  5193  00087C  0E00               	movlw	low(0)
  5194  00087E  0101               	movlb	1	; () banked
  5195  000880  0101               	movlb	1	; () banked
  5196  000882  6F18               	movwf	((getNote@new_note))&0ffh
  5197  000884  0101               	movlb	1	; () banked
  5198  000886  5119               	movf	(??_getNote+1+0)&0ffh,w
  5199                           	line	1246
  5200                           	
  5201  000888                     i2l1196:		; BSR set to: ?
  5202                           
  5203                           	
  5204  000888                     i2l1194:		; BSR set to: ?
  5205                           
  5206                           	
  5207  000888                     i2l1192:		; BSR set to: ?
  5208                           
  5209                           	line	1247
  5210                           	
  5211  000888                     i2l1190:		; BSR set to: ?
  5212                           
  5213                           	line	1249
  5214                           	
  5215  000888                     i2l1189:		; BSR set to: ?
  5216                           
  5217                           	
  5218  000888                     i2l1181:		; BSR set to: ?
  5219                           
  5220                           	
  5221  000888                     i2l1173:		; BSR set to: ?
  5222                           
  5223                           ;main.c: 1246: }
  5224                           ;main.c: 1247: }
  5225                           ;main.c: 1249: } else if (adc_num == 3) {
  5226  000888  EFC6  F009         	goto	i2l1143
  5227                           	
  5228  00088C                     i2l1171:		; BSR set to: ?
  5229                           
  5230  00088C  501D               	movf	((c:29)),c,w	;volatile
  5231  00088E  0A03               	xorlw	3
  5232                           
  5233  000890  A4D8               	btfss	status,2
  5234  000892  EF4D  F004         	goto	i2u9731
  5235  000896  EF4F  F004         	goto	i2u9730
  5236  00089A                     i2u9731:
  5237  00089A  EFA4  F005         	goto	i2l1198
  5238  00089E                     i2u9730:
  5239                           	line	1250
  5240                           ;main.c: 1250: if (hResult == 0x00) {
  5241  00089E  0101               	movlb	1	; () banked
  5242  0008A0  0101               	movlb	1	; () banked
  5243  0008A2  6716               	tstfsz	((getNote@hResult))&0ffh
  5244  0008A4  EF56  F004         	goto	i2u9741
  5245  0008A8  EF58  F004         	goto	i2u9740
  5246  0008AC                     i2u9741:
  5247  0008AC  EF62  F004         	goto	i2l1199
  5248  0008B0                     i2u9740:
  5249                           	line	1252
  5250                           ;main.c: 1252: new_note = 0x00;
  5251  0008B0  0101               	movlb	1	; () banked
  5252  0008B2  6F19               	movwf	(??_getNote+1+0)&0ffh
  5253  0008B4  0E00               	movlw	low(0)
  5254  0008B6  0101               	movlb	1	; () banked
  5255  0008B8  0101               	movlb	1	; () banked
  5256  0008BA  6F18               	movwf	((getNote@new_note))&0ffh
  5257  0008BC  0101               	movlb	1	; () banked
  5258  0008BE  5119               	movf	(??_getNote+1+0)&0ffh,w
  5259                           	line	1254
  5260                           ;main.c: 1254: } else if (hResult == 0x01) {
  5261  0008C0  EFA2  F005         	goto	i2l1200
  5262                           	
  5263  0008C4                     i2l1199:		; BSR set to: ?
  5264                           
  5265  0008C4  0101               	movlb	1	; () banked
  5266  0008C6  0101               	movlb	1	; () banked
  5267  0008C8  0516               	decf	((getNote@hResult))&0ffh,w
  5268                           
  5269  0008CA  A4D8               	btfss	status,2
  5270  0008CC  EF6A  F004         	goto	i2u9751
  5271  0008D0  EF6C  F004         	goto	i2u9750
  5272  0008D4                     i2u9751:
  5273  0008D4  EFD0  F004         	goto	i2l1201
  5274  0008D8                     i2u9750:
  5275                           	line	1255
  5276                           ;main.c: 1255: if (lResult >= 200 && lResult <= 
                                 230) {
  5277  0008D8  0EC7               	movlw	(0C8h-1)
  5278  0008DA  0101               	movlb	1	; () banked
  5279  0008DC  0101               	movlb	1	; () banked
  5280  0008DE  6517               	cpfsgt	((getNote@lResult))&0ffh
  5281  0008E0  EF74  F004         	goto	i2u9761
  5282  0008E4  EF76  F004         	goto	i2u9760
  5283  0008E8                     i2u9761:
  5284  0008E8  EF8A  F004         	goto	i2l1202
  5285  0008EC                     i2u9760:
  5286  0008EC  0EE7               	movlw	(0E7h)&0ffh
  5287  0008EE  0101               	movlb	1	; () banked
  5288  0008F0  0101               	movlb	1	; () banked
  5289  0008F2  6117               	cpfslt	((getNote@lResult))&0ffh
  5290  0008F4  EF7E  F004         	goto	i2u9771
  5291  0008F8  EF80  F004         	goto	i2u9770
  5292  0008FC                     i2u9771:
  5293  0008FC  EF8A  F004         	goto	i2l1202
  5294  000900                     i2u9770:
  5295                           	line	1257
  5296                           ;main.c: 1257: new_note = 0x54;
  5297  000900  0101               	movlb	1	; () banked
  5298  000902  6F19               	movwf	(??_getNote+1+0)&0ffh
  5299  000904  0E54               	movlw	low(054h)
  5300  000906  0101               	movlb	1	; () banked
  5301  000908  0101               	movlb	1	; () banked
  5302  00090A  6F18               	movwf	((getNote@new_note))&0ffh
  5303  00090C  0101               	movlb	1	; () banked
  5304  00090E  5119               	movf	(??_getNote+1+0)&0ffh,w
  5305                           	line	1258
  5306                           ;main.c: 1258: } else if (lResult >= 130 && lRes
                                 ult <= 180) {
  5307  000910  EFCE  F004         	goto	i2l1203
  5308                           	
  5309  000914                     i2l1202:		; BSR set to: ?
  5310                           
  5311  000914  0E81               	movlw	(082h-1)
  5312  000916  0101               	movlb	1	; () banked
  5313  000918  0101               	movlb	1	; () banked
  5314  00091A  6517               	cpfsgt	((getNote@lResult))&0ffh
  5315  00091C  EF92  F004         	goto	i2u9781
  5316  000920  EF94  F004         	goto	i2u9780
  5317  000924                     i2u9781:
  5318  000924  EFA8  F004         	goto	i2l1204
  5319  000928                     i2u9780:
  5320  000928  0EB5               	movlw	(0B5h)&0ffh
  5321  00092A  0101               	movlb	1	; () banked
  5322  00092C  0101               	movlb	1	; () banked
  5323  00092E  6117               	cpfslt	((getNote@lResult))&0ffh
  5324  000930  EF9C  F004         	goto	i2u9791
  5325  000934  EF9E  F004         	goto	i2u9790
  5326  000938                     i2u9791:
  5327  000938  EFA8  F004         	goto	i2l1204
  5328  00093C                     i2u9790:
  5329                           	line	1260
  5330                           ;main.c: 1260: new_note = 0x44;
  5331  00093C  0101               	movlb	1	; () banked
  5332  00093E  6F19               	movwf	(??_getNote+1+0)&0ffh
  5333  000940  0E44               	movlw	low(044h)
  5334  000942  0101               	movlb	1	; () banked
  5335  000944  0101               	movlb	1	; () banked
  5336  000946  6F18               	movwf	((getNote@new_note))&0ffh
  5337  000948  0101               	movlb	1	; () banked
  5338  00094A  5119               	movf	(??_getNote+1+0)&0ffh,w
  5339                           	line	1261
  5340                           ;main.c: 1261: } else if (lResult >= 90 && lResu
                                 lt <= 120) {
  5341  00094C  EFCE  F004         	goto	i2l1203
  5342                           	
  5343  000950                     i2l1204:		; BSR set to: ?
  5344                           
  5345  000950  0E59               	movlw	(05Ah-1)
  5346  000952  0101               	movlb	1	; () banked
  5347  000954  0101               	movlb	1	; () banked
  5348  000956  6517               	cpfsgt	((getNote@lResult))&0ffh
  5349  000958  EFB0  F004         	goto	i2u9801
  5350  00095C  EFB2  F004         	goto	i2u9800
  5351  000960                     i2u9801:
  5352  000960  EFC6  F004         	goto	i2l1206
  5353  000964                     i2u9800:
  5354  000964  0E79               	movlw	(079h)&0ffh
  5355  000966  0101               	movlb	1	; () banked
  5356  000968  0101               	movlb	1	; () banked
  5357  00096A  6117               	cpfslt	((getNote@lResult))&0ffh
  5358  00096C  EFBA  F004         	goto	i2u9811
  5359  000970  EFBC  F004         	goto	i2u9810
  5360  000974                     i2u9811:
  5361  000974  EFC6  F004         	goto	i2l1206
  5362  000978                     i2u9810:
  5363                           	line	1263
  5364                           ;main.c: 1263: new_note = 0x4c;
  5365  000978  0101               	movlb	1	; () banked
  5366  00097A  6F19               	movwf	(??_getNote+1+0)&0ffh
  5367  00097C  0E4C               	movlw	low(04Ch)
  5368  00097E  0101               	movlb	1	; () banked
  5369  000980  0101               	movlb	1	; () banked
  5370  000982  6F18               	movwf	((getNote@new_note))&0ffh
  5371  000984  0101               	movlb	1	; () banked
  5372  000986  5119               	movf	(??_getNote+1+0)&0ffh,w
  5373                           	line	1264
  5374                           ;main.c: 1264: } else {
  5375  000988  EFCE  F004         	goto	i2l1203
  5376                           	
  5377  00098C                     i2l1206:		; BSR set to: ?
  5378                           
  5379                           	line	1266
  5380                           ;main.c: 1266: new_note = 0x00;
  5381  00098C  0101               	movlb	1	; () banked
  5382  00098E  6F19               	movwf	(??_getNote+1+0)&0ffh
  5383  000990  0E00               	movlw	low(0)
  5384  000992  0101               	movlb	1	; () banked
  5385  000994  0101               	movlb	1	; () banked
  5386  000996  6F18               	movwf	((getNote@new_note))&0ffh
  5387  000998  0101               	movlb	1	; () banked
  5388  00099A  5119               	movf	(??_getNote+1+0)&0ffh,w
  5389                           	line	1267
  5390                           	
  5391  00099C                     i2l1207:		; BSR set to: ?
  5392                           
  5393                           	
  5394  00099C                     i2l1205:		; BSR set to: ?
  5395                           
  5396                           	
  5397  00099C                     i2l1203:		; BSR set to: ?
  5398                           
  5399                           	line	1269
  5400                           ;main.c: 1267: }
  5401                           ;main.c: 1269: } else if (hResult == 0x02) {
  5402  00099C  EFA2  F005         	goto	i2l1200
  5403                           	
  5404  0009A0                     i2l1201:		; BSR set to: ?
  5405                           
  5406  0009A0  0101               	movlb	1	; () banked
  5407  0009A2  0101               	movlb	1	; () banked
  5408  0009A4  5116               	movf	((getNote@hResult))&0ffh,w
  5409  0009A6  0A02               	xorlw	2
  5410                           
  5411  0009A8  A4D8               	btfss	status,2
  5412  0009AA  EFD9  F004         	goto	i2u9821
  5413  0009AE  EFDB  F004         	goto	i2u9820
  5414  0009B2                     i2u9821:
  5415  0009B2  EF35  F005         	goto	i2l1209
  5416  0009B6                     i2u9820:
  5417                           	line	1270
  5418                           ;main.c: 1270: if (lResult >= 203 && lResult <= 
                                 255) {
  5419  0009B6  0ECA               	movlw	(0CBh-1)
  5420  0009B8  0101               	movlb	1	; () banked
  5421  0009BA  0101               	movlb	1	; () banked
  5422  0009BC  6517               	cpfsgt	((getNote@lResult))&0ffh
  5423  0009BE  EFE3  F004         	goto	i2u9831
  5424  0009C2  EFE5  F004         	goto	i2u9830
  5425  0009C6                     i2u9831:
  5426  0009C6  EFEF  F004         	goto	i2l1210
  5427  0009CA                     i2u9830:
  5428                           	line	1272
  5429                           ;main.c: 1272: new_note = 0x34;
  5430  0009CA  0101               	movlb	1	; () banked
  5431  0009CC  6F19               	movwf	(??_getNote+1+0)&0ffh
  5432  0009CE  0E34               	movlw	low(034h)
  5433  0009D0  0101               	movlb	1	; () banked
  5434  0009D2  0101               	movlb	1	; () banked
  5435  0009D4  6F18               	movwf	((getNote@new_note))&0ffh
  5436  0009D6  0101               	movlb	1	; () banked
  5437  0009D8  5119               	movf	(??_getNote+1+0)&0ffh,w
  5438                           	line	1273
  5439                           ;main.c: 1273: } else if (lResult >= 130 && lRes
                                 ult <= 167) {
  5440  0009DA  EF33  F005         	goto	i2l1211
  5441                           	
  5442  0009DE                     i2l1210:		; BSR set to: ?
  5443                           
  5444  0009DE  0E81               	movlw	(082h-1)
  5445  0009E0  0101               	movlb	1	; () banked
  5446  0009E2  0101               	movlb	1	; () banked
  5447  0009E4  6517               	cpfsgt	((getNote@lResult))&0ffh
  5448  0009E6  EFF7  F004         	goto	i2u9841
  5449  0009EA  EFF9  F004         	goto	i2u9840
  5450  0009EE                     i2u9841:
  5451  0009EE  EF0D  F005         	goto	i2l1212
  5452  0009F2                     i2u9840:
  5453  0009F2  0EA8               	movlw	(0A8h)&0ffh
  5454  0009F4  0101               	movlb	1	; () banked
  5455  0009F6  0101               	movlb	1	; () banked
  5456  0009F8  6117               	cpfslt	((getNote@lResult))&0ffh
  5457  0009FA  EF01  F005         	goto	i2u9851
  5458  0009FE  EF03  F005         	goto	i2u9850
  5459  000A02                     i2u9851:
  5460  000A02  EF0D  F005         	goto	i2l1212
  5461  000A06                     i2u9850:
  5462                           	line	1275
  5463                           ;main.c: 1275: new_note = 0x24;
  5464  000A06  0101               	movlb	1	; () banked
  5465  000A08  6F19               	movwf	(??_getNote+1+0)&0ffh
  5466  000A0A  0E24               	movlw	low(024h)
  5467  000A0C  0101               	movlb	1	; () banked
  5468  000A0E  0101               	movlb	1	; () banked
  5469  000A10  6F18               	movwf	((getNote@new_note))&0ffh
  5470  000A12  0101               	movlb	1	; () banked
  5471  000A14  5119               	movf	(??_getNote+1+0)&0ffh,w
  5472                           	line	1276
  5473                           ;main.c: 1276: } else if (lResult >= 87 && lResu
                                 lt <= 124) {
  5474  000A16  EF33  F005         	goto	i2l1211
  5475                           	
  5476  000A1A                     i2l1212:		; BSR set to: ?
  5477                           
  5478  000A1A  0E56               	movlw	(057h-1)
  5479  000A1C  0101               	movlb	1	; () banked
  5480  000A1E  0101               	movlb	1	; () banked
  5481  000A20  6517               	cpfsgt	((getNote@lResult))&0ffh
  5482  000A22  EF15  F005         	goto	i2u9861
  5483  000A26  EF17  F005         	goto	i2u9860
  5484  000A2A                     i2u9861:
  5485  000A2A  EF2B  F005         	goto	i2l1214
  5486  000A2E                     i2u9860:
  5487  000A2E  0E7D               	movlw	(07Dh)&0ffh
  5488  000A30  0101               	movlb	1	; () banked
  5489  000A32  0101               	movlb	1	; () banked
  5490  000A34  6117               	cpfslt	((getNote@lResult))&0ffh
  5491  000A36  EF1F  F005         	goto	i2u9871
  5492  000A3A  EF21  F005         	goto	i2u9870
  5493  000A3E                     i2u9871:
  5494  000A3E  EF2B  F005         	goto	i2l1214
  5495  000A42                     i2u9870:
  5496                           	line	1278
  5497                           ;main.c: 1278: new_note = 0x2c;
  5498  000A42  0101               	movlb	1	; () banked
  5499  000A44  6F19               	movwf	(??_getNote+1+0)&0ffh
  5500  000A46  0E2C               	movlw	low(02Ch)
  5501  000A48  0101               	movlb	1	; () banked
  5502  000A4A  0101               	movlb	1	; () banked
  5503  000A4C  6F18               	movwf	((getNote@new_note))&0ffh
  5504  000A4E  0101               	movlb	1	; () banked
  5505  000A50  5119               	movf	(??_getNote+1+0)&0ffh,w
  5506+                          	line	1279
  5507+                          ;main.c: 1279: } else {
  5508+ 000A52  EF33  F005         	goto	i2l1211
  5509+                          	
  5510+ 000A56                     i2l1214:		; BSR set to: ?
  5511+                          
  5512+                          	line	1281
  5513+                          ;main.c: 1281: new_note = 0x00;
  5514+ 000A56  0101               	movlb	1	; () banked
  5515+ 000A58  6F19               	movwf	(??_getNote+1+0)&0ffh
  5516+ 000A5A  0E00               	movlw	low(0)
  5517+ 000A5C  0101               	movlb	1	; () banked
  5518+ 000A5E  0101               	movlb	1	; () banked
  5519+ 000A60  6F18               	movwf	((getNote@new_note))&0ffh
  5520+ 000A62  0101               	movlb	1	; () banked
  5521+ 000A64  5119               	movf	(??_getNote+1+0)&0ffh,w
  5522+                          	line	1282
  5523+                          	
  5524+ 000A66                     i2l1215:		; BSR set to: ?
  5525+                          
  5526+                          	
  5527+ 000A66                     i2l1213:		; BSR set to: ?
  5528+                          
  5529+                          	
  5530+ 000A66                     i2l1211:		; BSR set to: ?
  5531+                          
  5532+                          	line	1284
  5533+                          ;main.c: 1282: }
  5534+                          ;main.c: 1284: } else if (hResult == 0x03) {
  5535+ 000A66  EFA2  F005         	goto	i2l1200
  5536+                          	
  5537+ 000A6A                     i2l1209:		; BSR set to: ?
  5538+                          
  5539+ 000A6A  0101               	movlb	1	; () banked
  5540+ 000A6C  0101               	movlb	1	; () banked
  5541+ 000A6E  5116               	movf	((getNote@hResult))&0ffh,w
  5542+ 000A70  0A03               	xorlw	3
  5543+                          
  5544+ 000A72  A4D8               	btfss	status,2
  5545+ 000A74  EF3E  F005         	goto	i2u9881
  5546+ 000A78  EF40  F005         	goto	i2u9880
  5547+ 000A7C                     i2u9881:
  5548+ 000A7C  EFA2  F005         	goto	i2l1200
  5549+ 000A80                     i2u9880:
  5550+                          	line	1285
  5551+                          ;main.c: 1285: if (lResult >= 60 && lResult <= 1
      +                          60) {
  5552+ 000A80  0E3B               	movlw	(03Ch-1)
  5553+ 000A82  0101               	movlb	1	; () banked
  5554+ 000A84  0101               	movlb	1	; () banked
  5555+ 000A86  6517               	cpfsgt	((getNote@lResult))&0ffh
  5556+ 000A88  EF48  F005         	goto	i2u9891
  5557+ 000A8C  EF4A  F005         	goto	i2u9890
  5558+ 000A90                     i2u9891:
  5559+ 000A90  EF5E  F005         	goto	i2l1218
  5560+ 000A94                     i2u9890:
  5561+ 000A94  0EA1               	movlw	(0A1h)&0ffh
  5562+ 000A96  0101               	movlb	1	; () banked
  5563+ 000A98  0101               	movlb	1	; () banked
  5564+ 000A9A  6117               	cpfslt	((getNote@lResult))&0ffh
  5565+ 000A9C  EF52  F005         	goto	i2u9901
  5566+ 000AA0  EF54  F005         	goto	i2u9900
  5567+ 000AA4                     i2u9901:
  5568+ 000AA4  EF5E  F005         	goto	i2l1218
  5569+ 000AA8                     i2u9900:
  5570+                          	line	1287
  5571+                          ;main.c: 1287: new_note = 0x14;
  5572+ 000AA8  0101               	movlb	1	; () banked
  5573+ 000AAA  6F19               	movwf	(??_getNote+1+0)&0ffh
  5574+ 000AAC  0E14               	movlw	low(014h)
  5575+ 000AAE  0101               	movlb	1	; () banked
  5576+ 000AB0  0101               	movlb	1	; () banked
  5577+ 000AB2  6F18               	movwf	((getNote@new_note))&0ffh
  5578+ 000AB4  0101               	movlb	1	; () banked
  5579+ 000AB6  5119               	movf	(??_getNote+1+0)&0ffh,w
  5580+                          	line	1288
  5581+                          ;main.c: 1288: } else if (lResult >= 145 && lRes
      +                          ult <= 205) {
  5582+ 000AB8  EFA2  F005         	goto	i2l1200
  5583+                          	
  5584+ 000ABC                     i2l1218:		; BSR set to: ?
  5585+                          
  5586+ 000ABC  0E90               	movlw	(091h-1)
  5587+ 000ABE  0101               	movlb	1	; () banked
  5588+ 000AC0  0101               	movlb	1	; () banked
  5589+ 000AC2  6517               	cpfsgt	((getNote@lResult))&0ffh
  5590+ 000AC4  EF66  F005         	goto	i2u9911
  5591+ 000AC8  EF68  F005         	goto	i2u9910
  5592+ 000ACC                     i2u9911:
  5593+ 000ACC  EF7C  F005         	goto	i2l1220
  5594+ 000AD0                     i2u9910:
  5595+ 000AD0  0ECE               	movlw	(0CEh)&0ffh
  5596+ 000AD2  0101               	movlb	1	; () banked
  5597+ 000AD4  0101               	movlb	1	; () banked
  5598+ 000AD6  6117               	cpfslt	((getNote@lResult))&0ffh
  5599+ 000AD8  EF70  F005         	goto	i2u9921
  5600+ 000ADC  EF72  F005         	goto	i2u9920
  5601+ 000AE0                     i2u9921:
  5602+ 000AE0  EF7C  F005         	goto	i2l1220
  5603+ 000AE4                     i2u9920:
  5604+                          	line	1290
  5605+                          ;main.c: 1290: new_note = 0x04;
  5606+ 000AE4  0101               	movlb	1	; () banked
  5607+ 000AE6  6F19               	movwf	(??_getNote+1+0)&0ffh
  5608+ 000AE8  0E04               	movlw	low(04h)
  5609+ 000AEA  0101               	movlb	1	; () banked
  5610+ 000AEC  0101               	movlb	1	; () banked
  5611+ 000AEE  6F18               	movwf	((getNote@new_note))&0ffh
  5612+ 000AF0  0101               	movlb	1	; () banked
  5613+ 000AF2  5119               	movf	(??_getNote+1+0)&0ffh,w
  5614+                          	line	1291
  5615+                          ;main.c: 1291: } else if (lResult >= 227 && lRes
      +                          ult <= 239) {
  5616+ 000AF4  EFA2  F005         	goto	i2l1200
  5617+                          	
  5618+ 000AF8                     i2l1220:		; BSR set to: ?
  5619+                          
  5620+ 000AF8  0EE2               	movlw	(0E3h-1)
  5621+ 000AFA  0101               	movlb	1	; () banked
  5622+ 000AFC  0101               	movlb	1	; () banked
  5623+ 000AFE  6517               	cpfsgt	((getNote@lResult))&0ffh
  5624+ 000B00  EF84  F005         	goto	i2u9931
  5625+ 000B04  EF86  F005         	goto	i2u9930
  5626+ 000B08                     i2u9931:
  5627+ 000B08  EF9A  F005         	goto	i2l1222
  5628+ 000B0C                     i2u9930:
  5629+ 000B0C  0EF0               	movlw	(0F0h)&0ffh
  5630+ 000B0E  0101               	movlb	1	; () banked
  5631+ 000B10  0101               	movlb	1	; () banked
  5632+ 000B12  6117               	cpfslt	((getNote@lResult))&0ffh
  5633+ 000B14  EF8E  F005         	goto	i2u9941
  5634+ 000B18  EF90  F005         	goto	i2u9940
  5635+ 000B1C                     i2u9941:
  5636+ 000B1C  EF9A  F005         	goto	i2l1222
  5637+ 000B20                     i2u9940:
  5638+                          	line	1293
  5639+                          ;main.c: 1293: new_note = 0x0c;
  5640+ 000B20  0101               	movlb	1	; () banked
  5641+ 000B22  6F19               	movwf	(??_getNote+1+0)&0ffh
  5642+ 000B24  0E0C               	movlw	low(0Ch)
  5643+ 000B26  0101               	movlb	1	; () banked
  5644+ 000B28  0101               	movlb	1	; () banked
  5645+ 000B2A  6F18               	movwf	((getNote@new_note))&0ffh
  5646+ 000B2C  0101               	movlb	1	; () banked
  5647+ 000B2E  5119               	movf	(??_getNote+1+0)&0ffh,w
  5648+                          	line	1294
  5649+                          ;main.c: 1294: } else {
  5650+ 000B30  EFA2  F005         	goto	i2l1200
  5651+                          	
  5652+ 000B34                     i2l1222:		; BSR set to: ?
  5653+                          
  5654+                          	line	1296
  5655+                          ;main.c: 1296: new_note = 0x00;
  5656+ 000B34  0101               	movlb	1	; () banked
  5657+ 000B36  6F19               	movwf	(??_getNote+1+0)&0ffh
  5658+ 000B38  0E00               	movlw	low(0)
  5659+ 000B3A  0101               	movlb	1	; () banked
  5660+ 000B3C  0101               	movlb	1	; () banked
  5661+ 000B3E  6F18               	movwf	((getNote@new_note))&0ffh
  5662+ 000B40  0101               	movlb	1	; () banked
  5663+ 000B42  5119               	movf	(??_getNote+1+0)&0ffh,w
  5664+                          	line	1297
  5665+                          	
  5666+ 000B44                     i2l1223:		; BSR set to: ?
  5667+                          
  5668+                          	
  5669+ 000B44                     i2l1221:		; BSR set to: ?
  5670+                          
  5671+                          	
  5672+ 000B44                     i2l1219:		; BSR set to: ?
  5673+                          
  5674+                          	line	1299
  5675+                          	
  5676+ 000B44                     i2l1217:		; BSR set to: ?
  5677+                          
  5678+                          	line	1301
  5679+                          	
  5680+ 000B44                     i2l1216:		; BSR set to: ?
  5681+                          
  5682+                          	
  5683+ 000B44                     i2l1208:		; BSR set to: ?
  5684+                          
  5685+                          	
  5686+ 000B44                     i2l1200:		; BSR set to: ?
  5687+                          
  5688+                          ;main.c: 1297: }
  5689+                          ;main.c: 1299: }
  5690+                          ;main.c: 1301: } else if (adc_num == 4) {
  5691+ 000B44  EFC6  F009         	goto	i2l1143
  5692+                          	
  5693+ 000B48                     i2l1198:		; BSR set to: ?
  5694+                          
  5695+ 000B48  501D               	movf	((c:29)),c,w	;volatile
  5696+ 000B4A  0A04               	xorlw	4
  5697+                          
  5698+ 000B4C  A4D8               	btfss	status,2
  5699+ 000B4E  EFAB  F005         	goto	i2u9951
  5700+ 000B52  EFAD  F005         	goto	i2u9950
  5701+ 000B56                     i2u9951:
  5702+ 000B56  EF02  F007         	goto	i2l1225
  5703+ 000B5A                     i2u9950:
  5704+                          	line	1302
  5705+                          ;main.c: 1302: if (hResult == 0x00) {
  5706+ 000B5A  0101               	movlb	1	; () banked
  5707+ 000B5C  0101               	movlb	1	; () banked
  5708+ 000B5E  6716               	tstfsz	((getNote@hResult))&0ffh
  5709+ 000B60  EFB4  F005         	goto	i2u9961
  5710+ 000B64  EFB6  F005         	goto	i2u9960
  5711+ 000B68                     i2u9961:
  5712+ 000B68  EFC0  F005         	goto	i2l1226
  5713+ 000B6C                     i2u9960:
  5714+                          	line	1304
  5715+                          ;main.c: 1304: new_note = 0x00;
  5716+ 000B6C  0101               	movlb	1	; () banked
  5717+ 000B6E  6F19               	movwf	(??_getNote+1+0)&0ffh
  5718+ 000B70  0E00               	movlw	low(0)
  5719+ 000B72  0101               	movlb	1	; () banked
  5720+ 000B74  0101               	movlb	1	; () banked
  5721+ 000B76  6F18               	movwf	((getNote@new_note))&0ffh
  5722+ 000B78  0101               	movlb	1	; () banked
  5723+ 000B7A  5119               	movf	(??_getNote+1+0)&0ffh,w
  5724+                          	line	1306
  5725+                          ;main.c: 1306: } else if (hResult == 0x01) {
  5726+ 000B7C  EF00  F007         	goto	i2l1227
  5727+                          	
  5728+ 000B80                     i2l1226:		; BSR set to: ?
  5729+                          
  5730+ 000B80  0101               	movlb	1	; () banked
  5731+ 000B82  0101               	movlb	1	; () banked
  5732+ 000B84  0516               	decf	((getNote@hResult))&0ffh,w
  5733+                          
  5734+ 000B86  A4D8               	btfss	status,2
  5735+ 000B88  EFC8  F005         	goto	i2u9971
  5736+ 000B8C  EFCA  F005         	goto	i2u9970
  5737+ 000B90                     i2u9971:
  5738+ 000B90  EF2E  F006         	goto	i2l1228
  5739+ 000B94                     i2u9970:
  5740+                          	line	1307
  5741+                          ;main.c: 1307: if (lResult >= 8 && lResult <= 69
      +                          ) {
  5742+ 000B94  0E07               	movlw	(08h-1)
  5743+ 000B96  0101               	movlb	1	; () banked
  5744+ 000B98  0101               	movlb	1	; () banked
  5745+ 000B9A  6517               	cpfsgt	((getNote@lResult))&0ffh
  5746+ 000B9C  EFD2  F005         	goto	i2u9981
  5747+ 000BA0  EFD4  F005         	goto	i2u9980
  5748+ 000BA4                     i2u9981:
  5749+ 000BA4  EFE8  F005         	goto	i2l1229
  5750+ 000BA8                     i2u9980:
  5751+ 000BA8  0E46               	movlw	(046h)&0ffh
  5752+ 000BAA  0101               	movlb	1	; () banked
  5753+ 000BAC  0101               	movlb	1	; () banked
  5754+ 000BAE  6117               	cpfslt	((getNote@lResult))&0ffh
  5755+ 000BB0  EFDC  F005         	goto	i2u9991
  5756+ 000BB4  EFDE  F005         	goto	i2u9990
  5757+ 000BB8                     i2u9991:
  5758+ 000BB8  EFE8  F005         	goto	i2l1229
  5759+ 000BBC                     i2u9990:
  5760+                          	line	1309
  5761+                          ;main.c: 1309: new_note = 0x55;
  5762+ 000BBC  0101               	movlb	1	; () banked
  5763+ 000BBE  6F19               	movwf	(??_getNote+1+0)&0ffh
  5764+ 000BC0  0E55               	movlw	low(055h)
  5765+ 000BC2  0101               	movlb	1	; () banked
  5766+ 000BC4  0101               	movlb	1	; () banked
  5767+ 000BC6  6F18               	movwf	((getNote@new_note))&0ffh
  5768+ 000BC8  0101               	movlb	1	; () banked
  5769+ 000BCA  5119               	movf	(??_getNote+1+0)&0ffh,w
  5770+                          	line	1310
  5771+                          ;main.c: 1310: } else if (lResult >= 96 && lResu
      +                          lt <= 210) {
  5772+ 000BCC  EF2C  F006         	goto	i2l1230
  5773+                          	
  5774+ 000BD0                     i2l1229:		; BSR set to: ?
  5775+                          
  5776+ 000BD0  0E5F               	movlw	(060h-1)
  5777+ 000BD2  0101               	movlb	1	; () banked
  5778+ 000BD4  0101               	movlb	1	; () banked
  5779+ 000BD6  6517               	cpfsgt	((getNote@lResult))&0ffh
  5780+ 000BD8  EFF0  F005         	goto	i2u10001
  5781+ 000BDC  EFF2  F005         	goto	i2u10000
  5782+ 000BE0                     i2u10001:
  5783+ 000BE0  EF06  F006         	goto	i2l1231
  5784+ 000BE4                     i2u10000:
  5785+ 000BE4  0ED3               	movlw	(0D3h)&0ffh
  5786+ 000BE6  0101               	movlb	1	; () banked
  5787+ 000BE8  0101               	movlb	1	; () banked
  5788+ 000BEA  6117               	cpfslt	((getNote@lResult))&0ffh
  5789+ 000BEC  EFFA  F005         	goto	i2u10011
  5790+ 000BF0  EFFC  F005         	goto	i2u10010
  5791+ 000BF4                     i2u10011:
  5792+ 000BF4  EF06  F006         	goto	i2l1231
  5793+ 000BF8                     i2u10010:
  5794+                          	line	1312
  5795+                          ;main.c: 1312: new_note = 0x45;
  5796+ 000BF8  0101               	movlb	1	; () banked
  5797+ 000BFA  6F19               	movwf	(??_getNote+1+0)&0ffh
  5798+ 000BFC  0E45               	movlw	low(045h)
  5799+ 000BFE  0101               	movlb	1	; () banked
  5800+ 000C00  0101               	movlb	1	; () banked
  5801+ 000C02  6F18               	movwf	((getNote@new_note))&0ffh
  5802+ 000C04  0101               	movlb	1	; () banked
  5803+ 000C06  5119               	movf	(??_getNote+1+0)&0ffh,w
  5804+                          	line	1313
  5805+                          ;main.c: 1313: } else if (lResult >= 214 && lRes
      +                          ult <= 227) {
  5806+ 000C08  EF2C  F006         	goto	i2l1230
  5807+                          	
  5808+ 000C0C                     i2l1231:		; BSR set to: ?
  5809+                          
  5810+ 000C0C  0ED5               	movlw	(0D6h-1)
  5811+ 000C0E  0101               	movlb	1	; () banked
  5812+ 000C10  0101               	movlb	1	; () banked
  5813+ 000C12  6517               	cpfsgt	((getNote@lResult))&0ffh
  5814+ 000C14  EF0E  F006         	goto	i2u10021
  5815+ 000C18  EF10  F006         	goto	i2u10020
  5816+ 000C1C                     i2u10021:
  5817+ 000C1C  EF24  F006         	goto	i2l1233
  5818+ 000C20                     i2u10020:
  5819+ 000C20  0EE4               	movlw	(0E4h)&0ffh
  5820+ 000C22  0101               	movlb	1	; () banked
  5821+ 000C24  0101               	movlb	1	; () banked
  5822+ 000C26  6117               	cpfslt	((getNote@lResult))&0ffh
  5823+ 000C28  EF18  F006         	goto	i2u10031
  5824+ 000C2C  EF1A  F006         	goto	i2u10030
  5825+ 000C30                     i2u10031:
  5826+ 000C30  EF24  F006         	goto	i2l1233
  5827+ 000C34                     i2u10030:
  5828+                          	line	1315
  5829+                          ;main.c: 1315: new_note = 0x4d;
  5830+ 000C34  0101               	movlb	1	; () banked
  5831+ 000C36  6F19               	movwf	(??_getNote+1+0)&0ffh
  5832+ 000C38  0E4D               	movlw	low(04Dh)
  5833+ 000C3A  0101               	movlb	1	; () banked
  5834+ 000C3C  0101               	movlb	1	; () banked
  5835+ 000C3E  6F18               	movwf	((getNote@new_note))&0ffh
  5836+ 000C40  0101               	movlb	1	; () banked
  5837+ 000C42  5119               	movf	(??_getNote+1+0)&0ffh,w
  5838+                          	line	1316
  5839+                          ;main.c: 1316: } else {
  5840+ 000C44  EF2C  F006         	goto	i2l1230
  5841+                          	
  5842+ 000C48                     i2l1233:		; BSR set to: ?
  5843+                          
  5844+                          	line	1318
  5845+                          ;main.c: 1318: new_note = 0x00;
  5846+ 000C48  0101               	movlb	1	; () banked
  5847+ 000C4A  6F19               	movwf	(??_getNote+1+0)&0ffh
  5848+ 000C4C  0E00               	movlw	low(0)
  5849+ 000C4E  0101               	movlb	1	; () banked
  5850+ 000C50  0101               	movlb	1	; () banked
  5851+ 000C52  6F18               	movwf	((getNote@new_note))&0ffh
  5852+ 000C54  0101               	movlb	1	; () banked
  5853+ 000C56  5119               	movf	(??_getNote+1+0)&0ffh,w
  5854+                          	line	1319
  5855+                          	
  5856+ 000C58                     i2l1234:		; BSR set to: ?
  5857+                          
  5858+                          	
  5859+ 000C58                     i2l1232:		; BSR set to: ?
  5860+                          
  5861+                          	
  5862+ 000C58                     i2l1230:		; BSR set to: ?
  5863+                          
  5864+                          	line	1321
  5865+                          ;main.c: 1319: }
  5866+                          ;main.c: 1321: } else if (hResult == 0x02) {
  5867+ 000C58  EF00  F007         	goto	i2l1227
  5868+                          	
  5869+ 000C5C                     i2l1228:		; BSR set to: ?
  5870+                          
  5871+ 000C5C  0101               	movlb	1	; () banked
  5872+ 000C5E  0101               	movlb	1	; () banked
  5873+ 000C60  5116               	movf	((getNote@hResult))&0ffh,w
  5874+ 000C62  0A02               	xorlw	2
  5875+                          
  5876+ 000C64  A4D8               	btfss	status,2
  5877+ 000C66  EF37  F006         	goto	i2u10041
  5878+ 000C6A  EF39  F006         	goto	i2u10040
  5879+ 000C6E                     i2u10041:
  5880+ 000C6E  EF93  F006         	goto	i2l1236
  5881+ 000C72                     i2u10040:
  5882+                          	line	1322
  5883+                          ;main.c: 1322: if (lResult >= 217 && lResult <= 
      +                          255) {
  5884+ 000C72  0ED8               	movlw	(0D9h-1)
  5885+ 000C74  0101               	movlb	1	; () banked
  5886+ 000C76  0101               	movlb	1	; () banked
  5887+ 000C78  6517               	cpfsgt	((getNote@lResult))&0ffh
  5888+ 000C7A  EF41  F006         	goto	i2u10051
  5889+ 000C7E  EF43  F006         	goto	i2u10050
  5890+ 000C82                     i2u10051:
  5891+ 000C82  EF4D  F006         	goto	i2l1237
  5892+ 000C86                     i2u10050:
  5893+                          	line	1324
  5894+                          ;main.c: 1324: new_note = 0x35;
  5895+ 000C86  0101               	movlb	1	; () banked
  5896+ 000C88  6F19               	movwf	(??_getNote+1+0)&0ffh
  5897+ 000C8A  0E35               	movlw	low(035h)
  5898+ 000C8C  0101               	movlb	1	; () banked
  5899+ 000C8E  0101               	movlb	1	; () banked
  5900+ 000C90  6F18               	movwf	((getNote@new_note))&0ffh
  5901+ 000C92  0101               	movlb	1	; () banked
  5902+ 000C94  5119               	movf	(??_getNote+1+0)&0ffh,w
  5903+                          	line	1325
  5904+                          ;main.c: 1325: } else if (lResult >= 154 && lRes
      +                          ult <= 202) {
  5905+ 000C96  EF91  F006         	goto	i2l1238
  5906+                          	
  5907+ 000C9A                     i2l1237:		; BSR set to: ?
  5908+                          
  5909+ 000C9A  0E99               	movlw	(09Ah-1)
  5910+ 000C9C  0101               	movlb	1	; () banked
  5911+ 000C9E  0101               	movlb	1	; () banked
  5912+ 000CA0  6517               	cpfsgt	((getNote@lResult))&0ffh
  5913+ 000CA2  EF55  F006         	goto	i2u10061
  5914+ 000CA6  EF57  F006         	goto	i2u10060
  5915+ 000CAA                     i2u10061:
  5916+ 000CAA  EF6B  F006         	goto	i2l1239
  5917+ 000CAE                     i2u10060:
  5918+ 000CAE  0ECB               	movlw	(0CBh)&0ffh
  5919+ 000CB0  0101               	movlb	1	; () banked
  5920+ 000CB2  0101               	movlb	1	; () banked
  5921+ 000CB4  6117               	cpfslt	((getNote@lResult))&0ffh
  5922+ 000CB6  EF5F  F006         	goto	i2u10071
  5923+ 000CBA  EF61  F006         	goto	i2u10070
  5924+ 000CBE                     i2u10071:
  5925+ 000CBE  EF6B  F006         	goto	i2l1239
  5926+ 000CC2                     i2u10070:
  5927+                          	line	1327
  5928+                          ;main.c: 1327: new_note = 0x25;
  5929+ 000CC2  0101               	movlb	1	; () banked
  5930+ 000CC4  6F19               	movwf	(??_getNote+1+0)&0ffh
  5931+ 000CC6  0E25               	movlw	low(025h)
  5932+ 000CC8  0101               	movlb	1	; () banked
  5933+ 000CCA  0101               	movlb	1	; () banked
  5934+ 000CCC  6F18               	movwf	((getNote@new_note))&0ffh
  5935+ 000CCE  0101               	movlb	1	; () banked
  5936+ 000CD0  5119               	movf	(??_getNote+1+0)&0ffh,w
  5937+                          	line	1328
  5938+                          ;main.c: 1328: } else if (lResult >= 115 && lRes
      +                          ult <= 145) {
  5939+ 000CD2  EF91  F006         	goto	i2l1238
  5940+                          	
  5941+ 000CD6                     i2l1239:		; BSR set to: ?
  5942+                          
  5943+ 000CD6  0E72               	movlw	(073h-1)
  5944+ 000CD8  0101               	movlb	1	; () banked
  5945+ 000CDA  0101               	movlb	1	; () banked
  5946+ 000CDC  6517               	cpfsgt	((getNote@lResult))&0ffh
  5947+ 000CDE  EF73  F006         	goto	i2u10081
  5948+ 000CE2  EF75  F006         	goto	i2u10080
  5949+ 000CE6                     i2u10081:
  5950+ 000CE6  EF89  F006         	goto	i2l1241
  5951+ 000CEA                     i2u10080:
  5952+ 000CEA  0E92               	movlw	(092h)&0ffh
  5953+ 000CEC  0101               	movlb	1	; () banked
  5954+ 000CEE  0101               	movlb	1	; () banked
  5955+ 000CF0  6117               	cpfslt	((getNote@lResult))&0ffh
  5956+ 000CF2  EF7D  F006         	goto	i2u10091
  5957+ 000CF6  EF7F  F006         	goto	i2u10090
  5958+ 000CFA                     i2u10091:
  5959+ 000CFA  EF89  F006         	goto	i2l1241
  5960+ 000CFE                     i2u10090:
  5961+                          	line	1330
  5962+                          ;main.c: 1330: new_note = 0x2d;
  5963+ 000CFE  0101               	movlb	1	; () banked
  5964+ 000D00  6F19               	movwf	(??_getNote+1+0)&0ffh
  5965+ 000D02  0E2D               	movlw	low(02Dh)
  5966+ 000D04  0101               	movlb	1	; () banked
  5967+ 000D06  0101               	movlb	1	; () banked
  5968+ 000D08  6F18               	movwf	((getNote@new_note))&0ffh
  5969+ 000D0A  0101               	movlb	1	; () banked
  5970+ 000D0C  5119               	movf	(??_getNote+1+0)&0ffh,w
  5971+                          	line	1331
  5972+                          ;main.c: 1331: } else {
  5973+ 000D0E  EF91  F006         	goto	i2l1238
  5974+                          	
  5975+ 000D12                     i2l1241:		; BSR set to: ?
  5976+                          
  5977+                          	line	1333
  5978+                          ;main.c: 1333: new_note = 0x00;
  5979+ 000D12  0101               	movlb	1	; () banked
  5980+ 000D14  6F19               	movwf	(??_getNote+1+0)&0ffh
  5981+ 000D16  0E00               	movlw	low(0)
  5982+ 000D18  0101               	movlb	1	; () banked
  5983+ 000D1A  0101               	movlb	1	; () banked
  5984+ 000D1C  6F18               	movwf	((getNote@new_note))&0ffh
  5985+ 000D1E  0101               	movlb	1	; () banked
  5986+ 000D20  5119               	movf	(??_getNote+1+0)&0ffh,w
  5987+                          	line	1334
  5988+                          	
  5989+ 000D22                     i2l1242:		; BSR set to: ?
  5990+                          
  5991+                          	
  5992+ 000D22                     i2l1240:		; BSR set to: ?
  5993+                          
  5994+                          	
  5995+ 000D22                     i2l1238:		; BSR set to: ?
  5996+                          
  5997+                          	line	1336
  5998+                          ;main.c: 1334: }
  5999+                          ;main.c: 1336: } else if (hResult == 0x03) {
  6000+ 000D22  EF00  F007         	goto	i2l1227
  6001+                          	
  6002+ 000D26                     i2l1236:		; BSR set to: ?
  6003+                          
  6004+ 000D26  0101               	movlb	1	; () banked
  6005+ 000D28  0101               	movlb	1	; () banked
  6006+ 000D2A  5116               	movf	((getNote@hResult))&0ffh,w
  6007+ 000D2C  0A03               	xorlw	3
  6008+                          
  6009+ 000D2E  A4D8               	btfss	status,2
  6010+ 000D30  EF9C  F006         	goto	i2u10101
  6011+ 000D34  EF9E  F006         	goto	i2u10100
  6012+ 000D38                     i2u10101:
  6013+ 000D38  EF00  F007         	goto	i2l1227
  6014+ 000D3C                     i2u10100:
  6015+                          	line	1337
  6016+                          ;main.c: 1337: if (lResult >= 227 && lResult <= 
      +                          240) {
  6017+ 000D3C  0EE2               	movlw	(0E3h-1)
  6018+ 000D3E  0101               	movlb	1	; () banked
  6019+ 000D40  0101               	movlb	1	; () banked
  6020+ 000D42  6517               	cpfsgt	((getNote@lResult))&0ffh
  6021+ 000D44  EFA6  F006         	goto	i2u10111
  6022+ 000D48  EFA8  F006         	goto	i2u10110
  6023+ 000D4C                     i2u10111:
  6024+ 000D4C  EFBC  F006         	goto	i2l1245
  6025+ 000D50                     i2u10110:
  6026+ 000D50  0EF1               	movlw	(0F1h)&0ffh
  6027+ 000D52  0101               	movlb	1	; () banked
  6028+ 000D54  0101               	movlb	1	; () banked
  6029+ 000D56  6117               	cpfslt	((getNote@lResult))&0ffh
  6030+ 000D58  EFB0  F006         	goto	i2u10121
  6031+ 000D5C  EFB2  F006         	goto	i2u10120
  6032+ 000D60                     i2u10121:
  6033+ 000D60  EFBC  F006         	goto	i2l1245
  6034+ 000D64                     i2u10120:
  6035+                          	line	1339
  6036+                          ;main.c: 1339: new_note = 0x15;
  6037+ 000D64  0101               	movlb	1	; () banked
  6038+ 000D66  6F19               	movwf	(??_getNote+1+0)&0ffh
  6039+ 000D68  0E15               	movlw	low(015h)
  6040+ 000D6A  0101               	movlb	1	; () banked
  6041+ 000D6C  0101               	movlb	1	; () banked
  6042+ 000D6E  6F18               	movwf	((getNote@new_note))&0ffh
  6043+ 000D70  0101               	movlb	1	; () banked
  6044+ 000D72  5119               	movf	(??_getNote+1+0)&0ffh,w
  6045+                          	line	1340
  6046+                          ;main.c: 1340: } else if (lResult >= 180 && lRes
      +                          ult <= 210) {
  6047+ 000D74  EF00  F007         	goto	i2l1227
  6048+                          	
  6049+ 000D78                     i2l1245:		; BSR set to: ?
  6050+                          
  6051+ 000D78  0EB3               	movlw	(0B4h-1)
  6052+ 000D7A  0101               	movlb	1	; () banked
  6053+ 000D7C  0101               	movlb	1	; () banked
  6054+ 000D7E  6517               	cpfsgt	((getNote@lResult))&0ffh
  6055+ 000D80  EFC4  F006         	goto	i2u10131
  6056+ 000D84  EFC6  F006         	goto	i2u10130
  6057+ 000D88                     i2u10131:
  6058+ 000D88  EFDA  F006         	goto	i2l1247
  6059+ 000D8C                     i2u10130:
  6060+ 000D8C  0ED3               	movlw	(0D3h)&0ffh
  6061+ 000D8E  0101               	movlb	1	; () banked
  6062+ 000D90  0101               	movlb	1	; () banked
  6063+ 000D92  6117               	cpfslt	((getNote@lResult))&0ffh
  6064+ 000D94  EFCE  F006         	goto	i2u10141
  6065+ 000D98  EFD0  F006         	goto	i2u10140
  6066+ 000D9C                     i2u10141:
  6067+ 000D9C  EFDA  F006         	goto	i2l1247
  6068+ 000DA0                     i2u10140:
  6069+                          	line	1342
  6070+                          ;main.c: 1342: new_note = 0x05;
  6071+ 000DA0  0101               	movlb	1	; () banked
  6072+ 000DA2  6F19               	movwf	(??_getNote+1+0)&0ffh
  6073+ 000DA4  0E05               	movlw	low(05h)
  6074+ 000DA6  0101               	movlb	1	; () banked
  6075+ 000DA8  0101               	movlb	1	; () banked
  6076+ 000DAA  6F18               	movwf	((getNote@new_note))&0ffh
  6077+ 000DAC  0101               	movlb	1	; () banked
  6078+ 000DAE  5119               	movf	(??_getNote+1+0)&0ffh,w
  6079+                          	line	1343
  6080+                          ;main.c: 1343: } else if (lResult >= 90 && lResu
      +                          lt <= 165) {
  6081+ 000DB0  EF00  F007         	goto	i2l1227
  6082+                          	
  6083+ 000DB4                     i2l1247:		; BSR set to: ?
  6084+                          
  6085+ 000DB4  0E59               	movlw	(05Ah-1)
  6086+ 000DB6  0101               	movlb	1	; () banked
  6087+ 000DB8  0101               	movlb	1	; () banked
  6088+ 000DBA  6517               	cpfsgt	((getNote@lResult))&0ffh
  6089+ 000DBC  EFE2  F006         	goto	i2u10151
  6090+ 000DC0  EFE4  F006         	goto	i2u10150
  6091+ 000DC4                     i2u10151:
  6092+ 000DC4  EFF8  F006         	goto	i2l1249
  6093+ 000DC8                     i2u10150:
  6094+ 000DC8  0EA6               	movlw	(0A6h)&0ffh
  6095+ 000DCA  0101               	movlb	1	; () banked
  6096+ 000DCC  0101               	movlb	1	; () banked
  6097+ 000DCE  6117               	cpfslt	((getNote@lResult))&0ffh
  6098+ 000DD0  EFEC  F006         	goto	i2u10161
  6099+ 000DD4  EFEE  F006         	goto	i2u10160
  6100+ 000DD8                     i2u10161:
  6101+ 000DD8  EFF8  F006         	goto	i2l1249
  6102+ 000DDC                     i2u10160:
  6103+                          	line	1345
  6104+                          ;main.c: 1345: new_note = 0x0d;
  6105+ 000DDC  0101               	movlb	1	; () banked
  6106+ 000DDE  6F19               	movwf	(??_getNote+1+0)&0ffh
  6107+ 000DE0  0E0D               	movlw	low(0Dh)
  6108+ 000DE2  0101               	movlb	1	; () banked
  6109+ 000DE4  0101               	movlb	1	; () banked
  6110+ 000DE6  6F18               	movwf	((getNote@new_note))&0ffh
  6111+ 000DE8  0101               	movlb	1	; () banked
  6112+ 000DEA  5119               	movf	(??_getNote+1+0)&0ffh,w
  6113+                          	line	1346
  6114+                          ;main.c: 1346: } else {
  6115+ 000DEC  EF00  F007         	goto	i2l1227
  6116+                          	
  6117+ 000DF0                     i2l1249:		; BSR set to: ?
  6118+                          
  6119+                          	line	1348
  6120+                          ;main.c: 1348: new_note = 0x00;
  6121+ 000DF0  0101               	movlb	1	; () banked
  6122+ 000DF2  6F19               	movwf	(??_getNote+1+0)&0ffh
  6123+ 000DF4  0E00               	movlw	low(0)
  6124+ 000DF6  0101               	movlb	1	; () banked
  6125+ 000DF8  0101               	movlb	1	; () banked
  6126+ 000DFA  6F18               	movwf	((getNote@new_note))&0ffh
  6127+ 000DFC  0101               	movlb	1	; () banked
  6128+ 000DFE  5119               	movf	(??_getNote+1+0)&0ffh,w
  6129+                          	line	1349
  6130+                          	
  6131+ 000E00                     i2l1250:		; BSR set to: ?
  6132+                          
  6133+                          	
  6134+ 000E00                     i2l1248:		; BSR set to: ?
  6135+                          
  6136+                          	
  6137+ 000E00                     i2l1246:		; BSR set to: ?
  6138+                          
  6139+                          	line	1351
  6140+                          	
  6141+ 000E00                     i2l1244:		; BSR set to: ?
  6142+                          
  6143+                          	line	1353
  6144+                          	
  6145+ 000E00                     i2l1243:		; BSR set to: ?
  6146+                          
  6147+                          	
  6148+ 000E00                     i2l1235:		; BSR set to: ?
  6149+                          
  6150+                          	
  6151+ 000E00                     i2l1227:		; BSR set to: ?
  6152+                          
  6153+                          ;main.c: 1349: }
  6154+                          ;main.c: 1351: }
  6155+                          ;main.c: 1353: } else if (adc_num == 5) {
  6156+ 000E00  EFC6  F009         	goto	i2l1143
  6157+                          	
  6158+ 000E04                     i2l1225:		; BSR set to: ?
  6159+                          
  6160+ 000E04  501D               	movf	((c:29)),c,w	;volatile
  6161+ 000E06  0A05               	xorlw	5
  6162+                          
  6163+ 000E08  A4D8               	btfss	status,2
  6164+ 000E0A  EF09  F007         	goto	i2u10171
  6165+ 000E0E  EF0B  F007         	goto	i2u10170
  6166+ 000E12                     i2u10171:
  6167+ 000E12  EF60  F008         	goto	i2l1252
  6168+ 000E16                     i2u10170:
  6169+                          	line	1354
  6170+                          ;main.c: 1354: if (hResult == 0x00) {
  6171+ 000E16  0101               	movlb	1	; () banked
  6172+ 000E18  0101               	movlb	1	; () banked
  6173+ 000E1A  6716               	tstfsz	((getNote@hResult))&0ffh
  6174+ 000E1C  EF12  F007         	goto	i2u10181
  6175+ 000E20  EF14  F007         	goto	i2u10180
  6176+ 000E24                     i2u10181:
  6177+ 000E24  EF1E  F007         	goto	i2l1253
  6178+ 000E28                     i2u10180:
  6179+                          	line	1356
  6180+                          ;main.c: 1356: new_note = 0x00;
  6181+ 000E28  0101               	movlb	1	; () banked
  6182+ 000E2A  6F19               	movwf	(??_getNote+1+0)&0ffh
  6183+ 000E2C  0E00               	movlw	low(0)
  6184+ 000E2E  0101               	movlb	1	; () banked
  6185+ 000E30  0101               	movlb	1	; () banked
  6186+ 000E32  6F18               	movwf	((getNote@new_note))&0ffh
  6187+ 000E34  0101               	movlb	1	; () banked
  6188+ 000E36  5119               	movf	(??_getNote+1+0)&0ffh,w
  6189+                          	line	1358
  6190+                          ;main.c: 1358: } else if (hResult == 0x01) {
  6191+ 000E38  EF5E  F008         	goto	i2l1254
  6192+                          	
  6193+ 000E3C                     i2l1253:		; BSR set to: ?
  6194+                          
  6195+ 000E3C  0101               	movlb	1	; () banked
  6196+ 000E3E  0101               	movlb	1	; () banked
  6197+ 000E40  0516               	decf	((getNote@hResult))&0ffh,w
  6198+                          
  6199+ 000E42  A4D8               	btfss	status,2
  6200+ 000E44  EF26  F007         	goto	i2u10191
  6201+ 000E48  EF28  F007         	goto	i2u10190
  6202+ 000E4C                     i2u10191:
  6203+ 000E4C  EF8C  F007         	goto	i2l1255
  6204+ 000E50                     i2u10190:
  6205+                          	line	1359
  6206+                          ;main.c: 1359: if (lResult >= 148 && lResult <= 
      +                          174) {
  6207+ 000E50  0E93               	movlw	(094h-1)
  6208+ 000E52  0101               	movlb	1	; () banked
  6209+ 000E54  0101               	movlb	1	; () banked
  6210+ 000E56  6517               	cpfsgt	((getNote@lResult))&0ffh
  6211+ 000E58  EF30  F007         	goto	i2u10201
  6212+ 000E5C  EF32  F007         	goto	i2u10200
  6213+ 000E60                     i2u10201:
  6214+ 000E60  EF46  F007         	goto	i2l1256
  6215+ 000E64                     i2u10200:
  6216+ 000E64  0EAF               	movlw	(0AFh)&0ffh
  6217+ 000E66  0101               	movlb	1	; () banked
  6218+ 000E68  0101               	movlb	1	; () banked
  6219+ 000E6A  6117               	cpfslt	((getNote@lResult))&0ffh
  6220+ 000E6C  EF3A  F007         	goto	i2u10211
  6221+ 000E70  EF3C  F007         	goto	i2u10210
  6222+ 000E74                     i2u10211:
  6223+ 000E74  EF46  F007         	goto	i2l1256
  6224+ 000E78                     i2u10210:
  6225+                          	line	1361
  6226+                          ;main.c: 1361: new_note = 0x56;
  6227+ 000E78  0101               	movlb	1	; () banked
  6228+ 000E7A  6F19               	movwf	(??_getNote+1+0)&0ffh
  6229+ 000E7C  0E56               	movlw	low(056h)
  6230+ 000E7E  0101               	movlb	1	; () banked
  6231+ 000E80  0101               	movlb	1	; () banked
  6232+ 000E82  6F18               	movwf	((getNote@new_note))&0ffh
  6233+ 000E84  0101               	movlb	1	; () banked
  6234+ 000E86  5119               	movf	(??_getNote+1+0)&0ffh,w
  6235+                          	line	1362
  6236+                          ;main.c: 1362: } else if (lResult >= 89 && lResu
      +                          lt <= 120) {
  6237+ 000E88  EF8A  F007         	goto	i2l1257
  6238+                          	
  6239+ 000E8C                     i2l1256:		; BSR set to: ?
  6240+                          
  6241+ 000E8C  0E58               	movlw	(059h-1)
  6242+ 000E8E  0101               	movlb	1	; () banked
  6243+ 000E90  0101               	movlb	1	; () banked
  6244+ 000E92  6517               	cpfsgt	((getNote@lResult))&0ffh
  6245+ 000E94  EF4E  F007         	goto	i2u10221
  6246+ 000E98  EF50  F007         	goto	i2u10220
  6247+ 000E9C                     i2u10221:
  6248+ 000E9C  EF64  F007         	goto	i2l1258
  6249+ 000EA0                     i2u10220:
  6250+ 000EA0  0E79               	movlw	(079h)&0ffh
  6251+ 000EA2  0101               	movlb	1	; () banked
  6252+ 000EA4  0101               	movlb	1	; () banked
  6253+ 000EA6  6117               	cpfslt	((getNote@lResult))&0ffh
  6254+ 000EA8  EF58  F007         	goto	i2u10231
  6255+ 000EAC  EF5A  F007         	goto	i2u10230
  6256+ 000EB0                     i2u10231:
  6257+ 000EB0  EF64  F007         	goto	i2l1258
  6258+ 000EB4                     i2u10230:
  6259+                          	line	1364
  6260+                          ;main.c: 1364: new_note = 0x46;
  6261+ 000EB4  0101               	movlb	1	; () banked
  6262+ 000EB6  6F19               	movwf	(??_getNote+1+0)&0ffh
  6263+ 000EB8  0E46               	movlw	low(046h)
  6264+ 000EBA  0101               	movlb	1	; () banked
  6265+ 000EBC  0101               	movlb	1	; () banked
  6266+ 000EBE  6F18               	movwf	((getNote@new_note))&0ffh
  6267+ 000EC0  0101               	movlb	1	; () banked
  6268+ 000EC2  5119               	movf	(??_getNote+1+0)&0ffh,w
  6269+                          	line	1365
  6270+                          ;main.c: 1365: } else if (lResult >= 20 && lResu
      +                          lt <= 72) {
  6271+ 000EC4  EF8A  F007         	goto	i2l1257
  6272+                          	
  6273+ 000EC8                     i2l1258:		; BSR set to: ?
  6274+                          
  6275+ 000EC8  0E13               	movlw	(014h-1)
  6276+ 000ECA  0101               	movlb	1	; () banked
  6277+ 000ECC  0101               	movlb	1	; () banked
  6278+ 000ECE  6517               	cpfsgt	((getNote@lResult))&0ffh
  6279+ 000ED0  EF6C  F007         	goto	i2u10241
  6280+ 000ED4  EF6E  F007         	goto	i2u10240
  6281+ 000ED8                     i2u10241:
  6282+ 000ED8  EF82  F007         	goto	i2l1260
  6283+ 000EDC                     i2u10240:
  6284+ 000EDC  0E49               	movlw	(049h)&0ffh
  6285+ 000EDE  0101               	movlb	1	; () banked
  6286+ 000EE0  0101               	movlb	1	; () banked
  6287+ 000EE2  6117               	cpfslt	((getNote@lResult))&0ffh
  6288+ 000EE4  EF76  F007         	goto	i2u10251
  6289+ 000EE8  EF78  F007         	goto	i2u10250
  6290+ 000EEC                     i2u10251:
  6291+ 000EEC  EF82  F007         	goto	i2l1260
  6292+ 000EF0                     i2u10250:
  6293+                          	line	1367
  6294+                          ;main.c: 1367: new_note = 0x4e;
  6295+ 000EF0  0101               	movlb	1	; () banked
  6296+ 000EF2  6F19               	movwf	(??_getNote+1+0)&0ffh
  6297+ 000EF4  0E4E               	movlw	low(04Eh)
  6298+ 000EF6  0101               	movlb	1	; () banked
  6299+ 000EF8  0101               	movlb	1	; () banked
  6300+ 000EFA  6F18               	movwf	((getNote@new_note))&0ffh
  6301+ 000EFC  0101               	movlb	1	; () banked
  6302+ 000EFE  5119               	movf	(??_getNote+1+0)&0ffh,w
  6303+                          	line	1368
  6304+                          ;main.c: 1368: } else {
  6305+ 000F00  EF8A  F007         	goto	i2l1257
  6306+                          	
  6307+ 000F04                     i2l1260:		; BSR set to: ?
  6308+                          
  6309+                          	line	1370
  6310+                          ;main.c: 1370: new_note = 0x00;
  6311+ 000F04  0101               	movlb	1	; () banked
  6312+ 000F06  6F19               	movwf	(??_getNote+1+0)&0ffh
  6313+ 000F08  0E00               	movlw	low(0)
  6314+ 000F0A  0101               	movlb	1	; () banked
  6315+ 000F0C  0101               	movlb	1	; () banked
  6316+ 000F0E  6F18               	movwf	((getNote@new_note))&0ffh
  6317+ 000F10  0101               	movlb	1	; () banked
  6318+ 000F12  5119               	movf	(??_getNote+1+0)&0ffh,w
  6319+                          	line	1371
  6320+                          	
  6321+ 000F14                     i2l1261:		; BSR set to: ?
  6322+                          
  6323+                          	
  6324+ 000F14                     i2l1259:		; BSR set to: ?
  6325+                          
  6326+                          	
  6327+ 000F14                     i2l1257:		; BSR set to: ?
  6328+                          
  6329+                          	line	1373
  6330+                          ;main.c: 1371: }
  6331+                          ;main.c: 1373: } else if (hResult == 0x02) {
  6332+ 000F14  EF5E  F008         	goto	i2l1254
  6333+                          	
  6334+ 000F18                     i2l1255:		; BSR set to: ?
  6335+                          
  6336+ 000F18  0101               	movlb	1	; () banked
  6337+ 000F1A  0101               	movlb	1	; () banked
  6338+ 000F1C  5116               	movf	((getNote@hResult))&0ffh,w
  6339+ 000F1E  0A02               	xorlw	2
  6340+                          
  6341+ 000F20  A4D8               	btfss	status,2
  6342+ 000F22  EF95  F007         	goto	i2u10261
  6343+ 000F26  EF97  F007         	goto	i2u10260
  6344+ 000F2A                     i2u10261:
  6345+ 000F2A  EFF1  F007         	goto	i2l1263
  6346+ 000F2E                     i2u10260:
  6347+                          	line	1374
  6348+                          ;main.c: 1374: if (lResult >= 223 && lResult <= 
      +                          256) {
  6349+ 000F2E  0EDE               	movlw	(0DFh-1)
  6350+ 000F30  0101               	movlb	1	; () banked
  6351+ 000F32  0101               	movlb	1	; () banked
  6352+ 000F34  6517               	cpfsgt	((getNote@lResult))&0ffh
  6353+ 000F36  EF9F  F007         	goto	i2u10271
  6354+ 000F3A  EFA1  F007         	goto	i2u10270
  6355+ 000F3E                     i2u10271:
  6356+ 000F3E  EFAB  F007         	goto	i2l1264
  6357+ 000F42                     i2u10270:
  6358+                          	line	1376
  6359+                          ;main.c: 1376: new_note = 0x36;
  6360+ 000F42  0101               	movlb	1	; () banked
  6361+ 000F44  6F19               	movwf	(??_getNote+1+0)&0ffh
  6362+ 000F46  0E36               	movlw	low(036h)
  6363+ 000F48  0101               	movlb	1	; () banked
  6364+ 000F4A  0101               	movlb	1	; () banked
  6365+ 000F4C  6F18               	movwf	((getNote@new_note))&0ffh
  6366+ 000F4E  0101               	movlb	1	; () banked
  6367+ 000F50  5119               	movf	(??_getNote+1+0)&0ffh,w
  6368+                          	line	1377
  6369+                          ;main.c: 1377: } else if (lResult >= 165 && lRes
      +                          ult <= 207) {
  6370+ 000F52  EFEF  F007         	goto	i2l1265
  6371+                          	
  6372+ 000F56                     i2l1264:		; BSR set to: ?
  6373+                          
  6374+ 000F56  0EA4               	movlw	(0A5h-1)
  6375+ 000F58  0101               	movlb	1	; () banked
  6376+ 000F5A  0101               	movlb	1	; () banked
  6377+ 000F5C  6517               	cpfsgt	((getNote@lResult))&0ffh
  6378+ 000F5E  EFB3  F007         	goto	i2u10281
  6379+ 000F62  EFB5  F007         	goto	i2u10280
  6380+ 000F66                     i2u10281:
  6381+ 000F66  EFC9  F007         	goto	i2l1266
  6382+ 000F6A                     i2u10280:
  6383+ 000F6A  0ED0               	movlw	(0D0h)&0ffh
  6384+ 000F6C  0101               	movlb	1	; () banked
  6385+ 000F6E  0101               	movlb	1	; () banked
  6386+ 000F70  6117               	cpfslt	((getNote@lResult))&0ffh
  6387+ 000F72  EFBD  F007         	goto	i2u10291
  6388+ 000F76  EFBF  F007         	goto	i2u10290
  6389+ 000F7A                     i2u10291:
  6390+ 000F7A  EFC9  F007         	goto	i2l1266
  6391+ 000F7E                     i2u10290:
  6392+                          	line	1379
  6393+                          ;main.c: 1379: new_note = 0x26;
  6394+ 000F7E  0101               	movlb	1	; () banked
  6395+ 000F80  6F19               	movwf	(??_getNote+1+0)&0ffh
  6396+ 000F82  0E26               	movlw	low(026h)
  6397+ 000F84  0101               	movlb	1	; () banked
  6398+ 000F86  0101               	movlb	1	; () banked
  6399+ 000F88  6F18               	movwf	((getNote@new_note))&0ffh
  6400+ 000F8A  0101               	movlb	1	; () banked
  6401+ 000F8C  5119               	movf	(??_getNote+1+0)&0ffh,w
  6402+                          	line	1380
  6403+                          ;main.c: 1380: } else if (lResult >= 132 && lRes
      +                          ult <= 160) {
  6404+ 000F8E  EFEF  F007         	goto	i2l1265
  6405+                          	
  6406+ 000F92                     i2l1266:		; BSR set to: ?
  6407+                          
  6408+ 000F92  0E83               	movlw	(084h-1)
  6409+ 000F94  0101               	movlb	1	; () banked
  6410+ 000F96  0101               	movlb	1	; () banked
  6411+ 000F98  6517               	cpfsgt	((getNote@lResult))&0ffh
  6412+ 000F9A  EFD1  F007         	goto	i2u10301
  6413+ 000F9E  EFD3  F007         	goto	i2u10300
  6414+ 000FA2                     i2u10301:
  6415+ 000FA2  EFE7  F007         	goto	i2l1268
  6416+ 000FA6                     i2u10300:
  6417+ 000FA6  0EA1               	movlw	(0A1h)&0ffh
  6418+ 000FA8  0101               	movlb	1	; () banked
  6419+ 000FAA  0101               	movlb	1	; () banked
  6420+ 000FAC  6117               	cpfslt	((getNote@lResult))&0ffh
  6421+ 000FAE  EFDB  F007         	goto	i2u10311
  6422+ 000FB2  EFDD  F007         	goto	i2u10310
  6423+ 000FB6                     i2u10311:
  6424+ 000FB6  EFE7  F007         	goto	i2l1268
  6425+ 000FBA                     i2u10310:
  6426+                          	line	1382
  6427+                          ;main.c: 1382: new_note = 0x2e;
  6428+ 000FBA  0101               	movlb	1	; () banked
  6429+ 000FBC  6F19               	movwf	(??_getNote+1+0)&0ffh
  6430+ 000FBE  0E2E               	movlw	low(02Eh)
  6431+ 000FC0  0101               	movlb	1	; () banked
  6432+ 000FC2  0101               	movlb	1	; () banked
  6433+ 000FC4  6F18               	movwf	((getNote@new_note))&0ffh
  6434+ 000FC6  0101               	movlb	1	; () banked
  6435+ 000FC8  5119               	movf	(??_getNote+1+0)&0ffh,w
  6436+                          	line	1383
  6437+                          ;main.c: 1383: } else {
  6438+ 000FCA  EFEF  F007         	goto	i2l1265
  6439+                          	
  6440+ 000FCE                     i2l1268:		; BSR set to: ?
  6441+                          
  6442+                          	line	1385
  6443+                          ;main.c: 1385: new_note = 0x00;
  6444+ 000FCE  0101               	movlb	1	; () banked
  6445+ 000FD0  6F19               	movwf	(??_getNote+1+0)&0ffh
  6446+ 000FD2  0E00               	movlw	low(0)
  6447+ 000FD4  0101               	movlb	1	; () banked
  6448+ 000FD6  0101               	movlb	1	; () banked
  6449+ 000FD8  6F18               	movwf	((getNote@new_note))&0ffh
  6450+ 000FDA  0101               	movlb	1	; () banked
  6451+ 000FDC  5119               	movf	(??_getNote+1+0)&0ffh,w
  6452+                          	line	1386
  6453+                          	
  6454+ 000FDE                     i2l1269:		; BSR set to: ?
  6455+                          
  6456+                          	
  6457+ 000FDE                     i2l1267:		; BSR set to: ?
  6458+                          
  6459+                          	
  6460+ 000FDE                     i2l1265:		; BSR set to: ?
  6461+                          
  6462+                          	line	1388
  6463+                          ;main.c: 1386: }
  6464+                          ;main.c: 1388: } else if (hResult == 0x03) {
  6465+ 000FDE  EF5E  F008         	goto	i2l1254
  6466+                          	
  6467+ 000FE2                     i2l1263:		; BSR set to: ?
  6468+                          
  6469+ 000FE2  0101               	movlb	1	; () banked
  6470+ 000FE4  0101               	movlb	1	; () banked
  6471+ 000FE6  5116               	movf	((getNote@hResult))&0ffh,w
  6472  000FE8  0A03               	xorlw	3
  6473                           
  6474  000FEA  A4D8               	btfss	status,2
  6475  000FEC  EFFA  F007         	goto	i2u10321
  6476  000FF0  EFFC  F007         	goto	i2u10320
  6477  000FF4                     i2u10321:
  6478  000FF4  EF5E  F008         	goto	i2l1254
  6479  000FF8                     i2u10320:
  6480                           	line	1389
  6481                           ;main.c: 1389: if (lResult >= 148 && lResult <= 
                                 174) {
  6482  000FF8  0E93               	movlw	(094h-1)
  6483  000FFA  0101               	movlb	1	; () banked
  6484  000FFC  0101               	movlb	1	; () banked
  6485  000FFE  6517               	cpfsgt	((getNote@lResult))&0ffh
  6486  001000  EF04  F008         	goto	i2u10331
  6487  001004  EF06  F008         	goto	i2u10330
  6488  001008                     i2u10331:
  6489  001008  EF1A  F008         	goto	i2l1272
  6490  00100C                     i2u10330:
  6491  00100C  0EAF               	movlw	(0AFh)&0ffh
  6492  00100E  0101               	movlb	1	; () banked
  6493  001010  0101               	movlb	1	; () banked
  6494  001012  6117               	cpfslt	((getNote@lResult))&0ffh
  6495  001014  EF0E  F008         	goto	i2u10341
  6496  001018  EF10  F008         	goto	i2u10340
  6497  00101C                     i2u10341:
  6498  00101C  EF1A  F008         	goto	i2l1272
  6499  001020                     i2u10340:
  6500                           	line	1391
  6501                           ;main.c: 1391: new_note = 0x16;
  6502  001020  0101               	movlb	1	; () banked
  6503  001022  6F19               	movwf	(??_getNote+1+0)&0ffh
  6504  001024  0E16               	movlw	low(016h)
  6505  001026  0101               	movlb	1	; () banked
  6506  001028  0101               	movlb	1	; () banked
  6507  00102A  6F18               	movwf	((getNote@new_note))&0ffh
  6508  00102C  0101               	movlb	1	; () banked
  6509  00102E  5119               	movf	(??_getNote+1+0)&0ffh,w
  6510                           	line	1392
  6511                           ;main.c: 1392: } else if (lResult >= 89 && lResu
                                 lt <= 120) {
  6512  001030  EF5E  F008         	goto	i2l1254
  6513                           	
  6514  001034                     i2l1272:		; BSR set to: ?
  6515                           
  6516  001034  0E58               	movlw	(059h-1)
  6517  001036  0101               	movlb	1	; () banked
  6518  001038  0101               	movlb	1	; () banked
  6519  00103A  6517               	cpfsgt	((getNote@lResult))&0ffh
  6520  00103C  EF22  F008         	goto	i2u10351
  6521  001040  EF24  F008         	goto	i2u10350
  6522  001044                     i2u10351:
  6523  001044  EF38  F008         	goto	i2l1274
  6524  001048                     i2u10350:
  6525  001048  0E79               	movlw	(079h)&0ffh
  6526  00104A  0101               	movlb	1	; () banked
  6527  00104C  0101               	movlb	1	; () banked
  6528  00104E  6117               	cpfslt	((getNote@lResult))&0ffh
  6529  001050  EF2C  F008         	goto	i2u10361
  6530  001054  EF2E  F008         	goto	i2u10360
  6531  001058                     i2u10361:
  6532  001058  EF38  F008         	goto	i2l1274
  6533  00105C                     i2u10360:
  6534                           	line	1394
  6535                           ;main.c: 1394: new_note = 0x06;
  6536  00105C  0101               	movlb	1	; () banked
  6537  00105E  6F19               	movwf	(??_getNote+1+0)&0ffh
  6538  001060  0E06               	movlw	low(06h)
  6539  001062  0101               	movlb	1	; () banked
  6540  001064  0101               	movlb	1	; () banked
  6541  001066  6F18               	movwf	((getNote@new_note))&0ffh
  6542  001068  0101               	movlb	1	; () banked
  6543  00106A  5119               	movf	(??_getNote+1+0)&0ffh,w
  6544                           	line	1395
  6545                           ;main.c: 1395: } else if (lResult >= 20 && lResu
                                 lt <= 72) {
  6546  00106C  EF5E  F008         	goto	i2l1254
  6547                           	
  6548  001070                     i2l1274:		; BSR set to: ?
  6549                           
  6550  001070  0E13               	movlw	(014h-1)
  6551  001072  0101               	movlb	1	; () banked
  6552  001074  0101               	movlb	1	; () banked
  6553  001076  6517               	cpfsgt	((getNote@lResult))&0ffh
  6554  001078  EF40  F008         	goto	i2u10371
  6555  00107C  EF42  F008         	goto	i2u10370
  6556  001080                     i2u10371:
  6557  001080  EF56  F008         	goto	i2l1276
  6558  001084                     i2u10370:
  6559  001084  0E49               	movlw	(049h)&0ffh
  6560  001086  0101               	movlb	1	; () banked
  6561  001088  0101               	movlb	1	; () banked
  6562  00108A  6117               	cpfslt	((getNote@lResult))&0ffh
  6563  00108C  EF4A  F008         	goto	i2u10381
  6564  001090  EF4C  F008         	goto	i2u10380
  6565  001094                     i2u10381:
  6566  001094  EF56  F008         	goto	i2l1276
  6567  001098                     i2u10380:
  6568                           	line	1397
  6569                           ;main.c: 1397: new_note = 0x0e;
  6570  001098  0101               	movlb	1	; () banked
  6571  00109A  6F19               	movwf	(??_getNote+1+0)&0ffh
  6572  00109C  0E0E               	movlw	low(0Eh)
  6573  00109E  0101               	movlb	1	; () banked
  6574  0010A0  0101               	movlb	1	; () banked
  6575  0010A2  6F18               	movwf	((getNote@new_note))&0ffh
  6576  0010A4  0101               	movlb	1	; () banked
  6577  0010A6  5119               	movf	(??_getNote+1+0)&0ffh,w
  6578                           	line	1398
  6579                           ;main.c: 1398: } else {
  6580  0010A8  EF5E  F008         	goto	i2l1254
  6581                           	
  6582  0010AC                     i2l1276:		; BSR set to: ?
  6583                           
  6584                           	line	1400
  6585                           ;main.c: 1400: new_note = 0x00;
  6586  0010AC  0101               	movlb	1	; () banked
  6587  0010AE  6F19               	movwf	(??_getNote+1+0)&0ffh
  6588  0010B0  0E00               	movlw	low(0)
  6589  0010B2  0101               	movlb	1	; () banked
  6590  0010B4  0101               	movlb	1	; () banked
  6591  0010B6  6F18               	movwf	((getNote@new_note))&0ffh
  6592  0010B8  0101               	movlb	1	; () banked
  6593  0010BA  5119               	movf	(??_getNote+1+0)&0ffh,w
  6594                           	line	1401
  6595                           	
  6596  0010BC                     i2l1277:		; BSR set to: ?
  6597                           
  6598                           	
  6599  0010BC                     i2l1275:		; BSR set to: ?
  6600                           
  6601                           	
  6602  0010BC                     i2l1273:		; BSR set to: ?
  6603                           
  6604                           	line	1402
  6605                           	
  6606  0010BC                     i2l1271:		; BSR set to: ?
  6607                           
  6608                           	line	1404
  6609                           	
  6610  0010BC                     i2l1270:		; BSR set to: ?
  6611                           
  6612                           	
  6613  0010BC                     i2l1262:		; BSR set to: ?
  6614                           
  6615                           	
  6616  0010BC                     i2l1254:		; BSR set to: ?
  6617                           
  6618                           ;main.c: 1401: }
  6619                           ;main.c: 1402: }
  6620                           ;main.c: 1404: } else if (adc_num == 6) {
  6621  0010BC  EFC6  F009         	goto	i2l1143
  6622                           	
  6623  0010C0                     i2l1252:		; BSR set to: ?
  6624                           
  6625  0010C0  501D               	movf	((c:29)),c,w	;volatile
  6626  0010C2  0A06               	xorlw	6
  6627                           
  6628  0010C4  A4D8               	btfss	status,2
  6629  0010C6  EF67  F008         	goto	i2u10391
  6630  0010CA  EF69  F008         	goto	i2u10390
  6631  0010CE                     i2u10391:
  6632  0010CE  EFC6  F009         	goto	i2l1143
  6633  0010D2                     i2u10390:
  6634                           	line	1405
  6635                           ;main.c: 1405: if (hResult == 0x00) {
  6636  0010D2  0101               	movlb	1	; () banked
  6637  0010D4  0101               	movlb	1	; () banked
  6638  0010D6  6716               	tstfsz	((getNote@hResult))&0ffh
  6639  0010D8  EF70  F008         	goto	i2u10401
  6640  0010DC  EF72  F008         	goto	i2u10400
  6641  0010E0                     i2u10401:
  6642  0010E0  EF7C  F008         	goto	i2l1280
  6643  0010E4                     i2u10400:
  6644                           	line	1407
  6645                           ;main.c: 1407: new_note = 0x00;
  6646  0010E4  0101               	movlb	1	; () banked
  6647  0010E6  6F19               	movwf	(??_getNote+1+0)&0ffh
  6648  0010E8  0E00               	movlw	low(0)
  6649  0010EA  0101               	movlb	1	; () banked
  6650  0010EC  0101               	movlb	1	; () banked
  6651  0010EE  6F18               	movwf	((getNote@new_note))&0ffh
  6652  0010F0  0101               	movlb	1	; () banked
  6653  0010F2  5119               	movf	(??_getNote+1+0)&0ffh,w
  6654                           	line	1409
  6655                           ;main.c: 1409: } else if (hResult == 0x01) {
  6656  0010F4  EFC6  F009         	goto	i2l1143
  6657                           	
  6658  0010F8                     i2l1280:		; BSR set to: ?
  6659                           
  6660  0010F8  0101               	movlb	1	; () banked
  6661  0010FA  0101               	movlb	1	; () banked
  6662  0010FC  0516               	decf	((getNote@hResult))&0ffh,w
  6663                           
  6664  0010FE  A4D8               	btfss	status,2
  6665  001100  EF84  F008         	goto	i2u10411
  6666  001104  EF86  F008         	goto	i2u10410
  6667  001108                     i2u10411:
  6668  001108  EFEA  F008         	goto	i2l1282
  6669  00110C                     i2u10410:
  6670                           	line	1410
  6671                           ;main.c: 1410: if (lResult >= 87 && lResult <= 1
                                 60) {
  6672  00110C  0E56               	movlw	(057h-1)
  6673  00110E  0101               	movlb	1	; () banked
  6674  001110  0101               	movlb	1	; () banked
  6675  001112  6517               	cpfsgt	((getNote@lResult))&0ffh
  6676  001114  EF8E  F008         	goto	i2u10421
  6677  001118  EF90  F008         	goto	i2u10420
  6678  00111C                     i2u10421:
  6679  00111C  EFA4  F008         	goto	i2l1283
  6680  001120                     i2u10420:
  6681  001120  0EA1               	movlw	(0A1h)&0ffh
  6682  001122  0101               	movlb	1	; () banked
  6683  001124  0101               	movlb	1	; () banked
  6684  001126  6117               	cpfslt	((getNote@lResult))&0ffh
  6685  001128  EF98  F008         	goto	i2u10431
  6686  00112C  EF9A  F008         	goto	i2u10430
  6687  001130                     i2u10431:
  6688  001130  EFA4  F008         	goto	i2l1283
  6689  001134                     i2u10430:
  6690                           	line	1412
  6691                           ;main.c: 1412: new_note = 0x57;
  6692  001134  0101               	movlb	1	; () banked
  6693  001136  6F19               	movwf	(??_getNote+1+0)&0ffh
  6694  001138  0E57               	movlw	low(057h)
  6695  00113A  0101               	movlb	1	; () banked
  6696  00113C  0101               	movlb	1	; () banked
  6697  00113E  6F18               	movwf	((getNote@new_note))&0ffh
  6698  001140  0101               	movlb	1	; () banked
  6699  001142  5119               	movf	(??_getNote+1+0)&0ffh,w
  6700                           	line	1413
  6701                           ;main.c: 1413: } else if (lResult >= 175 && lRes
                                 ult <= 215) {
  6702  001144  EFE8  F008         	goto	i2l1284
  6703                           	
  6704  001148                     i2l1283:		; BSR set to: ?
  6705                           
  6706  001148  0EAE               	movlw	(0AFh-1)
  6707  00114A  0101               	movlb	1	; () banked
  6708  00114C  0101               	movlb	1	; () banked
  6709  00114E  6517               	cpfsgt	((getNote@lResult))&0ffh
  6710  001150  EFAC  F008         	goto	i2u10441
  6711  001154  EFAE  F008         	goto	i2u10440
  6712  001158                     i2u10441:
  6713  001158  EFC2  F008         	goto	i2l1285
  6714  00115C                     i2u10440:
  6715  00115C  0ED8               	movlw	(0D8h)&0ffh
  6716  00115E  0101               	movlb	1	; () banked
  6717  001160  0101               	movlb	1	; () banked
  6718  001162  6117               	cpfslt	((getNote@lResult))&0ffh
  6719  001164  EFB6  F008         	goto	i2u10451
  6720  001168  EFB8  F008         	goto	i2u10450
  6721  00116C                     i2u10451:
  6722  00116C  EFC2  F008         	goto	i2l1285
  6723  001170                     i2u10450:
  6724                           	line	1415
  6725                           ;main.c: 1415: new_note = 0x47;
  6726  001170  0101               	movlb	1	; () banked
  6727  001172  6F19               	movwf	(??_getNote+1+0)&0ffh
  6728  001174  0E47               	movlw	low(047h)
  6729  001176  0101               	movlb	1	; () banked
  6730  001178  0101               	movlb	1	; () banked
  6731  00117A  6F18               	movwf	((getNote@new_note))&0ffh
  6732  00117C  0101               	movlb	1	; () banked
  6733  00117E  5119               	movf	(??_getNote+1+0)&0ffh,w
  6734                           	line	1416
  6735                           ;main.c: 1416: } else if (lResult >= 224 && lRes
                                 ult <= 228) {
  6736  001180  EFE8  F008         	goto	i2l1284
  6737                           	
  6738  001184                     i2l1285:		; BSR set to: ?
  6739                           
  6740  001184  0EDF               	movlw	(0E0h-1)
  6741  001186  0101               	movlb	1	; () banked
  6742  001188  0101               	movlb	1	; () banked
  6743  00118A  6517               	cpfsgt	((getNote@lResult))&0ffh
  6744  00118C  EFCA  F008         	goto	i2u10461
  6745  001190  EFCC  F008         	goto	i2u10460
  6746  001194                     i2u10461:
  6747  001194  EFE0  F008         	goto	i2l1287
  6748  001198                     i2u10460:
  6749  001198  0EE5               	movlw	(0E5h)&0ffh
  6750  00119A  0101               	movlb	1	; () banked
  6751  00119C  0101               	movlb	1	; () banked
  6752  00119E  6117               	cpfslt	((getNote@lResult))&0ffh
  6753  0011A0  EFD4  F008         	goto	i2u10471
  6754  0011A4  EFD6  F008         	goto	i2u10470
  6755  0011A8                     i2u10471:
  6756  0011A8  EFE0  F008         	goto	i2l1287
  6757  0011AC                     i2u10470:
  6758                           	line	1418
  6759                           ;main.c: 1418: new_note = 0x4f;
  6760  0011AC  0101               	movlb	1	; () banked
  6761  0011AE  6F19               	movwf	(??_getNote+1+0)&0ffh
  6762  0011B0  0E4F               	movlw	low(04Fh)
  6763  0011B2  0101               	movlb	1	; () banked
  6764  0011B4  0101               	movlb	1	; () banked
  6765  0011B6  6F18               	movwf	((getNote@new_note))&0ffh
  6766  0011B8  0101               	movlb	1	; () banked
  6767  0011BA  5119               	movf	(??_getNote+1+0)&0ffh,w
  6768                           	line	1419
  6769                           ;main.c: 1419: } else {
  6770  0011BC  EFE8  F008         	goto	i2l1284
  6771                           	
  6772  0011C0                     i2l1287:		; BSR set to: ?
  6773                           
  6774                           	line	1421
  6775                           ;main.c: 1421: new_note = 0x00;
  6776  0011C0  0101               	movlb	1	; () banked
  6777  0011C2  6F19               	movwf	(??_getNote+1+0)&0ffh
  6778  0011C4  0E00               	movlw	low(0)
  6779  0011C6  0101               	movlb	1	; () banked
  6780  0011C8  0101               	movlb	1	; () banked
  6781  0011CA  6F18               	movwf	((getNote@new_note))&0ffh
  6782  0011CC  0101               	movlb	1	; () banked
  6783  0011CE  5119               	movf	(??_getNote+1+0)&0ffh,w
  6784                           	line	1422
  6785                           	
  6786  0011D0                     i2l1288:		; BSR set to: ?
  6787                           
  6788                           	
  6789  0011D0                     i2l1286:		; BSR set to: ?
  6790                           
  6791                           	
  6792  0011D0                     i2l1284:		; BSR set to: ?
  6793                           
  6794                           	line	1424
  6795                           ;main.c: 1422: }
  6796                           ;main.c: 1424: } else if (hResult == 0x02) {
  6797  0011D0  EFC6  F009         	goto	i2l1143
  6798                           	
  6799  0011D4                     i2l1282:		; BSR set to: ?
  6800                           
  6801  0011D4  0101               	movlb	1	; () banked
  6802  0011D6  0101               	movlb	1	; () banked
  6803  0011D8  5116               	movf	((getNote@hResult))&0ffh,w
  6804  0011DA  0A02               	xorlw	2
  6805                           
  6806  0011DC  A4D8               	btfss	status,2
  6807  0011DE  EFF3  F008         	goto	i2u10481
  6808  0011E2  EFF5  F008         	goto	i2u10480
  6809  0011E6                     i2u10481:
  6810  0011E6  EF59  F009         	goto	i2l1290
  6811  0011EA                     i2u10480:
  6812                           	line	1425
  6813                           ;main.c: 1425: if (lResult >= 200 && lResult <= 
                                 229) {
  6814  0011EA  0EC7               	movlw	(0C8h-1)
  6815  0011EC  0101               	movlb	1	; () banked
  6816  0011EE  0101               	movlb	1	; () banked
  6817  0011F0  6517               	cpfsgt	((getNote@lResult))&0ffh
  6818  0011F2  EFFD  F008         	goto	i2u10491
  6819  0011F6  EFFF  F008         	goto	i2u10490
  6820  0011FA                     i2u10491:
  6821  0011FA  EF13  F009         	goto	i2l1291
  6822  0011FE                     i2u10490:
  6823  0011FE  0EE6               	movlw	(0E6h)&0ffh
  6824  001200  0101               	movlb	1	; () banked
  6825  001202  0101               	movlb	1	; () banked
  6826  001204  6117               	cpfslt	((getNote@lResult))&0ffh
  6827  001206  EF07  F009         	goto	i2u10501
  6828  00120A  EF09  F009         	goto	i2u10500
  6829  00120E                     i2u10501:
  6830  00120E  EF13  F009         	goto	i2l1291
  6831  001212                     i2u10500:
  6832                           	line	1427
  6833                           ;main.c: 1427: new_note = 0x37;
  6834  001212  0101               	movlb	1	; () banked
  6835  001214  6F19               	movwf	(??_getNote+1+0)&0ffh
  6836  001216  0E37               	movlw	low(037h)
  6837  001218  0101               	movlb	1	; () banked
  6838  00121A  0101               	movlb	1	; () banked
  6839  00121C  6F18               	movwf	((getNote@new_note))&0ffh
  6840  00121E  0101               	movlb	1	; () banked
  6841  001220  5119               	movf	(??_getNote+1+0)&0ffh,w
  6842                           	line	1428
  6843                           ;main.c: 1428: } else if (lResult >= 139 && lRes
                                 ult <= 192) {
  6844  001222  EF57  F009         	goto	i2l1292
  6845                           	
  6846  001226                     i2l1291:		; BSR set to: ?
  6847                           
  6848  001226  0E8A               	movlw	(08Bh-1)
  6849  001228  0101               	movlb	1	; () banked
  6850  00122A  0101               	movlb	1	; () banked
  6851  00122C  6517               	cpfsgt	((getNote@lResult))&0ffh
  6852  00122E  EF1B  F009         	goto	i2u10511
  6853  001232  EF1D  F009         	goto	i2u10510
  6854  001236                     i2u10511:
  6855  001236  EF31  F009         	goto	i2l1293
  6856  00123A                     i2u10510:
  6857  00123A  0EC1               	movlw	(0C1h)&0ffh
  6858  00123C  0101               	movlb	1	; () banked
  6859  00123E  0101               	movlb	1	; () banked
  6860  001240  6117               	cpfslt	((getNote@lResult))&0ffh
  6861  001242  EF25  F009         	goto	i2u10521
  6862  001246  EF27  F009         	goto	i2u10520
  6863  00124A                     i2u10521:
  6864  00124A  EF31  F009         	goto	i2l1293
  6865  00124E                     i2u10520:
  6866                           	line	1430
  6867                           ;main.c: 1430: new_note = 0x27;
  6868  00124E  0101               	movlb	1	; () banked
  6869  001250  6F19               	movwf	(??_getNote+1+0)&0ffh
  6870  001252  0E27               	movlw	low(027h)
  6871  001254  0101               	movlb	1	; () banked
  6872  001256  0101               	movlb	1	; () banked
  6873  001258  6F18               	movwf	((getNote@new_note))&0ffh
  6874  00125A  0101               	movlb	1	; () banked
  6875  00125C  5119               	movf	(??_getNote+1+0)&0ffh,w
  6876                           	line	1431
  6877                           ;main.c: 1431: } else if (lResult >= 107 && lRes
                                 ult <= 140) {
  6878  00125E  EF57  F009         	goto	i2l1292
  6879                           	
  6880  001262                     i2l1293:		; BSR set to: ?
  6881                           
  6882  001262  0E6A               	movlw	(06Bh-1)
  6883  001264  0101               	movlb	1	; () banked
  6884  001266  0101               	movlb	1	; () banked
  6885  001268  6517               	cpfsgt	((getNote@lResult))&0ffh
  6886  00126A  EF39  F009         	goto	i2u10531
  6887  00126E  EF3B  F009         	goto	i2u10530
  6888  001272                     i2u10531:
  6889  001272  EF4F  F009         	goto	i2l1295
  6890  001276                     i2u10530:
  6891  001276  0E8D               	movlw	(08Dh)&0ffh
  6892  001278  0101               	movlb	1	; () banked
  6893  00127A  0101               	movlb	1	; () banked
  6894  00127C  6117               	cpfslt	((getNote@lResult))&0ffh
  6895  00127E  EF43  F009         	goto	i2u10541
  6896  001282  EF45  F009         	goto	i2u10540
  6897  001286                     i2u10541:
  6898  001286  EF4F  F009         	goto	i2l1295
  6899  00128A                     i2u10540:
  6900                           	line	1433
  6901                           ;main.c: 1433: new_note = 0x2f;
  6902  00128A  0101               	movlb	1	; () banked
  6903  00128C  6F19               	movwf	(??_getNote+1+0)&0ffh
  6904  00128E  0E2F               	movlw	low(02Fh)
  6905  001290  0101               	movlb	1	; () banked
  6906  001292  0101               	movlb	1	; () banked
  6907  001294  6F18               	movwf	((getNote@new_note))&0ffh
  6908  001296  0101               	movlb	1	; () banked
  6909  001298  5119               	movf	(??_getNote+1+0)&0ffh,w
  6910                           	line	1434
  6911                           ;main.c: 1434: } else {
  6912  00129A  EF57  F009         	goto	i2l1292
  6913                           	
  6914  00129E                     i2l1295:		; BSR set to: ?
  6915                           
  6916                           	line	1436
  6917                           ;main.c: 1436: new_note = 0x00;
  6918  00129E  0101               	movlb	1	; () banked
  6919  0012A0  6F19               	movwf	(??_getNote+1+0)&0ffh
  6920  0012A2  0E00               	movlw	low(0)
  6921  0012A4  0101               	movlb	1	; () banked
  6922  0012A6  0101               	movlb	1	; () banked
  6923  0012A8  6F18               	movwf	((getNote@new_note))&0ffh
  6924  0012AA  0101               	movlb	1	; () banked
  6925  0012AC  5119               	movf	(??_getNote+1+0)&0ffh,w
  6926                           	line	1437
  6927                           	
  6928  0012AE                     i2l1296:		; BSR set to: ?
  6929                           
  6930                           	
  6931  0012AE                     i2l1294:		; BSR set to: ?
  6932                           
  6933                           	
  6934  0012AE                     i2l1292:		; BSR set to: ?
  6935                           
  6936                           	line	1439
  6937                           ;main.c: 1437: }
  6938                           ;main.c: 1439: } else if (hResult == 0x03) {
  6939  0012AE  EFC6  F009         	goto	i2l1143
  6940                           	
  6941  0012B2                     i2l1290:		; BSR set to: ?
  6942                           
  6943  0012B2  0101               	movlb	1	; () banked
  6944  0012B4  0101               	movlb	1	; () banked
  6945  0012B6  5116               	movf	((getNote@hResult))&0ffh,w
  6946  0012B8  0A03               	xorlw	3
  6947                           
  6948  0012BA  A4D8               	btfss	status,2
  6949  0012BC  EF62  F009         	goto	i2u10551
  6950  0012C0  EF64  F009         	goto	i2u10550
  6951  0012C4                     i2u10551:
  6952  0012C4  EFC6  F009         	goto	i2l1143
  6953  0012C8                     i2u10550:
  6954                           	line	1440
  6955                           ;main.c: 1440: if (lResult >= 165 && lResult <= 
                                 190) {
  6956  0012C8  0EA4               	movlw	(0A5h-1)
  6957  0012CA  0101               	movlb	1	; () banked
  6958  0012CC  0101               	movlb	1	; () banked
  6959  0012CE  6517               	cpfsgt	((getNote@lResult))&0ffh
  6960  0012D0  EF6C  F009         	goto	i2u10561
  6961  0012D4  EF6E  F009         	goto	i2u10560
  6962  0012D8                     i2u10561:
  6963  0012D8  EF82  F009         	goto	i2l1299
  6964  0012DC                     i2u10560:
  6965  0012DC  0EBF               	movlw	(0BFh)&0ffh
  6966  0012DE  0101               	movlb	1	; () banked
  6967  0012E0  0101               	movlb	1	; () banked
  6968  0012E2  6117               	cpfslt	((getNote@lResult))&0ffh
  6969  0012E4  EF76  F009         	goto	i2u10571
  6970  0012E8  EF78  F009         	goto	i2u10570
  6971  0012EC                     i2u10571:
  6972  0012EC  EF82  F009         	goto	i2l1299
  6973  0012F0                     i2u10570:
  6974                           	line	1442
  6975                           ;main.c: 1442: new_note = 0x17;
  6976  0012F0  0101               	movlb	1	; () banked
  6977  0012F2  6F19               	movwf	(??_getNote+1+0)&0ffh
  6978  0012F4  0E17               	movlw	low(017h)
  6979  0012F6  0101               	movlb	1	; () banked
  6980  0012F8  0101               	movlb	1	; () banked
  6981  0012FA  6F18               	movwf	((getNote@new_note))&0ffh
  6982  0012FC  0101               	movlb	1	; () banked
  6983  0012FE  5119               	movf	(??_getNote+1+0)&0ffh,w
  6984                           	line	1443
  6985                           ;main.c: 1443: } else if (lResult >= 130 && lRes
                                 ult <= 160) {
  6986  001300  EFC6  F009         	goto	i2l1143
  6987                           	
  6988  001304                     i2l1299:		; BSR set to: ?
  6989                           
  6990  001304  0E81               	movlw	(082h-1)
  6991  001306  0101               	movlb	1	; () banked
  6992  001308  0101               	movlb	1	; () banked
  6993  00130A  6517               	cpfsgt	((getNote@lResult))&0ffh
  6994  00130C  EF8A  F009         	goto	i2u10581
  6995  001310  EF8C  F009         	goto	i2u10580
  6996  001314                     i2u10581:
  6997  001314  EFA0  F009         	goto	i2l1301
  6998  001318                     i2u10580:
  6999  001318  0EA1               	movlw	(0A1h)&0ffh
  7000  00131A  0101               	movlb	1	; () banked
  7001  00131C  0101               	movlb	1	; () banked
  7002  00131E  6117               	cpfslt	((getNote@lResult))&0ffh
  7003  001320  EF94  F009         	goto	i2u10591
  7004  001324  EF96  F009         	goto	i2u10590
  7005  001328                     i2u10591:
  7006  001328  EFA0  F009         	goto	i2l1301
  7007  00132C                     i2u10590:
  7008                           	line	1445
  7009                           ;main.c: 1445: new_note = 0x07;
  7010  00132C  0101               	movlb	1	; () banked
  7011  00132E  6F19               	movwf	(??_getNote+1+0)&0ffh
  7012  001330  0E07               	movlw	low(07h)
  7013  001332  0101               	movlb	1	; () banked
  7014  001334  0101               	movlb	1	; () banked
  7015  001336  6F18               	movwf	((getNote@new_note))&0ffh
  7016  001338  0101               	movlb	1	; () banked
  7017  00133A  5119               	movf	(??_getNote+1+0)&0ffh,w
  7018                           	line	1446
  7019                           ;main.c: 1446: } else if (lResult >= 107 && lRes
                                 ult <= 125) {
  7020  00133C  EFC6  F009         	goto	i2l1143
  7021                           	
  7022  001340                     i2l1301:		; BSR set to: ?
  7023                           
  7024  001340  0E6A               	movlw	(06Bh-1)
  7025  001342  0101               	movlb	1	; () banked
  7026  001344  0101               	movlb	1	; () banked
  7027  001346  6517               	cpfsgt	((getNote@lResult))&0ffh
  7028  001348  EFA8  F009         	goto	i2u10601
  7029  00134C  EFAA  F009         	goto	i2u10600
  7030  001350                     i2u10601:
  7031  001350  EFBE  F009         	goto	i2l1303
  7032  001354                     i2u10600:
  7033  001354  0E7E               	movlw	(07Eh)&0ffh
  7034  001356  0101               	movlb	1	; () banked
  7035  001358  0101               	movlb	1	; () banked
  7036  00135A  6117               	cpfslt	((getNote@lResult))&0ffh
  7037  00135C  EFB2  F009         	goto	i2u10611
  7038  001360  EFB4  F009         	goto	i2u10610
  7039  001364                     i2u10611:
  7040  001364  EFBE  F009         	goto	i2l1303
  7041  001368                     i2u10610:
  7042                           	line	1448
  7043                           ;main.c: 1448: new_note = 0x0f;
  7044  001368  0101               	movlb	1	; () banked
  7045  00136A  6F19               	movwf	(??_getNote+1+0)&0ffh
  7046  00136C  0E0F               	movlw	low(0Fh)
  7047  00136E  0101               	movlb	1	; () banked
  7048  001370  0101               	movlb	1	; () banked
  7049  001372  6F18               	movwf	((getNote@new_note))&0ffh
  7050  001374  0101               	movlb	1	; () banked
  7051  001376  5119               	movf	(??_getNote+1+0)&0ffh,w
  7052                           	line	1449
  7053                           ;main.c: 1449: } else {
  7054  001378  EFC6  F009         	goto	i2l1143
  7055                           	
  7056  00137C                     i2l1303:		; BSR set to: ?
  7057                           
  7058                           	line	1451
  7059                           ;main.c: 1451: new_note = 0x00;
  7060  00137C  0101               	movlb	1	; () banked
  7061  00137E  6F19               	movwf	(??_getNote+1+0)&0ffh
  7062  001380  0E00               	movlw	low(0)
  7063  001382  0101               	movlb	1	; () banked
  7064  001384  0101               	movlb	1	; () banked
  7065  001386  6F18               	movwf	((getNote@new_note))&0ffh
  7066  001388  0101               	movlb	1	; () banked
  7067  00138A  5119               	movf	(??_getNote+1+0)&0ffh,w
  7068                           	line	1452
  7069                           	
  7070  00138C                     i2l1304:		; BSR set to: ?
  7071                           
  7072                           	
  7073  00138C                     i2l1302:		; BSR set to: ?
  7074                           
  7075                           	
  7076  00138C                     i2l1300:		; BSR set to: ?
  7077                           
  7078                           	line	1454
  7079                           	
  7080  00138C                     i2l1298:		; BSR set to: ?
  7081                           
  7082                           	line	1456
  7083                           	
  7084  00138C                     i2l1297:		; BSR set to: ?
  7085                           
  7086                           	
  7087  00138C                     i2l1289:		; BSR set to: ?
  7088                           
  7089                           	
  7090  00138C                     i2l1281:		; BSR set to: ?
  7091                           
  7092                           	
  7093  00138C                     i2l1279:		; BSR set to: ?
  7094                           
  7095                           	line	1457
  7096                           	
  7097  00138C                     i2l1278:		; BSR set to: ?
  7098                           
  7099                           	
  7100  00138C                     i2l1251:		; BSR set to: ?
  7101                           
  7102                           	
  7103  00138C                     i2l1224:		; BSR set to: ?
  7104                           
  7105                           	
  7106  00138C                     i2l1197:		; BSR set to: ?
  7107                           
  7108                           	
  7109  00138C                     i2l1170:		; BSR set to: ?
  7110                           
  7111                           	
  7112  00138C                     i2l1143:		; BSR set to: ?
  7113                           
  7114                           ;main.c: 1452: }
  7115                           ;main.c: 1454: }
  7116                           ;main.c: 1456: }
  7117                           ;main.c: 1457: return new_note;
  7118  00138C  0101               	movlb	1	; () banked
  7119  00138E  0101               	movlb	1	; () banked
  7120  001390  5118               	movf	((getNote@new_note))&0ffh,w
  7121  001392  EFCB  F009         	goto	i2l1116
  7122                           	line	1458
  7123                           ;main.c: 1458: }
  7124  001396                     i2l1116:
  7125                           			; BSR set to: ?
  7126                           
  7127  001396  0012               	return
  7128                           	opt stack 0
  7129                           GLOBAL __end_of_getNote
  7130  001398                     	__end_of_getNote:
  7131                           	FNSIZE	_getNote,2,2
  7132                           ; =============== function _getNote ends =======
                                 =====
  7133                           
  7134                           	signat	_getNote,8313
  7135                           	FNROOT	_main
  7136                           	FNCALL	_my_isr,_adc_conversion
  7137                           	FNCALL	_my_isr,_ToggleLeds
  7138                           	FNCALL	_adc_conversion,_getNote
  7139                           	FNCALL	intlevel2,_my_isr
  7140                           	global	intlevel2
  7141                           	FNROOT	intlevel2
  7142                                   psect   const,class=CODE,space=0,reloc=2
  7143                           	global	_led_array
  7144                           	global	_led_array
  7145  000000                     _led_array  equ     1
  7146                           
  7147                           	DABS	1,1,26	;_led_array
  7148                           	global	_cur_inputs
  7149                           	global	_cur_inputs
  7150  000000                     _cur_inputs  equ     54
  7151                           
  7152                           	DABS	1,54,7	;_cur_inputs
  7153                           	global	_prev_inputs
  7154                           	global	_prev_inputs
  7155  000000                     _prev_inputs  equ     61
  7156                           
  7157                           	DABS	1,61,7	;_prev_inputs
  7158                           	global	_chanA
  7159                           	global	_chanA
  7160  000000                     _chanA  equ     42
  7161                           
  7162                           	DABS	1,42,3	;_chanA
  7163                           	global	_chanB
  7164                           	global	_chanB
  7165  000000                     _chanB  equ     45
  7166                           
  7167                           	DABS	1,45,3	;_chanB
  7168                           	global	_chanC
  7169                           	global	_chanC
  7170  000000                     _chanC  equ     48
  7171                           
  7172                           	DABS	1,48,3	;_chanC
  7173                           	global	_chanD
  7174                           	global	_chanD
  7175  000000                     _chanD  equ     39
  7176                           
  7177                           	DABS	1,39,3	;_chanD
  7178                           	global	_chanE
  7179                           	global	_chanE
  7180  000000                     _chanE  equ     30
  7181                           
  7182                           	DABS	1,30,3	;_chanE
  7183                           	global	_chanF
  7184                           	global	_chanF
  7185  000000                     _chanF  equ     33
  7186                           
  7187                           	DABS	1,33,3	;_chanF
  7188                           	global	_chanG
  7189                           	global	_chanG
  7190  000000                     _chanG  equ     36
  7191                           
  7192                           	DABS	1,36,3	;_chanG
  7193                           	global	_conv_result
  7194                           	global	_conv_result
  7195  000000                     _conv_result  equ     27
  7196                           
  7197                           	DABS	1,27,2	;_conv_result
  7198                           	global	_index
  7199                           	global	_index
  7200  000000                     _index  equ     68
  7201                           
  7202                           	DABS	1,68,2	;_index
  7203                           	global	_USART_Status
  7204                           	global	_USART_Status
  7205  000000                     _USART_Status  equ     51
  7206                           
  7207                           	DABS	1,51,1	;_USART_Status
  7208                           	global	_adc_num
  7209                           	global	_adc_num
  7210  000000                     _adc_num  equ     29
  7211                           
  7212                           	DABS	1,29,1	;_adc_num
  7213                           	global	_new_note
  7214                           	global	_new_note
  7215  000000                     _new_note  equ     52
  7216                           
  7217                           	DABS	1,52,1	;_new_note
  7218                           	global	_uart_out
  7219                           	global	_uart_out
  7220  000000                     _uart_out  equ     53
  7221                           
  7222                           	DABS	1,53,1	;_uart_out
  7223                           	global	_ADCON0
  7224  000000                     _ADCON0	equ	0xFC2
  7225                           	global	_ADCON1
  7226  000000                     _ADCON1	equ	0xFC1
  7227                           	global	_ADCON2
  7228  000000                     _ADCON2	equ	0xFC0
  7229                           	global	_ADRESH
  7230  000000                     _ADRESH	equ	0xFC4
  7231                           	global	_ADRESL
  7232  000000                     _ADRESL	equ	0xFC3
  7233                           	global	_BAUDCON
  7234  000000                     _BAUDCON	equ	0xFB8
  7235                           	global	_INTCON
  7236  000000                     _INTCON	equ	0xFF2
  7237                           	global	_LATA
  7238  000000                     _LATA	equ	0xF89
  7239                           	global	_LATB
  7240  000000                     _LATB	equ	0xF8A
  7241                           	global	_LATC
  7242  000000                     _LATC	equ	0xF8B
  7243                           	global	_OSCCON
  7244  000000                     _OSCCON	equ	0xFD3
  7245                           	global	_PIR1
  7246  000000                     _PIR1	equ	0xF9E
  7247                           	global	_RCREG
  7248  000000                     _RCREG	equ	0xFAE
  7249                           	global	_RCSTA
  7250  000000                     _RCSTA	equ	0xFAB
  7251                           	global	_SPBRG
  7252  000000                     _SPBRG	equ	0xFAF
  7253                           	global	_SPBRGH
  7254  000000                     _SPBRGH	equ	0xFB0
  7255                           	global	_T0CON
  7256  000000                     _T0CON	equ	0xFD5
  7257                           	global	_TRISA
  7258  000000                     _TRISA	equ	0xF92
  7259                           	global	_TRISB
  7260  000000                     _TRISB	equ	0xF93
  7261                           	global	_TRISC
  7262  000000                     _TRISC	equ	0xF94
  7263                           	global	_TXREG
  7264  000000                     _TXREG	equ	0xFAD
  7265                           	global	_TXSTA
  7266  000000                     _TXSTA	equ	0xFAC
  7267                           	global	_change_val
  7268                           	global	_change_val
  7269  000000                     _change_val  equ     0
  7270                           
  7271                           	DABS	1,0,1	;_change_val
  7272                           	global	_ADON
  7273  000000                     _ADON	equ	0x7E10
  7274                           	global	_BRGH_x
  7275  000000                     _BRGH_x	equ	0x7D62
  7276                           	global	_CREN_x
  7277  000000                     _CREN_x	equ	0x7D5C
  7278                           	global	_CSRC_x
  7279  000000                     _CSRC_x	equ	0x7D67
  7280                           	global	_FERR
  7281  000000                     _FERR	equ	0x7D5A
  7282                           	global	_GODONE
  7283  000000                     _GODONE	equ	0x7E11
  7284                           	global	_OERR
  7285  000000                     _OERR	equ	0x7D59
  7286                           	global	_RCIE_x
  7287  000000                     _RCIE_x	equ	0x7CED
  7288                           	global	_RCIF
  7289  000000                     _RCIF	equ	0x7CF5
  7290                           	global	_RX9D
  7291  000000                     _RX9D	equ	0x7D58
  7292                           	global	_RX9_x
  7293  000000                     _RX9_x	equ	0x7D5E
  7294                           	global	_SENDB_x
  7295  000000                     _SENDB_x	equ	0x7D63
  7296                           	global	_SPEN_x
  7297  000000                     _SPEN_x	equ	0x7D5F
  7298                           	global	_SREN_x
  7299  000000                     _SREN_x	equ	0x7D5D
  7300                           	global	_SYNC_x
  7301  000000                     _SYNC_x	equ	0x7D64
  7302                           	global	_TMR0IE
  7303  000000                     _TMR0IE	equ	0x7F95
  7304                           	global	_TMR0IF
  7305  000000                     _TMR0IF	equ	0x7F92
  7306                           	global	_TMR0IP
  7307  000000                     _TMR0IP	equ	0x7F8A
  7308                           	global	_TRISC6
  7309  000000                     _TRISC6	equ	0x7CA6
  7310                           	global	_TRISC7
  7311  000000                     _TRISC7	equ	0x7CA7
  7312                           	global	_TRMT_x
  7313  000000                     _TRMT_x	equ	0x7D61
  7314                           	global	_TX9D
  7315  000000                     _TX9D	equ	0x7D60
  7316                           	global	_TX9_x
  7317  000000                     _TX9_x	equ	0x7D66
  7318                           	global	_TXEN_x
  7319  000000                     _TXEN_x	equ	0x7D65
  7320                           	global	_TXIE_x
  7321  000000                     _TXIE_x	equ	0x7CEC
  7322                           	global	_TXIF
  7323  000000                     _TXIF	equ	0x7CF4
  7324                           	psect	intsave_regs,class=BIGRAM,space=1
  7325                           	PSECT	param1,class=BANK1,space=1
  7326                           	GLOBAL	__Lparam1
  7327                           	FNCONF	param1,??,?
  7328                           	GLOBAL	__Labsbss0
  7329  000000                     __Labsbss0	EQU	0
  7330                           	GLOBAL	__Habsbss0
  7331  000000                     __Habsbss0	EQU	70
  7332                           GLOBAL	__Lparam, __Hparam
  7333                           GLOBAL	__Lparam1, __Hparam1
  7334  000000                     __Lparam	EQU	__Lparam1
  7335  000000                     __Hparam	EQU	__Hparam1


HI-TECH Software PICC-18 Macro Assembler V9.66 build 8870 
Symbol Table                                           Mon May 07 21:27:45 2012

                    l868 2532                      l869 2526  
                   _ADON 007E10                     _FERR 007D5A  
                   _LATA 000F89                     _LATB 000F8A  
                   _LATC 000F8B                     _RCIF 007CF5  
                   _PIR1 000F9E                     _OERR 007D59  
                   _RX9D 007D58                     _TX9D 007D60  
                   _TXIF 007CF4                     _main 24DE  
                   fsr0h 000FEA                     fsr1h 000FE2  
                   fsr0l 000FE9                     fsr2h 000FDA  
                   fsr1l 000FE1                     fsr2l 000FD9  
                   pclat 000FFA                     prodh 000FF4  
                   prodl 000FF3                     start 0018  
                  ?_main 0100                    _T0CON 000FD5  
                  i2l900 170E                    i2l901 2180  
                  i2l910 180A                    i2l902 1742  
                  i2l903 2180                    i2l911 2180  
                  i2l920 1950                    i2l912 183C  
                  i2l904 1774                    i2l905 2180  
                  i2l913 2180                    i2l921 2180  
                  i2l930 1A84                    i2l922 1994  
                  i2l914 1882                    i2l906 17A6  
                  i2l907 2180                    i2l915 2180  
                  i2l923 2180                    i2l931 2180  
                  i2l940 1B7E                    i2l932 1AB6  
                  i2l924 19D8                    i2l916 18C8  
                  i2l908 17D8                    i2l909 2180  
                  i2l917 2180                    i2l925 2180  
                  i2l933 2180                    i2l941 2180  
                  i2l950 1C7C                    i2l942 1BB2  
                  i2l934 1AE8                    i2l926 1A1C  
                  i2l918 190C                    i2l871 2180  
                  i2l919 2180                    i2l927 2180  
                  i2l935 2180                    i2l943 2180  
                  i2l951 2180                    i2l960 1DB0  
                  i2l952 1CAE                    i2l944 1BE6  
                  i2l936 1B1A                    i2l928 1A50  
                  i2l880 14F0                    i2l872 13DE  
                  i2l881 2180                    i2l929 2180  
                  i2l937 2180                    i2l945 2180  
                  i2l953 2180                    i2l961 2180  
                  i2l873 2180                    i2l970 1EF4  
                  i2l962 1DF4                    i2l954 1CE0  
                  i2l946 1C18                    i2l938 1B4C  
                  i2l890 1612                    i2l882 1534  
                  i2l874 1424                    i2l875 2180  
                  i2l883 2180                    i2l891 2180  
                  i2l939 2180                    i2l947 2180  
                  i2l955 2180                    i2l963 2180  
                  i2l971 2180                    i2l980 1FF0  
                  i2l972 1F28                    i2l964 1E38  
                  i2l956 1D26                    i2l948 1C4A  
                  i2l892 1644                    i2l884 1578  
                  i2l876 1468                    i2l877 2180  
                  i2l885 2180                    i2l893 2180  
                  i2l949 2180                    i2l957 2180  
                  i2l965 2180                    i2l973 2180  
                  i2l981 2180                    i2l990 20EE  
                  i2l982 2022                    i2l974 1F5A  
                  i2l966 1E7C                    i2l958 1D6C  
                  i2l894 1676                    i2l886 15AC  
                  i2l878 14AC                    i2l879 2180  
                  i2l887 2180                    i2l895 2180  
                  i2l959 2180                    i2l967 2180  
                  i2l975 2180                    i2l983 2180  
                  i2l991 2180                    i2l992 2120  
                  i2l984 2056                    i2l976 1F8C  
                  i2l968 1EC0                    i2l896 16A8  
                  i2l888 15E0                    i2l889 2180  
                  i2l897 2180                    i2l969 2180  
                  i2l977 2180                    i2l985 2180  
                  i2l993 2180                    i2l994 2152  
                  i2l986 208A                    i2l978 1FBE  
                  i2l898 16DA                    i2l899 2180  
                  i2l979 2180                    i2l987 2180  
                  i2l995 2180                    i2l996 2180  
                  i2l988 20BC                    i2l989 2180  
                  _RCREG 000FAE                    _RCSTA 000FAB  
                  _SPBRG 000FAF                    _TRISA 000F92  
                  _TRISB 000F93                    _TRISC 000F94  
                  _RX9_x 007D5E                    _TXREG 000FAD  
                  _TX9_x 007D66                    _TXSTA 000FAC  
        __end_of_getNote 1398                    _chanA 00002A  
                  _chanB 00002D                    _chanC 000030  
                  _chanD 000027                    _chanE 00001E  
                  _chanF 000021                    _chanG 000024  
                  _index 000044                    tablat 000FF5  
                  status 000FD8             __end_of_main 253A  
                 ??_main 0104            __activetblptr 000000  
                 _ADCON0 000FC2                   _ADCON1 000FC1  
                 _ADCON2 000FC0                   _ADRESH 000FC4  
                 _ADRESL 000FC3                   _BRGH_x 007D62  
                 _GODONE 007E11                   _CREN_x 007D5C  
                 i2l1100 23DC                   i2l1101 23E4  
                 i2l1102 24DC                   i2l1110 245C  
                 i2l1111 2464                   i2l1103 248E  
                 i2l1200 0B44                   i2l1120 0146  
                 i2l1112 2496                   i2l1104 246C  
                 i2l1201 09A0                   i2l1121 00BA  
                 i2l1105 2434                   _CSRC_x 007D67  
                 i2l1210 09DE                   i2l1202 0914  
                 i2l1130 0220                   i2l1122 0142  
                 i2l1114 24A4                   i2l1106 243C  
                 i2l1211 0A66                   i2l1203 099C  
                 i2l1131 01D4                   i2l1123 00F6  
                 i2l1115 24DC                   i2l1107 2444  
                 i2l1116 1396                   i2l1300 138C  
                 i2l1220 0AF8                   i2l1212 0A1A  
                 i2l1204 0950                   i2l1140 02FE  
                 i2l1132 0220                   i2l1124 0142  
                 i2l1108 244C                   i2l1052 23EC  
                 i2l1060 23E8                   i2l1301 1340  
                 i2l1221 0B44                   i2l1213 0A66  
                 i2l1205 099C                   i2l1141 02EE  
                 i2l1133 0210                   i2l1125 0132  
                 i2l1117 0302                   i2l1109 2454  
                 i2l1061 2270                   i2l1053 23EA  
                 i2l1302 138C                   i2l1230 0C58  
                 i2l1222 0B34                   i2l1214 0A56  
                 i2l1206 098C                   i2l1150 03C4  
                 i2l1142 02FE                   i2l1134 0220  
                 i2l1126 0142                   i2l1118 006A  
                 i2l1070 229E                   i2l1054 2226  
                 i2l1303 137C                   i2l1231 0C0C  
                 i2l1223 0B44                   i2l1215 0A66  
                 i2l1207 099C                   i2l1151 0410  
                 i2l1143 138C                   i2l1127 02FE  
                 i2l1135 02FE                   i2l1119 02FE  
                 i2l1063 2252                   i2l1224 138C  
                 i2l1304 138C                   i2l1240 0D22  
                 i2l1232 0C58                   i2l1208 0B44  
                 i2l1216 0B44                   i2l1160 04DE  
                 i2l1152 0400                   i2l1144 05BC  
                 i2l1136 02FE                   i2l1128 0224  
                 i2l1080 2300                   i2l1072 22AC  
                 i2l1056 2208                   i2l1241 0D12  
                 i2l1233 0C48                   i2l1225 0E04  
                 i2l1217 0B44                   i2l1209 0A6A  
                 i2l1161 04EE                   i2l1153 0410  
                 i2l1145 0338                   i2l1137 0276  
                 i2l1129 0198                   i2l1081 23E8  
                 i2l1073 22B4                   i2l1065 2260  
                 i2l1170 138C                   i2l1250 0E00  
                 i2l1242 0D22                   i2l1234 0C58  
                 i2l1226 0B80                   i2l1218 0ABC  
                 i2l1154 05B8                   i2l1162 05B8  
                 i2l1146 05B8                   i2l1138 02FE  
                 i2l1074 23E8                   i2l1082 2354  
                 i2l1066 2268                   i2l1058 2216  
                 i2l1251 138C                   i2l1235 0E00  
                 i2l1243 0E00                   i2l1227 0E00  
                 i2l1219 0B44                   i2l1171 088C  
                 i2l1163 05B8                   i2l1155 04F2  
                 i2l1147 0414                   i2l1139 02B2  
                 i2l1067 23E8                   i2l1091 2382  
                 i2l1075 2308                   i2l1059 221E  
                 i2l1260 0F04                   i2l1252 10C0  
                 i2l1244 0E00                   i2l1236 0D26  
                 i2l1228 0C5C                   i2l1180 06CC  
                 i2l1172 05F4                   i2l1164 0530  
                 i2l1156 0466                   i2l1148 0388  
                 i2l1084 2336                   i2l1068 22BC  
                 i2l1261 0F14                   i2l1253 0E3C  
                 i2l1245 0D78                   i2l1237 0C9A  
                 i2l1229 0BD0                   i2l1181 0888  
                 i2l1173 0888                   i2l1165 05B8  
                 i2l1157 04EE                   i2l1149 0410  
                 i2l1093 2390                   i2l1077 22EA  
                 i2l1262 10BC                   i2l1270 10BC  
                 i2l1254 10BC                   i2l1246 0E00  
                 i2l1238 0D22                   i2l1190 0888  
                 i2l1182 07AE                   i2l1174 06D0  
                 i2l1166 056C                   i2l1158 04A2  
                 i2l1094 2398                   i2l1086 2344  
                 i2l1271 10BC                   i2l1263 0FE2  
                 i2l1255 0F18                   i2l1247 0DB4  
                 i2l1239 0CD6                   i2l1191 0800  
                 i2l1183 0722                   i2l1175 0644  
                 i2l1167 05B8                   i2l1159 04EE  
                 i2l1095 23E8                   i2l1087 234C  
                 i2l1079 22F8                   i2l1280 10F8  
                 i2l1272 1034                   i2l1264 0F56  
                 i2l1256 0E8C                   i2l1248 0E00  
                 i2l1192 0888                   i2l1184 07AA  
                 i2l1176 06CC                   i2l1168 05A8  
                 i2l1088 23E8                   i2l1096 23E8  
                 i2l1281 138C                   i2l1273 10BC  
                 i2l1265 0FDE                   i2l1257 0F14  
                 i2l1249 0DF0                   i2l1193 083C  
                 i2l1185 075E                   i2l1177 0680  
                 i2l1169 05B8                   i2l1089 23A0  
                 i2l1290 12B2                   i2l1282 11D4  
                 i2l1274 1070                   i2l1266 0F92  
                 i2l1258 0EC8                   i2l1194 0888  
                 i2l1186 07AA                   i2l1178 06CC  
                 i2l1098 23CE                   i2l1291 1226  
                 i2l1283 1148                   i2l1275 10BC  
                 i2l1267 0FDE                   i2l1259 0F14  
                 i2l1195 0878                   i2l1187 079A  
                 i2l1179 06BC                   i2l1292 12AE  
                 i2l1284 11D0                   i2l1276 10AC  
                 i2l1268 0FCE                   i2l1196 0888  
                 i2l1188 07AA                   i2l1197 138C  
                 i2l1293 1262                   i2l1285 1184  
                 i2l1277 10BC                   i2l1269 0FDE  
                 i2l1189 0888                   i2l1278 138C  
                 i2l1294 12AE                   i2l1286 11D0  
                 i2l1198 0B48                   i2l1279 138C  
                 i2l1295 129E                   i2l1287 11C0  
                 i2l1199 08C4                   i2l1296 12AE  
                 i2l1288 11D0                   i2l1289 138C  
                 i2l1297 138C                   i2l1298 138C  
                 i2l1299 1304                   _INTCON 000FF2  
                 _RCIE_x 007CED                   _OSCCON 000FD3  
                 i2u8000 19FC                   i2u8001 19F8  
                 i2u8010 1A0E                   i2u8011 1A0A  
                 i2u8100 1AFA                   i2u8020 1A2E  
                 i2u8101 1AF6                   i2u8021 1A2A  
                 i2u8110 1B0C                   i2u8030 1A40  
                 i2u8111 1B08                   i2u8031 1A3C  
                 i2u8200 1BF8                   i2u8120 1B2C  
                 i2u8040 1A62                   i2u7400 145A  
                 i2u7320 13AA                   i2u9000 23B2  
                 i2u8201 1BF4                   i2u8121 1B28  
                 i2u8041 1A5E                   i2u7401 1456  
                 i2u7321 13A6                   i2u9001 23AE  
                 i2u8210 1C0A                   i2u8130 1B3E  
                 i2u8050 1A74                   i2u7410 147A  
                 i2u7330 13BC                   i2u9010 23C6  
                 i2u8211 1C06                   i2u8131 1B3A  
                 i2u8051 1A70                   i2u7411 1476  
                 i2u7331 13B8                   i2u9011 23C2  
                 i2u9100 00CE                   i2u8300 1CF2  
                 i2u8220 1C2A                   i2u8140 1B5E  
                 i2u8060 1A96                   i2u7500 1546  
                 i2u7420 148C                   i2u7340 13CE  
                 i2u9020 23DC                   i2u9101 00CA  
                 i2u8301 1CEE                   i2u8221 1C26  
                 i2u8141 1B5A                   i2u8061 1A92  
                 i2u7501 1542                   i2u7421 1488  
                 i2u7341 13CA                   i2u9021 23D8  
                 i2u9110 00E2                   i2u9030 24A4  
                 i2u8310 1D04                   i2u8230 1C3C  
                 i2u8150 1B70                   i2u8070 1AA8  
                 i2u7510 1558                   i2u7430 149E  
                 i2u7350 13F0                   i2u9111 00DE  
                 i2u9031 24A0                   i2u8311 1D00  
                 i2u8231 1C38                   i2u8151 1B6C  
                 i2u8071 1AA4                   i2u7511 1554  
                 i2u7431 149A                   i2u7351 13EC  
                 i2u9200 01FC                   i2u9120 010A  
                 i2u9040 24D8                   i2u8400 1DD4  
                 i2u8320 1D16                   i2u8240 1C5C  
                 i2u8160 1B90                   i2u8080 1AC8  
                 i2u7600 1636                   i2u7520 156A  
                 i2u7440 14BE                   i2u7360 1402  
                 i2u9201 01F8                   i2u9121 0106  
                 i2u9041 24D4                   i2u8401 1DD0  
                 i2u8321 1D12                   i2u8241 1C58  
                 i2u8161 1B8C                   i2u8081 1AC4  
                 i2u7601 1632                   i2u7521 1566  
                 i2u7441 14BA                   i2u7361 13FE  
                 i2u9210 023A                   i2u9130 011E  
                 i2u9050 0044                   i2u8410 1DE6  
                 i2u8330 1D38                   i2u8250 1C6E  
                 i2u8170 1BA2                   i2u8090 1ADA  
                 i2u7610 1656                   i2u7530 158A  
                 i2u7450 14D0                   i2u7370 1414  
                 i2u9211 0236                   i2u9131 011A  
                 i2u9051 0040                   i2u8411 1DE2  
                 i2u8331 1D34                   i2u8251 1C6A  
                 i2u8171 1B9E                   i2u8091 1AD6  
                 i2u7611 1652                   i2u7531 1586  
                 i2u7451 14CC                   i2u7371 1410  
                 i2u9300 034C                   i2u9220 024E  
                 i2u9140 015C                   i2u9060 0056  
                 i2u8500 1EB2                   i2u8420 1E06  
                 i2u8340 1D4A                   i2u8260 1C8E  
                 i2u8180 1BC4                   i2u7700 1732  
                 i2u7620 1668                   i2u7540 159C  
                 i2u7460 14E2                   i2u7380 1436  
                 i2u9301 0348                   i2u9221 024A  
                 i2u9141 0158                   i2u9061 0052  
                 i2u8501 1EAE                   i2u8421 1E02  
                 i2u8341 1D46                   i2u8261 1C8A  
                 i2u8181 1BC0                   i2u7701 172E  
                 i2u7621 1664                   i2u7541 1598  
                 i2u7461 14DE                   i2u7381 1432  
                 i2u9310 0360                   i2u9230 0262  
                 i2u9150 0170                   i2u9070 007E  
                 i2u8510 1ED2                   i2u8430 1E18  
                 i2u8350 1D5C                   i2u8270 1CA0  
                 i2u8190 1BD6                   i2u7710 1754  
                 i2u7630 1688                   i2u7550 15BE  
                 i2u7470 1502                   i2u7390 1448  
                 i2u9311 035C                   i2u9231 025E  
                 i2u9151 016C                   i2u9071 007A  
                 i2u8511 1ECE                   i2u8431 1E14  
                 i2u8351 1D58                   i2u8271 1C9C  
                 i2u8191 1BD2                   i2u7711 1750  
                 i2u7631 1684                   i2u7551 15BA  
                 i2u7471 14FE                   i2u7391 1444  
                 i2u9400 047A                   i2u9320 0374  
                 i2u9240 028A                   i2u9160 0184  
                 i2u9080 0092                   i2u8600 1FB0  
                 i2u8520 1EE4                   i2u8440 1E2A  
                 i2u8360 1D7E                   i2u8280 1CC0  
                 i2u7800 182E                   i2u7720 1766  
                 i2u7640 169A                   i2u7560 15D0  
                 i2u7480 1514                   i2u9401 0476  
                 i2u9321 0370                   i2u9241 0286  
                 i2u9161 0180                   i2u9081 008E  
                 i2u8601 1FAC                   i2u8521 1EE0  
                 i2u8441 1E26                   i2u8361 1D7A  
                 i2u8281 1CBC                   i2u7801 182A  
                 i2u7721 1762                   i2u7641 1696  
                 i2u7561 15CC                   i2u7481 1510  
                 i2u9410 048E                   i2u9330 039C  
                 i2u9250 029E                   i2u9170 01AC  
                 i2u9090 00A6                   i2u8610 1FD0  
                 i2u8530 1F06                   i2u8450 1E4A  
                 i2u8370 1D90                   i2u8290 1CD2  
                 i2u7810 184E                   i2u7730 1786  
                 i2u7650 16BA                   i2u7570 15F2  
                 i2u7490 1526                   i2u9411 048A  
                 i2u9331 0398                   i2u9251 029A  
                 i2u9171 01A8                   i2u9091 00A2  
                 i2u8611 1FCC                   i2u8531 1F02  
                 i2u8451 1E46                   i2u8371 1D8C  
                 i2u8291 1CCE                   i2u7811 184A  
                 i2u7731 1782                   i2u7651 16B6  
                 i2u7571 15EE                   i2u7491 1522  
                 i2u9500 05CE                   i2u9420 04B6  
                 i2u9340 03B0                   i2u9260 02C6  
                 i2u9180 01C0                   i2u8700 20AE  
                 i2u8620 1FE2                   i2u8540 1F18  
                 i2u8460 1E5C                   i2u8380 1DA2  
                 i2u7900 191E                   i2u7820 1860  
                 i2u7740 1798                   i2u7660 16CC  
                 i2u7580 1604                   i2u9501 05CA  
                 i2u9421 04B2                   i2u9341 03AC  
                 i2u9261 02C2                   i2u9181 01BC  
                 i2u8701 20AA                   i2u8621 1FDE  
                 i2u8541 1F14                   i2u8461 1E58  
                 i2u8381 1D9E                   i2u7901 191A  
                 i2u7821 185C                   i2u7741 1794  
                 i2u7661 16C8                   i2u7581 1600  
                 i2u9510 05E0                   i2u9430 04CA  
                 i2u9350 03D8                   i2u9270 02DA  
                 i2u9190 01E8                   i2u8710 20CE  
                 i2u8630 2002                   i2u8550 1F3A  
                 i2u8470 1E6E                   i2u8390 1DC2  
                 i2u7910 1930                   i2u7830 1872  
                 i2u7750 17B8                   i2u7670 16EC  
                 i2u7590 1624                   i2u9511 05DC  
                 i2u9431 04C6                   i2u9351 03D4  
                 i2u9271 02D6                   i2u9191 01E4  
                 i2u8711 20CA                   i2u8631 1FFE  
                 i2u8551 1F36                   i2u8471 1E6A  
                 i2u8391 1DBE                   i2u7911 192C  
                 i2u7831 186E                   i2u7751 17B4  
                 i2u7671 16E8                   i2u7591 1620  
                 i2u9600 06FA                   i2u9520 0608  
                 i2u9440 0508                   i2u9360 03EC  
                 i2u9280 0312                   i2u8720 20E0  
                 i2u8640 2014                   i2u8560 1F4C  
                 i2u8480 1E8E                   i2u7920 1942  
                 i2u7840 1894                   i2u7760 17CA  
                 i2u7680 16FE                   i2u8800 21CC  
                 i2u9601 06F6                   i2u9521 0604  
                 i2u9441 0504                   i2u9361 03E8  
                 i2u9281 030E                   i2u8721 20DC  
                 i2u8641 2010                   i2u8561 1F48  
                 i2u8481 1E8A                   i2u7921 193E  
                 i2u7841 1890                   i2u7761 17C6  
                 i2u7681 16FA                   i2u8801 21C8  
                 i2u9610 070E                   i2u9530 061C  
                 i2u9450 051C                   i2u9370 042A  
                 i2u9290 0324                   i2u8730 2100  
                 i2u8650 2034                   i2u8570 1F6C  
                 i2u8490 1EA0                   i2u7930 1962  
                 i2u7850 18A6                   i2u7770 17EA  
                 i2u7690 1720                   i2u8810 21DA  
                 i2u9611 070A                   i2u9531 0618  
                 i2u9451 0518                   i2u9371 0426  
                 i2u9291 0320                   i2u8731 20FC  
                 i2u8651 2030                   i2u8571 1F68  
                 i2u8491 1E9C                   i2u7931 195E  
                 i2u7851 18A2                   i2u7771 17E6  
                 i2u7691 171C                   i2u8811 21D6  
                 i2u9700 0828                   i2u9620 0736  
                 i2u9540 0630                   i2u9460 0544  
                 i2u9380 043E                   i2u8740 2112  
                 i2u8660 2046                   i2u8580 1F7E  
                 i2u7940 1974                   i2u7860 18B8  
                 i2u7780 17FC                   i2u8900 22AC  
                 i2u8820 21EC                   i2u9701 0824  
                 i2u9621 0732                   i2u9541 062C  
                 i2u9461 0540                   i2u9381 043A  
                 i2u8741 210E                   i2u8661 2042  
                 i2u8581 1F7A                   i2u7941 1970  
                 i2u7861 18B4                   i2u7781 17F8  
                 i2u8901 22A8                   i2u8821 21E8  
                 i2u9710 0850                   i2u9630 074A  
                 i2u9550 0658                   i2u9470 0558  
                 i2u9390 0452                   i2u8750 2132  
                 i2u8670 2068                   i2u8590 1F9E  
                 i2u7950 1986                   i2u7870 18DA  
                 i2u7790 181C                   i2u8910 22CE  
                 i2u8830 2200                   i2u9711 084C  
                 i2u9631 0746                   i2u9551 0654  
                 i2u9471 0554                   i2u9391 044E  
                 i2u8751 212E                   i2u8671 2064  
                 i2u8591 1F9A                   i2u7951 1982  
                 i2u7871 18D6                   i2u7791 1818  
                 i2u8911 22CA                   i2u8831 21FC  
                 i2u9800 0964                   i2u9720 0864  
                 i2u9640 0772                   i2u9560 066C  
                 i2u9480 0580                   i2u8760 2144  
                 i2u8680 207A                   i2u7960 19A6  
                 i2u7880 18EC                   i2u8920 22E2  
                 i2u8840 2216                   i2u9801 0960  
                 i2u9721 0860                   i2u9641 076E  
                 i2u9561 0668                   i2u9481 057C  
                 i2u8761 2140                   i2u8681 2076  
                 i2u7961 19A2                   i2u7881 18E8  
                 i2u8921 22DE                   i2u8841 2212  
                 i2u9810 0978                   i2u9730 089E  
                 i2u9650 0786                   i2u9570 0694  
                 i2u9490 0594                   i2u8770 2164  
                 i2u8690 209C                   i2u7970 19B8  
                 i2u7890 18FE                   i2u8930 22F8  
                 i2u8850 2236                   i2u9811 0974  
                 i2u9731 089A                   i2u9651 0782  
                 i2u9571 0690                   i2u9491 0590  
                 i2u8771 2160                   i2u8691 2098  
                 i2u7971 19B4                   i2u7891 18FA  
                 i2u8931 22F4                   i2u8851 2232  
                 i2u9900 0AA8                   i2u9820 09B6  
                 i2u9740 08B0                   i2u9660 07C4  
                 i2u9580 06A8                   i2u8780 2176  
                 i2u7980 19CA                   i2u8940 231A  
                 i2u8860 224A                   i2u9901 0AA4  
                 i2u9821 09B2                   i2u9741 08AC  
                 i2u9661 07C0                   i2u9581 06A4  
                 i2u8781 2172                   i2u7981 19C6  
                 i2u8941 2316                   i2u8861 2246  
                 i2u9910 0AD0                   i2u9830 09CA  
                 i2u9750 08D8                   i2u9670 07D8  
                 i2u9590 06E6                   i2u7990 19EA  
                 i2u8950 232E                   i2u8870 2260  
                 i2u8790 21BE                   i2u9911 0ACC  
                 i2u9831 09C6                   i2u9751 08D4  
                 i2u9671 07D4                   i2u9591 06E2  
                 i2u7991 19E6                   i2u8951 232A  
                 i2u8871 225C                   i2u8791 21BA  
                 i2u9920 0AE4                   i2u9840 09F2  
                 i2u9760 08EC                   i2u9680 07EC  
                 i2u8960 2344                   i2u8880 2282  
                 i2u9921 0AE0                   i2u9841 09EE  
                 i2u9761 08E8                   i2u9681 07E8  
                 i2u8961 2340                   i2u8881 227E  
                 i2u9930 0B0C                   i2u9850 0A06  
                 i2u9770 0900                   i2u9690 0814  
                 i2u8970 2366                   i2u8890 2296  
                 i2u9931 0B08                   i2u9851 0A02  
                 i2u9771 08FC                   i2u9691 0810  
                 i2u8971 2362                   i2u8891 2292  
                 i2u9940 0B20                   i2u9860 0A2E  
                 i2u9780 0928                   i2u8980 237A  
                 i2u9941 0B1C                   i2u9861 0A2A  
                 i2u9781 0924                   i2u8981 2376  
                 i2u9950 0B5A                   i2u9870 0A42  
                 i2u9790 093C                   i2u8990 2390  
                 i2u9951 0B56                   i2u9871 0A3E  
                 i2u9791 0938                   i2u8991 238C  
                 i2u9960 0B6C                   i2u9880 0A80  
                 i2u9961 0B68                   i2u9881 0A7C  
                 i2u9970 0B94                   i2u9890 0A94  
                 i2u9971 0B90                   i2u9891 0A90  
                 i2u9980 0BA8                   i2u9981 0BA4  
                 i2u9990 0BBC                   i2u9991 0BB8  
                 _TMR0IE 007F95                   _TMR0IF 007F92  
                 _TMR0IP 007F8A                   _SPBRGH 000FB0  
                 _TRISC6 007CA6                   _TRISC7 007CA7  
                 _SPEN_x 007D5F                   _SREN_x 007D5D  
                 _TRMT_x 007D61                   _TXIE_x 007CEC  
                 _TXEN_x 007D65                   _SYNC_x 007D64  
                 __Ldata 000000                   _my_isr 2182  
              ??_getNote 0118               _ToggleLeds 1398  
           __mediumconst 0D00                   tblptrh 000FF7  
                 tblptrl 000FF6                   tblptru 000FF8  
             __accesstop 0060               _change_val 000000  
                _BAUDCON 000FB8                  ?_my_isr 0105  
            ?_ToggleLeds 0113                  i2u10000 0BE4  
                i2u10001 0BE0                  i2u10010 0BF8  
                i2u10011 0BF4                  i2u10100 0D3C  
                i2u10020 0C20                  i2u10101 0D38  
                i2u10021 0C1C                  i2u10110 0D50  
                i2u10030 0C34                  i2u10111 0D4C  
                i2u10031 0C30                  i2u10200 0E64  
                i2u10120 0D64                  i2u10040 0C72  
                i2u10201 0E60                  i2u10121 0D60  
                i2u10041 0C6E                  i2u10210 0E78  
                i2u10130 0D8C                  i2u10050 0C86  
                i2u10211 0E74                  i2u10131 0D88  
                i2u10051 0C82                  i2u10300 0FA6  
                i2u10220 0EA0                  i2u10140 0DA0  
                i2u10060 0CAE                  i2u10301 0FA2  
                i2u10221 0E9C                  i2u10141 0D9C  
                i2u10061 0CAA                  i2u10310 0FBA  
                i2u10230 0EB4                  i2u10150 0DC8  
                i2u10070 0CC2                  i2u10311 0FB6  
                i2u10231 0EB0                  i2u10151 0DC4  
                i2u10071 0CBE                  i2u10400 10E4  
                i2u10320 0FF8                  i2u10240 0EDC  
                i2u10160 0DDC                  i2u10080 0CEA  
                i2u10401 10E0                  i2u10321 0FF4  
                i2u10241 0ED8                  i2u10161 0DD8  
                i2u10081 0CE6                  i2u10410 110C  
                i2u10330 100C                  i2u10250 0EF0  
                i2u10170 0E16                  i2u10090 0CFE  
                i2u10411 1108                  i2u10331 1008  
                i2u10251 0EEC                  i2u10171 0E12  
                i2u10091 0CFA                  i2u10500 1212  
                i2u10420 1120                  i2u10340 1020  
                i2u10260 0F2E                  i2u10180 0E28  
                i2u10501 120E                  i2u10421 111C  
                i2u10341 101C                  i2u10261 0F2A  
                i2u10181 0E24                  i2u10510 123A  
                i2u10430 1134                  i2u10350 1048  
                i2u10270 0F42                  i2u10190 0E50  
                i2u10511 1236                  i2u10431 1130  
                i2u10351 1044                  i2u10271 0F3E  
                i2u10191 0E4C                  i2u10600 1354  
                i2u10520 124E                  i2u10440 115C  
                i2u10360 105C                  i2u10280 0F6A  
                i2u10601 1350                  i2u10521 124A  
                i2u10441 1158                  i2u10361 1058  
                i2u10281 0F66                  i2u10610 1368  
                i2u10530 1276                  i2u10450 1170  
                i2u10370 1084                  i2u10290 0F7E  
                i2u10611 1364                  i2u10531 1272  
                i2u10451 116C                  i2u10371 1080  
                i2u10291 0F7A                  i2u10540 128A  
                i2u10460 1198                  i2u10380 1098  
                i2u10541 1286                  i2u10461 1194  
                i2u10381 1094                  i2u10550 12C8  
                i2u10470 11AC                  i2u10390 10D2  
                i2u10551 12C4                  i2u10471 11A8  
                i2u10391 10CE                  i2u10560 12DC  
                i2u10480 11EA                  i2u10561 12D8  
                i2u10481 11E6                  i2u10570 12F0  
                i2u10490 11FE                  i2u10571 12EC  
                i2u10491 11FA                  i2u10580 1318  
                i2u10581 1314                  i2u10590 132C  
                i2u10591 1328                  _SENDB_x 007D63  
         _adc_conversion 2426                  __Hparam 011A  
             _cur_inputs 000036                  __Lparam 0100  
                _adc_num 00001D                  __ramtop 0D00  
                _getNote 0036   __end_of_adc_conversion 24DE  
        getNote@new_note 0118            __Lmediumconst 0D00  
                int_func 0008          ?_adc_conversion 0113  
         __end_of_my_isr 2426                __Habsbss0 000046  
              __Labsbss0 000000                 ??_my_isr 0105  
           ??_ToggleLeds 0113       adc_conversion@note 0115  
     __end_of_ToggleLeds 2182                 ?_getNote 0116  
              _led_array 000001              __smallconst 0D00  
         getNote@hResult 0116           getNote@lResult 0117  
       ??_adc_conversion 0113              _conv_result 00001B  
               __Hparam1 011A                 __Lparam1 0100  
           __Lsmallconst 0D00                 __config1 00F0FF  
               __config2 00FEFF                 __config3 007FFF  
               __config4 00FFFB                 __config5 00FFFF  
               __config6 00FFFF                 __config7 00FFFF  
               _new_note 000034                 _uart_out 000035  
               main@argc 0100                 main@argv 0102  
               intlevel2 253A              _prev_inputs 00003D  
  adc_conversion@hResult 0113    adc_conversion@lResult 0114  
           _USART_Status 000033  
