

HI-TECH Software LITE Macro Assembler (PIC18) V9.66 build 8870 
                                                       Tue May 01 18:12:14 2012

HI-TECH Software Omniscient Code Generator build 8870
     1  000000                     opt subtitle "HI-TECH Software Omniscient Code G
                                 enerator build 8870"
     2                           
     3                           	processor	18F2682
     4  000000                     porta	equ	0F80h
     5  000000                     portb	equ	0F81h
     6  000000                     portc	equ	0F82h
     7  000000                     portd	equ	0F83h
     8  000000                     porte	equ	0F84h
     9  000000                     lata	equ	0F89h
    10  000000                     latb	equ	0F8Ah
    11  000000                     latc	equ	0F8Bh
    12  000000                     latd	equ	0F8Ch
    13  000000                     late	equ	0F8Dh
    14  000000                     trisa	equ	0F92h
    15  000000                     trisb	equ	0F93h
    16  000000                     trisc	equ	0F94h
    17  000000                     trisd	equ	0F95h
    18  000000                     trise	equ	0F96h
    19  000000                     pie1	equ	0F9Dh
    20  000000                     pir1	equ	0F9Eh
    21  000000                     ipr1	equ	0F9Fh
    22  000000                     pie2	equ	0FA0h
    23  000000                     pir2	equ	0FA1h
    24  000000                     ipr2	equ	0FA2h
    25  000000                     t3con	equ	0FB1h
    26  000000                     tmr3l	equ	0FB2h
    27  000000                     tmr3h	equ	0FB3h
    28  000000                     ccp1con	equ	0FBDh
    29  000000                     ccpr1l	equ	0FBEh
    30  000000                     ccpr1h	equ	0FBFh
    31  000000                     adcon1	equ	0FC1h
    32  000000                     adcon0	equ	0FC2h
    33  000000                     adresl	equ	0FC3h
    34  000000                     adresh	equ	0FC4h
    35  000000                     sspcon2	equ	0FC5h
    36  000000                     sspcon1	equ	0FC6h
    37  000000                     sspstat	equ	0FC7h
    38  000000                     sspadd	equ	0FC8h
    39  000000                     sspbuf	equ	0FC9h
    40  000000                     t2con	equ	0FCAh
    41  000000                     pr2	equ	0FCBh
    42  000000                     tmr2	equ	0FCCh
    43  000000                     t1con	equ	0FCDh
    44  000000                     tmr1l	equ	0FCEh
    45  000000                     tmr1h	equ	0FCFh
    46  000000                     rcon	equ	0FD0h
    47  000000                     wdtcon	equ	0FD1h
    48  000000                     lvdcon	equ	0FD2h
    49  000000                     osccon	equ	0FD3h
    50  000000                     t0con	equ	0FD5h
    51  000000                     tmr0l	equ	0FD6h
    52  000000                     tmr0h	equ	0FD7h
    53  000000                     status	equ	0FD8h
    54  000000                     fsr2	equ	0FD9h
    55  000000                     fsr2l	equ	0FD9h
    56  000000                     fsr2h	equ	0FDAh
    57  000000                     plusw2	equ	0FDBh
    58  000000                     preinc2	equ	0FDCh
    59  000000                     postdec2	equ	0FDDh
    60  000000                     postinc2	equ	0FDEh
    61  000000                     indf2	equ	0FDFh
    62  000000                     bsr	equ	0FE0h
    63  000000                     fsr1	equ	0FE1h
    64  000000                     fsr1l	equ	0FE1h
    65  000000                     fsr1h	equ	0FE2h
    66  000000                     plusw1	equ	0FE3h
    67  000000                     preinc1	equ	0FE4h
    68  000000                     postdec1	equ	0FE5h
    69  000000                     postinc1	equ	0FE6h
    70  000000                     indf1	equ	0FE7h
    71  000000                     wreg	equ	0FE8h
    72  000000                     fsr0	equ	0FE9h
    73  000000                     fsr0l	equ	0FE9h
    74  000000                     fsr0h	equ	0FEAh
    75  000000                     plusw0	equ	0FEBh
    76  000000                     preinc0	equ	0FECh
    77  000000                     postdec0	equ	0FEDh
    78  000000                     postinc0	equ	0FEEh
    79  000000                     indf0	equ	0FEFh
    80  000000                     intcon3	equ	0FF0h
    81  000000                     intcon2	equ	0FF1h
    82  000000                     intcon	equ	0FF2h
    83  000000                     prod	equ	0FF3h
    84  000000                     prodl	equ	0FF3h
    85  000000                     prodh	equ	0FF4h
    86  000000                     tablat	equ	0FF5h
    87  000000                     tblptr	equ	0FF6h
    88  000000                     tblptrl	equ	0FF6h
    89  000000                     tblptrh	equ	0FF7h
    90  000000                     tblptru	equ	0FF8h
    91  000000                     pcl	equ	0FF9h
    92  000000                     pclat	equ	0FFAh
    93  000000                     pclath	equ	0FFAh
    94  000000                     pclatu	equ	0FFBh
    95  000000                     stkptr	equ	0FFCh
    96  000000                     tosl	equ	0FFDh
    97  000000                     tosh	equ	0FFEh
    98  000000                     tosu	equ	0FFFh
    99                           	global	__ramtop
   100                           	global	__accesstop
   101                           # 20 "../code/main.c"
   102                           	global __config1 ;#
   103                           # 20 "../code/main.c"
   104  000000                     	__config1 equ 0xF0FF ;#
   105                           # 21 "../code/main.c"
   106                           	global __config2 ;#
   107                           # 21 "../code/main.c"
   108  000000                     	__config2 equ 0xFEFF ;#
   109                           # 22 "../code/main.c"
   110                           	global __config3 ;#
   111                           # 22 "../code/main.c"
   112  000000                     	__config3 equ 0x7FFF ;#
   113                           # 23 "../code/main.c"
   114                           	global __config4 ;#
   115                           # 23 "../code/main.c"
   116  000000                     	__config4 equ 0xFFFB & 0xFFFF ;#
   117                           # 24 "../code/main.c"
   118                           	global __config5 ;#
   119                           # 24 "../code/main.c"
   120  000000                     	__config5 equ 0xFFFF ;#
   121                           # 25 "../code/main.c"
   122                           	global __config6 ;#
   123                           # 25 "../code/main.c"
   124  000000                     	__config6 equ 0xFFFF ;#
   125                           # 26 "../code/main.c"
   126                           	global __config7 ;#
   127                           # 26 "../code/main.c"
   128  000000                     	__config7 equ 0xFFFF ;#
   129                           	GLOBAL	__activetblptr
   130  000000                     __activetblptr	EQU	0
   131                           	GLOBAL	__smallconst,__Lsmallconst
   132  000000                     __smallconst	EQU	__Lsmallconst
   133                           	GLOBAL	__mediumconst,__Lmediumconst
   134  000000                     __mediumconst	EQU	__Lmediumconst
   135                           	GLOBAL	__Ldata
   136  000000                     __Ldata	EQU	0
   137  000000                     main@channel	equ	??_main+0
   138                           	global	main@channel
   139  000000                     main@result	equ	??_main+1
   140                           	global	main@result
   141  000000                     main@argc	equ	?_main+0
   142                           	global	main@argc
   143  000000                     main@argv	equ	?_main+2
   144                           	global	main@argv
   145                           ;Data sizes: Strings 0, constant 0, data 0, bss 
                                 0, persistent 0 stack 8
   146                           	global	_main
   147                           	global	??_main
   148                           	global	?_main
   149                           
   150                           ; *************** function _main ***************
                                 **
   151                           ; Defined at:
   152                           ;		line 164 in file "../code/main.c"
   153                           ; Parameters:
   154                           ;		argc           size:   2offs:   0	type: int 
   155                           ;		argv           size:   2offs:   2	type: PTR P
                                 TR unsigned char 
   156                           ; Auto variables:
   157                           ;		channel     	       	type: unsigned char 
   158                           ;		result      	       	type: int 
   159                           ; Return value:
   160                           ;		type: int 
   161                           ;		size: 2
   162                           ; Registers used:
   163                           ;		wreg, fsr0l, fsr0h, status,2, status,0
   164                           ; Tracked objects:
   165                           ;		On entry : 0/0
   166                           ;		On exit  : 0/0
   167                           ;		Unchanged: 0/0
   168                           ; Data sizes:
   169                           ;		Autos:    3
   170                           ;		Params:   4
   171                           ;		Temp:     1
   172                           ;		Total:    8
   173                           ; This function calls:
   174                           ;		_ToggleLeds
   175                           ; This function is called by:
   176                           ;		Startup code after reset
   177                           ; This function uses a non-reentrant model
   178                           ; 
   179                                   psect   text0,class=CODE,space=0,reloc=2
   180                           
   181                           	opt lm
   182                           	file	"../code/main.c"
   183                           	line	164
   184  000000                     	__size_of_main	equ	__end_of_main-_main
   185                                   psect   text0
   186                           ;main.c: 20: asm("\tglobal __config" "1"); asm("
                                 \t__config" "1" " equ " "0xF0FF");
   187                           ;main.c: 21: asm("\tglobal __config" "2"); asm("
                                 \t__config" "2" " equ " "0xFEFF");
   188                           ;main.c: 22: asm("\tglobal __config" "3"); asm("
                                 \t__config" "3" " equ " "0x7FFF");
   189                           ;main.c: 23: asm("\tglobal __config" "4"); asm("
                                 \t__config" "4" " equ " "0xFFFB & 0xFFFF");
   190                           ;main.c: 24: asm("\tglobal __config" "5"); asm("
                                 \t__config" "5" " equ " "0xFFFF");
   191                           ;main.c: 25: asm("\tglobal __config" "6"); asm("
                                 \t__config" "6" " equ " "0xFFFF");
   192                           ;main.c: 26: asm("\tglobal __config" "7"); asm("
                                 \t__config" "7" " equ " "0xFFFF");
   193                           	
   194  013170                     _main:		; BSR set to: ?
   195                           
   196                           	opt stack 31
   197                           	line	167
   198                           ;main.c: 167: OSCCON |= 0b01110010;
   199  013170  0E72               	movlw	(072h)&0ffh
   200  013172  12D3               	iorwf	((c:4051)),c	;volatile
   201                           	line	170
   202                           ;main.c: 170: ADCON0 = 0b00000000;
   203  013174  0E00               	movlw	low(0)
   204  013176  6EC2               	movwf	((c:4034)),c	;volatile
   205                           	line	171
   206                           ;main.c: 171: ADCON1 = 0b00000101;
   207  013178  0E05               	movlw	low(05h)
   208  01317A  6EC1               	movwf	((c:4033)),c	;volatile
   209                           	line	172
   210                           ;main.c: 172: ADCON2 = 0b10000000;
   211  01317C  0E80               	movlw	low(080h)
   212  01317E  6EC0               	movwf	((c:4032)),c	;volatile
   213                           	line	173
   214                           ;main.c: 173: ADCON2 = 0b10100000;
   215  013180  0EA0               	movlw	low(0A0h)
   216  013182  6EC0               	movwf	((c:4032)),c	;volatile
   217                           	line	174
   218                           ;main.c: 174: adc_num = 0;
   219  013184  0E00               	movlw	low(0)
   220  013186  6E2E               	movwf	((c:46)),c	;volatile
   221                           	line	177
   222                           ;main.c: 177: TRISA = 0b10101111;
   223  013188  0EAF               	movlw	low(0AFh)
   224  01318A  6E92               	movwf	((c:3986)),c	;volatile
   225                           	line	178
   226                           ;main.c: 178: TRISB = 0b00010010;
   227  01318C  0E12               	movlw	low(012h)
   228  01318E  6E93               	movwf	((c:3987)),c	;volatile
   229                           	line	179
   230                           ;main.c: 179: TRISC = 0b10000000;
   231  013190  0E80               	movlw	low(080h)
   232  013192  6E94               	movwf	((c:3988)),c	;volatile
   233                           	line	201
   234                           ;main.c: 201: SPBRGH = (((8000000L/19200UL)/16) 
                                 - 1) >> 8;
   235  013194  0E00               	movlw	low(0)
   236  013196  6EB0               	movwf	((c:4016)),c	;volatile
   237                           	line	202
   238                           ;main.c: 202: SPBRG = (((8000000L/19200UL)/16) -
                                  1);
   239  013198  0E19               	movlw	low(019h)
   240  01319A  6EAF               	movwf	((c:4015)),c	;volatile
   241                           	line	203
   242                           ;main.c: 203: BAUDCON = 0b00001000;
   243  01319C  0E08               	movlw	low(08h)
   244  01319E  6EB8               	movwf	((c:4024)),c	;volatile
   245                           	line	204
   246                           ;main.c: 204: RCSTA = 0b10010000;
   247  0131A0  0E90               	movlw	low(090h)
   248  0131A2  6EAB               	movwf	((c:4011)),c	;volatile
   249                           	line	205
   250                           ;main.c: 205: TXSTA = 0b00100000;
   251  0131A4  0E20               	movlw	low(020h)
   252  0131A6  6EAC               	movwf	((c:4012)),c	;volatile
   253                           	line	208
   254                           ;main.c: 208: while (1) {
   255                           	
   256  0131A8                     l869:		; BSR set to: ?
   257                           
   258                           	line	209
   259                           ;main.c: 209: TXREG = 'a';
   260  0131A8  0E61               	movlw	low(061h)
   261  0131AA  6EAD               	movwf	((c:4013)),c	;volatile
   262                           	line	210
   263                           ;main.c: 210: while ((PIR1 & 0b00010000) ==0);
   264  0131AC  EFD8  F098         	goto	l871
   265                           	
   266  0131B0                     l871:		; BSR set to: ?
   267                           
   268                           	
   269  0131B0  A89E               	btfss	((c:3998)),c,(4)&7	;volatile
   270  0131B2  EFDD  F098         	goto	u5211
   271  0131B6  EFDF  F098         	goto	u5210
   272  0131BA                     u5211:
   273  0131BA  EFD8  F098         	goto	l871
   274  0131BE                     u5210:
   275                           	
   276  0131BE                     l873:		; BSR set to: ?
   277                           
   278                           	line	211
   279                           ;main.c: 211: TXREG = 'b';
   280  0131BE  0E62               	movlw	low(062h)
   281  0131C0  6EAD               	movwf	((c:4013)),c	;volatile
   282                           	line	212
   283                           ;main.c: 212: while ((PIR1 & 0b00010000) ==0);
   284  0131C2  EFE3  F098         	goto	l874
   285                           	
   286  0131C6                     l874:		; BSR set to: ?
   287                           
   288                           	
   289  0131C6  A89E               	btfss	((c:3998)),c,(4)&7	;volatile
   290  0131C8  EFE8  F098         	goto	u5221
   291  0131CC  EFEA  F098         	goto	u5220
   292  0131D0                     u5221:
   293  0131D0  EFE3  F098         	goto	l874
   294  0131D4                     u5220:
   295                           	
   296  0131D4                     l876:		; BSR set to: ?
   297                           
   298                           	line	213
   299                           	
   300  0131D4                     l868:		; BSR set to: ?
   301                           
   302                           	line	208
   303  0131D4  EFD4  F098         	goto	l869
   304                           	line	221
   305                           	
   306  0131D8                     l881:		; BSR set to: ?
   307                           
   308                           	line	223
   309                           ;main.c: 223: continue;
   310  0131D8  EFEE  F098         	goto	l880
   311                           	line	224
   312                           	
   313  0131DC                     l880:		; BSR set to: ?
   314                           
   315                           	line	221
   316  0131DC  502F               	movf	((c:47)),c,w
   317  0131DE  B4D8               	btfsc	status,2
   318  0131E0  EFF4  F098         	goto	u5231
   319  0131E4  EFF6  F098         	goto	u5230
   320  0131E8                     u5231:
   321  0131E8  EFEC  F098         	goto	l881
   322  0131EC                     u5230:
   323                           	
   324  0131EC                     l882:		; BSR set to: ?
   325                           
   326                           	line	225
   327                           ;main.c: 224: }
   328                           ;main.c: 225: int result = cur_inputs[index];
   329  0131EC  90D8               	bcf	status,0
   330  0131EE  3428               	rlcf	((c:40)),c,w
   331  0131F0  0101               	movlb	1	; () banked
   332  0131F2  6F07               	movwf	(??_main+3+0)&0ffh
   333  0131F4  0E1A               	movlw	low((c:26))
   334  0131F6  0101               	movlb	1	; () banked
   335  0131F8  2507               	addwf	(??_main+3+0)&0ffh,w
   336  0131FA  6EE9               	movwf	c:fsr0l
   337  0131FC  6AEA               	clrf	1+c:fsr0l
   338  0131FE  0E00               	movlw	high((c:26))
   339  013200  22EA               	addwfc	1+c:fsr0l
   340  013202  0101               	movlb	1	; () banked
   341  013204  CFEE F105          	movff	postinc0,(main@result)
   342  013208  0101               	movlb	1	; () banked
   343  01320A  CFED F106          	movff	postdec0,(main@result+1)
   344                           	line	226
   345                           ;main.c: 226: char channel = index;
   346  01320E  C028 F104          	movff	(c:40),(main@channel)
   347                           	line	229
   348                           	
   349  013212                     l877:		; BSR set to: ?
   350                           
   351                           	line	216
   352                           	
   353  013212                     l879:		; BSR set to: ?
   354                           
   355                           	line	237
   356                           ;main.c: 229: }
   357                           ;main.c: 237: }
   358  013212                     l867:
   359                           			; BSR set to: ?
   360                           
   361                           	global	start
   362  013212  EF00  F000         	goto	start
   363                           	opt stack 0
   364                           GLOBAL __end_of_main
   365  013216                     	__end_of_main:
   366                           	FNSIZE	_main,4,4
   367                           ; =============== function _main ends ==========
                                 ==
   368                           
   369                           	signat	_main,8314
   370                           	global	_ToggleLeds
   371                           	global	??_ToggleLeds
   372                           	global	?_ToggleLeds
   373                           
   374                           ; *************** function _ToggleLeds *********
                                 ********
   375                           ; Defined at:
   376                           ;		line 247 in file "../code/main.c"
   377                           ; Parameters:
   378                           ;		None
   379                           ; Auto variables:
   380                           ;		None
   381                           ; Return value:
   382                           ;		type: void 
   383                           ;		size: 0
   384                           ; Registers used:
   385                           ;		wreg, status,2, status,0
   386                           ; Tracked objects:
   387                           ;		On entry : 0/0
   388                           ;		On exit  : 0/0
   389                           ;		Unchanged: 0/0
   390                           ; Data sizes:
   391                           ;		Autos:    0
   392                           ;		Params:   0
   393                           ;		Temp:     0
   394                           ;		Total:    0
   395                           ; This function calls:
   396                           ;		Nothing
   397                           ; This function is called by:
   398                           ;		_main
   399                           ; This function uses a non-reentrant model
   400                           ; 
   401                                   psect   text1,class=CODE,space=0,reloc=2
   402                           
   403                           	opt lm
   404                           	file	"../code/main.c"
   405                           	line	247
   406  000000                     	__size_of_ToggleLeds	equ	__end_of_ToggleLeds-_T
                                 oggleLeds
   407                           ;main.c: 247: void ToggleLeds () {
   408                           	
   409  013216                     _ToggleLeds:		; BSR set to: ?
   410                           
   411                           	opt stack 30
   412                           	line	252
   413  013216  0408               	decf	(0+((c:0)+08h)),c,w
   414  013218  1009               	iorwf (1+((c:0)+08h)),c,w
   415                           
   416  01321A  A4D8               	btfss	status,2
   417  01321C  EF12  F099         	goto	u3741
   418  013220  EF14  F099         	goto	u3740
   419+ 013224                     u3741:
   420+ 013224  EF2E  F099         	goto	l884
   421  013228                     u3740:
   422  013228  040A               	decf	(0+((c:0)+0Ah)),c,w
   423  01322A  100B               	iorwf (1+((c:0)+0Ah)),c,w
   424                           
   425  01322C  A4D8               	btfss	status,2
   426  01322E  EF1B  F099         	goto	u3751
   427  013232  EF1D  F099         	goto	u3750
   428  013236                     u3751:
   429  013236  EF2E  F099         	goto	l884
   430  01323A                     u3750:
   431  01323A  040C               	decf	(0+((c:0)+0Ch)),c,w
   432  01323C  100D               	iorwf (1+((c:0)+0Ch)),c,w
   433                           
   434  01323E  A4D8               	btfss	status,2
   435  013240  EF24  F099         	goto	u3761
   436  013244  EF26  F099         	goto	u3760
   437  013248                     u3761:
   438  013248  EF2E  F099         	goto	l884
   439  01324C                     u3760:
   440                           	line	255
   441                           ;main.c: 255: LATA = 0b11101111;
   442  01324C  0EEF               	movlw	low(0EFh)
   443  01324E  6E89               	movwf	((c:3977)),c	;volatile
   444                           	line	257
   445                           ;main.c: 257: LATB = 0b11100000;
   446  013250  0EE0               	movlw	low(0E0h)
   447  013252  6E8A               	movwf	((c:3978)),c	;volatile
   448                           	line	259
   449                           ;main.c: 259: LATC = 0b00001111;
   450  013254  0E0F               	movlw	low(0Fh)
   451  013256  6E8B               	movwf	((c:3979)),c	;volatile
   452                           	line	260
   453                           ;main.c: 260: } else if (led_array[4] == 1 && le
                                 d_array[5] == 1 && led_array[7] == 1) {
   454  013258  EFFF  F09F         	goto	l885
   455                           	
   456  01325C                     l884:		; BSR set to: ?
   457                           
   458  01325C  0408               	decf	(0+((c:0)+08h)),c,w
   459  01325E  1009               	iorwf (1+((c:0)+08h)),c,w
   460                           
   461  013260  A4D8               	btfss	status,2
   462  013262  EF35  F099         	goto	u3771
   463  013266  EF37  F099         	goto	u3770
   464  01326A                     u3771:
   465  01326A  EF51  F099         	goto	l886
   466  01326E                     u3770:
   467  01326E  040A               	decf	(0+((c:0)+0Ah)),c,w
   468  013270  100B               	iorwf (1+((c:0)+0Ah)),c,w
   469                           
   470  013272  A4D8               	btfss	status,2
   471  013274  EF3E  F099         	goto	u3781
   472  013278  EF40  F099         	goto	u3780
   473  01327C                     u3781:
   474  01327C  EF51  F099         	goto	l886
   475  013280                     u3780:
   476  013280  040E               	decf	(0+((c:0)+0Eh)),c,w
   477  013282  100F               	iorwf (1+((c:0)+0Eh)),c,w
   478                           
   479  013284  A4D8               	btfss	status,2
   480  013286  EF47  F099         	goto	u3791
   481  01328A  EF49  F099         	goto	u3790
   482  01328E                     u3791:
   483  01328E  EF51  F099         	goto	l886
   484  013292                     u3790:
   485                           	line	263
   486                           ;main.c: 263: LATA = 0b10111111;
   487  013292  0EBF               	movlw	low(0BFh)
   488  013294  6E89               	movwf	((c:3977)),c	;volatile
   489                           	line	265
   490                           ;main.c: 265: LATB = 0b11100000;
   491  013296  0EE0               	movlw	low(0E0h)
   492  013298  6E8A               	movwf	((c:3978)),c	;volatile
   493                           	line	267
   494                           ;main.c: 267: LATC = 0b00001111;
   495  01329A  0E0F               	movlw	low(0Fh)
   496  01329C  6E8B               	movwf	((c:3979)),c	;volatile
   497                           	line	268
   498                           ;main.c: 268: } else if (led_array[4] == 1 && le
                                 d_array[5] == 1 && led_array[8] == 1) {
   499  01329E  EFFF  F09F         	goto	l885
   500                           	
   501  0132A2                     l886:		; BSR set to: ?
   502                           
   503  0132A2  0408               	decf	(0+((c:0)+08h)),c,w
   504  0132A4  1009               	iorwf (1+((c:0)+08h)),c,w
   505                           
   506  0132A6  A4D8               	btfss	status,2
   507  0132A8  EF58  F099         	goto	u3801
   508  0132AC  EF5A  F099         	goto	u3800
   509  0132B0                     u3801:
   510  0132B0  EF73  F099         	goto	l888
   511  0132B4                     u3800:
   512  0132B4  040A               	decf	(0+((c:0)+0Ah)),c,w
   513  0132B6  100B               	iorwf (1+((c:0)+0Ah)),c,w
   514                           
   515  0132B8  A4D8               	btfss	status,2
   516  0132BA  EF61  F099         	goto	u3811
   517  0132BE  EF63  F099         	goto	u3810
   518  0132C2                     u3811:
   519  0132C2  EF73  F099         	goto	l888
   520  0132C6                     u3810:
   521  0132C6  0410               	decf	(0+((c:0)+010h)),c,w
   522  0132C8  1011               	iorwf (1+((c:0)+010h)),c,w
   523                           
   524  0132CA  A4D8               	btfss	status,2
   525  0132CC  EF6A  F099         	goto	u3821
   526  0132D0  EF6C  F099         	goto	u3820
   527  0132D4                     u3821:
   528  0132D4  EF73  F099         	goto	l888
   529  0132D8                     u3820:
   530                           	line	271
   531                           ;main.c: 271: LATA = 0b11111111;
   532  0132D8  6889               	setf	((c:3977)),c	;volatile
   533                           	line	273
   534                           ;main.c: 273: LATB = 0b11100000;
   535  0132DA  0EE0               	movlw	low(0E0h)
   536  0132DC  6E8A               	movwf	((c:3978)),c	;volatile
   537                           	line	275
   538                           ;main.c: 275: LATC = 0b00001110;
   539  0132DE  0E0E               	movlw	low(0Eh)
   540  0132E0  6E8B               	movwf	((c:3979)),c	;volatile
   541                           	line	276
   542                           ;main.c: 276: } else if (led_array[4] == 1 && le
                                 d_array[5] == 1 && led_array[9] == 1) {
   543  0132E2  EFFF  F09F         	goto	l885
   544                           	
   545  0132E6                     l888:		; BSR set to: ?
   546                           
   547  0132E6  0408               	decf	(0+((c:0)+08h)),c,w
   548  0132E8  1009               	iorwf (1+((c:0)+08h)),c,w
   549                           
   550  0132EA  A4D8               	btfss	status,2
   551  0132EC  EF7A  F099         	goto	u3831
   552  0132F0  EF7C  F099         	goto	u3830
   553  0132F4                     u3831:
   554  0132F4  EF95  F099         	goto	l890
   555  0132F8                     u3830:
   556  0132F8  040A               	decf	(0+((c:0)+0Ah)),c,w
   557  0132FA  100B               	iorwf (1+((c:0)+0Ah)),c,w
   558                           
   559  0132FC  A4D8               	btfss	status,2
   560  0132FE  EF83  F099         	goto	u3841
   561  013302  EF85  F099         	goto	u3840
   562  013306                     u3841:
   563  013306  EF95  F099         	goto	l890
   564  01330A                     u3840:
   565  01330A  0412               	decf	(0+((c:0)+012h)),c,w
   566  01330C  1013               	iorwf (1+((c:0)+012h)),c,w
   567                           
   568  01330E  A4D8               	btfss	status,2
   569  013310  EF8C  F099         	goto	u3851
   570  013314  EF8E  F099         	goto	u3850
   571  013318                     u3851:
   572  013318  EF95  F099         	goto	l890
   573  01331C                     u3850:
   574                           	line	279
   575                           ;main.c: 279: LATA = 0b11111111;
   576  01331C  6889               	setf	((c:3977)),c	;volatile
   577                           	line	281
   578                           ;main.c: 281: LATB = 0b11100000;
   579  01331E  0EE0               	movlw	low(0E0h)
   580  013320  6E8A               	movwf	((c:3978)),c	;volatile
   581                           	line	283
   582                           ;main.c: 283: LATC = 0b00001101;
   583  013322  0E0D               	movlw	low(0Dh)
   584  013324  6E8B               	movwf	((c:3979)),c	;volatile
   585                           	line	284
   586                           ;main.c: 284: } else if (led_array[4] == 1 && le
                                 d_array[5] == 1 && led_array[10] == 1) {
   587  013326  EFFF  F09F         	goto	l885
   588                           	
   589  01332A                     l890:		; BSR set to: ?
   590                           
   591  01332A  0408               	decf	(0+((c:0)+08h)),c,w
   592  01332C  1009               	iorwf (1+((c:0)+08h)),c,w
   593                           
   594  01332E  A4D8               	btfss	status,2
   595  013330  EF9C  F099         	goto	u3861
   596  013334  EF9E  F099         	goto	u3860
   597  013338                     u3861:
   598  013338  EFB7  F099         	goto	l892
   599  01333C                     u3860:
   600  01333C  040A               	decf	(0+((c:0)+0Ah)),c,w
   601  01333E  100B               	iorwf (1+((c:0)+0Ah)),c,w
   602                           
   603  013340  A4D8               	btfss	status,2
   604  013342  EFA5  F099         	goto	u3871
   605  013346  EFA7  F099         	goto	u3870
   606  01334A                     u3871:
   607  01334A  EFB7  F099         	goto	l892
   608  01334E                     u3870:
   609  01334E  0414               	decf	(0+((c:0)+014h)),c,w
   610  013350  1015               	iorwf (1+((c:0)+014h)),c,w
   611                           
   612  013352  A4D8               	btfss	status,2
   613  013354  EFAE  F099         	goto	u3881
   614  013358  EFB0  F099         	goto	u3880
   615  01335C                     u3881:
   616  01335C  EFB7  F099         	goto	l892
   617  013360                     u3880:
   618                           	line	287
   619                           ;main.c: 287: LATA = 0b11111111;
   620  013360  6889               	setf	((c:3977)),c	;volatile
   621                           	line	289
   622                           ;main.c: 289: LATB = 0b01100000;
   623  013362  0E60               	movlw	low(060h)
   624  013364  6E8A               	movwf	((c:3978)),c	;volatile
   625                           	line	291
   626                           ;main.c: 291: LATC = 0b00001111;
   627  013366  0E0F               	movlw	low(0Fh)
   628  013368  6E8B               	movwf	((c:3979)),c	;volatile
   629                           	line	292
   630                           ;main.c: 292: } else if (led_array[4] == 1 && le
                                 d_array[5] == 1 && led_array[11] == 1) {
   631  01336A  EFFF  F09F         	goto	l885
   632                           	
   633  01336E                     l892:		; BSR set to: ?
   634                           
   635  01336E  0408               	decf	(0+((c:0)+08h)),c,w
   636  013370  1009               	iorwf (1+((c:0)+08h)),c,w
   637                           
   638  013372  A4D8               	btfss	status,2
   639  013374  EFBE  F099         	goto	u3891
   640  013378  EFC0  F099         	goto	u3890
   641  01337C                     u3891:
   642  01337C  EFD9  F099         	goto	l894
   643  013380                     u3890:
   644  013380  040A               	decf	(0+((c:0)+0Ah)),c,w
   645  013382  100B               	iorwf (1+((c:0)+0Ah)),c,w
   646                           
   647  013384  A4D8               	btfss	status,2
   648  013386  EFC7  F099         	goto	u3901
   649  01338A  EFC9  F099         	goto	u3900
   650  01338E                     u3901:
   651  01338E  EFD9  F099         	goto	l894
   652  013392                     u3900:
   653  013392  0416               	decf	(0+((c:0)+016h)),c,w
   654  013394  1017               	iorwf (1+((c:0)+016h)),c,w
   655                           
   656  013396  A4D8               	btfss	status,2
   657  013398  EFD0  F099         	goto	u3911
   658  01339C  EFD2  F099         	goto	u3910
   659  0133A0                     u3911:
   660  0133A0  EFD9  F099         	goto	l894
   661  0133A4                     u3910:
   662                           	line	295
   663                           ;main.c: 295: LATA = 0b11111111;
   664  0133A4  6889               	setf	((c:3977)),c	;volatile
   665                           	line	297
   666                           ;main.c: 297: LATB = 0b11100000;
   667  0133A6  0EE0               	movlw	low(0E0h)
   668  0133A8  6E8A               	movwf	((c:3978)),c	;volatile
   669                           	line	299
   670                           ;main.c: 299: LATC = 0b00001011;
   671  0133AA  0E0B               	movlw	low(0Bh)
   672  0133AC  6E8B               	movwf	((c:3979)),c	;volatile
   673                           	line	300
   674                           ;main.c: 300: } else if (led_array[4] == 1 && le
                                 d_array[5] == 1 && led_array[12] == 1) {
   675  0133AE  EFFF  F09F         	goto	l885
   676                           	
   677  0133B2                     l894:		; BSR set to: ?
   678                           
   679  0133B2  0408               	decf	(0+((c:0)+08h)),c,w
   680  0133B4  1009               	iorwf (1+((c:0)+08h)),c,w
   681                           
   682  0133B6  A4D8               	btfss	status,2
   683  0133B8  EFE0  F099         	goto	u3921
   684  0133BC  EFE2  F099         	goto	u3920
   685  0133C0                     u3921:
   686  0133C0  EFFB  F099         	goto	l896
   687  0133C4                     u3920:
   688  0133C4  040A               	decf	(0+((c:0)+0Ah)),c,w
   689  0133C6  100B               	iorwf (1+((c:0)+0Ah)),c,w
   690                           
   691  0133C8  A4D8               	btfss	status,2
   692  0133CA  EFE9  F099         	goto	u3931
   693  0133CE  EFEB  F099         	goto	u3930
   694  0133D2                     u3931:
   695  0133D2  EFFB  F099         	goto	l896
   696  0133D6                     u3930:
   697  0133D6  0418               	decf	(0+((c:0)+018h)),c,w
   698  0133D8  1019               	iorwf (1+((c:0)+018h)),c,w
   699                           
   700  0133DA  A4D8               	btfss	status,2
   701  0133DC  EFF2  F099         	goto	u3941
   702  0133E0  EFF4  F099         	goto	u3940
   703  0133E4                     u3941:
   704  0133E4  EFFB  F099         	goto	l896
   705  0133E8                     u3940:
   706                           	line	303
   707                           ;main.c: 303: LATA = 0b11111111;
   708  0133E8  6889               	setf	((c:3977)),c	;volatile
   709                           	line	305
   710                           ;main.c: 305: LATB = 0b11100000;
   711  0133EA  0EE0               	movlw	low(0E0h)
   712  0133EC  6E8A               	movwf	((c:3978)),c	;volatile
   713                           	line	307
   714                           ;main.c: 307: LATC = 0b00000111;
   715  0133EE  0E07               	movlw	low(07h)
   716  0133F0  6E8B               	movwf	((c:3979)),c	;volatile
   717                           	line	309
   718                           ;main.c: 309: } else if (led_array[4] == 1 && le
                                 d_array[6] == 1) {
   719  0133F2  EFFF  F09F         	goto	l885
   720                           	
   721  0133F6                     l896:		; BSR set to: ?
   722                           
   723  0133F6  0408               	decf	(0+((c:0)+08h)),c,w
   724  0133F8  1009               	iorwf (1+((c:0)+08h)),c,w
   725                           
   726  0133FA  A4D8               	btfss	status,2
   727  0133FC  EF02  F09A         	goto	u3951
   728  013400  EF04  F09A         	goto	u3950
   729  013404                     u3951:
   730  013404  EF15  F09A         	goto	l898
   731  013408                     u3950:
   732  013408  040C               	decf	(0+((c:0)+0Ch)),c,w
   733  01340A  100D               	iorwf (1+((c:0)+0Ch)),c,w
   734                           
   735  01340C  A4D8               	btfss	status,2
   736  01340E  EF0B  F09A         	goto	u3961
   737  013412  EF0D  F09A         	goto	u3960
   738  013416                     u3961:
   739  013416  EF15  F09A         	goto	l898
   740  01341A                     u3960:
   741                           	line	312
   742                           ;main.c: 312: LATA = 0b11101111;
   743  01341A  0EEF               	movlw	low(0EFh)
   744  01341C  6E89               	movwf	((c:3977)),c	;volatile
   745                           	line	314
   746                           ;main.c: 314: LATB = 0b11000000;
   747  01341E  0EC0               	movlw	low(0C0h)
   748  013420  6E8A               	movwf	((c:3978)),c	;volatile
   749                           	line	316
   750                           ;main.c: 316: LATC = 0b00001111;
   751  013422  0E0F               	movlw	low(0Fh)
   752  013424  6E8B               	movwf	((c:3979)),c	;volatile
   753                           	line	317
   754                           ;main.c: 317: } else if (led_array[4] == 1 && le
                                 d_array[7] == 1) {
   755  013426  EFFF  F09F         	goto	l885
   756                           	
   757  01342A                     l898:		; BSR set to: ?
   758                           
   759  01342A  0408               	decf	(0+((c:0)+08h)),c,w
   760  01342C  1009               	iorwf (1+((c:0)+08h)),c,w
   761                           
   762  01342E  A4D8               	btfss	status,2
   763  013430  EF1C  F09A         	goto	u3971
   764  013434  EF1E  F09A         	goto	u3970
   765  013438                     u3971:
   766  013438  EF2F  F09A         	goto	l900
   767  01343C                     u3970:
   768  01343C  040E               	decf	(0+((c:0)+0Eh)),c,w
   769  01343E  100F               	iorwf (1+((c:0)+0Eh)),c,w
   770                           
   771  013440  A4D8               	btfss	status,2
   772  013442  EF25  F09A         	goto	u3981
   773  013446  EF27  F09A         	goto	u3980
   774  01344A                     u3981:
   775  01344A  EF2F  F09A         	goto	l900
   776  01344E                     u3980:
   777                           	line	320
   778                           ;main.c: 320: LATA = 0b10111111;
   779  01344E  0EBF               	movlw	low(0BFh)
   780  013450  6E89               	movwf	((c:3977)),c	;volatile
   781                           	line	322
   782                           ;main.c: 322: LATB = 0b11000000;
   783  013452  0EC0               	movlw	low(0C0h)
   784  013454  6E8A               	movwf	((c:3978)),c	;volatile
   785                           	line	324
   786                           ;main.c: 324: LATC = 0b00001111;
   787  013456  0E0F               	movlw	low(0Fh)
   788  013458  6E8B               	movwf	((c:3979)),c	;volatile
   789                           	line	325
   790                           ;main.c: 325: } else if (led_array[4] == 1 && le
                                 d_array[8] == 1) {
   791  01345A  EFFF  F09F         	goto	l885
   792                           	
   793  01345E                     l900:		; BSR set to: ?
   794                           
   795  01345E  0408               	decf	(0+((c:0)+08h)),c,w
   796  013460  1009               	iorwf (1+((c:0)+08h)),c,w
   797                           
   798  013462  A4D8               	btfss	status,2
   799  013464  EF36  F09A         	goto	u3991
   800  013468  EF38  F09A         	goto	u3990
   801  01346C                     u3991:
   802  01346C  EF48  F09A         	goto	l902
   803  013470                     u3990:
   804  013470  0410               	decf	(0+((c:0)+010h)),c,w
   805  013472  1011               	iorwf (1+((c:0)+010h)),c,w
   806                           
   807  013474  A4D8               	btfss	status,2
   808  013476  EF3F  F09A         	goto	u4001
   809  01347A  EF41  F09A         	goto	u4000
   810  01347E                     u4001:
   811  01347E  EF48  F09A         	goto	l902
   812  013482                     u4000:
   813                           	line	328
   814                           ;main.c: 328: LATA = 0b11111111;
   815  013482  6889               	setf	((c:3977)),c	;volatile
   816                           	line	330
   817                           ;main.c: 330: LATB = 0b11000000;
   818  013484  0EC0               	movlw	low(0C0h)
   819  013486  6E8A               	movwf	((c:3978)),c	;volatile
   820                           	line	332
   821                           ;main.c: 332: LATC = 0b00001110;
   822  013488  0E0E               	movlw	low(0Eh)
   823  01348A  6E8B               	movwf	((c:3979)),c	;volatile
   824                           	line	333
   825                           ;main.c: 333: } else if (led_array[4] == 1 && le
                                 d_array[9] == 1) {
   826  01348C  EFFF  F09F         	goto	l885
   827                           	
   828  013490                     l902:		; BSR set to: ?
   829                           
   830  013490  0408               	decf	(0+((c:0)+08h)),c,w
   831  013492  1009               	iorwf (1+((c:0)+08h)),c,w
   832                           
   833  013494  A4D8               	btfss	status,2
   834  013496  EF4F  F09A         	goto	u4011
   835  01349A  EF51  F09A         	goto	u4010
   836  01349E                     u4011:
   837  01349E  EF61  F09A         	goto	l904
   838  0134A2                     u4010:
   839  0134A2  0412               	decf	(0+((c:0)+012h)),c,w
   840  0134A4  1013               	iorwf (1+((c:0)+012h)),c,w
   841                           
   842  0134A6  A4D8               	btfss	status,2
   843  0134A8  EF58  F09A         	goto	u4021
   844  0134AC  EF5A  F09A         	goto	u4020
   845  0134B0                     u4021:
   846  0134B0  EF61  F09A         	goto	l904
   847  0134B4                     u4020:
   848                           	line	336
   849                           ;main.c: 336: LATA = 0b11111111;
   850  0134B4  6889               	setf	((c:3977)),c	;volatile
   851                           	line	338
   852                           ;main.c: 338: LATB = 0b11000000;
   853  0134B6  0EC0               	movlw	low(0C0h)
   854  0134B8  6E8A               	movwf	((c:3978)),c	;volatile
   855                           	line	340
   856                           ;main.c: 340: LATC = 0b00001101;
   857  0134BA  0E0D               	movlw	low(0Dh)
   858  0134BC  6E8B               	movwf	((c:3979)),c	;volatile
   859                           	line	342
   860                           ;main.c: 342: } else if (led_array[4] == 1 && le
                                 d_array[10] == 1) {
   861  0134BE  EFFF  F09F         	goto	l885
   862                           	
   863  0134C2                     l904:		; BSR set to: ?
   864                           
   865  0134C2  0408               	decf	(0+((c:0)+08h)),c,w
   866  0134C4  1009               	iorwf (1+((c:0)+08h)),c,w
   867                           
   868  0134C6  A4D8               	btfss	status,2
   869  0134C8  EF68  F09A         	goto	u4031
   870  0134CC  EF6A  F09A         	goto	u4030
   871  0134D0                     u4031:
   872  0134D0  EF7A  F09A         	goto	l906
   873  0134D4                     u4030:
   874  0134D4  0414               	decf	(0+((c:0)+014h)),c,w
   875  0134D6  1015               	iorwf (1+((c:0)+014h)),c,w
   876                           
   877  0134D8  A4D8               	btfss	status,2
   878  0134DA  EF71  F09A         	goto	u4041
   879  0134DE  EF73  F09A         	goto	u4040
   880  0134E2                     u4041:
   881  0134E2  EF7A  F09A         	goto	l906
   882  0134E6                     u4040:
   883                           	line	345
   884                           ;main.c: 345: LATA = 0b11111111;
   885  0134E6  6889               	setf	((c:3977)),c	;volatile
   886                           	line	347
   887                           ;main.c: 347: LATB = 0b01000000;
   888  0134E8  0E40               	movlw	low(040h)
   889  0134EA  6E8A               	movwf	((c:3978)),c	;volatile
   890                           	line	349
   891                           ;main.c: 349: LATC = 0b00001111;
   892  0134EC  0E0F               	movlw	low(0Fh)
   893  0134EE  6E8B               	movwf	((c:3979)),c	;volatile
   894                           	line	351
   895                           ;main.c: 351: } else if (led_array[4] == 1 && le
                                 d_array[11] == 1) {
   896  0134F0  EFFF  F09F         	goto	l885
   897                           	
   898  0134F4                     l906:		; BSR set to: ?
   899                           
   900  0134F4  0408               	decf	(0+((c:0)+08h)),c,w
   901  0134F6  1009               	iorwf (1+((c:0)+08h)),c,w
   902+                          
   903+ 0134F8  A4D8               	btfss	status,2
   904+ 0134FA  EF81  F09A         	goto	u4051
   905  0134FE  EF83  F09A         	goto	u4050
   906  013502                     u4051:
   907  013502  EF93  F09A         	goto	l908
   908  013506                     u4050:
   909  013506  0416               	decf	(0+((c:0)+016h)),c,w
   910  013508  1017               	iorwf (1+((c:0)+016h)),c,w
   911                           
   912  01350A  A4D8               	btfss	status,2
   913  01350C  EF8A  F09A         	goto	u4061
   914  013510  EF8C  F09A         	goto	u4060
   915  013514                     u4061:
   916  013514  EF93  F09A         	goto	l908
   917  013518                     u4060:
   918                           	line	354
   919                           ;main.c: 354: LATA = 0b11111111;
   920  013518  6889               	setf	((c:3977)),c	;volatile
   921                           	line	356
   922                           ;main.c: 356: LATB = 0b11000000;
   923  01351A  0EC0               	movlw	low(0C0h)
   924  01351C  6E8A               	movwf	((c:3978)),c	;volatile
   925                           	line	358
   926                           ;main.c: 358: LATC = 0b00001011;
   927  01351E  0E0B               	movlw	low(0Bh)
   928  013520  6E8B               	movwf	((c:3979)),c	;volatile
   929                           	line	360
   930                           ;main.c: 360: } else if (led_array[4] == 1 && le
                                 d_array[12] == 1) {
   931  013522  EFFF  F09F         	goto	l885
   932                           	
   933  013526                     l908:		; BSR set to: ?
   934                           
   935  013526  0408               	decf	(0+((c:0)+08h)),c,w
   936  013528  1009               	iorwf (1+((c:0)+08h)),c,w
   937                           
   938  01352A  A4D8               	btfss	status,2
   939  01352C  EF9A  F09A         	goto	u4071
   940  013530  EF9C  F09A         	goto	u4070
   941  013534                     u4071:
   942  013534  EFAC  F09A         	goto	l910
   943  013538                     u4070:
   944  013538  0418               	decf	(0+((c:0)+018h)),c,w
   945  01353A  1019               	iorwf (1+((c:0)+018h)),c,w
   946                           
   947  01353C  A4D8               	btfss	status,2
   948  01353E  EFA3  F09A         	goto	u4081
   949  013542  EFA5  F09A         	goto	u4080
   950  013546                     u4081:
   951  013546  EFAC  F09A         	goto	l910
   952  01354A                     u4080:
   953                           	line	363
   954                           ;main.c: 363: LATA = 0b11111111;
   955  01354A  6889               	setf	((c:3977)),c	;volatile
   956                           	line	365
   957                           ;main.c: 365: LATB = 0b11000000;
   958  01354C  0EC0               	movlw	low(0C0h)
   959  01354E  6E8A               	movwf	((c:3978)),c	;volatile
   960                           	line	367
   961                           ;main.c: 367: LATC = 0b00000111;
   962  013550  0E07               	movlw	low(07h)
   963  013552  6E8B               	movwf	((c:3979)),c	;volatile
   964                           	line	369
   965                           ;main.c: 369: } else if (led_array[5] == 1 && le
                                 d_array[6] == 1) {
   966  013554  EFFF  F09F         	goto	l885
   967                           	
   968  013558                     l910:		; BSR set to: ?
   969                           
   970  013558  040A               	decf	(0+((c:0)+0Ah)),c,w
   971  01355A  100B               	iorwf (1+((c:0)+0Ah)),c,w
   972                           
   973  01355C  A4D8               	btfss	status,2
   974  01355E  EFB3  F09A         	goto	u4091
   975  013562  EFB5  F09A         	goto	u4090
   976  013566                     u4091:
   977  013566  EFC6  F09A         	goto	l912
   978  01356A                     u4090:
   979  01356A  040C               	decf	(0+((c:0)+0Ch)),c,w
   980  01356C  100D               	iorwf (1+((c:0)+0Ch)),c,w
   981                           
   982  01356E  A4D8               	btfss	status,2
   983  013570  EFBC  F09A         	goto	u4101
   984  013574  EFBE  F09A         	goto	u4100
   985  013578                     u4101:
   986  013578  EFC6  F09A         	goto	l912
   987  01357C                     u4100:
   988                           	line	372
   989                           ;main.c: 372: LATA = 0b11101111;
   990  01357C  0EEF               	movlw	low(0EFh)
   991  01357E  6E89               	movwf	((c:3977)),c	;volatile
   992                           	line	374
   993                           ;main.c: 374: LATB = 0b10100000;
   994  013580  0EA0               	movlw	low(0A0h)
   995  013582  6E8A               	movwf	((c:3978)),c	;volatile
   996                           	line	376
   997                           ;main.c: 376: LATC = 0b00001111;
   998  013584  0E0F               	movlw	low(0Fh)
   999  013586  6E8B               	movwf	((c:3979)),c	;volatile
  1000                           	line	378
  1001                           ;main.c: 378: } else if (led_array[5] == 1 && le
                                 d_array[7] == 1) {
  1002  013588  EFFF  F09F         	goto	l885
  1003                           	
  1004  01358C                     l912:		; BSR set to: ?
  1005                           
  1006  01358C  040A               	decf	(0+((c:0)+0Ah)),c,w
  1007  01358E  100B               	iorwf (1+((c:0)+0Ah)),c,w
  1008                           
  1009  013590  A4D8               	btfss	status,2
  1010  013592  EFCD  F09A         	goto	u4111
  1011  013596  EFCF  F09A         	goto	u4110
  1012  01359A                     u4111:
  1013  01359A  EFE0  F09A         	goto	l914
  1014  01359E                     u4110:
  1015  01359E  040E               	decf	(0+((c:0)+0Eh)),c,w
  1016  0135A0  100F               	iorwf (1+((c:0)+0Eh)),c,w
  1017                           
  1018  0135A2  A4D8               	btfss	status,2
  1019  0135A4  EFD6  F09A         	goto	u4121
  1020  0135A8  EFD8  F09A         	goto	u4120
  1021  0135AC                     u4121:
  1022  0135AC  EFE0  F09A         	goto	l914
  1023  0135B0                     u4120:
  1024                           	line	381
  1025                           ;main.c: 381: LATA = 0b10111111;
  1026  0135B0  0EBF               	movlw	low(0BFh)
  1027  0135B2  6E89               	movwf	((c:3977)),c	;volatile
  1028                           	line	383
  1029                           ;main.c: 383: LATB = 0b10100000;
  1030  0135B4  0EA0               	movlw	low(0A0h)
  1031  0135B6  6E8A               	movwf	((c:3978)),c	;volatile
  1032                           	line	385
  1033                           ;main.c: 385: LATC = 0b00001111;
  1034  0135B8  0E0F               	movlw	low(0Fh)
  1035  0135BA  6E8B               	movwf	((c:3979)),c	;volatile
  1036                           	line	387
  1037                           ;main.c: 387: } else if (led_array[5] == 1 && le
                                 d_array[8] == 1) {
  1038  0135BC  EFFF  F09F         	goto	l885
  1039                           	
  1040  0135C0                     l914:		; BSR set to: ?
  1041                           
  1042  0135C0  040A               	decf	(0+((c:0)+0Ah)),c,w
  1043  0135C2  100B               	iorwf (1+((c:0)+0Ah)),c,w
  1044                           
  1045  0135C4  A4D8               	btfss	status,2
  1046  0135C6  EFE7  F09A         	goto	u4131
  1047  0135CA  EFE9  F09A         	goto	u4130
  1048  0135CE                     u4131:
  1049  0135CE  EFF9  F09A         	goto	l916
  1050  0135D2                     u4130:
  1051  0135D2  0410               	decf	(0+((c:0)+010h)),c,w
  1052  0135D4  1011               	iorwf (1+((c:0)+010h)),c,w
  1053                           
  1054  0135D6  A4D8               	btfss	status,2
  1055  0135D8  EFF0  F09A         	goto	u4141
  1056  0135DC  EFF2  F09A         	goto	u4140
  1057  0135E0                     u4141:
  1058  0135E0  EFF9  F09A         	goto	l916
  1059  0135E4                     u4140:
  1060                           	line	390
  1061                           ;main.c: 390: LATA = 0b11111111;
  1062  0135E4  6889               	setf	((c:3977)),c	;volatile
  1063                           	line	392
  1064                           ;main.c: 392: LATB = 0b10100000;
  1065  0135E6  0EA0               	movlw	low(0A0h)
  1066  0135E8  6E8A               	movwf	((c:3978)),c	;volatile
  1067                           	line	394
  1068                           ;main.c: 394: LATC = 0b00001110;
  1069  0135EA  0E0E               	movlw	low(0Eh)
  1070  0135EC  6E8B               	movwf	((c:3979)),c	;volatile
  1071                           	line	396
  1072                           ;main.c: 396: } else if (led_array[5] == 1 && le
                                 d_array[9] == 1) {
  1073  0135EE  EFFF  F09F         	goto	l885
  1074                           	
  1075  0135F2                     l916:		; BSR set to: ?
  1076                           
  1077  0135F2  040A               	decf	(0+((c:0)+0Ah)),c,w
  1078  0135F4  100B               	iorwf (1+((c:0)+0Ah)),c,w
  1079                           
  1080  0135F6  A4D8               	btfss	status,2
  1081  0135F8  EF00  F09B         	goto	u4151
  1082  0135FC  EF02  F09B         	goto	u4150
  1083  013600                     u4151:
  1084  013600  EF12  F09B         	goto	l918
  1085  013604                     u4150:
  1086  013604  0412               	decf	(0+((c:0)+012h)),c,w
  1087  013606  1013               	iorwf (1+((c:0)+012h)),c,w
  1088                           
  1089  013608  A4D8               	btfss	status,2
  1090  01360A  EF09  F09B         	goto	u4161
  1091  01360E  EF0B  F09B         	goto	u4160
  1092  013612                     u4161:
  1093  013612  EF12  F09B         	goto	l918
  1094  013616                     u4160:
  1095                           	line	399
  1096                           ;main.c: 399: LATA = 0b11111111;
  1097  013616  6889               	setf	((c:3977)),c	;volatile
  1098                           	line	401
  1099                           ;main.c: 401: LATB = 0b10100000;
  1100  013618  0EA0               	movlw	low(0A0h)
  1101  01361A  6E8A               	movwf	((c:3978)),c	;volatile
  1102                           	line	403
  1103                           ;main.c: 403: LATC = 0b00001101;
  1104  01361C  0E0D               	movlw	low(0Dh)
  1105  01361E  6E8B               	movwf	((c:3979)),c	;volatile
  1106                           	line	405
  1107                           ;main.c: 405: } else if (led_array[5] == 1 && le
                                 d_array[10] == 1) {
  1108  013620  EFFF  F09F         	goto	l885
  1109                           	
  1110  013624                     l918:		; BSR set to: ?
  1111                           
  1112  013624  040A               	decf	(0+((c:0)+0Ah)),c,w
  1113  013626  100B               	iorwf (1+((c:0)+0Ah)),c,w
  1114                           
  1115  013628  A4D8               	btfss	status,2
  1116  01362A  EF19  F09B         	goto	u4171
  1117  01362E  EF1B  F09B         	goto	u4170
  1118  013632                     u4171:
  1119  013632  EF2B  F09B         	goto	l920
  1120  013636                     u4170:
  1121  013636  0414               	decf	(0+((c:0)+014h)),c,w
  1122  013638  1015               	iorwf (1+((c:0)+014h)),c,w
  1123                           
  1124  01363A  A4D8               	btfss	status,2
  1125  01363C  EF22  F09B         	goto	u4181
  1126  013640  EF24  F09B         	goto	u4180
  1127  013644                     u4181:
  1128  013644  EF2B  F09B         	goto	l920
  1129  013648                     u4180:
  1130                           	line	408
  1131                           ;main.c: 408: LATA = 0b11111111;
  1132  013648  6889               	setf	((c:3977)),c	;volatile
  1133                           	line	410
  1134                           ;main.c: 410: LATB = 0b00100000;
  1135  01364A  0E20               	movlw	low(020h)
  1136  01364C  6E8A               	movwf	((c:3978)),c	;volatile
  1137                           	line	412
  1138                           ;main.c: 412: LATC = 0b00001111;
  1139  01364E  0E0F               	movlw	low(0Fh)
  1140  013650  6E8B               	movwf	((c:3979)),c	;volatile
  1141                           	line	414
  1142                           ;main.c: 414: } else if (led_array[5] == 1 && le
                                 d_array[11] == 1) {
  1143  013652  EFFF  F09F         	goto	l885
  1144                           	
  1145  013656                     l920:		; BSR set to: ?
  1146                           
  1147  013656  040A               	decf	(0+((c:0)+0Ah)),c,w
  1148  013658  100B               	iorwf (1+((c:0)+0Ah)),c,w
  1149                           
  1150  01365A  A4D8               	btfss	status,2
  1151  01365C  EF32  F09B         	goto	u4191
  1152  013660  EF34  F09B         	goto	u4190
  1153  013664                     u4191:
  1154  013664  EF44  F09B         	goto	l922
  1155  013668                     u4190:
  1156  013668  0416               	decf	(0+((c:0)+016h)),c,w
  1157  01366A  1017               	iorwf (1+((c:0)+016h)),c,w
  1158                           
  1159  01366C  A4D8               	btfss	status,2
  1160  01366E  EF3B  F09B         	goto	u4201
  1161  013672  EF3D  F09B         	goto	u4200
  1162  013676                     u4201:
  1163  013676  EF44  F09B         	goto	l922
  1164  01367A                     u4200:
  1165                           	line	417
  1166                           ;main.c: 417: LATA = 0b11111111;
  1167  01367A  6889               	setf	((c:3977)),c	;volatile
  1168                           	line	419
  1169                           ;main.c: 419: LATB = 0b10100000;
  1170  01367C  0EA0               	movlw	low(0A0h)
  1171  01367E  6E8A               	movwf	((c:3978)),c	;volatile
  1172                           	line	421
  1173                           ;main.c: 421: LATC = 0b00001011;
  1174  013680  0E0B               	movlw	low(0Bh)
  1175  013682  6E8B               	movwf	((c:3979)),c	;volatile
  1176                           	line	423
  1177                           ;main.c: 423: } else if (led_array[5] == 1 && le
                                 d_array[12] == 1) {
  1178  013684  EFFF  F09F         	goto	l885
  1179                           	
  1180  013688                     l922:		; BSR set to: ?
  1181                           
  1182  013688  040A               	decf	(0+((c:0)+0Ah)),c,w
  1183  01368A  100B               	iorwf (1+((c:0)+0Ah)),c,w
  1184                           
  1185  01368C  A4D8               	btfss	status,2
  1186  01368E  EF4B  F09B         	goto	u4211
  1187  013692  EF4D  F09B         	goto	u4210
  1188  013696                     u4211:
  1189  013696  EF5D  F09B         	goto	l924
  1190  01369A                     u4210:
  1191  01369A  0418               	decf	(0+((c:0)+018h)),c,w
  1192  01369C  1019               	iorwf (1+((c:0)+018h)),c,w
  1193                           
  1194  01369E  A4D8               	btfss	status,2
  1195  0136A0  EF54  F09B         	goto	u4221
  1196  0136A4  EF56  F09B         	goto	u4220
  1197  0136A8                     u4221:
  1198  0136A8  EF5D  F09B         	goto	l924
  1199  0136AC                     u4220:
  1200                           	line	426
  1201                           ;main.c: 426: LATA = 0b11111111;
  1202  0136AC  6889               	setf	((c:3977)),c	;volatile
  1203                           	line	428
  1204                           ;main.c: 428: LATB = 0b10100000;
  1205  0136AE  0EA0               	movlw	low(0A0h)
  1206  0136B0  6E8A               	movwf	((c:3978)),c	;volatile
  1207                           	line	430
  1208                           ;main.c: 430: LATC = 0b00000111;
  1209  0136B2  0E07               	movlw	low(07h)
  1210  0136B4  6E8B               	movwf	((c:3979)),c	;volatile
  1211                           	line	431
  1212                           ;main.c: 431: }
  1213  0136B6  EFFF  F09F         	goto	l885
  1214                           	line	434
  1215                           	
  1216  0136BA                     l924:		; BSR set to: ?
  1217                           
  1218                           ;main.c: 434: else if (led_array[2] == 1 && led_
                                 array[3] == 1 && led_array[6] == 1) {
  1219  0136BA  0404               	decf	(0+((c:0)+04h)),c,w
  1220  0136BC  1005               	iorwf (1+((c:0)+04h)),c,w
  1221                           
  1222  0136BE  A4D8               	btfss	status,2
  1223  0136C0  EF64  F09B         	goto	u4231
  1224  0136C4  EF66  F09B         	goto	u4230
  1225  0136C8                     u4231:
  1226  0136C8  EF80  F09B         	goto	l926
  1227  0136CC                     u4230:
  1228  0136CC  0406               	decf	(0+((c:0)+06h)),c,w
  1229  0136CE  1007               	iorwf (1+((c:0)+06h)),c,w
  1230                           
  1231  0136D0  A4D8               	btfss	status,2
  1232  0136D2  EF6D  F09B         	goto	u4241
  1233  0136D6  EF6F  F09B         	goto	u4240
  1234  0136DA                     u4241:
  1235  0136DA  EF80  F09B         	goto	l926
  1236  0136DE                     u4240:
  1237  0136DE  040C               	decf	(0+((c:0)+0Ch)),c,w
  1238  0136E0  100D               	iorwf (1+((c:0)+0Ch)),c,w
  1239                           
  1240  0136E2  A4D8               	btfss	status,2
  1241  0136E4  EF76  F09B         	goto	u4251
  1242  0136E8  EF78  F09B         	goto	u4250
  1243  0136EC                     u4251:
  1244  0136EC  EF80  F09B         	goto	l926
  1245  0136F0                     u4250:
  1246                           	line	437
  1247                           ;main.c: 437: LATA = 0b11101111;
  1248  0136F0  0EEF               	movlw	low(0EFh)
  1249  0136F2  6E89               	movwf	((c:3977)),c	;volatile
  1250                           	line	439
  1251                           ;main.c: 439: LATB = 0b10001100;
  1252  0136F4  0E8C               	movlw	low(08Ch)
  1253  0136F6  6E8A               	movwf	((c:3978)),c	;volatile
  1254                           	line	441
  1255                           ;main.c: 441: LATC = 0b00001111;
  1256  0136F8  0E0F               	movlw	low(0Fh)
  1257  0136FA  6E8B               	movwf	((c:3979)),c	;volatile
  1258                           	line	443
  1259                           ;main.c: 443: } else if (led_array[2] == 1 && le
                                 d_array[3] == 1 && led_array[7] == 1) {
  1260  0136FC  EFFF  F09F         	goto	l885
  1261                           	
  1262  013700                     l926:		; BSR set to: ?
  1263                           
  1264  013700  0404               	decf	(0+((c:0)+04h)),c,w
  1265  013702  1005               	iorwf (1+((c:0)+04h)),c,w
  1266                           
  1267  013704  A4D8               	btfss	status,2
  1268  013706  EF87  F09B         	goto	u4261
  1269  01370A  EF89  F09B         	goto	u4260
  1270  01370E                     u4261:
  1271  01370E  EFA3  F09B         	goto	l928
  1272  013712                     u4260:
  1273  013712  0406               	decf	(0+((c:0)+06h)),c,w
  1274  013714  1007               	iorwf (1+((c:0)+06h)),c,w
  1275                           
  1276  013716  A4D8               	btfss	status,2
  1277  013718  EF90  F09B         	goto	u4271
  1278  01371C  EF92  F09B         	goto	u4270
  1279  013720                     u4271:
  1280  013720  EFA3  F09B         	goto	l928
  1281  013724                     u4270:
  1282  013724  040E               	decf	(0+((c:0)+0Eh)),c,w
  1283  013726  100F               	iorwf (1+((c:0)+0Eh)),c,w
  1284                           
  1285  013728  A4D8               	btfss	status,2
  1286  01372A  EF99  F09B         	goto	u4281
  1287  01372E  EF9B  F09B         	goto	u4280
  1288  013732                     u4281:
  1289  013732  EFA3  F09B         	goto	l928
  1290  013736                     u4280:
  1291                           	line	446
  1292                           ;main.c: 446: LATA = 0b10111111;
  1293  013736  0EBF               	movlw	low(0BFh)
  1294  013738  6E89               	movwf	((c:3977)),c	;volatile
  1295                           	line	448
  1296                           ;main.c: 448: LATB = 0b10001100;
  1297  01373A  0E8C               	movlw	low(08Ch)
  1298  01373C  6E8A               	movwf	((c:3978)),c	;volatile
  1299                           	line	450
  1300                           ;main.c: 450: LATC = 0b00001111;
  1301  01373E  0E0F               	movlw	low(0Fh)
  1302  013740  6E8B               	movwf	((c:3979)),c	;volatile
  1303                           	line	452
  1304                           ;main.c: 452: } else if (led_array[2] == 1 && le
                                 d_array[3] == 1 && led_array[8] == 1) {
  1305  013742  EFFF  F09F         	goto	l885
  1306                           	
  1307  013746                     l928:		; BSR set to: ?
  1308                           
  1309  013746  0404               	decf	(0+((c:0)+04h)),c,w
  1310  013748  1005               	iorwf (1+((c:0)+04h)),c,w
  1311                           
  1312  01374A  A4D8               	btfss	status,2
  1313  01374C  EFAA  F09B         	goto	u4291
  1314  013750  EFAC  F09B         	goto	u4290
  1315  013754                     u4291:
  1316  013754  EFC5  F09B         	goto	l930
  1317  013758                     u4290:
  1318  013758  0406               	decf	(0+((c:0)+06h)),c,w
  1319  01375A  1007               	iorwf (1+((c:0)+06h)),c,w
  1320                           
  1321  01375C  A4D8               	btfss	status,2
  1322  01375E  EFB3  F09B         	goto	u4301
  1323  013762  EFB5  F09B         	goto	u4300
  1324  013766                     u4301:
  1325  013766  EFC5  F09B         	goto	l930
  1326  01376A                     u4300:
  1327  01376A  0410               	decf	(0+((c:0)+010h)),c,w
  1328  01376C  1011               	iorwf (1+((c:0)+010h)),c,w
  1329                           
  1330  01376E  A4D8               	btfss	status,2
  1331  013770  EFBC  F09B         	goto	u4311
  1332  013774  EFBE  F09B         	goto	u4310
  1333  013778                     u4311:
  1334  013778  EFC5  F09B         	goto	l930
  1335  01377C                     u4310:
  1336                           	line	455
  1337                           ;main.c: 455: LATA = 0b11111111;
  1338  01377C  6889               	setf	((c:3977)),c	;volatile
  1339                           	line	457
  1340                           ;main.c: 457: LATB = 0b10001100;
  1341  01377E  0E8C               	movlw	low(08Ch)
  1342  013780  6E8A               	movwf	((c:3978)),c	;volatile
  1343                           	line	459
  1344                           ;main.c: 459: LATC = 0b00001110;
  1345  013782  0E0E               	movlw	low(0Eh)
  1346  013784  6E8B               	movwf	((c:3979)),c	;volatile
  1347                           	line	461
  1348                           ;main.c: 461: } else if (led_array[2] == 1 && le
                                 d_array[3] == 1 && led_array[9] == 1) {
  1349  013786  EFFF  F09F         	goto	l885
  1350                           	
  1351  01378A                     l930:		; BSR set to: ?
  1352                           
  1353  01378A  0404               	decf	(0+((c:0)+04h)),c,w
  1354  01378C  1005               	iorwf (1+((c:0)+04h)),c,w
  1355                           
  1356  01378E  A4D8               	btfss	status,2
  1357  013790  EFCC  F09B         	goto	u4321
  1358  013794  EFCE  F09B         	goto	u4320
  1359  013798                     u4321:
  1360  013798  EFE7  F09B         	goto	l932
  1361  01379C                     u4320:
  1362  01379C  0406               	decf	(0+((c:0)+06h)),c,w
  1363  01379E  1007               	iorwf (1+((c:0)+06h)),c,w
  1364                           
  1365  0137A0  A4D8               	btfss	status,2
  1366  0137A2  EFD5  F09B         	goto	u4331
  1367  0137A6  EFD7  F09B         	goto	u4330
  1368  0137AA                     u4331:
  1369  0137AA  EFE7  F09B         	goto	l932
  1370  0137AE                     u4330:
  1371  0137AE  0412               	decf	(0+((c:0)+012h)),c,w
  1372  0137B0  1013               	iorwf (1+((c:0)+012h)),c,w
  1373                           
  1374  0137B2  A4D8               	btfss	status,2
  1375  0137B4  EFDE  F09B         	goto	u4341
  1376  0137B8  EFE0  F09B         	goto	u4340
  1377  0137BC                     u4341:
  1378  0137BC  EFE7  F09B         	goto	l932
  1379  0137C0                     u4340:
  1380                           	line	464
  1381                           ;main.c: 464: LATA = 0b11111111;
  1382  0137C0  6889               	setf	((c:3977)),c	;volatile
  1383                           	line	466
  1384                           ;main.c: 466: LATB = 0b10001100;
  1385  0137C2  0E8C               	movlw	low(08Ch)
  1386  0137C4  6E8A               	movwf	((c:3978)),c	;volatile
  1387                           	line	468
  1388                           ;main.c: 468: LATC = 0b00001101;
  1389  0137C6  0E0D               	movlw	low(0Dh)
  1390  0137C8  6E8B               	movwf	((c:3979)),c	;volatile
  1391                           	line	469
  1392                           ;main.c: 469: } else if (led_array[2] == 1 && le
                                 d_array[3] == 1 && led_array[10] == 1) {
  1393  0137CA  EFFF  F09F         	goto	l885
  1394                           	
  1395  0137CE                     l932:		; BSR set to: ?
  1396                           
  1397  0137CE  0404               	decf	(0+((c:0)+04h)),c,w
  1398  0137D0  1005               	iorwf (1+((c:0)+04h)),c,w
  1399                           
  1400  0137D2  A4D8               	btfss	status,2
  1401  0137D4  EFEE  F09B         	goto	u4351
  1402  0137D8  EFF0  F09B         	goto	u4350
  1403  0137DC                     u4351:
  1404  0137DC  EF09  F09C         	goto	l934
  1405  0137E0                     u4350:
  1406  0137E0  0406               	decf	(0+((c:0)+06h)),c,w
  1407  0137E2  1007               	iorwf (1+((c:0)+06h)),c,w
  1408                           
  1409  0137E4  A4D8               	btfss	status,2
  1410  0137E6  EFF7  F09B         	goto	u4361
  1411  0137EA  EFF9  F09B         	goto	u4360
  1412  0137EE                     u4361:
  1413  0137EE  EF09  F09C         	goto	l934
  1414  0137F2                     u4360:
  1415  0137F2  0414               	decf	(0+((c:0)+014h)),c,w
  1416  0137F4  1015               	iorwf (1+((c:0)+014h)),c,w
  1417                           
  1418  0137F6  A4D8               	btfss	status,2
  1419  0137F8  EF00  F09C         	goto	u4371
  1420  0137FC  EF02  F09C         	goto	u4370
  1421  013800                     u4371:
  1422  013800  EF09  F09C         	goto	l934
  1423  013804                     u4370:
  1424                           	line	472
  1425                           ;main.c: 472: LATA = 0b11111111;
  1426  013804  6889               	setf	((c:3977)),c	;volatile
  1427                           	line	474
  1428                           ;main.c: 474: LATB = 0b00001100;
  1429  013806  0E0C               	movlw	low(0Ch)
  1430  013808  6E8A               	movwf	((c:3978)),c	;volatile
  1431                           	line	476
  1432                           ;main.c: 476: LATC = 0b00001111;
  1433  01380A  0E0F               	movlw	low(0Fh)
  1434  01380C  6E8B               	movwf	((c:3979)),c	;volatile
  1435                           	line	477
  1436                           ;main.c: 477: } else if (led_array[2] == 1 && le
                                 d_array[3] == 1 && led_array[11] == 1) {
  1437  01380E  EFFF  F09F         	goto	l885
  1438                           	
  1439  013812                     l934:		; BSR set to: ?
  1440                           
  1441  013812  0404               	decf	(0+((c:0)+04h)),c,w
  1442  013814  1005               	iorwf (1+((c:0)+04h)),c,w
  1443                           
  1444  013816  A4D8               	btfss	status,2
  1445  013818  EF10  F09C         	goto	u4381
  1446  01381C  EF12  F09C         	goto	u4380
  1447  013820                     u4381:
  1448  013820  EF2B  F09C         	goto	l936
  1449  013824                     u4380:
  1450  013824  0406               	decf	(0+((c:0)+06h)),c,w
  1451  013826  1007               	iorwf (1+((c:0)+06h)),c,w
  1452                           
  1453  013828  A4D8               	btfss	status,2
  1454  01382A  EF19  F09C         	goto	u4391
  1455  01382E  EF1B  F09C         	goto	u4390
  1456  013832                     u4391:
  1457  013832  EF2B  F09C         	goto	l936
  1458  013836                     u4390:
  1459  013836  0416               	decf	(0+((c:0)+016h)),c,w
  1460  013838  1017               	iorwf (1+((c:0)+016h)),c,w
  1461                           
  1462  01383A  A4D8               	btfss	status,2
  1463  01383C  EF22  F09C         	goto	u4401
  1464  013840  EF24  F09C         	goto	u4400
  1465  013844                     u4401:
  1466  013844  EF2B  F09C         	goto	l936
  1467  013848                     u4400:
  1468                           	line	480
  1469                           ;main.c: 480: LATA = 0b11111111;
  1470  013848  6889               	setf	((c:3977)),c	;volatile
  1471                           	line	482
  1472                           ;main.c: 482: LATB = 0b10001100;
  1473  01384A  0E8C               	movlw	low(08Ch)
  1474  01384C  6E8A               	movwf	((c:3978)),c	;volatile
  1475                           	line	484
  1476                           ;main.c: 484: LATC = 0b00001011;
  1477  01384E  0E0B               	movlw	low(0Bh)
  1478  013850  6E8B               	movwf	((c:3979)),c	;volatile
  1479                           	line	485
  1480                           ;main.c: 485: } else if (led_array[2] == 1 && le
                                 d_array[3] == 1 && led_array[12] == 1) {
  1481  013852  EFFF  F09F         	goto	l885
  1482                           	
  1483  013856                     l936:		; BSR set to: ?
  1484                           
  1485  013856  0404               	decf	(0+((c:0)+04h)),c,w
  1486  013858  1005               	iorwf (1+((c:0)+04h)),c,w
  1487                           
  1488  01385A  A4D8               	btfss	status,2
  1489  01385C  EF32  F09C         	goto	u4411
  1490  013860  EF34  F09C         	goto	u4410
  1491  013864                     u4411:
  1492  013864  EF4D  F09C         	goto	l938
  1493  013868                     u4410:
  1494  013868  0406               	decf	(0+((c:0)+06h)),c,w
  1495  01386A  1007               	iorwf (1+((c:0)+06h)),c,w
  1496                           
  1497  01386C  A4D8               	btfss	status,2
  1498  01386E  EF3B  F09C         	goto	u4421
  1499  013872  EF3D  F09C         	goto	u4420
  1500  013876                     u4421:
  1501  013876  EF4D  F09C         	goto	l938
  1502  01387A                     u4420:
  1503  01387A  0418               	decf	(0+((c:0)+018h)),c,w
  1504  01387C  1019               	iorwf (1+((c:0)+018h)),c,w
  1505                           
  1506  01387E  A4D8               	btfss	status,2
  1507  013880  EF44  F09C         	goto	u4431
  1508  013884  EF46  F09C         	goto	u4430
  1509  013888                     u4431:
  1510  013888  EF4D  F09C         	goto	l938
  1511  01388C                     u4430:
  1512                           	line	488
  1513                           ;main.c: 488: LATA = 0b11111111;
  1514  01388C  6889               	setf	((c:3977)),c	;volatile
  1515                           	line	490
  1516                           ;main.c: 490: LATB = 0b10001100;
  1517  01388E  0E8C               	movlw	low(08Ch)
  1518  013890  6E8A               	movwf	((c:3978)),c	;volatile
  1519                           	line	492
  1520                           ;main.c: 492: LATC = 0b00000111;
  1521  013892  0E07               	movlw	low(07h)
  1522  013894  6E8B               	movwf	((c:3979)),c	;volatile
  1523                           	line	493
  1524                           ;main.c: 493: } else if (led_array[2] == 1 && le
                                 d_array[6] == 1) {
  1525  013896  EFFF  F09F         	goto	l885
  1526                           	
  1527  01389A                     l938:		; BSR set to: ?
  1528                           
  1529  01389A  0404               	decf	(0+((c:0)+04h)),c,w
  1530  01389C  1005               	iorwf (1+((c:0)+04h)),c,w
  1531                           
  1532  01389E  A4D8               	btfss	status,2
  1533  0138A0  EF54  F09C         	goto	u4441
  1534  0138A4  EF56  F09C         	goto	u4440
  1535  0138A8                     u4441:
  1536  0138A8  EF67  F09C         	goto	l940
  1537  0138AC                     u4440:
  1538  0138AC  040C               	decf	(0+((c:0)+0Ch)),c,w
  1539  0138AE  100D               	iorwf (1+((c:0)+0Ch)),c,w
  1540                           
  1541  0138B0  A4D8               	btfss	status,2
  1542  0138B2  EF5D  F09C         	goto	u4451
  1543  0138B6  EF5F  F09C         	goto	u4450
  1544  0138BA                     u4451:
  1545  0138BA  EF67  F09C         	goto	l940
  1546  0138BE                     u4450:
  1547                           	line	496
  1548                           ;main.c: 496: LATA = 0b11101111;
  1549  0138BE  0EEF               	movlw	low(0EFh)
  1550  0138C0  6E89               	movwf	((c:3977)),c	;volatile
  1551                           	line	498
  1552                           ;main.c: 498: LATB = 0b10000100;
  1553  0138C2  0E84               	movlw	low(084h)
  1554  0138C4  6E8A               	movwf	((c:3978)),c	;volatile
  1555                           	line	500
  1556                           ;main.c: 500: LATC = 0b00001111;
  1557  0138C6  0E0F               	movlw	low(0Fh)
  1558  0138C8  6E8B               	movwf	((c:3979)),c	;volatile
  1559                           	line	502
  1560                           ;main.c: 502: } else if (led_array[2] == 1 && le
                                 d_array[7] == 1) {
  1561  0138CA  EFFF  F09F         	goto	l885
  1562                           	
  1563  0138CE                     l940:		; BSR set to: ?
  1564                           
  1565  0138CE  0404               	decf	(0+((c:0)+04h)),c,w
  1566  0138D0  1005               	iorwf (1+((c:0)+04h)),c,w
  1567                           
  1568  0138D2  A4D8               	btfss	status,2
  1569  0138D4  EF6E  F09C         	goto	u4461
  1570  0138D8  EF70  F09C         	goto	u4460
  1571  0138DC                     u4461:
  1572  0138DC  EF81  F09C         	goto	l942
  1573  0138E0                     u4460:
  1574  0138E0  040E               	decf	(0+((c:0)+0Eh)),c,w
  1575  0138E2  100F               	iorwf (1+((c:0)+0Eh)),c,w
  1576                           
  1577  0138E4  A4D8               	btfss	status,2
  1578  0138E6  EF77  F09C         	goto	u4471
  1579  0138EA  EF79  F09C         	goto	u4470
  1580  0138EE                     u4471:
  1581  0138EE  EF81  F09C         	goto	l942
  1582  0138F2                     u4470:
  1583                           	line	505
  1584                           ;main.c: 505: LATA = 0b10111111;
  1585  0138F2  0EBF               	movlw	low(0BFh)
  1586  0138F4  6E89               	movwf	((c:3977)),c	;volatile
  1587                           	line	507
  1588                           ;main.c: 507: LATB = 0b10000100;
  1589  0138F6  0E84               	movlw	low(084h)
  1590  0138F8  6E8A               	movwf	((c:3978)),c	;volatile
  1591                           	line	509
  1592                           ;main.c: 509: LATC = 0b00001111;
  1593  0138FA  0E0F               	movlw	low(0Fh)
  1594  0138FC  6E8B               	movwf	((c:3979)),c	;volatile
  1595                           	line	511
  1596                           ;main.c: 511: } else if (led_array[2] == 1 && le
                                 d_array[8] == 1) {
  1597  0138FE  EFFF  F09F         	goto	l885
  1598                           	
  1599  013902                     l942:		; BSR set to: ?
  1600                           
  1601  013902  0404               	decf	(0+((c:0)+04h)),c,w
  1602  013904  1005               	iorwf (1+((c:0)+04h)),c,w
  1603                           
  1604  013906  A4D8               	btfss	status,2
  1605  013908  EF88  F09C         	goto	u4481
  1606  01390C  EF8A  F09C         	goto	u4480
  1607  013910                     u4481:
  1608  013910  EF9A  F09C         	goto	l944
  1609  013914                     u4480:
  1610  013914  0410               	decf	(0+((c:0)+010h)),c,w
  1611  013916  1011               	iorwf (1+((c:0)+010h)),c,w
  1612                           
  1613  013918  A4D8               	btfss	status,2
  1614  01391A  EF91  F09C         	goto	u4491
  1615  01391E  EF93  F09C         	goto	u4490
  1616  013922                     u4491:
  1617  013922  EF9A  F09C         	goto	l944
  1618  013926                     u4490:
  1619                           	line	514
  1620                           ;main.c: 514: LATA = 0b11111111;
  1621  013926  6889               	setf	((c:3977)),c	;volatile
  1622                           	line	516
  1623                           ;main.c: 516: LATB = 0b10000100;
  1624  013928  0E84               	movlw	low(084h)
  1625  01392A  6E8A               	movwf	((c:3978)),c	;volatile
  1626                           	line	518
  1627                           ;main.c: 518: LATC = 0b00001110;
  1628  01392C  0E0E               	movlw	low(0Eh)
  1629  01392E  6E8B               	movwf	((c:3979)),c	;volatile
  1630                           	line	520
  1631                           ;main.c: 520: } else if (led_array[2] == 1 && le
                                 d_array[9] == 1) {
  1632  013930  EFFF  F09F         	goto	l885
  1633                           	
  1634  013934                     l944:		; BSR set to: ?
  1635                           
  1636  013934  0404               	decf	(0+((c:0)+04h)),c,w
  1637  013936  1005               	iorwf (1+((c:0)+04h)),c,w
  1638                           
  1639  013938  A4D8               	btfss	status,2
  1640  01393A  EFA1  F09C         	goto	u4501
  1641  01393E  EFA3  F09C         	goto	u4500
  1642  013942                     u4501:
  1643  013942  EFB3  F09C         	goto	l946
  1644  013946                     u4500:
  1645  013946  0412               	decf	(0+((c:0)+012h)),c,w
  1646  013948  1013               	iorwf (1+((c:0)+012h)),c,w
  1647                           
  1648  01394A  A4D8               	btfss	status,2
  1649  01394C  EFAA  F09C         	goto	u4511
  1650  013950  EFAC  F09C         	goto	u4510
  1651  013954                     u4511:
  1652  013954  EFB3  F09C         	goto	l946
  1653  013958                     u4510:
  1654                           	line	523
  1655                           ;main.c: 523: LATA = 0b11111111;
  1656  013958  6889               	setf	((c:3977)),c	;volatile
  1657                           	line	525
  1658                           ;main.c: 525: LATB = 0b10000100;
  1659  01395A  0E84               	movlw	low(084h)
  1660  01395C  6E8A               	movwf	((c:3978)),c	;volatile
  1661                           	line	527
  1662                           ;main.c: 527: LATC = 0b00001101;
  1663  01395E  0E0D               	movlw	low(0Dh)
  1664  013960  6E8B               	movwf	((c:3979)),c	;volatile
  1665                           	line	529
  1666                           ;main.c: 529: } else if (led_array[2] == 1 && le
                                 d_array[10] == 1) {
  1667  013962  EFFF  F09F         	goto	l885
  1668                           	
  1669  013966                     l946:		; BSR set to: ?
  1670                           
  1671  013966  0404               	decf	(0+((c:0)+04h)),c,w
  1672  013968  1005               	iorwf (1+((c:0)+04h)),c,w
  1673                           
  1674  01396A  A4D8               	btfss	status,2
  1675  01396C  EFBA  F09C         	goto	u4521
  1676  013970  EFBC  F09C         	goto	u4520
  1677  013974                     u4521:
  1678  013974  EFCC  F09C         	goto	l948
  1679  013978                     u4520:
  1680  013978  0414               	decf	(0+((c:0)+014h)),c,w
  1681  01397A  1015               	iorwf (1+((c:0)+014h)),c,w
  1682                           
  1683  01397C  A4D8               	btfss	status,2
  1684  01397E  EFC3  F09C         	goto	u4531
  1685  013982  EFC5  F09C         	goto	u4530
  1686  013986                     u4531:
  1687  013986  EFCC  F09C         	goto	l948
  1688  01398A                     u4530:
  1689                           	line	532
  1690                           ;main.c: 532: LATA = 0b11111111;
  1691  01398A  6889               	setf	((c:3977)),c	;volatile
  1692                           	line	534
  1693                           ;main.c: 534: LATB = 0b00000100;
  1694  01398C  0E04               	movlw	low(04h)
  1695  01398E  6E8A               	movwf	((c:3978)),c	;volatile
  1696                           	line	536
  1697                           ;main.c: 536: LATC = 0b00001111;
  1698  013990  0E0F               	movlw	low(0Fh)
  1699  013992  6E8B               	movwf	((c:3979)),c	;volatile
  1700                           	line	538
  1701                           ;main.c: 538: } else if (led_array[2] == 1 && le
                                 d_array[11] == 1) {
  1702  013994  EFFF  F09F         	goto	l885
  1703                           	
  1704  013998                     l948:		; BSR set to: ?
  1705                           
  1706  013998  0404               	decf	(0+((c:0)+04h)),c,w
  1707  01399A  1005               	iorwf (1+((c:0)+04h)),c,w
  1708                           
  1709  01399C  A4D8               	btfss	status,2
  1710  01399E  EFD3  F09C         	goto	u4541
  1711  0139A2  EFD5  F09C         	goto	u4540
  1712  0139A6                     u4541:
  1713  0139A6  EFE5  F09C         	goto	l950
  1714  0139AA                     u4540:
  1715  0139AA  0416               	decf	(0+((c:0)+016h)),c,w
  1716  0139AC  1017               	iorwf (1+((c:0)+016h)),c,w
  1717                           
  1718  0139AE  A4D8               	btfss	status,2
  1719  0139B0  EFDC  F09C         	goto	u4551
  1720  0139B4  EFDE  F09C         	goto	u4550
  1721  0139B8                     u4551:
  1722  0139B8  EFE5  F09C         	goto	l950
  1723  0139BC                     u4550:
  1724                           	line	541
  1725                           ;main.c: 541: LATA = 0b11111111;
  1726  0139BC  6889               	setf	((c:3977)),c	;volatile
  1727                           	line	543
  1728                           ;main.c: 543: LATB = 0b10000100;
  1729  0139BE  0E84               	movlw	low(084h)
  1730  0139C0  6E8A               	movwf	((c:3978)),c	;volatile
  1731                           	line	545
  1732                           ;main.c: 545: LATC = 0b00001011;
  1733  0139C2  0E0B               	movlw	low(0Bh)
  1734  0139C4  6E8B               	movwf	((c:3979)),c	;volatile
  1735                           	line	547
  1736                           ;main.c: 547: } else if (led_array[2] == 1 && le
                                 d_array[12] == 1) {
  1737  0139C6  EFFF  F09F         	goto	l885
  1738                           	
  1739  0139CA                     l950:		; BSR set to: ?
  1740                           
  1741  0139CA  0404               	decf	(0+((c:0)+04h)),c,w
  1742  0139CC  1005               	iorwf (1+((c:0)+04h)),c,w
  1743                           
  1744  0139CE  A4D8               	btfss	status,2
  1745  0139D0  EFEC  F09C         	goto	u4561
  1746  0139D4  EFEE  F09C         	goto	u4560
  1747  0139D8                     u4561:
  1748  0139D8  EFFE  F09C         	goto	l952
  1749  0139DC                     u4560:
  1750  0139DC  0418               	decf	(0+((c:0)+018h)),c,w
  1751  0139DE  1019               	iorwf (1+((c:0)+018h)),c,w
  1752                           
  1753  0139E0  A4D8               	btfss	status,2
  1754  0139E2  EFF5  F09C         	goto	u4571
  1755  0139E6  EFF7  F09C         	goto	u4570
  1756  0139EA                     u4571:
  1757  0139EA  EFFE  F09C         	goto	l952
  1758  0139EE                     u4570:
  1759                           	line	550
  1760                           ;main.c: 550: LATA = 0b11111111;
  1761  0139EE  6889               	setf	((c:3977)),c	;volatile
  1762                           	line	552
  1763                           ;main.c: 552: LATB = 0b10000100;
  1764  0139F0  0E84               	movlw	low(084h)
  1765  0139F2  6E8A               	movwf	((c:3978)),c	;volatile
  1766                           	line	554
  1767                           ;main.c: 554: LATC = 0b00000111;
  1768  0139F4  0E07               	movlw	low(07h)
  1769  0139F6  6E8B               	movwf	((c:3979)),c	;volatile
  1770                           	line	556
  1771                           ;main.c: 556: } else if (led_array[3] == 1 && le
                                 d_array[6] == 1) {
  1772  0139F8  EFFF  F09F         	goto	l885
  1773                           	
  1774  0139FC                     l952:		; BSR set to: ?
  1775                           
  1776  0139FC  0406               	decf	(0+((c:0)+06h)),c,w
  1777  0139FE  1007               	iorwf (1+((c:0)+06h)),c,w
  1778                           
  1779  013A00  A4D8               	btfss	status,2
  1780  013A02  EF05  F09D         	goto	u4581
  1781  013A06  EF07  F09D         	goto	u4580
  1782  013A0A                     u4581:
  1783  013A0A  EF18  F09D         	goto	l954
  1784  013A0E                     u4580:
  1785  013A0E  040C               	decf	(0+((c:0)+0Ch)),c,w
  1786  013A10  100D               	iorwf (1+((c:0)+0Ch)),c,w
  1787                           
  1788  013A12  A4D8               	btfss	status,2
  1789  013A14  EF0E  F09D         	goto	u4591
  1790  013A18  EF10  F09D         	goto	u4590
  1791  013A1C                     u4591:
  1792  013A1C  EF18  F09D         	goto	l954
  1793  013A20                     u4590:
  1794                           	line	559
  1795                           ;main.c: 559: LATA = 0b11101111;
  1796  013A20  0EEF               	movlw	low(0EFh)
  1797  013A22  6E89               	movwf	((c:3977)),c	;volatile
  1798                           	line	561
  1799                           ;main.c: 561: LATB = 0b10001000;
  1800  013A24  0E88               	movlw	low(088h)
  1801  013A26  6E8A               	movwf	((c:3978)),c	;volatile
  1802                           	line	563
  1803                           ;main.c: 563: LATC = 0b00001111;
  1804  013A28  0E0F               	movlw	low(0Fh)
  1805  013A2A  6E8B               	movwf	((c:3979)),c	;volatile
  1806                           	line	565
  1807                           ;main.c: 565: } else if (led_array[3] == 1 && le
                                 d_array[7] == 1) {
  1808  013A2C  EFFF  F09F         	goto	l885
  1809                           	
  1810  013A30                     l954:		; BSR set to: ?
  1811                           
  1812  013A30  0406               	decf	(0+((c:0)+06h)),c,w
  1813  013A32  1007               	iorwf (1+((c:0)+06h)),c,w
  1814                           
  1815  013A34  A4D8               	btfss	status,2
  1816  013A36  EF1F  F09D         	goto	u4601
  1817  013A3A  EF21  F09D         	goto	u4600
  1818  013A3E                     u4601:
  1819  013A3E  EF32  F09D         	goto	l956
  1820  013A42                     u4600:
  1821  013A42  040E               	decf	(0+((c:0)+0Eh)),c,w
  1822  013A44  100F               	iorwf (1+((c:0)+0Eh)),c,w
  1823                           
  1824  013A46  A4D8               	btfss	status,2
  1825  013A48  EF28  F09D         	goto	u4611
  1826  013A4C  EF2A  F09D         	goto	u4610
  1827  013A50                     u4611:
  1828  013A50  EF32  F09D         	goto	l956
  1829  013A54                     u4610:
  1830                           	line	568
  1831                           ;main.c: 568: LATA = 0b10111111;
  1832  013A54  0EBF               	movlw	low(0BFh)
  1833  013A56  6E89               	movwf	((c:3977)),c	;volatile
  1834                           	line	570
  1835                           ;main.c: 570: LATB = 0b10001000;
  1836  013A58  0E88               	movlw	low(088h)
  1837  013A5A  6E8A               	movwf	((c:3978)),c	;volatile
  1838                           	line	572
  1839                           ;main.c: 572: LATC = 0b00001111;
  1840  013A5C  0E0F               	movlw	low(0Fh)
  1841  013A5E  6E8B               	movwf	((c:3979)),c	;volatile
  1842                           	line	574
  1843                           ;main.c: 574: } else if (led_array[3] == 1 && le
                                 d_array[8] == 1) {
  1844  013A60  EFFF  F09F         	goto	l885
  1845                           	
  1846  013A64                     l956:		; BSR set to: ?
  1847                           
  1848  013A64  0406               	decf	(0+((c:0)+06h)),c,w
  1849  013A66  1007               	iorwf (1+((c:0)+06h)),c,w
  1850                           
  1851  013A68  A4D8               	btfss	status,2
  1852  013A6A  EF39  F09D         	goto	u4621
  1853  013A6E  EF3B  F09D         	goto	u4620
  1854  013A72                     u4621:
  1855  013A72  EF4B  F09D         	goto	l958
  1856  013A76                     u4620:
  1857  013A76  0410               	decf	(0+((c:0)+010h)),c,w
  1858  013A78  1011               	iorwf (1+((c:0)+010h)),c,w
  1859                           
  1860  013A7A  A4D8               	btfss	status,2
  1861  013A7C  EF42  F09D         	goto	u4631
  1862  013A80  EF44  F09D         	goto	u4630
  1863  013A84                     u4631:
  1864  013A84  EF4B  F09D         	goto	l958
  1865  013A88                     u4630:
  1866                           	line	577
  1867                           ;main.c: 577: LATA = 0b11111111;
  1868  013A88  6889               	setf	((c:3977)),c	;volatile
  1869                           	line	579
  1870                           ;main.c: 579: LATB = 0b10001000;
  1871  013A8A  0E88               	movlw	low(088h)
  1872  013A8C  6E8A               	movwf	((c:3978)),c	;volatile
  1873                           	line	581
  1874                           ;main.c: 581: LATC = 0b00001110;
  1875  013A8E  0E0E               	movlw	low(0Eh)
  1876  013A90  6E8B               	movwf	((c:3979)),c	;volatile
  1877                           	line	583
  1878                           ;main.c: 583: } else if (led_array[3] == 1 && le
                                 d_array[9] == 1) {
  1879  013A92  EFFF  F09F         	goto	l885
  1880                           	
  1881  013A96                     l958:		; BSR set to: ?
  1882                           
  1883  013A96  0406               	decf	(0+((c:0)+06h)),c,w
  1884  013A98  1007               	iorwf (1+((c:0)+06h)),c,w
  1885                           
  1886  013A9A  A4D8               	btfss	status,2
  1887  013A9C  EF52  F09D         	goto	u4641
  1888  013AA0  EF54  F09D         	goto	u4640
  1889  013AA4                     u4641:
  1890  013AA4  EF64  F09D         	goto	l960
  1891  013AA8                     u4640:
  1892  013AA8  0412               	decf	(0+((c:0)+012h)),c,w
  1893  013AAA  1013               	iorwf (1+((c:0)+012h)),c,w
  1894                           
  1895  013AAC  A4D8               	btfss	status,2
  1896  013AAE  EF5B  F09D         	goto	u4651
  1897  013AB2  EF5D  F09D         	goto	u4650
  1898  013AB6                     u4651:
  1899  013AB6  EF64  F09D         	goto	l960
  1900  013ABA                     u4650:
  1901                           	line	586
  1902                           ;main.c: 586: LATA = 0b11111111;
  1903  013ABA  6889               	setf	((c:3977)),c	;volatile
  1904                           	line	588
  1905                           ;main.c: 588: LATB = 0b10001000;
  1906  013ABC  0E88               	movlw	low(088h)
  1907  013ABE  6E8A               	movwf	((c:3978)),c	;volatile
  1908                           	line	590
  1909                           ;main.c: 590: LATC = 0b00001101;
  1910  013AC0  0E0D               	movlw	low(0Dh)
  1911  013AC2  6E8B               	movwf	((c:3979)),c	;volatile
  1912                           	line	592
  1913                           ;main.c: 592: } else if (led_array[3] == 1 && le
                                 d_array[10] == 1) {
  1914  013AC4  EFFF  F09F         	goto	l885
  1915                           	
  1916  013AC8                     l960:		; BSR set to: ?
  1917                           
  1918  013AC8  0406               	decf	(0+((c:0)+06h)),c,w
  1919  013ACA  1007               	iorwf (1+((c:0)+06h)),c,w
  1920                           
  1921  013ACC  A4D8               	btfss	status,2
  1922  013ACE  EF6B  F09D         	goto	u4661
  1923  013AD2  EF6D  F09D         	goto	u4660
  1924  013AD6                     u4661:
  1925  013AD6  EF7D  F09D         	goto	l962
  1926  013ADA                     u4660:
  1927  013ADA  0414               	decf	(0+((c:0)+014h)),c,w
  1928  013ADC  1015               	iorwf (1+((c:0)+014h)),c,w
  1929                           
  1930  013ADE  A4D8               	btfss	status,2
  1931  013AE0  EF74  F09D         	goto	u4671
  1932  013AE4  EF76  F09D         	goto	u4670
  1933  013AE8                     u4671:
  1934  013AE8  EF7D  F09D         	goto	l962
  1935  013AEC                     u4670:
  1936                           	line	595
  1937                           ;main.c: 595: LATA = 0b11111111;
  1938  013AEC  6889               	setf	((c:3977)),c	;volatile
  1939                           	line	597
  1940                           ;main.c: 597: LATB = 0b00001000;
  1941  013AEE  0E08               	movlw	low(08h)
  1942  013AF0  6E8A               	movwf	((c:3978)),c	;volatile
  1943                           	line	599
  1944                           ;main.c: 599: LATC = 0b00001111;
  1945  013AF2  0E0F               	movlw	low(0Fh)
  1946  013AF4  6E8B               	movwf	((c:3979)),c	;volatile
  1947                           	line	601
  1948                           ;main.c: 601: } else if (led_array[3] == 1 && le
                                 d_array[11] == 1) {
  1949  013AF6  EFFF  F09F         	goto	l885
  1950                           	
  1951  013AFA                     l962:		; BSR set to: ?
  1952                           
  1953  013AFA  0406               	decf	(0+((c:0)+06h)),c,w
  1954  013AFC  1007               	iorwf (1+((c:0)+06h)),c,w
  1955                           
  1956  013AFE  A4D8               	btfss	status,2
  1957  013B00  EF84  F09D         	goto	u4681
  1958  013B04  EF86  F09D         	goto	u4680
  1959  013B08                     u4681:
  1960  013B08  EF96  F09D         	goto	l964
  1961  013B0C                     u4680:
  1962  013B0C  0416               	decf	(0+((c:0)+016h)),c,w
  1963  013B0E  1017               	iorwf (1+((c:0)+016h)),c,w
  1964                           
  1965  013B10  A4D8               	btfss	status,2
  1966  013B12  EF8D  F09D         	goto	u4691
  1967  013B16  EF8F  F09D         	goto	u4690
  1968  013B1A                     u4691:
  1969  013B1A  EF96  F09D         	goto	l964
  1970  013B1E                     u4690:
  1971                           	line	604
  1972                           ;main.c: 604: LATA = 0b11111111;
  1973  013B1E  6889               	setf	((c:3977)),c	;volatile
  1974                           	line	606
  1975                           ;main.c: 606: LATB = 0b10001000;
  1976  013B20  0E88               	movlw	low(088h)
  1977  013B22  6E8A               	movwf	((c:3978)),c	;volatile
  1978                           	line	608
  1979                           ;main.c: 608: LATC = 0b00001011;
  1980  013B24  0E0B               	movlw	low(0Bh)
  1981  013B26  6E8B               	movwf	((c:3979)),c	;volatile
  1982                           	line	610
  1983                           ;main.c: 610: } else if (led_array[3] == 1 && le
                                 d_array[12] == 1) {
  1984  013B28  EFFF  F09F         	goto	l885
  1985                           	
  1986  013B2C                     l964:		; BSR set to: ?
  1987                           
  1988  013B2C  0406               	decf	(0+((c:0)+06h)),c,w
  1989  013B2E  1007               	iorwf (1+((c:0)+06h)),c,w
  1990                           
  1991  013B30  A4D8               	btfss	status,2
  1992  013B32  EF9D  F09D         	goto	u4701
  1993  013B36  EF9F  F09D         	goto	u4700
  1994  013B3A                     u4701:
  1995  013B3A  EFAF  F09D         	goto	l966
  1996  013B3E                     u4700:
  1997  013B3E  0418               	decf	(0+((c:0)+018h)),c,w
  1998  013B40  1019               	iorwf (1+((c:0)+018h)),c,w
  1999                           
  2000  013B42  A4D8               	btfss	status,2
  2001  013B44  EFA6  F09D         	goto	u4711
  2002  013B48  EFA8  F09D         	goto	u4710
  2003  013B4C                     u4711:
  2004  013B4C  EFAF  F09D         	goto	l966
  2005  013B50                     u4710:
  2006                           	line	613
  2007                           ;main.c: 613: LATA = 0b11111111;
  2008  013B50  6889               	setf	((c:3977)),c	;volatile
  2009                           	line	615
  2010                           ;main.c: 615: LATB = 0b10001000;
  2011  013B52  0E88               	movlw	low(088h)
  2012  013B54  6E8A               	movwf	((c:3978)),c	;volatile
  2013                           	line	617
  2014                           ;main.c: 617: LATC = 0b00000111;
  2015  013B56  0E07               	movlw	low(07h)
  2016  013B58  6E8B               	movwf	((c:3979)),c	;volatile
  2017                           	line	618
  2018                           ;main.c: 618: }
  2019  013B5A  EFFF  F09F         	goto	l885
  2020                           	line	621
  2021                           	
  2022  013B5E                     l966:		; BSR set to: ?
  2023                           
  2024                           ;main.c: 621: else if (led_array[0] == 1 && led_
                                 array[1] == 1 && led_array[6] == 1) {
  2025  013B5E  0400               	decf	((c:0)),c,w
  2026  013B60  1001               	iorwf ((c:0+1)),c,w
  2027                           
  2028  013B62  A4D8               	btfss	status,2
  2029  013B64  EFB6  F09D         	goto	u4721
  2030  013B68  EFB8  F09D         	goto	u4720
  2031  013B6C                     u4721:
  2032  013B6C  EFD2  F09D         	goto	l968
  2033  013B70                     u4720:
  2034  013B70  0402               	decf	(0+((c:0)+02h)),c,w
  2035  013B72  1003               	iorwf (1+((c:0)+02h)),c,w
  2036                           
  2037  013B74  A4D8               	btfss	status,2
  2038  013B76  EFBF  F09D         	goto	u4731
  2039  013B7A  EFC1  F09D         	goto	u4730
  2040  013B7E                     u4731:
  2041  013B7E  EFD2  F09D         	goto	l968
  2042  013B82                     u4730:
  2043  013B82  040C               	decf	(0+((c:0)+0Ch)),c,w
  2044  013B84  100D               	iorwf (1+((c:0)+0Ch)),c,w
  2045                           
  2046  013B86  A4D8               	btfss	status,2
  2047  013B88  EFC8  F09D         	goto	u4741
  2048  013B8C  EFCA  F09D         	goto	u4740
  2049  013B90                     u4741:
  2050  013B90  EFD2  F09D         	goto	l968
  2051  013B94                     u4740:
  2052                           	line	624
  2053                           ;main.c: 624: LATA = 0b11101111;
  2054  013B94  0EEF               	movlw	low(0EFh)
  2055  013B96  6E89               	movwf	((c:3977)),c	;volatile
  2056                           	line	626
  2057                           ;main.c: 626: LATB = 0b10000000;
  2058  013B98  0E80               	movlw	low(080h)
  2059  013B9A  6E8A               	movwf	((c:3978)),c	;volatile
  2060                           	line	628
  2061                           ;main.c: 628: LATC = 0b00111111;
  2062  013B9C  0E3F               	movlw	low(03Fh)
  2063  013B9E  6E8B               	movwf	((c:3979)),c	;volatile
  2064                           	line	630
  2065                           ;main.c: 630: } else if (led_array[0] == 1 && le
                                 d_array[1] == 1 && led_array[7] == 1) {
  2066  013BA0  EFFF  F09F         	goto	l885
  2067                           	
  2068  013BA4                     l968:		; BSR set to: ?
  2069                           
  2070  013BA4  0400               	decf	((c:0)),c,w
  2071  013BA6  1001               	iorwf ((c:0+1)),c,w
  2072                           
  2073  013BA8  A4D8               	btfss	status,2
  2074  013BAA  EFD9  F09D         	goto	u4751
  2075  013BAE  EFDB  F09D         	goto	u4750
  2076  013BB2                     u4751:
  2077  013BB2  EFF5  F09D         	goto	l970
  2078  013BB6                     u4750:
  2079  013BB6  0402               	decf	(0+((c:0)+02h)),c,w
  2080  013BB8  1003               	iorwf (1+((c:0)+02h)),c,w
  2081                           
  2082  013BBA  A4D8               	btfss	status,2
  2083  013BBC  EFE2  F09D         	goto	u4761
  2084  013BC0  EFE4  F09D         	goto	u4760
  2085  013BC4                     u4761:
  2086  013BC4  EFF5  F09D         	goto	l970
  2087  013BC8                     u4760:
  2088  013BC8  040E               	decf	(0+((c:0)+0Eh)),c,w
  2089  013BCA  100F               	iorwf (1+((c:0)+0Eh)),c,w
  2090                           
  2091  013BCC  A4D8               	btfss	status,2
  2092  013BCE  EFEB  F09D         	goto	u4771
  2093  013BD2  EFED  F09D         	goto	u4770
  2094  013BD6                     u4771:
  2095  013BD6  EFF5  F09D         	goto	l970
  2096  013BDA                     u4770:
  2097                           	line	633
  2098                           ;main.c: 633: LATA = 0b10111111;
  2099  013BDA  0EBF               	movlw	low(0BFh)
  2100  013BDC  6E89               	movwf	((c:3977)),c	;volatile
  2101                           	line	635
  2102                           ;main.c: 635: LATB = 0b10000000;
  2103  013BDE  0E80               	movlw	low(080h)
  2104  013BE0  6E8A               	movwf	((c:3978)),c	;volatile
  2105                           	line	637
  2106                           ;main.c: 637: LATC = 0b00111111;
  2107  013BE2  0E3F               	movlw	low(03Fh)
  2108  013BE4  6E8B               	movwf	((c:3979)),c	;volatile
  2109                           	line	639
  2110                           ;main.c: 639: } else if (led_array[0] == 1 && le
                                 d_array[1] == 1 && led_array[8] == 1) {
  2111  013BE6  EFFF  F09F         	goto	l885
  2112                           	
  2113  013BEA                     l970:		; BSR set to: ?
  2114                           
  2115  013BEA  0400               	decf	((c:0)),c,w
  2116  013BEC  1001               	iorwf ((c:0+1)),c,w
  2117                           
  2118  013BEE  A4D8               	btfss	status,2
  2119  013BF0  EFFC  F09D         	goto	u4781
  2120  013BF4  EFFE  F09D         	goto	u4780
  2121  013BF8                     u4781:
  2122  013BF8  EF17  F09E         	goto	l972
  2123  013BFC                     u4780:
  2124  013BFC  0402               	decf	(0+((c:0)+02h)),c,w
  2125  013BFE  1003               	iorwf (1+((c:0)+02h)),c,w
  2126                           
  2127  013C00  A4D8               	btfss	status,2
  2128  013C02  EF05  F09E         	goto	u4791
  2129  013C06  EF07  F09E         	goto	u4790
  2130  013C0A                     u4791:
  2131  013C0A  EF17  F09E         	goto	l972
  2132  013C0E                     u4790:
  2133  013C0E  0410               	decf	(0+((c:0)+010h)),c,w
  2134  013C10  1011               	iorwf (1+((c:0)+010h)),c,w
  2135                           
  2136  013C12  A4D8               	btfss	status,2
  2137  013C14  EF0E  F09E         	goto	u4801
  2138  013C18  EF10  F09E         	goto	u4800
  2139  013C1C                     u4801:
  2140  013C1C  EF17  F09E         	goto	l972
  2141  013C20                     u4800:
  2142                           	line	642
  2143                           ;main.c: 642: LATA = 0b11111111;
  2144  013C20  6889               	setf	((c:3977)),c	;volatile
  2145                           	line	644
  2146                           ;main.c: 644: LATB = 0b10000000;
  2147  013C22  0E80               	movlw	low(080h)
  2148  013C24  6E8A               	movwf	((c:3978)),c	;volatile
  2149                           	line	646
  2150                           ;main.c: 646: LATC = 0b00111110;
  2151  013C26  0E3E               	movlw	low(03Eh)
  2152  013C28  6E8B               	movwf	((c:3979)),c	;volatile
  2153                           	line	648
  2154                           ;main.c: 648: } else if (led_array[0] == 1 && le
                                 d_array[1] == 1 && led_array[9] == 1) {
  2155  013C2A  EFFF  F09F         	goto	l885
  2156                           	
  2157  013C2E                     l972:		; BSR set to: ?
  2158                           
  2159  013C2E  0400               	decf	((c:0)),c,w
  2160  013C30  1001               	iorwf ((c:0+1)),c,w
  2161                           
  2162  013C32  A4D8               	btfss	status,2
  2163  013C34  EF1E  F09E         	goto	u4811
  2164  013C38  EF20  F09E         	goto	u4810
  2165  013C3C                     u4811:
  2166  013C3C  EF39  F09E         	goto	l974
  2167  013C40                     u4810:
  2168  013C40  0402               	decf	(0+((c:0)+02h)),c,w
  2169  013C42  1003               	iorwf (1+((c:0)+02h)),c,w
  2170                           
  2171  013C44  A4D8               	btfss	status,2
  2172  013C46  EF27  F09E         	goto	u4821
  2173  013C4A  EF29  F09E         	goto	u4820
  2174  013C4E                     u4821:
  2175  013C4E  EF39  F09E         	goto	l974
  2176  013C52                     u4820:
  2177  013C52  0412               	decf	(0+((c:0)+012h)),c,w
  2178  013C54  1013               	iorwf (1+((c:0)+012h)),c,w
  2179                           
  2180  013C56  A4D8               	btfss	status,2
  2181  013C58  EF30  F09E         	goto	u4831
  2182  013C5C  EF32  F09E         	goto	u4830
  2183  013C60                     u4831:
  2184  013C60  EF39  F09E         	goto	l974
  2185  013C64                     u4830:
  2186                           	line	651
  2187                           ;main.c: 651: LATA = 0b11111111;
  2188  013C64  6889               	setf	((c:3977)),c	;volatile
  2189                           	line	653
  2190                           ;main.c: 653: LATB = 0b10000000;
  2191  013C66  0E80               	movlw	low(080h)
  2192  013C68  6E8A               	movwf	((c:3978)),c	;volatile
  2193                           	line	655
  2194                           ;main.c: 655: LATC = 0b00111101;
  2195  013C6A  0E3D               	movlw	low(03Dh)
  2196  013C6C  6E8B               	movwf	((c:3979)),c	;volatile
  2197                           	line	656
  2198                           ;main.c: 656: } else if (led_array[0] == 1 && le
                                 d_array[1] == 1 && led_array[10] == 1) {
  2199  013C6E  EFFF  F09F         	goto	l885
  2200                           	
  2201  013C72                     l974:		; BSR set to: ?
  2202                           
  2203  013C72  0400               	decf	((c:0)),c,w
  2204  013C74  1001               	iorwf ((c:0+1)),c,w
  2205                           
  2206  013C76  A4D8               	btfss	status,2
  2207  013C78  EF40  F09E         	goto	u4841
  2208  013C7C  EF42  F09E         	goto	u4840
  2209  013C80                     u4841:
  2210  013C80  EF5B  F09E         	goto	l976
  2211  013C84                     u4840:
  2212  013C84  0402               	decf	(0+((c:0)+02h)),c,w
  2213  013C86  1003               	iorwf (1+((c:0)+02h)),c,w
  2214                           
  2215  013C88  A4D8               	btfss	status,2
  2216  013C8A  EF49  F09E         	goto	u4851
  2217  013C8E  EF4B  F09E         	goto	u4850
  2218  013C92                     u4851:
  2219  013C92  EF5B  F09E         	goto	l976
  2220  013C96                     u4850:
  2221  013C96  0414               	decf	(0+((c:0)+014h)),c,w
  2222  013C98  1015               	iorwf (1+((c:0)+014h)),c,w
  2223                           
  2224  013C9A  A4D8               	btfss	status,2
  2225  013C9C  EF52  F09E         	goto	u4861
  2226  013CA0  EF54  F09E         	goto	u4860
  2227  013CA4                     u4861:
  2228  013CA4  EF5B  F09E         	goto	l976
  2229  013CA8                     u4860:
  2230                           	line	659
  2231                           ;main.c: 659: LATA = 0b11111111;
  2232  013CA8  6889               	setf	((c:3977)),c	;volatile
  2233                           	line	661
  2234                           ;main.c: 661: LATB = 0b00000000;
  2235  013CAA  0E00               	movlw	low(0)
  2236  013CAC  6E8A               	movwf	((c:3978)),c	;volatile
  2237                           	line	663
  2238                           ;main.c: 663: LATC = 0b00111111;
  2239  013CAE  0E3F               	movlw	low(03Fh)
  2240  013CB0  6E8B               	movwf	((c:3979)),c	;volatile
  2241                           	line	664
  2242                           ;main.c: 664: } else if (led_array[0] == 1 && le
                                 d_array[1] == 1 && led_array[11] == 1) {
  2243  013CB2  EFFF  F09F         	goto	l885
  2244                           	
  2245  013CB6                     l976:		; BSR set to: ?
  2246                           
  2247  013CB6  0400               	decf	((c:0)),c,w
  2248  013CB8  1001               	iorwf ((c:0+1)),c,w
  2249                           
  2250  013CBA  A4D8               	btfss	status,2
  2251  013CBC  EF62  F09E         	goto	u4871
  2252  013CC0  EF64  F09E         	goto	u4870
  2253  013CC4                     u4871:
  2254  013CC4  EF7D  F09E         	goto	l978
  2255  013CC8                     u4870:
  2256  013CC8  0402               	decf	(0+((c:0)+02h)),c,w
  2257  013CCA  1003               	iorwf (1+((c:0)+02h)),c,w
  2258                           
  2259  013CCC  A4D8               	btfss	status,2
  2260  013CCE  EF6B  F09E         	goto	u4881
  2261  013CD2  EF6D  F09E         	goto	u4880
  2262  013CD6                     u4881:
  2263  013CD6  EF7D  F09E         	goto	l978
  2264  013CDA                     u4880:
  2265  013CDA  0416               	decf	(0+((c:0)+016h)),c,w
  2266  013CDC  1017               	iorwf (1+((c:0)+016h)),c,w
  2267                           
  2268  013CDE  A4D8               	btfss	status,2
  2269  013CE0  EF74  F09E         	goto	u4891
  2270  013CE4  EF76  F09E         	goto	u4890
  2271  013CE8                     u4891:
  2272  013CE8  EF7D  F09E         	goto	l978
  2273  013CEC                     u4890:
  2274                           	line	667
  2275                           ;main.c: 667: LATA = 0b11111111;
  2276  013CEC  6889               	setf	((c:3977)),c	;volatile
  2277                           	line	669
  2278                           ;main.c: 669: LATB = 0b10000000;
  2279  013CEE  0E80               	movlw	low(080h)
  2280  013CF0  6E8A               	movwf	((c:3978)),c	;volatile
  2281                           	line	671
  2282                           ;main.c: 671: LATC = 0b00111011;
  2283  013CF2  0E3B               	movlw	low(03Bh)
  2284  013CF4  6E8B               	movwf	((c:3979)),c	;volatile
  2285                           	line	672
  2286                           ;main.c: 672: } else if (led_array[0] == 1 && le
                                 d_array[1] == 1 && led_array[12] == 1) {
  2287  013CF6  EFFF  F09F         	goto	l885
  2288                           	
  2289  013CFA                     l978:		; BSR set to: ?
  2290                           
  2291  013CFA  0400               	decf	((c:0)),c,w
  2292  013CFC  1001               	iorwf ((c:0+1)),c,w
  2293                           
  2294  013CFE  A4D8               	btfss	status,2
  2295  013D00  EF84  F09E         	goto	u4901
  2296  013D04  EF86  F09E         	goto	u4900
  2297  013D08                     u4901:
  2298  013D08  EF9F  F09E         	goto	l980
  2299  013D0C                     u4900:
  2300  013D0C  0402               	decf	(0+((c:0)+02h)),c,w
  2301  013D0E  1003               	iorwf (1+((c:0)+02h)),c,w
  2302                           
  2303  013D10  A4D8               	btfss	status,2
  2304  013D12  EF8D  F09E         	goto	u4911
  2305  013D16  EF8F  F09E         	goto	u4910
  2306  013D1A                     u4911:
  2307  013D1A  EF9F  F09E         	goto	l980
  2308  013D1E                     u4910:
  2309  013D1E  0418               	decf	(0+((c:0)+018h)),c,w
  2310  013D20  1019               	iorwf (1+((c:0)+018h)),c,w
  2311                           
  2312  013D22  A4D8               	btfss	status,2
  2313  013D24  EF96  F09E         	goto	u4921
  2314  013D28  EF98  F09E         	goto	u4920
  2315  013D2C                     u4921:
  2316  013D2C  EF9F  F09E         	goto	l980
  2317  013D30                     u4920:
  2318                           	line	675
  2319                           ;main.c: 675: LATA = 0b11111111;
  2320  013D30  6889               	setf	((c:3977)),c	;volatile
  2321                           	line	677
  2322                           ;main.c: 677: LATB = 0b10000000;
  2323  013D32  0E80               	movlw	low(080h)
  2324  013D34  6E8A               	movwf	((c:3978)),c	;volatile
  2325                           	line	679
  2326                           ;main.c: 679: LATC = 0b00110111;
  2327  013D36  0E37               	movlw	low(037h)
  2328  013D38  6E8B               	movwf	((c:3979)),c	;volatile
  2329                           	line	681
  2330                           ;main.c: 681: } else if (led_array[0] == 1 && le
                                 d_array[6] == 1) {
  2331  013D3A  EFFF  F09F         	goto	l885
  2332                           	
  2333  013D3E                     l980:		; BSR set to: ?
  2334                           
  2335  013D3E  0400               	decf	((c:0)),c,w
  2336  013D40  1001               	iorwf ((c:0+1)),c,w
  2337                           
  2338  013D42  A4D8               	btfss	status,2
  2339  013D44  EFA6  F09E         	goto	u4931
  2340  013D48  EFA8  F09E         	goto	u4930
  2341  013D4C                     u4931:
  2342  013D4C  EFB9  F09E         	goto	l982
  2343  013D50                     u4930:
  2344  013D50  040C               	decf	(0+((c:0)+0Ch)),c,w
  2345  013D52  100D               	iorwf (1+((c:0)+0Ch)),c,w
  2346                           
  2347  013D54  A4D8               	btfss	status,2
  2348  013D56  EFAF  F09E         	goto	u4941
  2349  013D5A  EFB1  F09E         	goto	u4940
  2350  013D5E                     u4941:
  2351  013D5E  EFB9  F09E         	goto	l982
  2352  013D62                     u4940:
  2353                           	line	684
  2354                           ;main.c: 684: LATA = 0b11101111;
  2355  013D62  0EEF               	movlw	low(0EFh)
  2356  013D64  6E89               	movwf	((c:3977)),c	;volatile
  2357                           	line	686
  2358                           ;main.c: 686: LATB = 0b10000000;
  2359  013D66  0E80               	movlw	low(080h)
  2360  013D68  6E8A               	movwf	((c:3978)),c	;volatile
  2361                           	line	688
  2362                           ;main.c: 688: LATC = 0b00011111;
  2363  013D6A  0E1F               	movlw	low(01Fh)
  2364  013D6C  6E8B               	movwf	((c:3979)),c	;volatile
  2365                           	line	690
  2366                           ;main.c: 690: } else if (led_array[0] == 1 && le
                                 d_array[7] == 1) {
  2367  013D6E  EFFF  F09F         	goto	l885
  2368                           	
  2369  013D72                     l982:		; BSR set to: ?
  2370                           
  2371  013D72  0400               	decf	((c:0)),c,w
  2372  013D74  1001               	iorwf ((c:0+1)),c,w
  2373                           
  2374  013D76  A4D8               	btfss	status,2
  2375  013D78  EFC0  F09E         	goto	u4951
  2376  013D7C  EFC2  F09E         	goto	u4950
  2377  013D80                     u4951:
  2378  013D80  EFD3  F09E         	goto	l984
  2379  013D84                     u4950:
  2380  013D84  040E               	decf	(0+((c:0)+0Eh)),c,w
  2381  013D86  100F               	iorwf (1+((c:0)+0Eh)),c,w
  2382                           
  2383  013D88  A4D8               	btfss	status,2
  2384  013D8A  EFC9  F09E         	goto	u4961
  2385  013D8E  EFCB  F09E         	goto	u4960
  2386  013D92                     u4961:
  2387  013D92  EFD3  F09E         	goto	l984
  2388  013D96                     u4960:
  2389                           	line	693
  2390                           ;main.c: 693: LATA = 0b10111111;
  2391  013D96  0EBF               	movlw	low(0BFh)
  2392  013D98  6E89               	movwf	((c:3977)),c	;volatile
  2393                           	line	695
  2394                           ;main.c: 695: LATB = 0b10000000;
  2395  013D9A  0E80               	movlw	low(080h)
  2396  013D9C  6E8A               	movwf	((c:3978)),c	;volatile
  2397                           	line	697
  2398                           ;main.c: 697: LATC = 0b00011111;
  2399  013D9E  0E1F               	movlw	low(01Fh)
  2400  013DA0  6E8B               	movwf	((c:3979)),c	;volatile
  2401                           	line	699
  2402                           ;main.c: 699: } else if (led_array[0] == 1 && le
                                 d_array[8] == 1) {
  2403  013DA2  EFFF  F09F         	goto	l885
  2404                           	
  2405  013DA6                     l984:		; BSR set to: ?
  2406                           
  2407  013DA6  0400               	decf	((c:0)),c,w
  2408  013DA8  1001               	iorwf ((c:0+1)),c,w
  2409                           
  2410  013DAA  A4D8               	btfss	status,2
  2411  013DAC  EFDA  F09E         	goto	u4971
  2412  013DB0  EFDC  F09E         	goto	u4970
  2413  013DB4                     u4971:
  2414  013DB4  EFEC  F09E         	goto	l986
  2415  013DB8                     u4970:
  2416  013DB8  0410               	decf	(0+((c:0)+010h)),c,w
  2417  013DBA  1011               	iorwf (1+((c:0)+010h)),c,w
  2418                           
  2419  013DBC  A4D8               	btfss	status,2
  2420  013DBE  EFE3  F09E         	goto	u4981
  2421  013DC2  EFE5  F09E         	goto	u4980
  2422  013DC6                     u4981:
  2423  013DC6  EFEC  F09E         	goto	l986
  2424  013DCA                     u4980:
  2425                           	line	702
  2426                           ;main.c: 702: LATA = 0b11111111;
  2427  013DCA  6889               	setf	((c:3977)),c	;volatile
  2428                           	line	704
  2429                           ;main.c: 704: LATB = 0b10000000;
  2430  013DCC  0E80               	movlw	low(080h)
  2431  013DCE  6E8A               	movwf	((c:3978)),c	;volatile
  2432                           	line	706
  2433                           ;main.c: 706: LATC = 0b00011110;
  2434  013DD0  0E1E               	movlw	low(01Eh)
  2435  013DD2  6E8B               	movwf	((c:3979)),c	;volatile
  2436                           	line	708
  2437                           ;main.c: 708: } else if (led_array[0] == 1 && le
                                 d_array[9] == 1) {
  2438  013DD4  EFFF  F09F         	goto	l885
  2439                           	
  2440  013DD8                     l986:		; BSR set to: ?
  2441                           
  2442  013DD8  0400               	decf	((c:0)),c,w
  2443  013DDA  1001               	iorwf ((c:0+1)),c,w
  2444                           
  2445  013DDC  A4D8               	btfss	status,2
  2446  013DDE  EFF3  F09E         	goto	u4991
  2447  013DE2  EFF5  F09E         	goto	u4990
  2448  013DE6                     u4991:
  2449  013DE6  EF05  F09F         	goto	l988
  2450  013DEA                     u4990:
  2451  013DEA  0412               	decf	(0+((c:0)+012h)),c,w
  2452  013DEC  1013               	iorwf (1+((c:0)+012h)),c,w
  2453                           
  2454  013DEE  A4D8               	btfss	status,2
  2455  013DF0  EFFC  F09E         	goto	u5001
  2456  013DF4  EFFE  F09E         	goto	u5000
  2457  013DF8                     u5001:
  2458  013DF8  EF05  F09F         	goto	l988
  2459  013DFC                     u5000:
  2460                           	line	711
  2461                           ;main.c: 711: LATA = 0b11111111;
  2462  013DFC  6889               	setf	((c:3977)),c	;volatile
  2463                           	line	713
  2464                           ;main.c: 713: LATB = 0b10000000;
  2465  013DFE  0E80               	movlw	low(080h)
  2466  013E00  6E8A               	movwf	((c:3978)),c	;volatile
  2467                           	line	715
  2468                           ;main.c: 715: LATC = 0b00011101;
  2469  013E02  0E1D               	movlw	low(01Dh)
  2470  013E04  6E8B               	movwf	((c:3979)),c	;volatile
  2471                           	line	717
  2472                           ;main.c: 717: } else if (led_array[0] == 1 && le
                                 d_array[10] == 1) {
  2473  013E06  EFFF  F09F         	goto	l885
  2474                           	
  2475  013E0A                     l988:		; BSR set to: ?
  2476                           
  2477  013E0A  0400               	decf	((c:0)),c,w
  2478  013E0C  1001               	iorwf ((c:0+1)),c,w
  2479                           
  2480  013E0E  A4D8               	btfss	status,2
  2481  013E10  EF0C  F09F         	goto	u5011
  2482  013E14  EF0E  F09F         	goto	u5010
  2483  013E18                     u5011:
  2484  013E18  EF1E  F09F         	goto	l990
  2485  013E1C                     u5010:
  2486  013E1C  0414               	decf	(0+((c:0)+014h)),c,w
  2487  013E1E  1015               	iorwf (1+((c:0)+014h)),c,w
  2488                           
  2489  013E20  A4D8               	btfss	status,2
  2490  013E22  EF15  F09F         	goto	u5021
  2491  013E26  EF17  F09F         	goto	u5020
  2492  013E2A                     u5021:
  2493  013E2A  EF1E  F09F         	goto	l990
  2494  013E2E                     u5020:
  2495                           	line	720
  2496                           ;main.c: 720: LATA = 0b11111111;
  2497  013E2E  6889               	setf	((c:3977)),c	;volatile
  2498                           	line	722
  2499                           ;main.c: 722: LATB = 0b00000000;
  2500  013E30  0E00               	movlw	low(0)
  2501  013E32  6E8A               	movwf	((c:3978)),c	;volatile
  2502                           	line	724
  2503                           ;main.c: 724: LATC = 0b00011111;
  2504  013E34  0E1F               	movlw	low(01Fh)
  2505  013E36  6E8B               	movwf	((c:3979)),c	;volatile
  2506                           	line	726
  2507                           ;main.c: 726: } else if (led_array[0] == 1 && le
                                 d_array[11] == 1) {
  2508  013E38  EFFF  F09F         	goto	l885
  2509                           	
  2510  013E3C                     l990:		; BSR set to: ?
  2511                           
  2512  013E3C  0400               	decf	((c:0)),c,w
  2513  013E3E  1001               	iorwf ((c:0+1)),c,w
  2514                           
  2515  013E40  A4D8               	btfss	status,2
  2516  013E42  EF25  F09F         	goto	u5031
  2517  013E46  EF27  F09F         	goto	u5030
  2518  013E4A                     u5031:
  2519  013E4A  EF37  F09F         	goto	l992
  2520  013E4E                     u5030:
  2521  013E4E  0416               	decf	(0+((c:0)+016h)),c,w
  2522  013E50  1017               	iorwf (1+((c:0)+016h)),c,w
  2523                           
  2524  013E52  A4D8               	btfss	status,2
  2525  013E54  EF2E  F09F         	goto	u5041
  2526  013E58  EF30  F09F         	goto	u5040
  2527  013E5C                     u5041:
  2528  013E5C  EF37  F09F         	goto	l992
  2529  013E60                     u5040:
  2530                           	line	729
  2531                           ;main.c: 729: LATA = 0b11111111;
  2532  013E60  6889               	setf	((c:3977)),c	;volatile
  2533                           	line	731
  2534                           ;main.c: 731: LATB = 0b10000000;
  2535  013E62  0E80               	movlw	low(080h)
  2536  013E64  6E8A               	movwf	((c:3978)),c	;volatile
  2537                           	line	733
  2538                           ;main.c: 733: LATC = 0b00011011;
  2539  013E66  0E1B               	movlw	low(01Bh)
  2540  013E68  6E8B               	movwf	((c:3979)),c	;volatile
  2541                           	line	735
  2542                           ;main.c: 735: } else if (led_array[0] == 1 && le
                                 d_array[12] == 1) {
  2543  013E6A  EFFF  F09F         	goto	l885
  2544                           	
  2545  013E6E                     l992:		; BSR set to: ?
  2546                           
  2547  013E6E  0400               	decf	((c:0)),c,w
  2548  013E70  1001               	iorwf ((c:0+1)),c,w
  2549                           
  2550  013E72  A4D8               	btfss	status,2
  2551  013E74  EF3E  F09F         	goto	u5051
  2552  013E78  EF40  F09F         	goto	u5050
  2553  013E7C                     u5051:
  2554  013E7C  EF50  F09F         	goto	l994
  2555  013E80                     u5050:
  2556  013E80  0418               	decf	(0+((c:0)+018h)),c,w
  2557  013E82  1019               	iorwf (1+((c:0)+018h)),c,w
  2558                           
  2559  013E84  A4D8               	btfss	status,2
  2560  013E86  EF47  F09F         	goto	u5061
  2561  013E8A  EF49  F09F         	goto	u5060
  2562  013E8E                     u5061:
  2563  013E8E  EF50  F09F         	goto	l994
  2564  013E92                     u5060:
  2565                           	line	738
  2566                           ;main.c: 738: LATA = 0b11111111;
  2567  013E92  6889               	setf	((c:3977)),c	;volatile
  2568                           	line	740
  2569                           ;main.c: 740: LATB = 0b10000000;
  2570  013E94  0E80               	movlw	low(080h)
  2571  013E96  6E8A               	movwf	((c:3978)),c	;volatile
  2572                           	line	742
  2573                           ;main.c: 742: LATC = 0b00010111;
  2574  013E98  0E17               	movlw	low(017h)
  2575  013E9A  6E8B               	movwf	((c:3979)),c	;volatile
  2576                           	line	744
  2577                           ;main.c: 744: } else if (led_array[1] == 1 && le
                                 d_array[6] == 1) {
  2578  013E9C  EFFF  F09F         	goto	l885
  2579                           	
  2580  013EA0                     l994:		; BSR set to: ?
  2581                           
  2582  013EA0  0402               	decf	(0+((c:0)+02h)),c,w
  2583  013EA2  1003               	iorwf (1+((c:0)+02h)),c,w
  2584                           
  2585  013EA4  A4D8               	btfss	status,2
  2586  013EA6  EF57  F09F         	goto	u5071
  2587  013EAA  EF59  F09F         	goto	u5070
  2588  013EAE                     u5071:
  2589  013EAE  EF6A  F09F         	goto	l996
  2590  013EB2                     u5070:
  2591  013EB2  040C               	decf	(0+((c:0)+0Ch)),c,w
  2592  013EB4  100D               	iorwf (1+((c:0)+0Ch)),c,w
  2593                           
  2594  013EB6  A4D8               	btfss	status,2
  2595  013EB8  EF60  F09F         	goto	u5081
  2596  013EBC  EF62  F09F         	goto	u5080
  2597  013EC0                     u5081:
  2598  013EC0  EF6A  F09F         	goto	l996
  2599  013EC4                     u5080:
  2600                           	line	747
  2601                           ;main.c: 747: LATA = 0b11101111;
  2602  013EC4  0EEF               	movlw	low(0EFh)
  2603  013EC6  6E89               	movwf	((c:3977)),c	;volatile
  2604                           	line	749
  2605                           ;main.c: 749: LATB = 0b10000000;
  2606  013EC8  0E80               	movlw	low(080h)
  2607  013ECA  6E8A               	movwf	((c:3978)),c	;volatile
  2608                           	line	751
  2609                           ;main.c: 751: LATC = 0b00101111;
  2610  013ECC  0E2F               	movlw	low(02Fh)
  2611  013ECE  6E8B               	movwf	((c:3979)),c	;volatile
  2612                           	line	753
  2613                           ;main.c: 753: } else if (led_array[1] == 1 && le
                                 d_array[7] == 1) {
  2614  013ED0  EFFF  F09F         	goto	l885
  2615                           	
  2616  013ED4                     l996:		; BSR set to: ?
  2617                           
  2618  013ED4  0402               	decf	(0+((c:0)+02h)),c,w
  2619  013ED6  1003               	iorwf (1+((c:0)+02h)),c,w
  2620                           
  2621  013ED8  A4D8               	btfss	status,2
  2622  013EDA  EF71  F09F         	goto	u5091
  2623  013EDE  EF73  F09F         	goto	u5090
  2624  013EE2                     u5091:
  2625  013EE2  EF84  F09F         	goto	l998
  2626  013EE6                     u5090:
  2627  013EE6  040E               	decf	(0+((c:0)+0Eh)),c,w
  2628  013EE8  100F               	iorwf (1+((c:0)+0Eh)),c,w
  2629                           
  2630  013EEA  A4D8               	btfss	status,2
  2631  013EEC  EF7A  F09F         	goto	u5101
  2632  013EF0  EF7C  F09F         	goto	u5100
  2633  013EF4                     u5101:
  2634  013EF4  EF84  F09F         	goto	l998
  2635  013EF8                     u5100:
  2636                           	line	756
  2637                           ;main.c: 756: LATA = 0b10111111;
  2638  013EF8  0EBF               	movlw	low(0BFh)
  2639  013EFA  6E89               	movwf	((c:3977)),c	;volatile
  2640                           	line	758
  2641                           ;main.c: 758: LATB = 0b10000000;
  2642  013EFC  0E80               	movlw	low(080h)
  2643  013EFE  6E8A               	movwf	((c:3978)),c	;volatile
  2644                           	line	760
  2645                           ;main.c: 760: LATC = 0b00101111;
  2646  013F00  0E2F               	movlw	low(02Fh)
  2647  013F02  6E8B               	movwf	((c:3979)),c	;volatile
  2648                           	line	762
  2649                           ;main.c: 762: } else if (led_array[1] == 1 && le
                                 d_array[8] == 1) {
  2650  013F04  EFFF  F09F         	goto	l885
  2651                           	
  2652  013F08                     l998:		; BSR set to: ?
  2653                           
  2654  013F08  0402               	decf	(0+((c:0)+02h)),c,w
  2655  013F0A  1003               	iorwf (1+((c:0)+02h)),c,w
  2656                           
  2657  013F0C  A4D8               	btfss	status,2
  2658  013F0E  EF8B  F09F         	goto	u5111
  2659  013F12  EF8D  F09F         	goto	u5110
  2660  013F16                     u5111:
  2661  013F16  EF9D  F09F         	goto	l1000
  2662  013F1A                     u5110:
  2663  013F1A  0410               	decf	(0+((c:0)+010h)),c,w
  2664  013F1C  1011               	iorwf (1+((c:0)+010h)),c,w
  2665                           
  2666  013F1E  A4D8               	btfss	status,2
  2667  013F20  EF94  F09F         	goto	u5121
  2668  013F24  EF96  F09F         	goto	u5120
  2669  013F28                     u5121:
  2670  013F28  EF9D  F09F         	goto	l1000
  2671  013F2C                     u5120:
  2672                           	line	765
  2673                           ;main.c: 765: LATA = 0b11111111;
  2674  013F2C  6889               	setf	((c:3977)),c	;volatile
  2675                           	line	767
  2676                           ;main.c: 767: LATB = 0b10000000;
  2677  013F2E  0E80               	movlw	low(080h)
  2678  013F30  6E8A               	movwf	((c:3978)),c	;volatile
  2679                           	line	769
  2680                           ;main.c: 769: LATC = 0b00101110;
  2681  013F32  0E2E               	movlw	low(02Eh)
  2682  013F34  6E8B               	movwf	((c:3979)),c	;volatile
  2683                           	line	771
  2684                           ;main.c: 771: } else if (led_array[1] == 1 && le
                                 d_array[9] == 1) {
  2685  013F36  EFFF  F09F         	goto	l885
  2686                           	
  2687  013F3A                     l1000:		; BSR set to: ?
  2688                           
  2689  013F3A  0402               	decf	(0+((c:0)+02h)),c,w
  2690  013F3C  1003               	iorwf (1+((c:0)+02h)),c,w
  2691                           
  2692  013F3E  A4D8               	btfss	status,2
  2693  013F40  EFA4  F09F         	goto	u5131
  2694  013F44  EFA6  F09F         	goto	u5130
  2695  013F48                     u5131:
  2696  013F48  EFB6  F09F         	goto	l1002
  2697  013F4C                     u5130:
  2698  013F4C  0412               	decf	(0+((c:0)+012h)),c,w
  2699  013F4E  1013               	iorwf (1+((c:0)+012h)),c,w
  2700                           
  2701  013F50  A4D8               	btfss	status,2
  2702  013F52  EFAD  F09F         	goto	u5141
  2703  013F56  EFAF  F09F         	goto	u5140
  2704  013F5A                     u5141:
  2705  013F5A  EFB6  F09F         	goto	l1002
  2706  013F5E                     u5140:
  2707                           	line	774
  2708                           ;main.c: 774: LATA = 0b11111111;
  2709  013F5E  6889               	setf	((c:3977)),c	;volatile
  2710                           	line	776
  2711                           ;main.c: 776: LATB = 0b10000000;
  2712  013F60  0E80               	movlw	low(080h)
  2713  013F62  6E8A               	movwf	((c:3978)),c	;volatile
  2714                           	line	778
  2715                           ;main.c: 778: LATC = 0b00101101;
  2716  013F64  0E2D               	movlw	low(02Dh)
  2717  013F66  6E8B               	movwf	((c:3979)),c	;volatile
  2718                           	line	780
  2719                           ;main.c: 780: } else if (led_array[1] == 1 && le
                                 d_array[10] == 1) {
  2720  013F68  EFFF  F09F         	goto	l885
  2721                           	
  2722  013F6C                     l1002:		; BSR set to: ?
  2723                           
  2724  013F6C  0402               	decf	(0+((c:0)+02h)),c,w
  2725  013F6E  1003               	iorwf (1+((c:0)+02h)),c,w
  2726                           
  2727  013F70  A4D8               	btfss	status,2
  2728  013F72  EFBD  F09F         	goto	u5151
  2729  013F76  EFBF  F09F         	goto	u5150
  2730  013F7A                     u5151:
  2731  013F7A  EFCF  F09F         	goto	l1004
  2732  013F7E                     u5150:
  2733  013F7E  0414               	decf	(0+((c:0)+014h)),c,w
  2734  013F80  1015               	iorwf (1+((c:0)+014h)),c,w
  2735                           
  2736  013F82  A4D8               	btfss	status,2
  2737  013F84  EFC6  F09F         	goto	u5161
  2738  013F88  EFC8  F09F         	goto	u5160
  2739  013F8C                     u5161:
  2740  013F8C  EFCF  F09F         	goto	l1004
  2741  013F90                     u5160:
  2742                           	line	783
  2743                           ;main.c: 783: LATA = 0b11111111;
  2744  013F90  6889               	setf	((c:3977)),c	;volatile
  2745                           	line	785
  2746                           ;main.c: 785: LATB = 0b00000000;
  2747  013F92  0E00               	movlw	low(0)
  2748  013F94  6E8A               	movwf	((c:3978)),c	;volatile
  2749                           	line	787
  2750                           ;main.c: 787: LATC = 0b00101111;
  2751  013F96  0E2F               	movlw	low(02Fh)
  2752  013F98  6E8B               	movwf	((c:3979)),c	;volatile
  2753                           	line	789
  2754                           ;main.c: 789: } else if (led_array[1] == 1 && le
                                 d_array[11] == 1) {
  2755  013F9A  EFFF  F09F         	goto	l885
  2756                           	
  2757  013F9E                     l1004:		; BSR set to: ?
  2758                           
  2759  013F9E  0402               	decf	(0+((c:0)+02h)),c,w
  2760  013FA0  1003               	iorwf (1+((c:0)+02h)),c,w
  2761                           
  2762  013FA2  A4D8               	btfss	status,2
  2763  013FA4  EFD6  F09F         	goto	u5171
  2764  013FA8  EFD8  F09F         	goto	u5170
  2765  013FAC                     u5171:
  2766  013FAC  EFE8  F09F         	goto	l1006
  2767  013FB0                     u5170:
  2768  013FB0  0416               	decf	(0+((c:0)+016h)),c,w
  2769  013FB2  1017               	iorwf (1+((c:0)+016h)),c,w
  2770                           
  2771  013FB4  A4D8               	btfss	status,2
  2772  013FB6  EFDF  F09F         	goto	u5181
  2773  013FBA  EFE1  F09F         	goto	u5180
  2774  013FBE                     u5181:
  2775  013FBE  EFE8  F09F         	goto	l1006
  2776  013FC2                     u5180:
  2777                           	line	792
  2778                           ;main.c: 792: LATA = 0b11111111;
  2779  013FC2  6889               	setf	((c:3977)),c	;volatile
  2780                           	line	794
  2781                           ;main.c: 794: LATB = 0b10000000;
  2782  013FC4  0E80               	movlw	low(080h)
  2783  013FC6  6E8A               	movwf	((c:3978)),c	;volatile
  2784                           	line	796
  2785                           ;main.c: 796: LATC = 0b00101011;
  2786  013FC8  0E2B               	movlw	low(02Bh)
  2787  013FCA  6E8B               	movwf	((c:3979)),c	;volatile
  2788                           	line	798
  2789                           ;main.c: 798: } else if (led_array[1] == 1 && le
                                 d_array[12] == 1) {
  2790  013FCC  EFFF  F09F         	goto	l885
  2791                           	
  2792  013FD0                     l1006:		; BSR set to: ?
  2793                           
  2794  013FD0  0402               	decf	(0+((c:0)+02h)),c,w
  2795  013FD2  1003               	iorwf (1+((c:0)+02h)),c,w
  2796                           
  2797  013FD4  A4D8               	btfss	status,2
  2798  013FD6  EFEF  F09F         	goto	u5191
  2799  013FDA  EFF1  F09F         	goto	u5190
  2800  013FDE                     u5191:
  2801  013FDE  EFFF  F09F         	goto	l885
  2802  013FE2                     u5190:
  2803  013FE2  0418               	decf	(0+((c:0)+018h)),c,w
  2804  013FE4  1019               	iorwf (1+((c:0)+018h)),c,w
  2805                           
  2806  013FE6  A4D8               	btfss	status,2
  2807  013FE8  EFF8  F09F         	goto	u5201
  2808  013FEC  EFFA  F09F         	goto	u5200
  2809  013FF0                     u5201:
  2810  013FF0  EFFF  F09F         	goto	l885
  2811  013FF4                     u5200:
  2812                           	line	801
  2813                           ;main.c: 801: LATA = 0b11111111;
  2814  013FF4  6889               	setf	((c:3977)),c	;volatile
  2815                           	line	803
  2816                           ;main.c: 803: LATB = 0b10000000;
  2817  013FF6  0E80               	movlw	low(080h)
  2818  013FF8  6E8A               	movwf	((c:3978)),c	;volatile
  2819                           	line	805
  2820                           ;main.c: 805: LATC = 0b00100111;
  2821  013FFA  0E27               	movlw	low(027h)
  2822  013FFC  6E8B               	movwf	((c:3979)),c	;volatile
  2823                           	line	806
  2824                           	
  2825  013FFE                     l1008:		; BSR set to: ?
  2826                           
  2827                           	line	807
  2828                           	
  2829  013FFE                     l1007:		; BSR set to: ?
  2830                           
  2831                           	
  2832  013FFE                     l1005:		; BSR set to: ?
  2833                           
  2834                           	
  2835  013FFE                     l1003:		; BSR set to: ?
  2836                           
  2837                           	
  2838  013FFE                     l1001:		; BSR set to: ?
  2839                           
  2840                           	
  2841  013FFE                     l999:		; BSR set to: ?
  2842                           
  2843                           	
  2844  013FFE                     l997:		; BSR set to: ?
  2845                           
  2846                           	
  2847  013FFE                     l995:		; BSR set to: ?
  2848                           
  2849                           	
  2850  013FFE                     l993:		; BSR set to: ?
  2851                           
  2852                           	
  2853  013FFE                     l991:		; BSR set to: ?
  2854                           
  2855                           	
  2856  013FFE                     l989:		; BSR set to: ?
  2857                           
  2858                           	
  2859  013FFE                     l987:		; BSR set to: ?
  2860                           
  2861                           	
  2862  013FFE                     l985:		; BSR set to: ?
  2863                           
  2864                           	
  2865  013FFE                     l983:		; BSR set to: ?
  2866                           
  2867                           	
  2868  013FFE                     l981:		; BSR set to: ?
  2869                           
  2870                           	
  2871  013FFE                     l979:		; BSR set to: ?
  2872                           
  2873                           	
  2874  013FFE                     l977:		; BSR set to: ?
  2875                           
  2876                           	
  2877  013FFE                     l975:		; BSR set to: ?
  2878                           
  2879                           	
  2880  013FFE                     l973:		; BSR set to: ?
  2881                           
  2882                           	
  2883  013FFE                     l971:		; BSR set to: ?
  2884                           
  2885                           	
  2886  013FFE                     l969:		; BSR set to: ?
  2887                           
  2888                           	
  2889  013FFE                     l967:		; BSR set to: ?
  2890                           
  2891                           	
  2892  013FFE                     l965:		; BSR set to: ?
  2893                           
  2894                           	
  2895  013FFE                     l963:		; BSR set to: ?
  2896                           
  2897                           	
  2898  013FFE                     l961:		; BSR set to: ?
  2899                           
  2900                           	
  2901  013FFE                     l959:		; BSR set to: ?
  2902                           
  2903                           	
  2904  013FFE                     l957:		; BSR set to: ?
  2905                           
  2906                           	
  2907  013FFE                     l955:		; BSR set to: ?
  2908                           
  2909                           	
  2910  013FFE                     l953:		; BSR set to: ?
  2911                           
  2912                           	
  2913  013FFE                     l951:		; BSR set to: ?
  2914                           
  2915                           	
  2916  013FFE                     l949:		; BSR set to: ?
  2917                           
  2918                           	
  2919  013FFE                     l947:		; BSR set to: ?
  2920                           
  2921                           	
  2922  013FFE                     l945:		; BSR set to: ?
  2923                           
  2924                           	
  2925  013FFE                     l943:		; BSR set to: ?
  2926                           
  2927                           	
  2928  013FFE                     l941:		; BSR set to: ?
  2929                           
  2930                           	
  2931  013FFE                     l939:		; BSR set to: ?
  2932                           
  2933                           	
  2934  013FFE                     l937:		; BSR set to: ?
  2935                           
  2936                           	
  2937  013FFE                     l935:		; BSR set to: ?
  2938                           
  2939                           	
  2940  013FFE                     l933:		; BSR set to: ?
  2941                           
  2942                           	
  2943  013FFE                     l931:		; BSR set to: ?
  2944                           
  2945                           	
  2946  013FFE                     l929:		; BSR set to: ?
  2947                           
  2948                           	
  2949  013FFE                     l927:		; BSR set to: ?
  2950                           
  2951                           	
  2952  013FFE                     l925:		; BSR set to: ?
  2953                           
  2954                           	
  2955  013FFE                     l923:		; BSR set to: ?
  2956                           
  2957                           	
  2958  013FFE                     l921:		; BSR set to: ?
  2959                           
  2960                           	
  2961  013FFE                     l919:		; BSR set to: ?
  2962                           
  2963                           	
  2964  013FFE                     l917:		; BSR set to: ?
  2965                           
  2966                           	
  2967  013FFE                     l915:		; BSR set to: ?
  2968                           
  2969                           	
  2970  013FFE                     l913:		; BSR set to: ?
  2971                           
  2972                           	
  2973  013FFE                     l911:		; BSR set to: ?
  2974                           
  2975                           	
  2976  013FFE                     l909:		; BSR set to: ?
  2977                           
  2978                           	
  2979  013FFE                     l907:		; BSR set to: ?
  2980                           
  2981                           	
  2982  013FFE                     l905:		; BSR set to: ?
  2983                           
  2984                           	
  2985  013FFE                     l903:		; BSR set to: ?
  2986                           
  2987                           	
  2988  013FFE                     l901:		; BSR set to: ?
  2989                           
  2990                           	
  2991  013FFE                     l899:		; BSR set to: ?
  2992                           
  2993                           	
  2994  013FFE                     l897:		; BSR set to: ?
  2995                           
  2996                           	
  2997  013FFE                     l895:		; BSR set to: ?
  2998                           
  2999                           	
  3000  013FFE                     l893:		; BSR set to: ?
  3001                           
  3002                           	
  3003  013FFE                     l891:		; BSR set to: ?
  3004                           
  3005                           	
  3006  013FFE                     l889:		; BSR set to: ?
  3007                           
  3008                           	
  3009  013FFE                     l887:		; BSR set to: ?
  3010                           
  3011                           	
  3012  013FFE                     l885:		; BSR set to: ?
  3013                           
  3014                           ;main.c: 806: }
  3015                           ;main.c: 807: }
  3016  013FFE                     l883:
  3017                           			; BSR set to: ?
  3018                           
  3019  013FFE  0012               	return
  3020                           	opt stack 0
  3021                           GLOBAL __end_of_ToggleLeds
  3022  014000                     	__end_of_ToggleLeds:
  3023                           	FNSIZE	_ToggleLeds,0,0
  3024                           ; =============== function _ToggleLeds ends ====
                                 ========
  3025                           
  3026                           	signat	_ToggleLeds,88
  3027                           	FNCALL	_main,_ToggleLeds
  3028                           	FNROOT	_main
  3029                                   psect   const,class=CODE,space=0,reloc=2
  3030                           	global	_led_array
  3031                           	global	_led_array
  3032  000000                     _led_array  equ     0
  3033                           
  3034                           	DABS	1,0,26	;_led_array
  3035                           	global	_cur_inputs
  3036                           	global	_cur_inputs
  3037  000000                     _cur_inputs  equ     26
  3038                           
  3039                           	DABS	1,26,14	;_cur_inputs
  3040                           	global	_prev_inputs
  3041                           	global	_prev_inputs
  3042  000000                     _prev_inputs  equ     51
  3043                           
  3044                           	DABS	1,51,14	;_prev_inputs
  3045                           	global	_conv_result
  3046                           	global	_conv_result
  3047  000000                     _conv_result  equ     42
  3048                           
  3049                           	DABS	1,42,4	;_conv_result
  3050                           	global	_index
  3051                           	global	_index
  3052  000000                     _index  equ     40
  3053                           
  3054                           	DABS	1,40,2	;_index
  3055                           	global	_USART_Status
  3056                           	global	_USART_Status
  3057  000000                     _USART_Status  equ     48
  3058                           
  3059                           	DABS	1,48,1	;_USART_Status
  3060                           	global	_adc_num
  3061                           	global	_adc_num
  3062  000000                     _adc_num  equ     46
  3063                           
  3064                           	DABS	1,46,1	;_adc_num
  3065                           	global	_change_val
  3066                           	global	_change_val
  3067  000000                     _change_val  equ     47
  3068                           
  3069                           	DABS	1,47,1	;_change_val
  3070                           	global	_uart_in
  3071                           	global	_uart_in
  3072  000000                     _uart_in  equ     50
  3073                           
  3074                           	DABS	1,50,1	;_uart_in
  3075                           	global	_uart_out
  3076                           	global	_uart_out
  3077  000000                     _uart_out  equ     49
  3078                           
  3079                           	DABS	1,49,1	;_uart_out
  3080                           	global	_ADRES
  3081  000000                     _ADRES	equ	0xFC3
  3082                           	global	_ADCON0
  3083  000000                     _ADCON0	equ	0xFC2
  3084                           	global	_ADCON1
  3085  000000                     _ADCON1	equ	0xFC1
  3086                           	global	_ADCON2
  3087  000000                     _ADCON2	equ	0xFC0
  3088                           	global	_ADRESH
  3089  000000                     _ADRESH	equ	0xFC4
  3090                           	global	_ADRESL
  3091  000000                     _ADRESL	equ	0xFC3
  3092                           	global	_BAUDCON
  3093  000000                     _BAUDCON	equ	0xFB8
  3094                           	global	_LATA
  3095  000000                     _LATA	equ	0xF89
  3096                           	global	_LATB
  3097  000000                     _LATB	equ	0xF8A
  3098                           	global	_LATC
  3099  000000                     _LATC	equ	0xF8B
  3100                           	global	_OSCCON
  3101  000000                     _OSCCON	equ	0xFD3
  3102                           	global	_PIR1
  3103  000000                     _PIR1	equ	0xF9E
  3104                           	global	_RCREG
  3105  000000                     _RCREG	equ	0xFAE
  3106                           	global	_RCSTA
  3107  000000                     _RCSTA	equ	0xFAB
  3108                           	global	_SPBRG
  3109  000000                     _SPBRG	equ	0xFAF
  3110                           	global	_SPBRGH
  3111  000000                     _SPBRGH	equ	0xFB0
  3112                           	global	_TRISA
  3113  000000                     _TRISA	equ	0xF92
  3114                           	global	_TRISB
  3115  000000                     _TRISB	equ	0xF93
  3116                           	global	_TRISC
  3117  000000                     _TRISC	equ	0xF94
  3118                           	global	_TXREG
  3119  000000                     _TXREG	equ	0xFAD
  3120                           	global	_TXSTA
  3121  000000                     _TXSTA	equ	0xFAC
  3122                           	global	_ADON
  3123  000000                     _ADON	equ	0x7E10
  3124                           	global	_BRGH_x
  3125  000000                     _BRGH_x	equ	0x7D62
  3126                           	global	_CREN_x
  3127  000000                     _CREN_x	equ	0x7D5C
  3128                           	global	_CSRC_x
  3129  000000                     _CSRC_x	equ	0x7D67
  3130                           	global	_FERR
  3131  000000                     _FERR	equ	0x7D5A
  3132                           	global	_GODONE
  3133  000000                     _GODONE	equ	0x7E11
  3134                           	global	_OERR
  3135  000000                     _OERR	equ	0x7D59
  3136                           	global	_RCIE_x
  3137  000000                     _RCIE_x	equ	0x7CED
  3138                           	global	_RCIF
  3139  000000                     _RCIF	equ	0x7CF5
  3140                           	global	_RX9D
  3141  000000                     _RX9D	equ	0x7D58
  3142                           	global	_RX9_x
  3143  000000                     _RX9_x	equ	0x7D5E
  3144                           	global	_SENDB_x
  3145  000000                     _SENDB_x	equ	0x7D63
  3146                           	global	_SPEN_x
  3147  000000                     _SPEN_x	equ	0x7D5F
  3148                           	global	_SREN_x
  3149  000000                     _SREN_x	equ	0x7D5D
  3150                           	global	_SYNC_x
  3151  000000                     _SYNC_x	equ	0x7D64
  3152                           	global	_TRISC6
  3153  000000                     _TRISC6	equ	0x7CA6
  3154                           	global	_TRISC7
  3155  000000                     _TRISC7	equ	0x7CA7
  3156                           	global	_TRMT_x
  3157  000000                     _TRMT_x	equ	0x7D61
  3158                           	global	_TX9D
  3159  000000                     _TX9D	equ	0x7D60
  3160                           	global	_TX9_x
  3161  000000                     _TX9_x	equ	0x7D66
  3162                           	global	_TXEN_x
  3163  000000                     _TXEN_x	equ	0x7D65
  3164                           	global	_TXIE_x
  3165  000000                     _TXIE_x	equ	0x7CEC
  3166                           	global	_TXIF
  3167  000000                     _TXIF	equ	0x7CF4
  3168                           	psect	intsave_regs,class=BIGRAM,space=1
  3169                           	PSECT	param1,class=BANK1,space=1
  3170                           	GLOBAL	__Lparam1
  3171                           	FNCONF	param1,??,?
  3172                           	GLOBAL	__Labsbss0
  3173  000000                     __Labsbss0	EQU	0
  3174                           	GLOBAL	__Habsbss0
  3175  000000                     __Habsbss0	EQU	65
  3176                           GLOBAL	__Lparam, __Hparam
  3177                           GLOBAL	__Lparam1, __Hparam1
  3178  000000                     __Lparam	EQU	__Lparam1
  3179  000000                     __Hparam	EQU	__Hparam1


HI-TECH Software PICC-18 Macro Assembler V9.66 build 8870 
Symbol Table                                           Tue May 01 18:12:14 2012

                l900 345E                  l901 3FFE  
                l910 3558                  l902 3490  
                l903 3FFE                  l911 3FFE  
                l920 3656                  l912 358C  
                l904 34C2                  l905 3FFE  
                l913 3FFE                  l921 3FFE  
                l930 378A                  l922 3688  
                l914 35C0                  l906 34F4  
                l907 3FFE                  l915 3FFE  
                l923 3FFE                  l931 3FFE  
                l940 38CE                  l932 37CE  
                l924 36BA                  l916 35F2  
                l908 3526                  l909 3FFE  
                l917 3FFE                  l925 3FFE  
                l933 3FFE                  l941 3FFE  
                l950 39CA                  l942 3902  
                l934 3812                  l926 3700  
                l918 3624                  l919 3FFE  
                l927 3FFE                  l935 3FFE  
                l943 3FFE                  l951 3FFE  
                l871 31B0                  l960 3AC8  
                l952 39FC                  l944 3934  
                l936 3856                  l928 3746  
                l880 31DC                  l929 3FFE  
                l937 3FFE                  l945 3FFE  
                l953 3FFE                  l961 3FFE  
                l881 31D8                  l873 31BE  
                l970 3BEA                  l962 3AFA  
                l954 3A30                  l946 3966  
                l938 389A                  l890 332A  
                l882 31EC                  l874 31C6  
                l883 3FFE                  l891 3FFE  
                l939 3FFE                  l947 3FFE  
                l955 3FFE                  l963 3FFE  
                l971 3FFE                  l867 3212  
                l980 3D3E                  l972 3C2E  
                l964 3B2C                  l956 3A64  
                l948 3998                  l892 336E  
                l884 325C                  l868 31D4  
                l876 31D4                  l893 3FFE  
                l949 3FFE                  l957 3FFE  
                l965 3FFE                  l973 3FFE  
                l981 3FFE                  l885 3FFE  
                l877 3212                  l869 31A8  
                l990 3E3C                  l982 3D72  
                l974 3C72                  l966 3B5E  
                l958 3A96                  l894 33B2  
                l886 32A2                  l887 3FFE  
                l895 3FFE                  l959 3FFE  
                l967 3FFE                  l975 3FFE  
                l983 3FFE                  l991 3FFE  
                l879 3212                  l992 3E6E  
                l984 3DA6                  l976 3CB6  
                l968 3BA4                  l896 33F6  
                l888 32E6                  l889 3FFE  
                l897 3FFE                  l969 3FFE  
                l977 3FFE                  l985 3FFE  
                l993 3FFE                  l994 3EA0  
                l986 3DD8                  l978 3CFA  
                l898 342A                  l899 3FFE  
                l979 3FFE                  l987 3FFE  
                l995 3FFE                  l996 3ED4  
                l988 3E0A                  l989 3FFE  
                l997 3FFE                  l998 3F08  
                l999 3FFE          main@channel 0104  
               l1000 3F3A                 l1001 3FFE  
               l1002 3F6C                 l1003 3FFE  
               l1004 3F9E                 l1005 3FFE  
               l1006 3FD0                 l1007 3FFE  
               l1008 3FFE                 _ADON 007E10  
               _FERR 007D5A                 _LATA 000F89  
               _LATB 000F8A                 _LATC 000F8B  
               u4000 3482                 u4001 347E  
               u4010 34A2                 u4011 349E  
               u4100 357C                 u4020 34B4  
               u4101 3578                 u4021 34B0  
               u4110 359E                 u4030 34D4  
               u4111 359A                 u4031 34D0  
               u5000 3DFC                 u4200 367A  
               u4120 35B0                 u4040 34E6  
               u5001 3DF8                 u4201 3676  
               u4121 35AC                 u4041 34E2  
               u5010 3E1C                 u4210 369A  
               u4130 35D2                 u4050 3506  
               u5011 3E18                 u4211 3696  
               u4131 35CE                 u4051 3502  
               u5100 3EF8                 u5020 3E2E  
               u4300 376A                 u4220 36AC  
               u4140 35E4                 u4060 3518  
               u5101 3EF4                 u5021 3E2A  
               u4301 3766                 u4221 36A8  
               u4141 35E0                 u4061 3514  
               u5110 3F1A                 u5030 3E4E  
               u4310 377C                 u4230 36CC  
               u4150 3604                 u4070 3538  
               u5111 3F16                 u5031 3E4A  
               u4311 3778                 u4231 36C8  
               u4151 3600                 u4071 3534  
               u5200 3FF4                 u5120 3F2C  
               u5040 3E60                 u4400 3848  
               u4320 379C                 u4240 36DE  
               u4160 3616                 u4080 354A  
               u5201 3FF0                 u5121 3F28  
               u5041 3E5C                 u4401 3844  
               u4321 3798                 u4241 36DA  
               u4161 3612                 u4081 3546  
               u5130 3F4C                 u5050 3E80  
               u4410 3868                 u4330 37AE  
               u4250 36F0                 u4170 3636  
               u4090 356A                 u5210 31BE  
               u5131 3F48                 u5051 3E7C  
               u4411 3864                 u4331 37AA  
               u4251 36EC                 u4171 3632  
               u4091 3566                 u5211 31BA  
               u5140 3F5E                 u5060 3E92  
               u4500 3946                 u4420 387A  
               u4340 37C0                 u4260 3712  
               u4180 3648                 u5220 31D4  
               u5141 3F5A                 u5061 3E8E  
               u4501 3942                 u4421 3876  
               u4341 37BC                 u4261 370E  
               u4181 3644                 u5221 31D0  
               u5150 3F7E                 u5070 3EB2  
               u4510 3958                 u4430 388C  
               u4350 37E0                 u4270 3724  
               u4190 3668                 u5230 31EC  
               u5151 3F7A                 u5071 3EAE  
               u4511 3954                 u4431 3888  
               u4351 37DC                 u4271 3720  
               u4191 3664                 u5231 31E8  
               u5160 3F90                 u5080 3EC4  
               u4600 3A42                 u4520 3978  
               u4440 38AC                 u4360 37F2  
               u4280 3736                 u3800 32B4  
               u5161 3F8C                 u5081 3EC0  
               u4601 3A3E                 u4521 3974  
               u4441 38A8                 u4361 37EE  
               u4281 3732                 u3801 32B0  
               u5170 3FB0                 u5090 3EE6  
               u4610 3A54                 u4530 398A  
               u4450 38BE                 u4370 3804  
               u4290 3758                 u3810 32C6  
               u5171 3FAC                 u5091 3EE2  
               u4611 3A50                 u4531 3986  
               u4451 38BA                 u4371 3800  
               u4291 3754                 u3811 32C2  
               u5180 3FC2                 u4700 3B3E  
               u4620 3A76                 u4540 39AA  
               u4460 38E0                 u4380 3824  
               u3900 3392                 u3820 32D8  
               u3740 3228                 u5181 3FBE  
               u4701 3B3A                 u4621 3A72  
               u4541 39A6                 u4461 38DC  
               u4381 3820                 u3901 338E  
               u3821 32D4                 u3741 3224  
               u5190 3FE2                 u4710 3B50  
               u4630 3A88                 u4550 39BC  
               u4470 38F2                 u4390 3836  
               u3910 33A4                 u3830 32F8  
               u3750 323A                 u5191 3FDE  
               u4711 3B4C                 u4631 3A84  
               u4551 39B8                 u4471 38EE  
               u4391 3832                 u3911 33A0  
               u3831 32F4                 u3751 3236  
               u4800 3C20                 u4720 3B70  
               u4640 3AA8                 u4560 39DC  
               u4480 3914                 u3920 33C4  
               u3840 330A                 u3760 324C  
               u4801 3C1C                 u4721 3B6C  
               u4641 3AA4                 u4561 39D8  
               u4481 3910                 u3921 33C0  
               u3841 3306                 u3761 3248  
               u4810 3C40                 u4730 3B82  
               u4650 3ABA                 u4570 39EE  
               u4490 3926                 u3930 33D6  
               u3850 331C                 u3770 326E  
               u4811 3C3C                 u4731 3B7E  
               u4651 3AB6                 u4571 39EA  
               u4491 3922                 u3931 33D2  
               u3851 3318                 u3771 326A  
               _RCIF 007CF5                 u4900 3D0C  
               u4820 3C52                 u4740 3B94  
               u4660 3ADA                 u4580 3A0E  
               u3940 33E8                 u3860 333C  
               u3780 3280                 u4901 3D08  
               u4821 3C4E                 u4741 3B90  
               u4661 3AD6                 u4581 3A0A  
               u3941 33E4                 u3861 3338  
               u3781 327C                 u4910 3D1E  
               u4830 3C64                 u4750 3BB6  
               u4670 3AEC                 u4590 3A20  
               u3950 3408                 u3870 334E  
               u3790 3292                 u4911 3D1A  
               u4831 3C60                 u4751 3BB2  
               u4671 3AE8                 u4591 3A1C  
               u3951 3404                 u3871 334A  
               u3791 328E                 u4920 3D30  
               u4840 3C84                 u4760 3BC8  
               u4680 3B0C                 u3960 341A  
               u3880 3360                 _PIR1 000F9E  
               u4921 3D2C                 u4841 3C80  
               u4761 3BC4                 u4681 3B08  
               u3961 3416                 u3881 335C  
               u4930 3D50                 u4850 3C96  
               u4770 3BDA                 u4690 3B1E  
               u3970 343C                 u3890 3380  
               u4931 3D4C                 u4851 3C92  
               u4771 3BD6                 u4691 3B1A  
               u3971 3438                 u3891 337C  
               u4940 3D62                 u4860 3CA8  
               u4780 3BFC                 u3980 344E  
               u4941 3D5E                 u4861 3CA4  
               u4781 3BF8                 u3981 344A  
               u4950 3D84                 u4870 3CC8  
               u4790 3C0E                 u3990 3470  
               u4951 3D80                 u4871 3CC4  
               u4791 3C0A                 u3991 346C  
               u4960 3D96                 u4880 3CDA  
               u4961 3D92                 u4881 3CD6  
               _OERR 007D59                 u4970 3DB8  
               u4890 3CEC                 u4971 3DB4  
               u4891 3CE8                 u4980 3DCA  
               u4981 3DC6                 u4990 3DEA  
               u4991 3DE6                 _RX9D 007D58  
               _TX9D 007D60                 _TXIF 007CF4  
               _main 3170                 fsr0l 000FE9  
               start 0000                ?_main 0100  
              _ADRES 000FC3                _RCREG 000FAE  
              _RCSTA 000FAB                _SPBRG 000FAF  
              _TRISA 000F92                _TRISB 000F93  
              _TRISC 000F94                _RX9_x 007D5E  
              _TXREG 000FAD                _TX9_x 007D66  
              _TXSTA 000FAC                _index 000028  
              status 000FD8         __end_of_main 3216  
             ??_main 0104        __activetblptr 000000  
             _ADCON0 000FC2               _ADCON1 000FC1  
             _ADCON2 000FC0               _ADRESH 000FC4  
             _ADRESL 000FC3               _BRGH_x 007D62  
             _GODONE 007E11               _CREN_x 007D5C  
             _CSRC_x 007D67               _RCIE_x 007CED  
             _OSCCON 000FD3               _SPBRGH 000FB0  
             _TRISC6 007CA6               _TRISC7 007CA7  
             _SPEN_x 007D5F               _SREN_x 007D5D  
             _TRMT_x 007D61               _TXIE_x 007CEC  
             _TXEN_x 007D65               _SYNC_x 007D64  
             __Ldata 000000           _ToggleLeds 3216  
       __mediumconst 0D00           __accesstop 0060  
         _change_val 00002F              _BAUDCON 000FB8  
        ?_ToggleLeds 0108              _SENDB_x 007D63  
            __Hparam 0108           _cur_inputs 00001A  
            __Lparam 0100              _adc_num 00002E  
            __ramtop 0D00              _uart_in 000032  
      __Lmediumconst 0D00              postdec0 000FED  
            postinc0 000FEE           main@result 0105  
          __Habsbss0 000041            __Labsbss0 000000  
       ??_ToggleLeds 0108   __end_of_ToggleLeds 4000  
          _led_array 000000          __smallconst 0D00  
        _conv_result 00002A             __Hparam1 0108  
           __Lparam1 0100         __Lsmallconst 0D00  
           __config1 00F0FF             __config2 00FEFF  
           __config3 007FFF             __config4 00FFFB  
           __config5 00FFFF             __config6 00FFFF  
           __config7 00FFFF             _uart_out 000031  
           main@argc 0100             main@argv 0102  
        _prev_inputs 000033         _USART_Status 000030  
