

HI-TECH Software LITE Macro Assembler (PIC18) V9.66 build 8870 
                                                       Sat May 05 22:00:50 2012

HI-TECH Software Omniscient Code Generator build 8870
     1  000000                     opt subtitle "HI-TECH Software Omniscient Code G
                                 enerator build 8870"
     2                           
     3                           	processor	18F2682
     4  000000                     porta	equ	0F80h
     5  000000                     portb	equ	0F81h
     6  000000                     portc	equ	0F82h
     7  000000                     portd	equ	0F83h
     8  000000                     porte	equ	0F84h
     9  000000                     lata	equ	0F89h
    10  000000                     latb	equ	0F8Ah
    11  000000                     latc	equ	0F8Bh
    12  000000                     latd	equ	0F8Ch
    13  000000                     late	equ	0F8Dh
    14  000000                     trisa	equ	0F92h
    15  000000                     trisb	equ	0F93h
    16  000000                     trisc	equ	0F94h
    17  000000                     trisd	equ	0F95h
    18  000000                     trise	equ	0F96h
    19  000000                     pie1	equ	0F9Dh
    20  000000                     pir1	equ	0F9Eh
    21  000000                     ipr1	equ	0F9Fh
    22  000000                     pie2	equ	0FA0h
    23  000000                     pir2	equ	0FA1h
    24  000000                     ipr2	equ	0FA2h
    25  000000                     t3con	equ	0FB1h
    26  000000                     tmr3l	equ	0FB2h
    27  000000                     tmr3h	equ	0FB3h
    28  000000                     ccp1con	equ	0FBDh
    29  000000                     ccpr1l	equ	0FBEh
    30  000000                     ccpr1h	equ	0FBFh
    31  000000                     adcon1	equ	0FC1h
    32  000000                     adcon0	equ	0FC2h
    33  000000                     adresl	equ	0FC3h
    34  000000                     adresh	equ	0FC4h
    35  000000                     sspcon2	equ	0FC5h
    36  000000                     sspcon1	equ	0FC6h
    37  000000                     sspstat	equ	0FC7h
    38  000000                     sspadd	equ	0FC8h
    39  000000                     sspbuf	equ	0FC9h
    40  000000                     t2con	equ	0FCAh
    41  000000                     pr2	equ	0FCBh
    42  000000                     tmr2	equ	0FCCh
    43  000000                     t1con	equ	0FCDh
    44  000000                     tmr1l	equ	0FCEh
    45  000000                     tmr1h	equ	0FCFh
    46  000000                     rcon	equ	0FD0h
    47  000000                     wdtcon	equ	0FD1h
    48  000000                     lvdcon	equ	0FD2h
    49  000000                     osccon	equ	0FD3h
    50  000000                     t0con	equ	0FD5h
    51  000000                     tmr0l	equ	0FD6h
    52  000000                     tmr0h	equ	0FD7h
    53  000000                     status	equ	0FD8h
    54  000000                     fsr2	equ	0FD9h
    55  000000                     fsr2l	equ	0FD9h
    56  000000                     fsr2h	equ	0FDAh
    57  000000                     plusw2	equ	0FDBh
    58  000000                     preinc2	equ	0FDCh
    59  000000                     postdec2	equ	0FDDh
    60  000000                     postinc2	equ	0FDEh
    61  000000                     indf2	equ	0FDFh
    62  000000                     bsr	equ	0FE0h
    63  000000                     fsr1	equ	0FE1h
    64  000000                     fsr1l	equ	0FE1h
    65  000000                     fsr1h	equ	0FE2h
    66  000000                     plusw1	equ	0FE3h
    67  000000                     preinc1	equ	0FE4h
    68  000000                     postdec1	equ	0FE5h
    69  000000                     postinc1	equ	0FE6h
    70  000000                     indf1	equ	0FE7h
    71  000000                     wreg	equ	0FE8h
    72  000000                     fsr0	equ	0FE9h
    73  000000                     fsr0l	equ	0FE9h
    74  000000                     fsr0h	equ	0FEAh
    75  000000                     plusw0	equ	0FEBh
    76  000000                     preinc0	equ	0FECh
    77  000000                     postdec0	equ	0FEDh
    78  000000                     postinc0	equ	0FEEh
    79  000000                     indf0	equ	0FEFh
    80  000000                     intcon3	equ	0FF0h
    81  000000                     intcon2	equ	0FF1h
    82  000000                     intcon	equ	0FF2h
    83  000000                     prod	equ	0FF3h
    84  000000                     prodl	equ	0FF3h
    85  000000                     prodh	equ	0FF4h
    86  000000                     tablat	equ	0FF5h
    87  000000                     tblptr	equ	0FF6h
    88  000000                     tblptrl	equ	0FF6h
    89  000000                     tblptrh	equ	0FF7h
    90  000000                     tblptru	equ	0FF8h
    91  000000                     pcl	equ	0FF9h
    92  000000                     pclat	equ	0FFAh
    93  000000                     pclath	equ	0FFAh
    94  000000                     pclatu	equ	0FFBh
    95  000000                     stkptr	equ	0FFCh
    96  000000                     tosl	equ	0FFDh
    97  000000                     tosh	equ	0FFEh
    98  000000                     tosu	equ	0FFFh
    99                           	global	__ramtop
   100                           	global	__accesstop
   101                           # 20 "../code/main.c"
   102                           	global __config1 ;#
   103                           # 20 "../code/main.c"
   104  000000                     	__config1 equ 0xF0FF ;#
   105                           # 21 "../code/main.c"
   106                           	global __config2 ;#
   107                           # 21 "../code/main.c"
   108  000000                     	__config2 equ 0xFEFF ;#
   109                           # 22 "../code/main.c"
   110                           	global __config3 ;#
   111                           # 22 "../code/main.c"
   112  000000                     	__config3 equ 0x7FFF ;#
   113                           # 23 "../code/main.c"
   114                           	global __config4 ;#
   115                           # 23 "../code/main.c"
   116  000000                     	__config4 equ 0xFFFB & 0xFFFF ;#
   117                           # 24 "../code/main.c"
   118                           	global __config5 ;#
   119                           # 24 "../code/main.c"
   120  000000                     	__config5 equ 0xFFFF ;#
   121                           # 25 "../code/main.c"
   122                           	global __config6 ;#
   123                           # 25 "../code/main.c"
   124  000000                     	__config6 equ 0xFFFF ;#
   125                           # 26 "../code/main.c"
   126                           	global __config7 ;#
   127                           # 26 "../code/main.c"
   128  000000                     	__config7 equ 0xFFFF ;#
   129                           	GLOBAL	__activetblptr
   130  000000                     __activetblptr	EQU	0
   131                           	GLOBAL	__smallconst,__Lsmallconst
   132  000000                     __smallconst	EQU	__Lsmallconst
   133                           	GLOBAL	__mediumconst,__Lmediumconst
   134  000000                     __mediumconst	EQU	__Lmediumconst
   135                           	GLOBAL	__Ldata
   136  000000                     __Ldata	EQU	0
   137  000000                     main@channel	equ	??_main+0
   138                           	global	main@channel
   139  000000                     main@result	equ	??_main+1
   140                           	global	main@result
   141  000000                     main@i	equ	??_main+3
   142                           	global	main@i
   143  000000                     main@argc	equ	?_main+0
   144                           	global	main@argc
   145  000000                     main@argv	equ	?_main+2
   146                           	global	main@argv
   147  000000                     testToggle@i	equ	??_testToggle+0
   148                           	global	testToggle@i
   149  000000                     testToggle@i_68	equ	??_testToggle+2
   150                           	global	testToggle@i_68
   151  000000                     testToggle@i_70	equ	??_testToggle+4
   152                           	global	testToggle@i_70
   153  000000                     testToggle@i_72	equ	??_testToggle+6
   154                           	global	testToggle@i_72
   155  000000                     testToggle@i_74	equ	??_testToggle+8
   156                           	global	testToggle@i_74
   157  000000                     testToggle@i_76	equ	??_testToggle+10
   158                           	global	testToggle@i_76
   159  000000                     testToggle@i_78	equ	??_testToggle+12
   160                           	global	testToggle@i_78
   161  000000                     testToggle@i_80	equ	??_testToggle+14
   162                           	global	testToggle@i_80
   163  000000                     testToggle@i_82	equ	??_testToggle+16
   164+                          	global	testToggle@i_82
   165+ 000000                     testToggle@j	equ	??_testToggle+18
   166+                          	global	testToggle@j
   167+ 000000                     testToggle@j_69	equ	??_testToggle+20
   168                           	global	testToggle@j_69
   169  000000                     testToggle@j_71	equ	??_testToggle+22
   170                           	global	testToggle@j_71
   171  000000                     testToggle@j_73	equ	??_testToggle+24
   172                           	global	testToggle@j_73
   173  000000                     testToggle@j_75	equ	??_testToggle+26
   174                           	global	testToggle@j_75
   175  000000                     testToggle@j_77	equ	??_testToggle+28
   176                           	global	testToggle@j_77
   177  000000                     testToggle@j_79	equ	??_testToggle+30
   178                           	global	testToggle@j_79
   179  000000                     testToggle@j_81	equ	??_testToggle+32
   180                           	global	testToggle@j_81
   181  000000                     testToggle@j_83	equ	??_testToggle+34
   182                           	global	testToggle@j_83
   183  000000                     DelayMs@i	equ	??_DelayMs+0
   184                           	global	DelayMs@i
   185  000000                     DelayMs@_dcnt	equ	??_DelayMs+1
   186                           	global	DelayMs@_dcnt
   187  000000                     DelayMs@cnt	equ	?_DelayMs+0
   188                           	global	DelayMs@cnt
   189                           ;Data sizes: Strings 0, constant 0, data 0, bss 
                                 0, persistent 0 stack 51
   190                           	global	_main
   191                           	global	??_main
   192                           	global	?_main
   193                           
   194                           ; *************** function _main ***************
                                 **
   195                           ; Defined at:
   196                           ;		line 163 in file "../code/main.c"
   197                           ; Parameters:
   198                           ;		argc           size:   2offs:   0	type: int 
   199                           ;		argv           size:   2offs:   2	type: PTR P
                                 TR unsigned char 
   200                           ; Auto variables:
   201                           ;		channel     	       	type: unsigned char 
   202                           ;		result      	       	type: int 
   203                           ;		i           	       	type: int 
   204                           ; Return value:
   205                           ;		type: int 
   206                           ;		size: 2
   207                           ; Registers used:
   208                           ;		wreg, fsr0l, fsr0h, status,2, status,0, cstac
                                 k
   209                           ; Tracked objects:
   210                           ;		On entry : 0/0
   211                           ;		On exit  : 0/0
   212                           ;		Unchanged: 0/0
   213                           ; Data sizes:
   214                           ;		Autos:    5
   215                           ;		Params:   4
   216                           ;		Temp:     1
   217                           ;		Total:   10
   218                           ; This function calls:
   219                           ;		_ToggleLeds
   220                           ;		_testToggle
   221                           ; This function is called by:
   222                           ;		Startup code after reset
   223                           ; This function uses a non-reentrant model
   224                           ; 
   225                                   psect   text0,class=CODE,space=0,reloc=2
   226                           
   227                           	opt lm
   228                           	file	"../code/main.c"
   229                           	line	163
   230  000000                     	__size_of_main	equ	__end_of_main-_main
   231                                   psect   text0
   232                           ;main.c: 20: asm("\tglobal __config" "1"); asm("
                                 \t__config" "1" " equ " "0xF0FF");
   233                           ;main.c: 21: asm("\tglobal __config" "2"); asm("
                                 \t__config" "2" " equ " "0xFEFF");
   234                           ;main.c: 22: asm("\tglobal __config" "3"); asm("
                                 \t__config" "3" " equ " "0x7FFF");
   235                           ;main.c: 23: asm("\tglobal __config" "4"); asm("
                                 \t__config" "4" " equ " "0xFFFB & 0xFFFF");
   236                           ;main.c: 24: asm("\tglobal __config" "5"); asm("
                                 \t__config" "5" " equ " "0xFFFF");
   237                           ;main.c: 25: asm("\tglobal __config" "6"); asm("
                                 \t__config" "6" " equ " "0xFFFF");
   238                           ;main.c: 26: asm("\tglobal __config" "7"); asm("
                                 \t__config" "7" " equ " "0xFFFF");
   239                           	
   240  01275A                     _main:		; BSR set to: ?
   241                           
   242                           	opt stack 31
   243                           	line	166
   244                           ;main.c: 166: OSCCON |= 0b01110010;
   245  01275A  0E72               	movlw	(072h)&0ffh
   246  01275C  12D3               	iorwf	((c:4051)),c	;volatile
   247                           	line	169
   248                           ;main.c: 169: TRISA = 0b10101111;
   249  01275E  0EAF               	movlw	low(0AFh)
   250  012760  6E92               	movwf	((c:3986)),c	;volatile
   251                           	line	170
   252                           ;main.c: 170: TRISB = 0b00010010;
   253  012762  0E12               	movlw	low(012h)
   254  012764  6E93               	movwf	((c:3987)),c	;volatile
   255                           	line	171
   256                           ;main.c: 171: TRISC = 0b10000000;
   257  012766  0E80               	movlw	low(080h)
   258  012768  6E94               	movwf	((c:3988)),c	;volatile
   259                           	line	174
   260                           ;main.c: 174: ADCON0 = 0b00000000;
   261  01276A  0E00               	movlw	low(0)
   262  01276C  6EC2               	movwf	((c:4034)),c	;volatile
   263                           	line	175
   264                           ;main.c: 175: ADCON1 = 0b00000101;
   265  01276E  0E05               	movlw	low(05h)
   266  012770  6EC1               	movwf	((c:4033)),c	;volatile
   267                           	line	176
   268                           ;main.c: 176: ADCON2 = 0b10000000;
   269  012772  0E80               	movlw	low(080h)
   270  012774  6EC0               	movwf	((c:4032)),c	;volatile
   271                           	line	177
   272                           ;main.c: 177: ADCON2 = 0b00100000;
   273  012776  0E20               	movlw	low(020h)
   274  012778  6EC0               	movwf	((c:4032)),c	;volatile
   275                           	line	178
   276                           ;main.c: 178: adc_num = 0;
   277  01277A  0E00               	movlw	low(0)
   278  01277C  6E2E               	movwf	((c:46)),c	;volatile
   279                           	line	204
   280                           ;main.c: 204: SPBRGH = (((8000000L/19200UL)/16) 
                                 - 1) >> 8;
   281  01277E  0E00               	movlw	low(0)
   282  012780  6EB0               	movwf	((c:4016)),c	;volatile
   283                           	line	205
   284                           ;main.c: 205: SPBRG = (((8000000L/19200UL)/16) -
                                  1);
   285  012782  0E19               	movlw	low(019h)
   286  012784  6EAF               	movwf	((c:4015)),c	;volatile
   287                           	line	206
   288                           ;main.c: 206: BAUDCON = 0b00001000;
   289  012786  0E08               	movlw	low(08h)
   290  012788  6EB8               	movwf	((c:4024)),c	;volatile
   291                           	line	207
   292                           ;main.c: 207: RCSTA = 0b10010000;
   293  01278A  0E90               	movlw	low(090h)
   294  01278C  6EAB               	movwf	((c:4011)),c	;volatile
   295                           	line	208
   296                           ;main.c: 208: TXSTA = 0b00100000;
   297  01278E  0E20               	movlw	low(020h)
   298  012790  6EAC               	movwf	((c:4012)),c	;volatile
   299                           	line	212
   300                           ;main.c: 212: LATA = 0b11111111;
   301  012792  6889               	setf	((c:3977)),c	;volatile
   302                           	line	214
   303                           ;main.c: 214: LATB = 0b10000000;
   304  012794  0E80               	movlw	low(080h)
   305  012796  6E8A               	movwf	((c:3978)),c	;volatile
   306                           	line	216
   307                           ;main.c: 216: LATC = 0b00001111;
   308  012798  0E0F               	movlw	low(0Fh)
   309  01279A  6E8B               	movwf	((c:3979)),c	;volatile
   310                           	line	282
   311                           ;main.c: 282: while (0) {
   312  01279C  EFED  F093         	goto	l870
   313                           	line	287
   314                           	
   315  0127A0                     l872:		; BSR set to: ?
   316                           
   317                           	line	289
   318                           ;main.c: 289: continue;
   319  0127A0  EFD2  F093         	goto	l871
   320                           	line	290
   321                           	
   322  0127A4                     l871:		; BSR set to: ?
   323                           
   324                           	line	287
   325  0127A4  502F               	movf	((c:47)),c,w
   326  0127A6  B4D8               	btfsc	status,2
   327  0127A8  EFD8  F093         	goto	u4461
   328  0127AC  EFDA  F093         	goto	u4460
   329  0127B0                     u4461:
   330  0127B0  EFD0  F093         	goto	l872
   331  0127B4                     u4460:
   332                           	
   333  0127B4                     l873:		; BSR set to: ?
   334                           
   335                           	line	291
   336                           ;main.c: 290: }
   337                           ;main.c: 291: int result = cur_inputs[index];
   338  0127B4  90D8               	bcf	status,0
   339  0127B6  3428               	rlcf	((c:40)),c,w
   340  0127B8  0101               	movlb	1	; () banked
   341  0127BA  6F09               	movwf	(??_main+5+0)&0ffh
   342  0127BC  0E1A               	movlw	low((c:26))
   343  0127BE  0101               	movlb	1	; () banked
   344  0127C0  2509               	addwf	(??_main+5+0)&0ffh,w
   345  0127C2  6EE9               	movwf	c:fsr0l
   346  0127C4  6AEA               	clrf	1+c:fsr0l
   347  0127C6  0E00               	movlw	high((c:26))
   348  0127C8  22EA               	addwfc	1+c:fsr0l
   349  0127CA  0101               	movlb	1	; () banked
   350  0127CC  CFEE F105          	movff	postinc0,(main@result)
   351  0127D0  0101               	movlb	1	; () banked
   352  0127D2  CFED F106          	movff	postdec0,(main@result+1)
   353                           	line	292
   354                           ;main.c: 292: char channel = index;
   355  0127D6  C028 F104          	movff	(c:40),(main@channel)
   356                           	line	295
   357                           	
   358  0127DA                     l868:		; BSR set to: ?
   359                           
   360                           	line	282
   361                           	
   362  0127DA                     l870:		; BSR set to: ?
   363                           
   364                           	line	296
   365                           ;main.c: 295: }
   366                           ;main.c: 296: for (int i = 0; i < 13; i++) {
   367  0127DA  0E00               	movlw	low(0)
   368  0127DC  0101               	movlb	1	; () banked
   369  0127DE  0101               	movlb	1	; () banked
   370  0127E0  6F07               	movwf	((main@i))&0ffh
   371  0127E2  0E00               	movlw	high(0)
   372  0127E4  0101               	movlb	1	; () banked
   373  0127E6  6F08               	movwf	((main@i+1))&0ffh
   374  0127E8  0101               	movlb	1	; () banked
   375  0127EA  0101               	movlb	1	; () banked
   376  0127EC  5108               	movf	((main@i+1))&0ffh,w
   377  0127EE  0A80               	xorlw	80h
   378  0127F0  0F80               	addlw	-((0)^80h)
   379  0127F2  0E0D               	movlw	0Dh
   380  0127F4  B4D8               	btfsc	status,2
   381  0127F6  5D07               	subwf	((main@i))&0ffh,w
   382  0127F8  A0D8               	btfss	status,0
   383  0127FA  EF01  F094         	goto	u4471
   384  0127FE  EF03  F094         	goto	u4470
   385  012802                     u4471:
   386  012802  EF05  F094         	goto	l874
   387  012806                     u4470:
   388  012806  EF29  F094         	goto	l875
   389                           	
   390  01280A                     l874:		; BSR set to: ?
   391                           
   392                           	line	297
   393                           ;main.c: 297: led_array[i] = 0;
   394  01280A  0101               	movlb	1	; () banked
   395  01280C  90D8               	bcf	status,0
   396  01280E  0101               	movlb	1	; () banked
   397  012810  3507               	rlcf	((main@i))&0ffh,w
   398  012812  0101               	movlb	1	; () banked
   399  012814  6F09               	movwf	(??_main+5+0)&0ffh
   400  012816  0E00               	movlw	low((c:0))
   401  012818  0101               	movlb	1	; () banked
   402  01281A  2509               	addwf	(??_main+5+0)&0ffh,w
   403  01281C  6EE9               	movwf	c:fsr0l
   404  01281E  6AEA               	clrf	1+c:fsr0l
   405  012820  0E00               	movlw	high((c:0))
   406  012822  22EA               	addwfc	1+c:fsr0l
   407  012824  0E00               	movlw	low(0)
   408  012826  6EEE               	movwf	postinc0
   409  012828  0E00               	movlw	high(0)
   410  01282A  6EED               	movwf	postdec0
   411                           	line	296
   412  01282C  0101               	movlb	1	; () banked
   413  01282E  0101               	movlb	1	; () banked
   414  012830  4B07               	infsnz	((main@i))&0ffh
   415  012832  2B08               	incf	((main@i+1))&0ffh
   416  012834  0101               	movlb	1	; () banked
   417  012836  0101               	movlb	1	; () banked
   418  012838  5108               	movf	((main@i+1))&0ffh,w
   419  01283A  0A80               	xorlw	80h
   420  01283C  0F80               	addlw	-((0)^80h)
   421  01283E  0E0D               	movlw	0Dh
   422  012840  B4D8               	btfsc	status,2
   423  012842  5D07               	subwf	((main@i))&0ffh,w
   424  012844  A0D8               	btfss	status,0
   425  012846  EF27  F094         	goto	u4481
   426  01284A  EF29  F094         	goto	u4480
   427  01284E                     u4481:
   428  01284E  EF05  F094         	goto	l874
   429  012852                     u4480:
   430                           	
   431  012852                     l875:		; BSR set to: ?
   432                           
   433                           	line	300
   434                           ;main.c: 298: }
   435                           ;main.c: 300: testToggle();
   436  012852  EC2D  F094         	call	_testToggle	;wreg free
   437                           	line	304
   438                           ;main.c: 304: }
   439  012856                     l867:
   440                           			; BSR set to: ?
   441                           
   442                           	global	start
   443  012856  EF00  F000         	goto	start
   444                           	opt stack 0
   445                           GLOBAL __end_of_main
   446  01285A                     	__end_of_main:
   447                           	FNSIZE	_main,6,4
   448                           ; =============== function _main ends ==========
                                 ==
   449                           
   450                           	signat	_main,8314
   451                           	global	_testToggle
   452                           	global	??_testToggle
   453                           	global	?_testToggle
   454                           
   455                           ; *************** function _testToggle *********
                                 ********
   456                           ; Defined at:
   457                           ;		line 877 in file "../code/main.c"
   458                           ; Parameters:
   459                           ;		None
   460                           ; Auto variables:
   461                           ;		i           	       	type: int 
   462                           ;		i           	       	type: int 
   463                           ;		i           	       	type: int 
   464                           ;		i           	       	type: int 
   465                           ;		i           	       	type: int 
   466                           ;		i           	       	type: int 
   467                           ;		i           	       	type: int 
   468                           ;		i           	       	type: int 
   469                           ;		i           	       	type: int 
   470                           ;		j           	       	type: int 
   471                           ;		j           	       	type: int 
   472                           ;		j           	       	type: int 
   473                           ;		j           	       	type: int 
   474                           ;		j           	       	type: int 
   475                           ;		j           	       	type: int 
   476                           ;		j           	       	type: int 
   477                           ;		j           	       	type: int 
   478                           ;		j           	       	type: int 
   479                           ; Return value:
   480                           ;		type: void 
   481                           ;		size: 0
   482                           ; Registers used:
   483                           ;		wreg, fsr0l, fsr0h, status,2, status,0, cstac
                                 k
   484                           ; Tracked objects:
   485                           ;		On entry : 0/0
   486                           ;		On exit  : 0/0
   487                           ;		Unchanged: 0/0
   488                           ; Data sizes:
   489                           ;		Autos:   36
   490                           ;		Params:   0
   491                           ;		Temp:     1
   492                           ;		Total:   37
   493                           ; This function calls:
   494                           ;		_ToggleLeds
   495                           ;		_DelayMs
   496                           ; This function is called by:
   497                           ;		_main
   498                           ; This function uses a non-reentrant model
   499                           ; 
   500                                   psect   text1,class=CODE,space=0,reloc=2
   501                           
   502                           	opt lm
   503                           	file	"../code/main.c"
   504                           	line	877
   505  000000                     	__size_of_testToggle	equ	__end_of_testToggle-_t
                                 estToggle
   506                           ;main.c: 877: void testToggle () {
   507                           	
   508  01285A                     _testToggle:		; BSR set to: ?
   509                           
   510                           	opt stack 30
   511                           	line	883
   512                           ;main.c: 883: for (int i = 0; i < 7; i++) {
   513  01285A  0E00               	movlw	low(0)
   514  01285C  0101               	movlb	1	; () banked
   515  01285E  0101               	movlb	1	; () banked
   516  012860  6F0A               	movwf	((testToggle@i))&0ffh
   517  012862  0E00               	movlw	high(0)
   518  012864  0101               	movlb	1	; () banked
   519  012866  6F0B               	movwf	((testToggle@i+1))&0ffh
   520  012868  0101               	movlb	1	; () banked
   521  01286A  0101               	movlb	1	; () banked
   522  01286C  510B               	movf	((testToggle@i+1))&0ffh,w
   523  01286E  0A80               	xorlw	80h
   524  012870  0F80               	addlw	-((0)^80h)
   525  012872  0E07               	movlw	07h
   526  012874  B4D8               	btfsc	status,2
   527  012876  5D0A               	subwf	((testToggle@i))&0ffh,w
   528+ 012878  A0D8               	btfss	status,0
   529+ 01287A  EF41  F094         	goto	u4491
   530  01287E  EF43  F094         	goto	u4490
   531  012882                     u4491:
   532  012882  EF45  F094         	goto	l1004
   533  012886                     u4490:
   534  012886  EFBA  F094         	goto	l1005
   535                           	
   536  01288A                     l1004:		; BSR set to: ?
   537                           
   538                           	line	884
   539                           ;main.c: 884: for (int j = 0; j < sizeof(led_arr
                                 ay); j++) {
   540  01288A  0E00               	movlw	low(0)
   541  01288C  0101               	movlb	1	; () banked
   542  01288E  0101               	movlb	1	; () banked
   543  012890  6F1C               	movwf	((testToggle@j))&0ffh
   544  012892  0E00               	movlw	high(0)
   545  012894  0101               	movlb	1	; () banked
   546  012896  6F1D               	movwf	((testToggle@j+1))&0ffh
   547  012898  0E1A               	movlw	01Ah
   548  01289A  0101               	movlb	1	; () banked
   549  01289C  0101               	movlb	1	; () banked
   550  01289E  5D1C               	subwf	((testToggle@j))&0ffh,w
   551  0128A0  0E00               	movlw	0
   552  0128A2  0101               	movlb	1	; () banked
   553  0128A4  591D               	subwfb	((testToggle@j+1))&0ffh,w
   554  0128A6  A0D8               	btfss	status,0
   555  0128A8  EF58  F094         	goto	u4501
   556  0128AC  EF5A  F094         	goto	u4500
   557  0128B0                     u4501:
   558  0128B0  EF5C  F094         	goto	l1007
   559  0128B4                     u4500:
   560  0128B4  EF7F  F094         	goto	l1008
   561                           	
   562  0128B8                     l1007:		; BSR set to: ?
   563                           
   564                           	line	885
   565                           ;main.c: 885: led_array[j] = 0;
   566  0128B8  0101               	movlb	1	; () banked
   567  0128BA  90D8               	bcf	status,0
   568  0128BC  0101               	movlb	1	; () banked
   569  0128BE  351C               	rlcf	((testToggle@j))&0ffh,w
   570  0128C0  0101               	movlb	1	; () banked
   571  0128C2  6F2E               	movwf	(??_testToggle+36+0)&0ffh
   572  0128C4  0E00               	movlw	low((c:0))
   573  0128C6  0101               	movlb	1	; () banked
   574  0128C8  252E               	addwf	(??_testToggle+36+0)&0ffh,w
   575  0128CA  6EE9               	movwf	c:fsr0l
   576  0128CC  6AEA               	clrf	1+c:fsr0l
   577  0128CE  0E00               	movlw	high((c:0))
   578  0128D0  22EA               	addwfc	1+c:fsr0l
   579  0128D2  0E00               	movlw	low(0)
   580  0128D4  6EEE               	movwf	postinc0
   581  0128D6  0E00               	movlw	high(0)
   582  0128D8  6EED               	movwf	postdec0
   583                           	line	884
   584  0128DA  0101               	movlb	1	; () banked
   585  0128DC  0101               	movlb	1	; () banked
   586  0128DE  4B1C               	infsnz	((testToggle@j))&0ffh
   587  0128E0  2B1D               	incf	((testToggle@j+1))&0ffh
   588  0128E2  0E1A               	movlw	01Ah
   589  0128E4  0101               	movlb	1	; () banked
   590  0128E6  0101               	movlb	1	; () banked
   591  0128E8  5D1C               	subwf	((testToggle@j))&0ffh,w
   592  0128EA  0E00               	movlw	0
   593  0128EC  0101               	movlb	1	; () banked
   594  0128EE  591D               	subwfb	((testToggle@j+1))&0ffh,w
   595  0128F0  A0D8               	btfss	status,0
   596  0128F2  EF7D  F094         	goto	u4511
   597  0128F6  EF7F  F094         	goto	u4510
   598  0128FA                     u4511:
   599  0128FA  EF5C  F094         	goto	l1007
   600  0128FE                     u4510:
   601                           	
   602  0128FE                     l1008:		; BSR set to: ?
   603                           
   604                           	line	887
   605                           ;main.c: 886: }
   606                           ;main.c: 887: led_array[0] = 1;
   607  0128FE  0E01               	movlw	low(01h)
   608  012900  6E00               	movwf	((c:0)),c
   609  012902  0E00               	movlw	high(01h)
   610  012904  6E01               	movwf	((c:0+1)),c
   611                           	line	888
   612                           ;main.c: 888: led_array[1] = 1;
   613  012906  0E01               	movlw	low(01h)
   614  012908  6E02               	movwf	(0+((c:0)+02h)),c
   615  01290A  0E00               	movlw	high(01h)
   616  01290C  6E03               	movwf	(1+((c:0)+02h)),c
   617                           	line	889
   618                           ;main.c: 889: led_array[i+6] = 1;
   619  01290E  0101               	movlb	1	; () banked
   620  012910  90D8               	bcf	status,0
   621  012912  0101               	movlb	1	; () banked
   622  012914  350A               	rlcf	((testToggle@i))&0ffh,w
   623  012916  0101               	movlb	1	; () banked
   624  012918  6F2E               	movwf	(??_testToggle+36+0)&0ffh
   625  01291A  0E0C               	movlw	0Ch
   626  01291C  0101               	movlb	1	; () banked
   627  01291E  272E               	addwf	(??_testToggle+36+0)&0ffh
   628  012920  0E00               	movlw	low((c:0))
   629  012922  0101               	movlb	1	; () banked
   630+ 012924  252E               	addwf	(??_testToggle+36+0)&0ffh,w
   631  012926  6EE9               	movwf	c:fsr0l
   632  012928  6AEA               	clrf	1+c:fsr0l
   633  01292A  0E00               	movlw	high((c:0))
   634  01292C  22EA               	addwfc	1+c:fsr0l
   635  01292E  0E01               	movlw	low(01h)
   636  012930  6EEE               	movwf	postinc0
   637  012932  0E00               	movlw	high(01h)
   638  012934  6EED               	movwf	postdec0
   639                           	line	890
   640                           ;main.c: 890: ToggleLeds();
   641  012936  EC0B  F099         	call	_ToggleLeds	;wreg free
   642                           	line	891
   643                           ;main.c: 891: DelayMs(5000);
   644  01293A  0101               	movlb	1	; () banked
   645  01293C  6F2E               	movwf	(??_testToggle+36+0)&0ffh
   646  01293E  0E88               	movlw	low(088h)
   647  012940  0101               	movlb	1	; () banked
   648  012942  0101               	movlb	1	; () banked
   649  012944  6F2F               	movwf	((?_DelayMs))&0ffh
   650  012946  0101               	movlb	1	; () banked
   651  012948  512E               	movf	(??_testToggle+36+0)&0ffh,w
   652  01294A  EC89  F093         	call	_DelayMs	;wreg free
   653                           	line	883
   654  01294E  0101               	movlb	1	; () banked
   655  012950  0101               	movlb	1	; () banked
   656  012952  4B0A               	infsnz	((testToggle@i))&0ffh
   657  012954  2B0B               	incf	((testToggle@i+1))&0ffh
   658  012956  0101               	movlb	1	; () banked
   659  012958  0101               	movlb	1	; () banked
   660  01295A  510B               	movf	((testToggle@i+1))&0ffh,w
   661  01295C  0A80               	xorlw	80h
   662  01295E  0F80               	addlw	-((0)^80h)
   663  012960  0E07               	movlw	07h
   664  012962  B4D8               	btfsc	status,2
   665  012964  5D0A               	subwf	((testToggle@i))&0ffh,w
   666  012966  A0D8               	btfss	status,0
   667  012968  EFB8  F094         	goto	u4521
   668  01296C  EFBA  F094         	goto	u4520
   669  012970                     u4521:
   670  012970  EF45  F094         	goto	l1004
   671  012974                     u4520:
   672                           	
   673  012974                     l1005:		; BSR set to: ?
   674                           
   675                           	line	893
   676                           ;main.c: 892: }
   677                           ;main.c: 893: for (int i = 0; i < 7; i++) {
   678  012974  0E00               	movlw	low(0)
   679  012976  0101               	movlb	1	; () banked
   680  012978  0101               	movlb	1	; () banked
   681  01297A  6F0C               	movwf	((testToggle@i_68))&0ffh
   682  01297C  0E00               	movlw	high(0)
   683  01297E  0101               	movlb	1	; () banked
   684  012980  6F0D               	movwf	((testToggle@i_68+1))&0ffh
   685  012982  0101               	movlb	1	; () banked
   686  012984  0101               	movlb	1	; () banked
   687  012986  510D               	movf	((testToggle@i_68+1))&0ffh,w
   688  012988  0A80               	xorlw	80h
   689  01298A  0F80               	addlw	-((0)^80h)
   690  01298C  0E07               	movlw	07h
   691  01298E  B4D8               	btfsc	status,2
   692  012990  5D0C               	subwf	((testToggle@i_68))&0ffh,w
   693  012992  A0D8               	btfss	status,0
   694  012994  EFCE  F094         	goto	u4531
   695  012998  EFD0  F094         	goto	u4530
   696  01299C                     u4531:
   697  01299C  EFD2  F094         	goto	l1010
   698  0129A0                     u4530:
   699  0129A0  EF43  F095         	goto	l1011
   700                           	
   701  0129A4                     l1010:		; BSR set to: ?
   702                           
   703                           	line	894
   704                           ;main.c: 894: for (int j = 0; j < sizeof(led_arr
                                 ay); j++) {
   705  0129A4  0E00               	movlw	low(0)
   706  0129A6  0101               	movlb	1	; () banked
   707  0129A8  0101               	movlb	1	; () banked
   708  0129AA  6F1E               	movwf	((testToggle@j_69))&0ffh
   709  0129AC  0E00               	movlw	high(0)
   710  0129AE  0101               	movlb	1	; () banked
   711  0129B0  6F1F               	movwf	((testToggle@j_69+1))&0ffh
   712  0129B2  0E1A               	movlw	01Ah
   713  0129B4  0101               	movlb	1	; () banked
   714  0129B6  0101               	movlb	1	; () banked
   715  0129B8  5D1E               	subwf	((testToggle@j_69))&0ffh,w
   716  0129BA  0E00               	movlw	0
   717  0129BC  0101               	movlb	1	; () banked
   718  0129BE  591F               	subwfb	((testToggle@j_69+1))&0ffh,w
   719  0129C0  A0D8               	btfss	status,0
   720  0129C2  EFE5  F094         	goto	u4541
   721  0129C6  EFE7  F094         	goto	u4540
   722  0129CA                     u4541:
   723  0129CA  EFE9  F094         	goto	l1013
   724  0129CE                     u4540:
   725  0129CE  EF0C  F095         	goto	l1014
   726                           	
   727  0129D2                     l1013:		; BSR set to: ?
   728                           
   729                           	line	895
   730                           ;main.c: 895: led_array[j] = 0;
   731  0129D2  0101               	movlb	1	; () banked
   732  0129D4  90D8               	bcf	status,0
   733  0129D6  0101               	movlb	1	; () banked
   734  0129D8  351E               	rlcf	((testToggle@j_69))&0ffh,w
   735  0129DA  0101               	movlb	1	; () banked
   736  0129DC  6F2E               	movwf	(??_testToggle+36+0)&0ffh
   737  0129DE  0E00               	movlw	low((c:0))
   738  0129E0  0101               	movlb	1	; () banked
   739  0129E2  252E               	addwf	(??_testToggle+36+0)&0ffh,w
   740  0129E4  6EE9               	movwf	c:fsr0l
   741  0129E6  6AEA               	clrf	1+c:fsr0l
   742  0129E8  0E00               	movlw	high((c:0))
   743  0129EA  22EA               	addwfc	1+c:fsr0l
   744  0129EC  0E00               	movlw	low(0)
   745  0129EE  6EEE               	movwf	postinc0
   746  0129F0  0E00               	movlw	high(0)
   747  0129F2  6EED               	movwf	postdec0
   748                           	line	894
   749  0129F4  0101               	movlb	1	; () banked
   750  0129F6  0101               	movlb	1	; () banked
   751  0129F8  4B1E               	infsnz	((testToggle@j_69))&0ffh
   752  0129FA  2B1F               	incf	((testToggle@j_69+1))&0ffh
   753  0129FC  0E1A               	movlw	01Ah
   754  0129FE  0101               	movlb	1	; () banked
   755  012A00  0101               	movlb	1	; () banked
   756  012A02  5D1E               	subwf	((testToggle@j_69))&0ffh,w
   757  012A04  0E00               	movlw	0
   758  012A06  0101               	movlb	1	; () banked
   759  012A08  591F               	subwfb	((testToggle@j_69+1))&0ffh,w
   760  012A0A  A0D8               	btfss	status,0
   761  012A0C  EF0A  F095         	goto	u4551
   762  012A10  EF0C  F095         	goto	u4550
   763  012A14                     u4551:
   764  012A14  EFE9  F094         	goto	l1013
   765  012A18                     u4550:
   766                           	
   767  012A18                     l1014:		; BSR set to: ?
   768                           
   769                           	line	897
   770                           ;main.c: 896: }
   771                           ;main.c: 897: led_array[0] = 1;
   772  012A18  0E01               	movlw	low(01h)
   773  012A1A  6E00               	movwf	((c:0)),c
   774  012A1C  0E00               	movlw	high(01h)
   775  012A1E  6E01               	movwf	((c:0+1)),c
   776                           	line	898
   777                           ;main.c: 898: led_array[i+6] = 1;
   778  012A20  0101               	movlb	1	; () banked
   779  012A22  90D8               	bcf	status,0
   780  012A24  0101               	movlb	1	; () banked
   781  012A26  350C               	rlcf	((testToggle@i_68))&0ffh,w
   782  012A28  0101               	movlb	1	; () banked
   783  012A2A  6F2E               	movwf	(??_testToggle+36+0)&0ffh
   784  012A2C  0E0C               	movlw	0Ch
   785  012A2E  0101               	movlb	1	; () banked
   786  012A30  272E               	addwf	(??_testToggle+36+0)&0ffh
   787  012A32  0E00               	movlw	low((c:0))
   788  012A34  0101               	movlb	1	; () banked
   789  012A36  252E               	addwf	(??_testToggle+36+0)&0ffh,w
   790  012A38  6EE9               	movwf	c:fsr0l
   791  012A3A  6AEA               	clrf	1+c:fsr0l
   792  012A3C  0E00               	movlw	high((c:0))
   793  012A3E  22EA               	addwfc	1+c:fsr0l
   794  012A40  0E01               	movlw	low(01h)
   795  012A42  6EEE               	movwf	postinc0
   796  012A44  0E00               	movlw	high(01h)
   797  012A46  6EED               	movwf	postdec0
   798                           	line	899
   799                           ;main.c: 899: ToggleLeds();
   800  012A48  EC0B  F099         	call	_ToggleLeds	;wreg free
   801                           	line	900
   802                           ;main.c: 900: DelayMs(5000);
   803  012A4C  0101               	movlb	1	; () banked
   804  012A4E  6F2E               	movwf	(??_testToggle+36+0)&0ffh
   805  012A50  0E88               	movlw	low(088h)
   806  012A52  0101               	movlb	1	; () banked
   807  012A54  0101               	movlb	1	; () banked
   808  012A56  6F2F               	movwf	((?_DelayMs))&0ffh
   809  012A58  0101               	movlb	1	; () banked
   810  012A5A  512E               	movf	(??_testToggle+36+0)&0ffh,w
   811  012A5C  EC89  F093         	call	_DelayMs	;wreg free
   812                           	line	893
   813  012A60  0101               	movlb	1	; () banked
   814  012A62  0101               	movlb	1	; () banked
   815  012A64  4B0C               	infsnz	((testToggle@i_68))&0ffh
   816  012A66  2B0D               	incf	((testToggle@i_68+1))&0ffh
   817  012A68  0101               	movlb	1	; () banked
   818  012A6A  0101               	movlb	1	; () banked
   819  012A6C  510D               	movf	((testToggle@i_68+1))&0ffh,w
   820  012A6E  0A80               	xorlw	80h
   821  012A70  0F80               	addlw	-((0)^80h)
   822  012A72  0E07               	movlw	07h
   823  012A74  B4D8               	btfsc	status,2
   824  012A76  5D0C               	subwf	((testToggle@i_68))&0ffh,w
   825  012A78  A0D8               	btfss	status,0
   826  012A7A  EF41  F095         	goto	u4561
   827  012A7E  EF43  F095         	goto	u4560
   828  012A82                     u4561:
   829  012A82  EFD2  F094         	goto	l1010
   830  012A86                     u4560:
   831                           	
   832  012A86                     l1011:		; BSR set to: ?
   833                           
   834                           	line	902
   835                           ;main.c: 901: }
   836                           ;main.c: 902: for (int i = 0; i < 7; i++) {
   837  012A86  0E00               	movlw	low(0)
   838  012A88  0101               	movlb	1	; () banked
   839  012A8A  0101               	movlb	1	; () banked
   840  012A8C  6F0E               	movwf	((testToggle@i_70))&0ffh
   841  012A8E  0E00               	movlw	high(0)
   842  012A90  0101               	movlb	1	; () banked
   843  012A92  6F0F               	movwf	((testToggle@i_70+1))&0ffh
   844  012A94  0101               	movlb	1	; () banked
   845  012A96  0101               	movlb	1	; () banked
   846  012A98  510F               	movf	((testToggle@i_70+1))&0ffh,w
   847  012A9A  0A80               	xorlw	80h
   848  012A9C  0F80               	addlw	-((0)^80h)
   849  012A9E  0E07               	movlw	07h
   850  012AA0  B4D8               	btfsc	status,2
   851  012AA2  5D0E               	subwf	((testToggle@i_70))&0ffh,w
   852  012AA4  A0D8               	btfss	status,0
   853  012AA6  EF57  F095         	goto	u4571
   854  012AAA  EF59  F095         	goto	u4570
   855  012AAE                     u4571:
   856  012AAE  EF5B  F095         	goto	l1016
   857  012AB2                     u4570:
   858  012AB2  EFCC  F095         	goto	l1017
   859                           	
   860  012AB6                     l1016:		; BSR set to: ?
   861                           
   862                           	line	903
   863                           ;main.c: 903: for (int j = 0; j < sizeof(led_arr
                                 ay); j++) {
   864  012AB6  0E00               	movlw	low(0)
   865  012AB8  0101               	movlb	1	; () banked
   866  012ABA  0101               	movlb	1	; () banked
   867  012ABC  6F20               	movwf	((testToggle@j_71))&0ffh
   868  012ABE  0E00               	movlw	high(0)
   869  012AC0  0101               	movlb	1	; () banked
   870  012AC2  6F21               	movwf	((testToggle@j_71+1))&0ffh
   871  012AC4  0E1A               	movlw	01Ah
   872  012AC6  0101               	movlb	1	; () banked
   873  012AC8  0101               	movlb	1	; () banked
   874  012ACA  5D20               	subwf	((testToggle@j_71))&0ffh,w
   875  012ACC  0E00               	movlw	0
   876  012ACE  0101               	movlb	1	; () banked
   877  012AD0  5921               	subwfb	((testToggle@j_71+1))&0ffh,w
   878  012AD2  A0D8               	btfss	status,0
   879  012AD4  EF6E  F095         	goto	u4581
   880  012AD8  EF70  F095         	goto	u4580
   881  012ADC                     u4581:
   882  012ADC  EF72  F095         	goto	l1019
   883  012AE0                     u4580:
   884  012AE0  EF95  F095         	goto	l1020
   885                           	
   886  012AE4                     l1019:		; BSR set to: ?
   887                           
   888                           	line	904
   889                           ;main.c: 904: led_array[j] = 0;
   890  012AE4  0101               	movlb	1	; () banked
   891  012AE6  90D8               	bcf	status,0
   892  012AE8  0101               	movlb	1	; () banked
   893  012AEA  3520               	rlcf	((testToggle@j_71))&0ffh,w
   894  012AEC  0101               	movlb	1	; () banked
   895  012AEE  6F2E               	movwf	(??_testToggle+36+0)&0ffh
   896  012AF0  0E00               	movlw	low((c:0))
   897  012AF2  0101               	movlb	1	; () banked
   898  012AF4  252E               	addwf	(??_testToggle+36+0)&0ffh,w
   899  012AF6  6EE9               	movwf	c:fsr0l
   900  012AF8  6AEA               	clrf	1+c:fsr0l
   901  012AFA  0E00               	movlw	high((c:0))
   902  012AFC  22EA               	addwfc	1+c:fsr0l
   903  012AFE  0E00               	movlw	low(0)
   904  012B00  6EEE               	movwf	postinc0
   905  012B02  0E00               	movlw	high(0)
   906  012B04  6EED               	movwf	postdec0
   907                           	line	903
   908  012B06  0101               	movlb	1	; () banked
   909  012B08  0101               	movlb	1	; () banked
   910  012B0A  4B20               	infsnz	((testToggle@j_71))&0ffh
   911  012B0C  2B21               	incf	((testToggle@j_71+1))&0ffh
   912  012B0E  0E1A               	movlw	01Ah
   913  012B10  0101               	movlb	1	; () banked
   914  012B12  0101               	movlb	1	; () banked
   915  012B14  5D20               	subwf	((testToggle@j_71))&0ffh,w
   916  012B16  0E00               	movlw	0
   917  012B18  0101               	movlb	1	; () banked
   918  012B1A  5921               	subwfb	((testToggle@j_71+1))&0ffh,w
   919  012B1C  A0D8               	btfss	status,0
   920  012B1E  EF93  F095         	goto	u4591
   921  012B22  EF95  F095         	goto	u4590
   922  012B26                     u4591:
   923  012B26  EF72  F095         	goto	l1019
   924  012B2A                     u4590:
   925                           	
   926  012B2A                     l1020:		; BSR set to: ?
   927                           
   928                           	line	906
   929                           ;main.c: 905: }
   930                           ;main.c: 906: led_array[1] = 1;
   931  012B2A  0E01               	movlw	low(01h)
   932  012B2C  6E02               	movwf	(0+((c:0)+02h)),c
   933  012B2E  0E00               	movlw	high(01h)
   934  012B30  6E03               	movwf	(1+((c:0)+02h)),c
   935                           	line	907
   936                           ;main.c: 907: led_array[i+6] = 1;
   937  012B32  0101               	movlb	1	; () banked
   938  012B34  90D8               	bcf	status,0
   939  012B36  0101               	movlb	1	; () banked
   940  012B38  350E               	rlcf	((testToggle@i_70))&0ffh,w
   941  012B3A  0101               	movlb	1	; () banked
   942  012B3C  6F2E               	movwf	(??_testToggle+36+0)&0ffh
   943  012B3E  0E0C               	movlw	0Ch
   944  012B40  0101               	movlb	1	; () banked
   945  012B42  272E               	addwf	(??_testToggle+36+0)&0ffh
   946  012B44  0E00               	movlw	low((c:0))
   947  012B46  0101               	movlb	1	; () banked
   948  012B48  252E               	addwf	(??_testToggle+36+0)&0ffh,w
   949  012B4A  6EE9               	movwf	c:fsr0l
   950  012B4C  6AEA               	clrf	1+c:fsr0l
   951  012B4E  0E00               	movlw	high((c:0))
   952  012B50  22EA               	addwfc	1+c:fsr0l
   953  012B52  0E01               	movlw	low(01h)
   954  012B54  6EEE               	movwf	postinc0
   955  012B56  0E00               	movlw	high(01h)
   956  012B58  6EED               	movwf	postdec0
   957                           	line	908
   958                           ;main.c: 908: ToggleLeds();
   959  012B5A  EC0B  F099         	call	_ToggleLeds	;wreg free
   960                           	line	909
   961                           ;main.c: 909: DelayMs(5000);
   962  012B5E  0101               	movlb	1	; () banked
   963  012B60  6F2E               	movwf	(??_testToggle+36+0)&0ffh
   964  012B62  0E88               	movlw	low(088h)
   965  012B64  0101               	movlb	1	; () banked
   966  012B66  0101               	movlb	1	; () banked
   967  012B68  6F2F               	movwf	((?_DelayMs))&0ffh
   968  012B6A  0101               	movlb	1	; () banked
   969  012B6C  512E               	movf	(??_testToggle+36+0)&0ffh,w
   970  012B6E  EC89  F093         	call	_DelayMs	;wreg free
   971                           	line	902
   972  012B72  0101               	movlb	1	; () banked
   973  012B74  0101               	movlb	1	; () banked
   974  012B76  4B0E               	infsnz	((testToggle@i_70))&0ffh
   975  012B78  2B0F               	incf	((testToggle@i_70+1))&0ffh
   976  012B7A  0101               	movlb	1	; () banked
   977  012B7C  0101               	movlb	1	; () banked
   978  012B7E  510F               	movf	((testToggle@i_70+1))&0ffh,w
   979  012B80  0A80               	xorlw	80h
   980  012B82  0F80               	addlw	-((0)^80h)
   981  012B84  0E07               	movlw	07h
   982  012B86  B4D8               	btfsc	status,2
   983  012B88  5D0E               	subwf	((testToggle@i_70))&0ffh,w
   984  012B8A  A0D8               	btfss	status,0
   985  012B8C  EFCA  F095         	goto	u4601
   986  012B90  EFCC  F095         	goto	u4600
   987  012B94                     u4601:
   988  012B94  EF5B  F095         	goto	l1016
   989  012B98                     u4600:
   990                           	
   991  012B98                     l1017:		; BSR set to: ?
   992                           
   993                           	line	913
   994                           ;main.c: 910: }
   995                           ;main.c: 913: for (int i = 0; i < 7; i++) {
   996  012B98  0E00               	movlw	low(0)
   997  012B9A  0101               	movlb	1	; () banked
   998  012B9C  0101               	movlb	1	; () banked
   999  012B9E  6F10               	movwf	((testToggle@i_72))&0ffh
  1000  012BA0  0E00               	movlw	high(0)
  1001  012BA2  0101               	movlb	1	; () banked
  1002  012BA4  6F11               	movwf	((testToggle@i_72+1))&0ffh
  1003  012BA6  0101               	movlb	1	; () banked
  1004  012BA8  0101               	movlb	1	; () banked
  1005  012BAA  5111               	movf	((testToggle@i_72+1))&0ffh,w
  1006  012BAC  0A80               	xorlw	80h
  1007  012BAE  0F80               	addlw	-((0)^80h)
  1008  012BB0  0E07               	movlw	07h
  1009  012BB2  B4D8               	btfsc	status,2
  1010  012BB4  5D10               	subwf	((testToggle@i_72))&0ffh,w
  1011  012BB6  A0D8               	btfss	status,0
  1012  012BB8  EFE0  F095         	goto	u4611
  1013  012BBC  EFE2  F095         	goto	u4610
  1014  012BC0                     u4611:
  1015  012BC0  EFE4  F095         	goto	l1022
  1016  012BC4                     u4610:
  1017  012BC4  EF59  F096         	goto	l1023
  1018                           	
  1019  012BC8                     l1022:		; BSR set to: ?
  1020                           
  1021                           	line	914
  1022                           ;main.c: 914: for (int j = 0; j < sizeof(led_arr
                                 ay); j++) {
  1023  012BC8  0E00               	movlw	low(0)
  1024  012BCA  0101               	movlb	1	; () banked
  1025  012BCC  0101               	movlb	1	; () banked
  1026  012BCE  6F22               	movwf	((testToggle@j_73))&0ffh
  1027  012BD0  0E00               	movlw	high(0)
  1028  012BD2  0101               	movlb	1	; () banked
  1029  012BD4  6F23               	movwf	((testToggle@j_73+1))&0ffh
  1030  012BD6  0E1A               	movlw	01Ah
  1031  012BD8  0101               	movlb	1	; () banked
  1032  012BDA  0101               	movlb	1	; () banked
  1033  012BDC  5D22               	subwf	((testToggle@j_73))&0ffh,w
  1034  012BDE  0E00               	movlw	0
  1035  012BE0  0101               	movlb	1	; () banked
  1036  012BE2  5923               	subwfb	((testToggle@j_73+1))&0ffh,w
  1037  012BE4  A0D8               	btfss	status,0
  1038  012BE6  EFF7  F095         	goto	u4621
  1039  012BEA  EFF9  F095         	goto	u4620
  1040  012BEE                     u4621:
  1041  012BEE  EFFB  F095         	goto	l1025
  1042  012BF2                     u4620:
  1043  012BF2  EF1E  F096         	goto	l1026
  1044                           	
  1045  012BF6                     l1025:		; BSR set to: ?
  1046                           
  1047                           	line	915
  1048                           ;main.c: 915: led_array[j] = 0;
  1049  012BF6  0101               	movlb	1	; () banked
  1050  012BF8  90D8               	bcf	status,0
  1051  012BFA  0101               	movlb	1	; () banked
  1052  012BFC  3522               	rlcf	((testToggle@j_73))&0ffh,w
  1053  012BFE  0101               	movlb	1	; () banked
  1054  012C00  6F2E               	movwf	(??_testToggle+36+0)&0ffh
  1055  012C02  0E00               	movlw	low((c:0))
  1056  012C04  0101               	movlb	1	; () banked
  1057  012C06  252E               	addwf	(??_testToggle+36+0)&0ffh,w
  1058  012C08  6EE9               	movwf	c:fsr0l
  1059  012C0A  6AEA               	clrf	1+c:fsr0l
  1060  012C0C  0E00               	movlw	high((c:0))
  1061  012C0E  22EA               	addwfc	1+c:fsr0l
  1062  012C10  0E00               	movlw	low(0)
  1063  012C12  6EEE               	movwf	postinc0
  1064  012C14  0E00               	movlw	high(0)
  1065  012C16  6EED               	movwf	postdec0
  1066                           	line	914
  1067  012C18  0101               	movlb	1	; () banked
  1068  012C1A  0101               	movlb	1	; () banked
  1069  012C1C  4B22               	infsnz	((testToggle@j_73))&0ffh
  1070  012C1E  2B23               	incf	((testToggle@j_73+1))&0ffh
  1071  012C20  0E1A               	movlw	01Ah
  1072  012C22  0101               	movlb	1	; () banked
  1073  012C24  0101               	movlb	1	; () banked
  1074  012C26  5D22               	subwf	((testToggle@j_73))&0ffh,w
  1075  012C28  0E00               	movlw	0
  1076  012C2A  0101               	movlb	1	; () banked
  1077  012C2C  5923               	subwfb	((testToggle@j_73+1))&0ffh,w
  1078  012C2E  A0D8               	btfss	status,0
  1079  012C30  EF1C  F096         	goto	u4631
  1080  012C34  EF1E  F096         	goto	u4630
  1081  012C38                     u4631:
  1082  012C38  EFFB  F095         	goto	l1025
  1083  012C3C                     u4630:
  1084                           	
  1085  012C3C                     l1026:		; BSR set to: ?
  1086                           
  1087                           	line	917
  1088                           ;main.c: 916: }
  1089                           ;main.c: 917: led_array[2] = 1;
  1090  012C3C  0E01               	movlw	low(01h)
  1091  012C3E  6E04               	movwf	(0+((c:0)+04h)),c
  1092  012C40  0E00               	movlw	high(01h)
  1093  012C42  6E05               	movwf	(1+((c:0)+04h)),c
  1094                           	line	918
  1095                           ;main.c: 918: led_array[3] = 1;
  1096  012C44  0E01               	movlw	low(01h)
  1097  012C46  6E06               	movwf	(0+((c:0)+06h)),c
  1098  012C48  0E00               	movlw	high(01h)
  1099  012C4A  6E07               	movwf	(1+((c:0)+06h)),c
  1100                           	line	919
  1101                           ;main.c: 919: led_array[i+6] = 1;
  1102  012C4C  0101               	movlb	1	; () banked
  1103  012C4E  90D8               	bcf	status,0
  1104  012C50  0101               	movlb	1	; () banked
  1105  012C52  3510               	rlcf	((testToggle@i_72))&0ffh,w
  1106  012C54  0101               	movlb	1	; () banked
  1107  012C56  6F2E               	movwf	(??_testToggle+36+0)&0ffh
  1108  012C58  0E0C               	movlw	0Ch
  1109  012C5A  0101               	movlb	1	; () banked
  1110  012C5C  272E               	addwf	(??_testToggle+36+0)&0ffh
  1111  012C5E  0E00               	movlw	low((c:0))
  1112  012C60  0101               	movlb	1	; () banked
  1113  012C62  252E               	addwf	(??_testToggle+36+0)&0ffh,w
  1114  012C64  6EE9               	movwf	c:fsr0l
  1115  012C66  6AEA               	clrf	1+c:fsr0l
  1116  012C68  0E00               	movlw	high((c:0))
  1117  012C6A  22EA               	addwfc	1+c:fsr0l
  1118  012C6C  0E01               	movlw	low(01h)
  1119  012C6E  6EEE               	movwf	postinc0
  1120  012C70  0E00               	movlw	high(01h)
  1121  012C72  6EED               	movwf	postdec0
  1122                           	line	920
  1123                           ;main.c: 920: ToggleLeds();
  1124  012C74  EC0B  F099         	call	_ToggleLeds	;wreg free
  1125                           	line	921
  1126                           ;main.c: 921: DelayMs(5000);
  1127  012C78  0101               	movlb	1	; () banked
  1128  012C7A  6F2E               	movwf	(??_testToggle+36+0)&0ffh
  1129  012C7C  0E88               	movlw	low(088h)
  1130  012C7E  0101               	movlb	1	; () banked
  1131  012C80  0101               	movlb	1	; () banked
  1132  012C82  6F2F               	movwf	((?_DelayMs))&0ffh
  1133  012C84  0101               	movlb	1	; () banked
  1134  012C86  512E               	movf	(??_testToggle+36+0)&0ffh,w
  1135  012C88  EC89  F093         	call	_DelayMs	;wreg free
  1136                           	line	913
  1137  012C8C  0101               	movlb	1	; () banked
  1138  012C8E  0101               	movlb	1	; () banked
  1139  012C90  4B10               	infsnz	((testToggle@i_72))&0ffh
  1140  012C92  2B11               	incf	((testToggle@i_72+1))&0ffh
  1141  012C94  0101               	movlb	1	; () banked
  1142  012C96  0101               	movlb	1	; () banked
  1143  012C98  5111               	movf	((testToggle@i_72+1))&0ffh,w
  1144  012C9A  0A80               	xorlw	80h
  1145  012C9C  0F80               	addlw	-((0)^80h)
  1146  012C9E  0E07               	movlw	07h
  1147  012CA0  B4D8               	btfsc	status,2
  1148  012CA2  5D10               	subwf	((testToggle@i_72))&0ffh,w
  1149  012CA4  A0D8               	btfss	status,0
  1150  012CA6  EF57  F096         	goto	u4641
  1151  012CAA  EF59  F096         	goto	u4640
  1152  012CAE                     u4641:
  1153  012CAE  EFE4  F095         	goto	l1022
  1154  012CB2                     u4640:
  1155                           	
  1156  012CB2                     l1023:		; BSR set to: ?
  1157                           
  1158                           	line	923
  1159                           ;main.c: 922: }
  1160                           ;main.c: 923: for (int i = 0; i < 7; i++) {
  1161  012CB2  0E00               	movlw	low(0)
  1162  012CB4  0101               	movlb	1	; () banked
  1163  012CB6  0101               	movlb	1	; () banked
  1164  012CB8  6F12               	movwf	((testToggle@i_74))&0ffh
  1165  012CBA  0E00               	movlw	high(0)
  1166  012CBC  0101               	movlb	1	; () banked
  1167  012CBE  6F13               	movwf	((testToggle@i_74+1))&0ffh
  1168  012CC0  0101               	movlb	1	; () banked
  1169  012CC2  0101               	movlb	1	; () banked
  1170  012CC4  5113               	movf	((testToggle@i_74+1))&0ffh,w
  1171  012CC6  0A80               	xorlw	80h
  1172  012CC8  0F80               	addlw	-((0)^80h)
  1173  012CCA  0E07               	movlw	07h
  1174  012CCC  B4D8               	btfsc	status,2
  1175  012CCE  5D12               	subwf	((testToggle@i_74))&0ffh,w
  1176  012CD0  A0D8               	btfss	status,0
  1177  012CD2  EF6D  F096         	goto	u4651
  1178  012CD6  EF6F  F096         	goto	u4650
  1179  012CDA                     u4651:
  1180  012CDA  EF71  F096         	goto	l1028
  1181  012CDE                     u4650:
  1182  012CDE  EFE2  F096         	goto	l1029
  1183                           	
  1184  012CE2                     l1028:		; BSR set to: ?
  1185                           
  1186                           	line	924
  1187                           ;main.c: 924: for (int j = 0; j < sizeof(led_arr
                                 ay); j++) {
  1188  012CE2  0E00               	movlw	low(0)
  1189  012CE4  0101               	movlb	1	; () banked
  1190  012CE6  0101               	movlb	1	; () banked
  1191  012CE8  6F24               	movwf	((testToggle@j_75))&0ffh
  1192  012CEA  0E00               	movlw	high(0)
  1193  012CEC  0101               	movlb	1	; () banked
  1194  012CEE  6F25               	movwf	((testToggle@j_75+1))&0ffh
  1195  012CF0  0E1A               	movlw	01Ah
  1196  012CF2  0101               	movlb	1	; () banked
  1197  012CF4  0101               	movlb	1	; () banked
  1198  012CF6  5D24               	subwf	((testToggle@j_75))&0ffh,w
  1199  012CF8  0E00               	movlw	0
  1200  012CFA  0101               	movlb	1	; () banked
  1201  012CFC  5925               	subwfb	((testToggle@j_75+1))&0ffh,w
  1202  012CFE  A0D8               	btfss	status,0
  1203  012D00  EF84  F096         	goto	u4661
  1204  012D04  EF86  F096         	goto	u4660
  1205  012D08                     u4661:
  1206  012D08  EF88  F096         	goto	l1031
  1207  012D0C                     u4660:
  1208  012D0C  EFAB  F096         	goto	l1032
  1209                           	
  1210  012D10                     l1031:		; BSR set to: ?
  1211                           
  1212                           	line	925
  1213                           ;main.c: 925: led_array[j] = 0;
  1214  012D10  0101               	movlb	1	; () banked
  1215  012D12  90D8               	bcf	status,0
  1216  012D14  0101               	movlb	1	; () banked
  1217  012D16  3524               	rlcf	((testToggle@j_75))&0ffh,w
  1218  012D18  0101               	movlb	1	; () banked
  1219  012D1A  6F2E               	movwf	(??_testToggle+36+0)&0ffh
  1220  012D1C  0E00               	movlw	low((c:0))
  1221  012D1E  0101               	movlb	1	; () banked
  1222  012D20  252E               	addwf	(??_testToggle+36+0)&0ffh,w
  1223  012D22  6EE9               	movwf	c:fsr0l
  1224  012D24  6AEA               	clrf	1+c:fsr0l
  1225  012D26  0E00               	movlw	high((c:0))
  1226  012D28  22EA               	addwfc	1+c:fsr0l
  1227  012D2A  0E00               	movlw	low(0)
  1228  012D2C  6EEE               	movwf	postinc0
  1229  012D2E  0E00               	movlw	high(0)
  1230  012D30  6EED               	movwf	postdec0
  1231                           	line	924
  1232  012D32  0101               	movlb	1	; () banked
  1233  012D34  0101               	movlb	1	; () banked
  1234  012D36  4B24               	infsnz	((testToggle@j_75))&0ffh
  1235  012D38  2B25               	incf	((testToggle@j_75+1))&0ffh
  1236  012D3A  0E1A               	movlw	01Ah
  1237  012D3C  0101               	movlb	1	; () banked
  1238  012D3E  0101               	movlb	1	; () banked
  1239  012D40  5D24               	subwf	((testToggle@j_75))&0ffh,w
  1240  012D42  0E00               	movlw	0
  1241  012D44  0101               	movlb	1	; () banked
  1242  012D46  5925               	subwfb	((testToggle@j_75+1))&0ffh,w
  1243  012D48  A0D8               	btfss	status,0
  1244  012D4A  EFA9  F096         	goto	u4671
  1245  012D4E  EFAB  F096         	goto	u4670
  1246  012D52                     u4671:
  1247  012D52  EF88  F096         	goto	l1031
  1248  012D56                     u4670:
  1249                           	
  1250  012D56                     l1032:		; BSR set to: ?
  1251                           
  1252                           	line	927
  1253                           ;main.c: 926: }
  1254                           ;main.c: 927: led_array[2] = 1;
  1255  012D56  0E01               	movlw	low(01h)
  1256  012D58  6E04               	movwf	(0+((c:0)+04h)),c
  1257  012D5A  0E00               	movlw	high(01h)
  1258  012D5C  6E05               	movwf	(1+((c:0)+04h)),c
  1259                           	line	928
  1260                           ;main.c: 928: led_array[i+6] = 1;
  1261  012D5E  0101               	movlb	1	; () banked
  1262  012D60  90D8               	bcf	status,0
  1263  012D62  0101               	movlb	1	; () banked
  1264  012D64  3512               	rlcf	((testToggle@i_74))&0ffh,w
  1265  012D66  0101               	movlb	1	; () banked
  1266  012D68  6F2E               	movwf	(??_testToggle+36+0)&0ffh
  1267  012D6A  0E0C               	movlw	0Ch
  1268  012D6C  0101               	movlb	1	; () banked
  1269  012D6E  272E               	addwf	(??_testToggle+36+0)&0ffh
  1270  012D70  0E00               	movlw	low((c:0))
  1271  012D72  0101               	movlb	1	; () banked
  1272  012D74  252E               	addwf	(??_testToggle+36+0)&0ffh,w
  1273  012D76  6EE9               	movwf	c:fsr0l
  1274  012D78  6AEA               	clrf	1+c:fsr0l
  1275  012D7A  0E00               	movlw	high((c:0))
  1276  012D7C  22EA               	addwfc	1+c:fsr0l
  1277  012D7E  0E01               	movlw	low(01h)
  1278  012D80  6EEE               	movwf	postinc0
  1279  012D82  0E00               	movlw	high(01h)
  1280  012D84  6EED               	movwf	postdec0
  1281                           	line	929
  1282                           ;main.c: 929: ToggleLeds();
  1283  012D86  EC0B  F099         	call	_ToggleLeds	;wreg free
  1284                           	line	930
  1285                           ;main.c: 930: DelayMs(5000);
  1286  012D8A  0101               	movlb	1	; () banked
  1287  012D8C  6F2E               	movwf	(??_testToggle+36+0)&0ffh
  1288  012D8E  0E88               	movlw	low(088h)
  1289  012D90  0101               	movlb	1	; () banked
  1290  012D92  0101               	movlb	1	; () banked
  1291  012D94  6F2F               	movwf	((?_DelayMs))&0ffh
  1292  012D96  0101               	movlb	1	; () banked
  1293  012D98  512E               	movf	(??_testToggle+36+0)&0ffh,w
  1294  012D9A  EC89  F093         	call	_DelayMs	;wreg free
  1295                           	line	923
  1296  012D9E  0101               	movlb	1	; () banked
  1297  012DA0  0101               	movlb	1	; () banked
  1298  012DA2  4B12               	infsnz	((testToggle@i_74))&0ffh
  1299  012DA4  2B13               	incf	((testToggle@i_74+1))&0ffh
  1300  012DA6  0101               	movlb	1	; () banked
  1301  012DA8  0101               	movlb	1	; () banked
  1302  012DAA  5113               	movf	((testToggle@i_74+1))&0ffh,w
  1303  012DAC  0A80               	xorlw	80h
  1304  012DAE  0F80               	addlw	-((0)^80h)
  1305  012DB0  0E07               	movlw	07h
  1306  012DB2  B4D8               	btfsc	status,2
  1307  012DB4  5D12               	subwf	((testToggle@i_74))&0ffh,w
  1308  012DB6  A0D8               	btfss	status,0
  1309  012DB8  EFE0  F096         	goto	u4681
  1310  012DBC  EFE2  F096         	goto	u4680
  1311  012DC0                     u4681:
  1312  012DC0  EF71  F096         	goto	l1028
  1313  012DC4                     u4680:
  1314                           	
  1315  012DC4                     l1029:		; BSR set to: ?
  1316                           
  1317                           	line	932
  1318                           ;main.c: 931: }
  1319                           ;main.c: 932: for (int i = 0; i < 7; i++) {
  1320  012DC4  0E00               	movlw	low(0)
  1321  012DC6  0101               	movlb	1	; () banked
  1322  012DC8  0101               	movlb	1	; () banked
  1323  012DCA  6F14               	movwf	((testToggle@i_76))&0ffh
  1324  012DCC  0E00               	movlw	high(0)
  1325  012DCE  0101               	movlb	1	; () banked
  1326  012DD0  6F15               	movwf	((testToggle@i_76+1))&0ffh
  1327  012DD2  0101               	movlb	1	; () banked
  1328  012DD4  0101               	movlb	1	; () banked
  1329  012DD6  5115               	movf	((testToggle@i_76+1))&0ffh,w
  1330  012DD8  0A80               	xorlw	80h
  1331  012DDA  0F80               	addlw	-((0)^80h)
  1332  012DDC  0E07               	movlw	07h
  1333  012DDE  B4D8               	btfsc	status,2
  1334  012DE0  5D14               	subwf	((testToggle@i_76))&0ffh,w
  1335  012DE2  A0D8               	btfss	status,0
  1336  012DE4  EFF6  F096         	goto	u4691
  1337  012DE8  EFF8  F096         	goto	u4690
  1338  012DEC                     u4691:
  1339  012DEC  EFFA  F096         	goto	l1034
  1340  012DF0                     u4690:
  1341  012DF0  EF6B  F097         	goto	l1035
  1342                           	
  1343  012DF4                     l1034:		; BSR set to: ?
  1344                           
  1345                           	line	933
  1346                           ;main.c: 933: for (int j = 0; j < sizeof(led_arr
                                 ay); j++) {
  1347  012DF4  0E00               	movlw	low(0)
  1348  012DF6  0101               	movlb	1	; () banked
  1349  012DF8  0101               	movlb	1	; () banked
  1350  012DFA  6F26               	movwf	((testToggle@j_77))&0ffh
  1351  012DFC  0E00               	movlw	high(0)
  1352  012DFE  0101               	movlb	1	; () banked
  1353  012E00  6F27               	movwf	((testToggle@j_77+1))&0ffh
  1354  012E02  0E1A               	movlw	01Ah
  1355  012E04  0101               	movlb	1	; () banked
  1356  012E06  0101               	movlb	1	; () banked
  1357  012E08  5D26               	subwf	((testToggle@j_77))&0ffh,w
  1358  012E0A  0E00               	movlw	0
  1359  012E0C  0101               	movlb	1	; () banked
  1360  012E0E  5927               	subwfb	((testToggle@j_77+1))&0ffh,w
  1361  012E10  A0D8               	btfss	status,0
  1362  012E12  EF0D  F097         	goto	u4701
  1363  012E16  EF0F  F097         	goto	u4700
  1364  012E1A                     u4701:
  1365  012E1A  EF11  F097         	goto	l1037
  1366  012E1E                     u4700:
  1367  012E1E  EF34  F097         	goto	l1038
  1368                           	
  1369  012E22                     l1037:		; BSR set to: ?
  1370                           
  1371                           	line	934
  1372                           ;main.c: 934: led_array[j] = 0;
  1373  012E22  0101               	movlb	1	; () banked
  1374  012E24  90D8               	bcf	status,0
  1375  012E26  0101               	movlb	1	; () banked
  1376  012E28  3526               	rlcf	((testToggle@j_77))&0ffh,w
  1377  012E2A  0101               	movlb	1	; () banked
  1378  012E2C  6F2E               	movwf	(??_testToggle+36+0)&0ffh
  1379  012E2E  0E00               	movlw	low((c:0))
  1380  012E30  0101               	movlb	1	; () banked
  1381  012E32  252E               	addwf	(??_testToggle+36+0)&0ffh,w
  1382  012E34  6EE9               	movwf	c:fsr0l
  1383  012E36  6AEA               	clrf	1+c:fsr0l
  1384  012E38  0E00               	movlw	high((c:0))
  1385  012E3A  22EA               	addwfc	1+c:fsr0l
  1386  012E3C  0E00               	movlw	low(0)
  1387  012E3E  6EEE               	movwf	postinc0
  1388  012E40  0E00               	movlw	high(0)
  1389  012E42  6EED               	movwf	postdec0
  1390                           	line	933
  1391  012E44  0101               	movlb	1	; () banked
  1392  012E46  0101               	movlb	1	; () banked
  1393  012E48  4B26               	infsnz	((testToggle@j_77))&0ffh
  1394  012E4A  2B27               	incf	((testToggle@j_77+1))&0ffh
  1395  012E4C  0E1A               	movlw	01Ah
  1396  012E4E  0101               	movlb	1	; () banked
  1397  012E50  0101               	movlb	1	; () banked
  1398  012E52  5D26               	subwf	((testToggle@j_77))&0ffh,w
  1399  012E54  0E00               	movlw	0
  1400  012E56  0101               	movlb	1	; () banked
  1401  012E58  5927               	subwfb	((testToggle@j_77+1))&0ffh,w
  1402  012E5A  A0D8               	btfss	status,0
  1403  012E5C  EF32  F097         	goto	u4711
  1404  012E60  EF34  F097         	goto	u4710
  1405  012E64                     u4711:
  1406  012E64  EF11  F097         	goto	l1037
  1407  012E68                     u4710:
  1408                           	
  1409  012E68                     l1038:		; BSR set to: ?
  1410                           
  1411                           	line	936
  1412                           ;main.c: 935: }
  1413                           ;main.c: 936: led_array[3] = 1;
  1414  012E68  0E01               	movlw	low(01h)
  1415  012E6A  6E06               	movwf	(0+((c:0)+06h)),c
  1416  012E6C  0E00               	movlw	high(01h)
  1417  012E6E  6E07               	movwf	(1+((c:0)+06h)),c
  1418                           	line	937
  1419                           ;main.c: 937: led_array[i+6] = 1;
  1420  012E70  0101               	movlb	1	; () banked
  1421  012E72  90D8               	bcf	status,0
  1422  012E74  0101               	movlb	1	; () banked
  1423  012E76  3514               	rlcf	((testToggle@i_76))&0ffh,w
  1424  012E78  0101               	movlb	1	; () banked
  1425  012E7A  6F2E               	movwf	(??_testToggle+36+0)&0ffh
  1426  012E7C  0E0C               	movlw	0Ch
  1427  012E7E  0101               	movlb	1	; () banked
  1428  012E80  272E               	addwf	(??_testToggle+36+0)&0ffh
  1429  012E82  0E00               	movlw	low((c:0))
  1430  012E84  0101               	movlb	1	; () banked
  1431  012E86  252E               	addwf	(??_testToggle+36+0)&0ffh,w
  1432  012E88  6EE9               	movwf	c:fsr0l
  1433  012E8A  6AEA               	clrf	1+c:fsr0l
  1434  012E8C  0E00               	movlw	high((c:0))
  1435  012E8E  22EA               	addwfc	1+c:fsr0l
  1436  012E90  0E01               	movlw	low(01h)
  1437  012E92  6EEE               	movwf	postinc0
  1438  012E94  0E00               	movlw	high(01h)
  1439  012E96  6EED               	movwf	postdec0
  1440                           	line	938
  1441                           ;main.c: 938: ToggleLeds();
  1442  012E98  EC0B  F099         	call	_ToggleLeds	;wreg free
  1443                           	line	939
  1444                           ;main.c: 939: DelayMs(5000);
  1445  012E9C  0101               	movlb	1	; () banked
  1446  012E9E  6F2E               	movwf	(??_testToggle+36+0)&0ffh
  1447  012EA0  0E88               	movlw	low(088h)
  1448  012EA2  0101               	movlb	1	; () banked
  1449  012EA4  0101               	movlb	1	; () banked
  1450  012EA6  6F2F               	movwf	((?_DelayMs))&0ffh
  1451  012EA8  0101               	movlb	1	; () banked
  1452  012EAA  512E               	movf	(??_testToggle+36+0)&0ffh,w
  1453  012EAC  EC89  F093         	call	_DelayMs	;wreg free
  1454                           	line	932
  1455  012EB0  0101               	movlb	1	; () banked
  1456  012EB2  0101               	movlb	1	; () banked
  1457  012EB4  4B14               	infsnz	((testToggle@i_76))&0ffh
  1458  012EB6  2B15               	incf	((testToggle@i_76+1))&0ffh
  1459  012EB8  0101               	movlb	1	; () banked
  1460  012EBA  0101               	movlb	1	; () banked
  1461  012EBC  5115               	movf	((testToggle@i_76+1))&0ffh,w
  1462  012EBE  0A80               	xorlw	80h
  1463  012EC0  0F80               	addlw	-((0)^80h)
  1464  012EC2  0E07               	movlw	07h
  1465  012EC4  B4D8               	btfsc	status,2
  1466  012EC6  5D14               	subwf	((testToggle@i_76))&0ffh,w
  1467  012EC8  A0D8               	btfss	status,0
  1468  012ECA  EF69  F097         	goto	u4721
  1469  012ECE  EF6B  F097         	goto	u4720
  1470  012ED2                     u4721:
  1471  012ED2  EFFA  F096         	goto	l1034
  1472  012ED6                     u4720:
  1473                           	
  1474  012ED6                     l1035:		; BSR set to: ?
  1475                           
  1476                           	line	943
  1477                           ;main.c: 940: }
  1478                           ;main.c: 943: for (int i = 0; i < 7; i++) {
  1479  012ED6  0E00               	movlw	low(0)
  1480  012ED8  0101               	movlb	1	; () banked
  1481  012EDA  0101               	movlb	1	; () banked
  1482  012EDC  6F16               	movwf	((testToggle@i_78))&0ffh
  1483  012EDE  0E00               	movlw	high(0)
  1484  012EE0  0101               	movlb	1	; () banked
  1485  012EE2  6F17               	movwf	((testToggle@i_78+1))&0ffh
  1486  012EE4  0101               	movlb	1	; () banked
  1487  012EE6  0101               	movlb	1	; () banked
  1488  012EE8  5117               	movf	((testToggle@i_78+1))&0ffh,w
  1489  012EEA  0A80               	xorlw	80h
  1490  012EEC  0F80               	addlw	-((0)^80h)
  1491  012EEE  0E07               	movlw	07h
  1492  012EF0  B4D8               	btfsc	status,2
  1493  012EF2  5D16               	subwf	((testToggle@i_78))&0ffh,w
  1494  012EF4  A0D8               	btfss	status,0
  1495  012EF6  EF7F  F097         	goto	u4731
  1496  012EFA  EF81  F097         	goto	u4730
  1497  012EFE                     u4731:
  1498  012EFE  EF83  F097         	goto	l1040
  1499  012F02                     u4730:
  1500  012F02  EFF8  F097         	goto	l1041
  1501                           	
  1502  012F06                     l1040:		; BSR set to: ?
  1503                           
  1504                           	line	944
  1505                           ;main.c: 944: for (int j = 0; j < sizeof(led_arr
                                 ay); j++) {
  1506  012F06  0E00               	movlw	low(0)
  1507  012F08  0101               	movlb	1	; () banked
  1508  012F0A  0101               	movlb	1	; () banked
  1509  012F0C  6F28               	movwf	((testToggle@j_79))&0ffh
  1510  012F0E  0E00               	movlw	high(0)
  1511  012F10  0101               	movlb	1	; () banked
  1512  012F12  6F29               	movwf	((testToggle@j_79+1))&0ffh
  1513  012F14  0E1A               	movlw	01Ah
  1514  012F16  0101               	movlb	1	; () banked
  1515  012F18  0101               	movlb	1	; () banked
  1516  012F1A  5D28               	subwf	((testToggle@j_79))&0ffh,w
  1517  012F1C  0E00               	movlw	0
  1518  012F1E  0101               	movlb	1	; () banked
  1519  012F20  5929               	subwfb	((testToggle@j_79+1))&0ffh,w
  1520  012F22  A0D8               	btfss	status,0
  1521  012F24  EF96  F097         	goto	u4741
  1522  012F28  EF98  F097         	goto	u4740
  1523  012F2C                     u4741:
  1524  012F2C  EF9A  F097         	goto	l1043
  1525  012F30                     u4740:
  1526  012F30  EFBD  F097         	goto	l1044
  1527                           	
  1528  012F34                     l1043:		; BSR set to: ?
  1529                           
  1530                           	line	945
  1531                           ;main.c: 945: led_array[j] = 0;
  1532  012F34  0101               	movlb	1	; () banked
  1533  012F36  90D8               	bcf	status,0
  1534  012F38  0101               	movlb	1	; () banked
  1535  012F3A  3528               	rlcf	((testToggle@j_79))&0ffh,w
  1536  012F3C  0101               	movlb	1	; () banked
  1537  012F3E  6F2E               	movwf	(??_testToggle+36+0)&0ffh
  1538  012F40  0E00               	movlw	low((c:0))
  1539  012F42  0101               	movlb	1	; () banked
  1540  012F44  252E               	addwf	(??_testToggle+36+0)&0ffh,w
  1541  012F46  6EE9               	movwf	c:fsr0l
  1542  012F48  6AEA               	clrf	1+c:fsr0l
  1543  012F4A  0E00               	movlw	high((c:0))
  1544  012F4C  22EA               	addwfc	1+c:fsr0l
  1545  012F4E  0E00               	movlw	low(0)
  1546  012F50  6EEE               	movwf	postinc0
  1547  012F52  0E00               	movlw	high(0)
  1548  012F54  6EED               	movwf	postdec0
  1549                           	line	944
  1550  012F56  0101               	movlb	1	; () banked
  1551  012F58  0101               	movlb	1	; () banked
  1552  012F5A  4B28               	infsnz	((testToggle@j_79))&0ffh
  1553  012F5C  2B29               	incf	((testToggle@j_79+1))&0ffh
  1554  012F5E  0E1A               	movlw	01Ah
  1555  012F60  0101               	movlb	1	; () banked
  1556  012F62  0101               	movlb	1	; () banked
  1557  012F64  5D28               	subwf	((testToggle@j_79))&0ffh,w
  1558  012F66  0E00               	movlw	0
  1559  012F68  0101               	movlb	1	; () banked
  1560  012F6A  5929               	subwfb	((testToggle@j_79+1))&0ffh,w
  1561  012F6C  A0D8               	btfss	status,0
  1562  012F6E  EFBB  F097         	goto	u4751
  1563  012F72  EFBD  F097         	goto	u4750
  1564  012F76                     u4751:
  1565  012F76  EF9A  F097         	goto	l1043
  1566  012F7A                     u4750:
  1567                           	
  1568  012F7A                     l1044:		; BSR set to: ?
  1569                           
  1570                           	line	947
  1571                           ;main.c: 946: }
  1572                           ;main.c: 947: led_array[4] = 1;
  1573  012F7A  0E01               	movlw	low(01h)
  1574  012F7C  6E08               	movwf	(0+((c:0)+08h)),c
  1575  012F7E  0E00               	movlw	high(01h)
  1576  012F80  6E09               	movwf	(1+((c:0)+08h)),c
  1577                           	line	948
  1578                           ;main.c: 948: led_array[5] = 1;
  1579  012F82  0E01               	movlw	low(01h)
  1580  012F84  6E0A               	movwf	(0+((c:0)+0Ah)),c
  1581  012F86  0E00               	movlw	high(01h)
  1582  012F88  6E0B               	movwf	(1+((c:0)+0Ah)),c
  1583                           	line	949
  1584                           ;main.c: 949: led_array[i+6] = 1;
  1585  012F8A  0101               	movlb	1	; () banked
  1586  012F8C  90D8               	bcf	status,0
  1587  012F8E  0101               	movlb	1	; () banked
  1588  012F90  3516               	rlcf	((testToggle@i_78))&0ffh,w
  1589  012F92  0101               	movlb	1	; () banked
  1590  012F94  6F2E               	movwf	(??_testToggle+36+0)&0ffh
  1591  012F96  0E0C               	movlw	0Ch
  1592  012F98  0101               	movlb	1	; () banked
  1593  012F9A  272E               	addwf	(??_testToggle+36+0)&0ffh
  1594  012F9C  0E00               	movlw	low((c:0))
  1595  012F9E  0101               	movlb	1	; () banked
  1596  012FA0  252E               	addwf	(??_testToggle+36+0)&0ffh,w
  1597  012FA2  6EE9               	movwf	c:fsr0l
  1598  012FA4  6AEA               	clrf	1+c:fsr0l
  1599  012FA6  0E00               	movlw	high((c:0))
  1600  012FA8  22EA               	addwfc	1+c:fsr0l
  1601  012FAA  0E01               	movlw	low(01h)
  1602  012FAC  6EEE               	movwf	postinc0
  1603  012FAE  0E00               	movlw	high(01h)
  1604  012FB0  6EED               	movwf	postdec0
  1605                           	line	950
  1606                           ;main.c: 950: ToggleLeds();
  1607  012FB2  EC0B  F099         	call	_ToggleLeds	;wreg free
  1608                           	line	951
  1609                           ;main.c: 951: DelayMs(5000);
  1610  012FB6  0101               	movlb	1	; () banked
  1611  012FB8  6F2E               	movwf	(??_testToggle+36+0)&0ffh
  1612  012FBA  0E88               	movlw	low(088h)
  1613  012FBC  0101               	movlb	1	; () banked
  1614  012FBE  0101               	movlb	1	; () banked
  1615  012FC0  6F2F               	movwf	((?_DelayMs))&0ffh
  1616  012FC2  0101               	movlb	1	; () banked
  1617  012FC4  512E               	movf	(??_testToggle+36+0)&0ffh,w
  1618  012FC6  EC89  F093         	call	_DelayMs	;wreg free
  1619                           	line	943
  1620  012FCA  0101               	movlb	1	; () banked
  1621  012FCC  0101               	movlb	1	; () banked
  1622  012FCE  4B16               	infsnz	((testToggle@i_78))&0ffh
  1623  012FD0  2B17               	incf	((testToggle@i_78+1))&0ffh
  1624  012FD2  0101               	movlb	1	; () banked
  1625  012FD4  0101               	movlb	1	; () banked
  1626  012FD6  5117               	movf	((testToggle@i_78+1))&0ffh,w
  1627  012FD8  0A80               	xorlw	80h
  1628  012FDA  0F80               	addlw	-((0)^80h)
  1629  012FDC  0E07               	movlw	07h
  1630  012FDE  B4D8               	btfsc	status,2
  1631  012FE0  5D16               	subwf	((testToggle@i_78))&0ffh,w
  1632  012FE2  A0D8               	btfss	status,0
  1633  012FE4  EFF6  F097         	goto	u4761
  1634  012FE8  EFF8  F097         	goto	u4760
  1635  012FEC                     u4761:
  1636  012FEC  EF83  F097         	goto	l1040
  1637  012FF0                     u4760:
  1638                           	
  1639  012FF0                     l1041:		; BSR set to: ?
  1640                           
  1641                           	line	954
  1642                           ;main.c: 952: }
  1643                           ;main.c: 954: for (int i = 0; i < 7; i++) {
  1644  012FF0  0E00               	movlw	low(0)
  1645  012FF2  0101               	movlb	1	; () banked
  1646  012FF4  0101               	movlb	1	; () banked
  1647  012FF6  6F18               	movwf	((testToggle@i_80))&0ffh
  1648  012FF8  0E00               	movlw	high(0)
  1649  012FFA  0101               	movlb	1	; () banked
  1650  012FFC  6F19               	movwf	((testToggle@i_80+1))&0ffh
  1651  012FFE  0101               	movlb	1	; () banked
  1652  013000  0101               	movlb	1	; () banked
  1653  013002  5119               	movf	((testToggle@i_80+1))&0ffh,w
  1654  013004  0A80               	xorlw	80h
  1655  013006  0F80               	addlw	-((0)^80h)
  1656  013008  0E07               	movlw	07h
  1657  01300A  B4D8               	btfsc	status,2
  1658  01300C  5D18               	subwf	((testToggle@i_80))&0ffh,w
  1659  01300E  A0D8               	btfss	status,0
  1660  013010  EF0C  F098         	goto	u4771
  1661  013014  EF0E  F098         	goto	u4770
  1662  013018                     u4771:
  1663  013018  EF10  F098         	goto	l1046
  1664  01301C                     u4770:
  1665  01301C  EF81  F098         	goto	l1047
  1666                           	
  1667  013020                     l1046:		; BSR set to: ?
  1668                           
  1669                           	line	955
  1670                           ;main.c: 955: for (int j = 0; j < sizeof(led_arr
                                 ay); j++) {
  1671  013020  0E00               	movlw	low(0)
  1672  013022  0101               	movlb	1	; () banked
  1673  013024  0101               	movlb	1	; () banked
  1674  013026  6F2A               	movwf	((testToggle@j_81))&0ffh
  1675  013028  0E00               	movlw	high(0)
  1676  01302A  0101               	movlb	1	; () banked
  1677  01302C  6F2B               	movwf	((testToggle@j_81+1))&0ffh
  1678  01302E  0E1A               	movlw	01Ah
  1679  013030  0101               	movlb	1	; () banked
  1680  013032  0101               	movlb	1	; () banked
  1681  013034  5D2A               	subwf	((testToggle@j_81))&0ffh,w
  1682  013036  0E00               	movlw	0
  1683  013038  0101               	movlb	1	; () banked
  1684  01303A  592B               	subwfb	((testToggle@j_81+1))&0ffh,w
  1685  01303C  A0D8               	btfss	status,0
  1686  01303E  EF23  F098         	goto	u4781
  1687  013042  EF25  F098         	goto	u4780
  1688  013046                     u4781:
  1689  013046  EF27  F098         	goto	l1049
  1690  01304A                     u4780:
  1691  01304A  EF4A  F098         	goto	l1050
  1692                           	
  1693  01304E                     l1049:		; BSR set to: ?
  1694                           
  1695                           	line	956
  1696                           ;main.c: 956: led_array[j] = 0;
  1697  01304E  0101               	movlb	1	; () banked
  1698  013050  90D8               	bcf	status,0
  1699  013052  0101               	movlb	1	; () banked
  1700  013054  352A               	rlcf	((testToggle@j_81))&0ffh,w
  1701  013056  0101               	movlb	1	; () banked
  1702  013058  6F2E               	movwf	(??_testToggle+36+0)&0ffh
  1703  01305A  0E00               	movlw	low((c:0))
  1704  01305C  0101               	movlb	1	; () banked
  1705  01305E  252E               	addwf	(??_testToggle+36+0)&0ffh,w
  1706  013060  6EE9               	movwf	c:fsr0l
  1707  013062  6AEA               	clrf	1+c:fsr0l
  1708  013064  0E00               	movlw	high((c:0))
  1709  013066  22EA               	addwfc	1+c:fsr0l
  1710  013068  0E00               	movlw	low(0)
  1711  01306A  6EEE               	movwf	postinc0
  1712  01306C  0E00               	movlw	high(0)
  1713  01306E  6EED               	movwf	postdec0
  1714                           	line	955
  1715  013070  0101               	movlb	1	; () banked
  1716  013072  0101               	movlb	1	; () banked
  1717  013074  4B2A               	infsnz	((testToggle@j_81))&0ffh
  1718  013076  2B2B               	incf	((testToggle@j_81+1))&0ffh
  1719  013078  0E1A               	movlw	01Ah
  1720  01307A  0101               	movlb	1	; () banked
  1721  01307C  0101               	movlb	1	; () banked
  1722  01307E  5D2A               	subwf	((testToggle@j_81))&0ffh,w
  1723  013080  0E00               	movlw	0
  1724  013082  0101               	movlb	1	; () banked
  1725  013084  592B               	subwfb	((testToggle@j_81+1))&0ffh,w
  1726  013086  A0D8               	btfss	status,0
  1727  013088  EF48  F098         	goto	u4791
  1728  01308C  EF4A  F098         	goto	u4790
  1729  013090                     u4791:
  1730  013090  EF27  F098         	goto	l1049
  1731  013094                     u4790:
  1732                           	
  1733  013094                     l1050:		; BSR set to: ?
  1734                           
  1735                           	line	958
  1736                           ;main.c: 957: }
  1737                           ;main.c: 958: led_array[4] = 1;
  1738  013094  0E01               	movlw	low(01h)
  1739  013096  6E08               	movwf	(0+((c:0)+08h)),c
  1740  013098  0E00               	movlw	high(01h)
  1741  01309A  6E09               	movwf	(1+((c:0)+08h)),c
  1742                           	line	959
  1743                           ;main.c: 959: led_array[i+6] = 1;
  1744  01309C  0101               	movlb	1	; () banked
  1745  01309E  90D8               	bcf	status,0
  1746  0130A0  0101               	movlb	1	; () banked
  1747  0130A2  3518               	rlcf	((testToggle@i_80))&0ffh,w
  1748  0130A4  0101               	movlb	1	; () banked
  1749  0130A6  6F2E               	movwf	(??_testToggle+36+0)&0ffh
  1750  0130A8  0E0C               	movlw	0Ch
  1751  0130AA  0101               	movlb	1	; () banked
  1752  0130AC  272E               	addwf	(??_testToggle+36+0)&0ffh
  1753  0130AE  0E00               	movlw	low((c:0))
  1754  0130B0  0101               	movlb	1	; () banked
  1755  0130B2  252E               	addwf	(??_testToggle+36+0)&0ffh,w
  1756  0130B4  6EE9               	movwf	c:fsr0l
  1757  0130B6  6AEA               	clrf	1+c:fsr0l
  1758  0130B8  0E00               	movlw	high((c:0))
  1759  0130BA  22EA               	addwfc	1+c:fsr0l
  1760  0130BC  0E01               	movlw	low(01h)
  1761  0130BE  6EEE               	movwf	postinc0
  1762  0130C0  0E00               	movlw	high(01h)
  1763  0130C2  6EED               	movwf	postdec0
  1764                           	line	960
  1765                           ;main.c: 960: ToggleLeds();
  1766  0130C4  EC0B  F099         	call	_ToggleLeds	;wreg free
  1767                           	line	961
  1768                           ;main.c: 961: DelayMs(5000);
  1769  0130C8  0101               	movlb	1	; () banked
  1770  0130CA  6F2E               	movwf	(??_testToggle+36+0)&0ffh
  1771  0130CC  0E88               	movlw	low(088h)
  1772  0130CE  0101               	movlb	1	; () banked
  1773  0130D0  0101               	movlb	1	; () banked
  1774  0130D2  6F2F               	movwf	((?_DelayMs))&0ffh
  1775  0130D4  0101               	movlb	1	; () banked
  1776  0130D6  512E               	movf	(??_testToggle+36+0)&0ffh,w
  1777  0130D8  EC89  F093         	call	_DelayMs	;wreg free
  1778                           	line	954
  1779  0130DC  0101               	movlb	1	; () banked
  1780  0130DE  0101               	movlb	1	; () banked
  1781  0130E0  4B18               	infsnz	((testToggle@i_80))&0ffh
  1782  0130E2  2B19               	incf	((testToggle@i_80+1))&0ffh
  1783  0130E4  0101               	movlb	1	; () banked
  1784  0130E6  0101               	movlb	1	; () banked
  1785  0130E8  5119               	movf	((testToggle@i_80+1))&0ffh,w
  1786  0130EA  0A80               	xorlw	80h
  1787  0130EC  0F80               	addlw	-((0)^80h)
  1788  0130EE  0E07               	movlw	07h
  1789  0130F0  B4D8               	btfsc	status,2
  1790  0130F2  5D18               	subwf	((testToggle@i_80))&0ffh,w
  1791  0130F4  A0D8               	btfss	status,0
  1792  0130F6  EF7F  F098         	goto	u4801
  1793  0130FA  EF81  F098         	goto	u4800
  1794  0130FE                     u4801:
  1795  0130FE  EF10  F098         	goto	l1046
  1796  013102                     u4800:
  1797                           	
  1798  013102                     l1047:		; BSR set to: ?
  1799                           
  1800                           	line	965
  1801                           ;main.c: 963: }
  1802                           ;main.c: 965: for (int i = 0; i < 7; i++) {
  1803  013102  0E00               	movlw	low(0)
  1804  013104  0101               	movlb	1	; () banked
  1805  013106  0101               	movlb	1	; () banked
  1806  013108  6F1A               	movwf	((testToggle@i_82))&0ffh
  1807  01310A  0E00               	movlw	high(0)
  1808  01310C  0101               	movlb	1	; () banked
  1809  01310E  6F1B               	movwf	((testToggle@i_82+1))&0ffh
  1810  013110  0101               	movlb	1	; () banked
  1811  013112  0101               	movlb	1	; () banked
  1812  013114  511B               	movf	((testToggle@i_82+1))&0ffh,w
  1813  013116  0A80               	xorlw	80h
  1814  013118  0F80               	addlw	-((0)^80h)
  1815  01311A  0E07               	movlw	07h
  1816  01311C  B4D8               	btfsc	status,2
  1817  01311E  5D1A               	subwf	((testToggle@i_82))&0ffh,w
  1818  013120  A0D8               	btfss	status,0
  1819  013122  EF95  F098         	goto	u4811
  1820  013126  EF97  F098         	goto	u4810
  1821  01312A                     u4811:
  1822  01312A  EF99  F098         	goto	l1052
  1823  01312E                     u4810:
  1824  01312E  EF0A  F099         	goto	l1053
  1825                           	
  1826  013132                     l1052:		; BSR set to: ?
  1827                           
  1828                           	line	966
  1829                           ;main.c: 966: for (int j = 0; j < sizeof(led_arr
                                 ay); j++) {
  1830  013132  0E00               	movlw	low(0)
  1831  013134  0101               	movlb	1	; () banked
  1832  013136  0101               	movlb	1	; () banked
  1833  013138  6F2C               	movwf	((testToggle@j_83))&0ffh
  1834  01313A  0E00               	movlw	high(0)
  1835  01313C  0101               	movlb	1	; () banked
  1836  01313E  6F2D               	movwf	((testToggle@j_83+1))&0ffh
  1837  013140  0E1A               	movlw	01Ah
  1838  013142  0101               	movlb	1	; () banked
  1839  013144  0101               	movlb	1	; () banked
  1840  013146  5D2C               	subwf	((testToggle@j_83))&0ffh,w
  1841  013148  0E00               	movlw	0
  1842  01314A  0101               	movlb	1	; () banked
  1843  01314C  592D               	subwfb	((testToggle@j_83+1))&0ffh,w
  1844  01314E  A0D8               	btfss	status,0
  1845  013150  EFAC  F098         	goto	u4821
  1846  013154  EFAE  F098         	goto	u4820
  1847  013158                     u4821:
  1848  013158  EFB0  F098         	goto	l1055
  1849  01315C                     u4820:
  1850  01315C  EFD3  F098         	goto	l1056
  1851                           	
  1852  013160                     l1055:		; BSR set to: ?
  1853                           
  1854                           	line	967
  1855                           ;main.c: 967: led_array[j] = 0;
  1856  013160  0101               	movlb	1	; () banked
  1857  013162  90D8               	bcf	status,0
  1858  013164  0101               	movlb	1	; () banked
  1859  013166  352C               	rlcf	((testToggle@j_83))&0ffh,w
  1860  013168  0101               	movlb	1	; () banked
  1861  01316A  6F2E               	movwf	(??_testToggle+36+0)&0ffh
  1862  01316C  0E00               	movlw	low((c:0))
  1863  01316E  0101               	movlb	1	; () banked
  1864  013170  252E               	addwf	(??_testToggle+36+0)&0ffh,w
  1865  013172  6EE9               	movwf	c:fsr0l
  1866  013174  6AEA               	clrf	1+c:fsr0l
  1867  013176  0E00               	movlw	high((c:0))
  1868  013178  22EA               	addwfc	1+c:fsr0l
  1869  01317A  0E00               	movlw	low(0)
  1870  01317C  6EEE               	movwf	postinc0
  1871  01317E  0E00               	movlw	high(0)
  1872  013180  6EED               	movwf	postdec0
  1873                           	line	966
  1874  013182  0101               	movlb	1	; () banked
  1875  013184  0101               	movlb	1	; () banked
  1876  013186  4B2C               	infsnz	((testToggle@j_83))&0ffh
  1877  013188  2B2D               	incf	((testToggle@j_83+1))&0ffh
  1878  01318A  0E1A               	movlw	01Ah
  1879  01318C  0101               	movlb	1	; () banked
  1880  01318E  0101               	movlb	1	; () banked
  1881  013190  5D2C               	subwf	((testToggle@j_83))&0ffh,w
  1882  013192  0E00               	movlw	0
  1883  013194  0101               	movlb	1	; () banked
  1884  013196  592D               	subwfb	((testToggle@j_83+1))&0ffh,w
  1885  013198  A0D8               	btfss	status,0
  1886  01319A  EFD1  F098         	goto	u4831
  1887  01319E  EFD3  F098         	goto	u4830
  1888  0131A2                     u4831:
  1889  0131A2  EFB0  F098         	goto	l1055
  1890  0131A6                     u4830:
  1891                           	
  1892  0131A6                     l1056:		; BSR set to: ?
  1893                           
  1894                           	line	969
  1895                           ;main.c: 968: }
  1896                           ;main.c: 969: led_array[5] = 1;
  1897  0131A6  0E01               	movlw	low(01h)
  1898  0131A8  6E0A               	movwf	(0+((c:0)+0Ah)),c
  1899  0131AA  0E00               	movlw	high(01h)
  1900  0131AC  6E0B               	movwf	(1+((c:0)+0Ah)),c
  1901                           	line	970
  1902                           ;main.c: 970: led_array[i+6] = 1;
  1903  0131AE  0101               	movlb	1	; () banked
  1904  0131B0  90D8               	bcf	status,0
  1905  0131B2  0101               	movlb	1	; () banked
  1906  0131B4  351A               	rlcf	((testToggle@i_82))&0ffh,w
  1907  0131B6  0101               	movlb	1	; () banked
  1908  0131B8  6F2E               	movwf	(??_testToggle+36+0)&0ffh
  1909  0131BA  0E0C               	movlw	0Ch
  1910  0131BC  0101               	movlb	1	; () banked
  1911  0131BE  272E               	addwf	(??_testToggle+36+0)&0ffh
  1912  0131C0  0E00               	movlw	low((c:0))
  1913  0131C2  0101               	movlb	1	; () banked
  1914  0131C4  252E               	addwf	(??_testToggle+36+0)&0ffh,w
  1915  0131C6  6EE9               	movwf	c:fsr0l
  1916  0131C8  6AEA               	clrf	1+c:fsr0l
  1917  0131CA  0E00               	movlw	high((c:0))
  1918  0131CC  22EA               	addwfc	1+c:fsr0l
  1919  0131CE  0E01               	movlw	low(01h)
  1920  0131D0  6EEE               	movwf	postinc0
  1921  0131D2  0E00               	movlw	high(01h)
  1922  0131D4  6EED               	movwf	postdec0
  1923                           	line	971
  1924                           ;main.c: 971: ToggleLeds();
  1925  0131D6  EC0B  F099         	call	_ToggleLeds	;wreg free
  1926                           	line	972
  1927                           ;main.c: 972: DelayMs(5000);
  1928  0131DA  0101               	movlb	1	; () banked
  1929  0131DC  6F2E               	movwf	(??_testToggle+36+0)&0ffh
  1930  0131DE  0E88               	movlw	low(088h)
  1931  0131E0  0101               	movlb	1	; () banked
  1932  0131E2  0101               	movlb	1	; () banked
  1933  0131E4  6F2F               	movwf	((?_DelayMs))&0ffh
  1934  0131E6  0101               	movlb	1	; () banked
  1935  0131E8  512E               	movf	(??_testToggle+36+0)&0ffh,w
  1936  0131EA  EC89  F093         	call	_DelayMs	;wreg free
  1937                           	line	965
  1938  0131EE  0101               	movlb	1	; () banked
  1939  0131F0  0101               	movlb	1	; () banked
  1940  0131F2  4B1A               	infsnz	((testToggle@i_82))&0ffh
  1941  0131F4  2B1B               	incf	((testToggle@i_82+1))&0ffh
  1942  0131F6  0101               	movlb	1	; () banked
  1943  0131F8  0101               	movlb	1	; () banked
  1944  0131FA  511B               	movf	((testToggle@i_82+1))&0ffh,w
  1945  0131FC  0A80               	xorlw	80h
  1946  0131FE  0F80               	addlw	-((0)^80h)
  1947  013200  0E07               	movlw	07h
  1948  013202  B4D8               	btfsc	status,2
  1949  013204  5D1A               	subwf	((testToggle@i_82))&0ffh,w
  1950  013206  A0D8               	btfss	status,0
  1951  013208  EF08  F099         	goto	u4841
  1952  01320C  EF0A  F099         	goto	u4840
  1953  013210                     u4841:
  1954  013210  EF99  F098         	goto	l1052
  1955  013214                     u4840:
  1956                           	
  1957  013214                     l1053:		; BSR set to: ?
  1958                           
  1959                           	line	974
  1960                           ;main.c: 973: }
  1961                           ;main.c: 974: }
  1962  013214                     l1003:
  1963                           			; BSR set to: ?
  1964                           
  1965  013214  0012               	return
  1966                           	opt stack 0
  1967                           GLOBAL __end_of_testToggle
  1968  013216                     	__end_of_testToggle:
  1969                           	FNSIZE	_testToggle,37,0
  1970                           ; =============== function _testToggle ends ====
                                 ========
  1971                           
  1972                           	signat	_testToggle,88
  1973                           	global	_DelayMs
  1974                           	global	??_DelayMs
  1975                           	global	?_DelayMs
  1976                           
  1977                           ; *************** function _DelayMs ************
                                 *****
  1978                           ; Defined at:
  1979                           ;		line 12 in file "delay.c"
  1980                           ; Parameters:
  1981                           ;		cnt            size:   1offs:   0	type: unsig
                                 ned char 
  1982                           ; Auto variables:
  1983                           ;		i           	       	type: unsigned char 
  1984                           ;		_dcnt       	       	type: unsigned char 
  1985                           ; Return value:
  1986                           ;		type: void 
  1987                           ;		size: 0
  1988                           ; Registers used:
  1989                           ;		status,2
  1990                           ; Tracked objects:
  1991                           ;		On entry : 0/0
  1992                           ;		On exit  : 0/0
  1993                           ;		Unchanged: 0/0
  1994                           ; Data sizes:
  1995                           ;		Autos:    2
  1996                           ;		Params:   1
  1997                           ;		Temp:     1
  1998                           ;		Total:    4
  1999                           ; This function calls:
  2000                           ;		Nothing
  2001                           ; This function is called by:
  2002                           ;		_testToggle
  2003                           ; This function uses a non-reentrant model
  2004                           ; 
  2005                                   psect   text2,class=CODE,space=0,reloc=2
  2006                           
  2007                           	opt lm
  2008                           	file	"delay.c"
  2009                           	line	12
  2010  000000                     	__size_of_DelayMs	equ	__end_of_DelayMs-_DelayMs
  2011                           ;delay.c: 10: void
  2012                           ;delay.c: 11: DelayMs(unsigned char cnt)
  2013                           ;delay.c: 12: {
  2014                           	
  2015  012712                     _DelayMs:		; BSR set to: ?
  2016                           
  2017                           	opt stack 29
  2018                           	line	21
  2019                           	
  2020  012712                     l1078:		; BSR set to: ?
  2021                           
  2022                           	line	22
  2023                           ;delay.c: 22: i = 4;
  2024  012712  0101               	movlb	1	; () banked
  2025  012714  6F32               	movwf	(??_DelayMs+2+0)&0ffh
  2026  012716  0E04               	movlw	low(04h)
  2027  012718  0101               	movlb	1	; () banked
  2028  01271A  0101               	movlb	1	; () banked
  2029  01271C  6F30               	movwf	((DelayMs@i))&0ffh
  2030  01271E  0101               	movlb	1	; () banked
  2031  012720  5132               	movf	(??_DelayMs+2+0)&0ffh,w
  2032                           	line	23
  2033                           ;delay.c: 23: do {
  2034                           	
  2035  012722                     l1081:		; BSR set to: ?
  2036                           
  2037                           	line	24
  2038                           ;delay.c: 24: { unsigned char _dcnt; _dcnt = (25
                                 0)*((20*1000L)/(12*1000L)); while(--_dcnt != 0) 
                                 continue; };
  2039  012722  0101               	movlb	1	; () banked
  2040  012724  6F32               	movwf	(??_DelayMs+2+0)&0ffh
  2041  012726  0EFA               	movlw	low(0FAh)
  2042  012728  0101               	movlb	1	; () banked
  2043  01272A  0101               	movlb	1	; () banked
  2044  01272C  6F31               	movwf	((DelayMs@_dcnt))&0ffh
  2045  01272E  0101               	movlb	1	; () banked
  2046  012730  5132               	movf	(??_DelayMs+2+0)&0ffh,w
  2047  012732  EF9D  F093         	goto	l1082
  2048                           	
  2049  012736                     l1083:		; BSR set to: ?
  2050                           
  2051  012736  EF9D  F093         	goto	l1082
  2052                           	
  2053  01273A                     l1082:		; BSR set to: ?
  2054                           
  2055  01273A  0101               	movlb	1	; () banked
  2056  01273C  0101               	movlb	1	; () banked
  2057  01273E  2F31               	decfsz	((DelayMs@_dcnt))&0ffh
  2058                           	
  2059  012740  EF9B  F093         	goto	l1083
  2060                           	
  2061  012744                     l1084:		; BSR set to: ?
  2062                           
  2063                           	line	25
  2064                           ;delay.c: 25: } while(--i);
  2065  012744  0101               	movlb	1	; () banked
  2066  012746  0101               	movlb	1	; () banked
  2067  012748  2F30               	decfsz	((DelayMs@i))&0ffh
  2068                           	
  2069  01274A  EF91  F093         	goto	l1081
  2070                           	
  2071  01274E                     l1080:		; BSR set to: ?
  2072                           
  2073                           	line	26
  2074                           ;delay.c: 26: } while(--cnt);
  2075  01274E  0101               	movlb	1	; () banked
  2076  012750  0101               	movlb	1	; () banked
  2077  012752  2F2F               	decfsz	((DelayMs@cnt))&0ffh
  2078                           	
  2079  012754  EF89  F093         	goto	l1078
  2080                           	
  2081  012758                     l1077:		; BSR set to: ?
  2082                           
  2083                           	line	28
  2084                           ;delay.c: 28: }
  2085  012758                     l1075:
  2086                           			; BSR set to: ?
  2087                           
  2088  012758  0012               	return
  2089                           	opt stack 0
  2090                           GLOBAL __end_of_DelayMs
  2091  01275A                     	__end_of_DelayMs:
  2092                           	FNSIZE	_DelayMs,3,1
  2093                           ; =============== function _DelayMs ends =======
                                 =====
  2094                           
  2095                           	signat	_DelayMs,4216
  2096                           	global	_ToggleLeds
  2097                           	global	??_ToggleLeds
  2098                           	global	?_ToggleLeds
  2099                           
  2100                           ; *************** function _ToggleLeds *********
                                 ********
  2101                           ; Defined at:
  2102                           ;		line 314 in file "../code/main.c"
  2103                           ; Parameters:
  2104                           ;		None
  2105                           ; Auto variables:
  2106                           ;		None
  2107                           ; Return value:
  2108                           ;		type: void 
  2109                           ;		size: 0
  2110                           ; Registers used:
  2111                           ;		wreg, status,2, status,0
  2112                           ; Tracked objects:
  2113                           ;		On entry : 0/0
  2114                           ;		On exit  : 0/0
  2115                           ;		Unchanged: 0/0
  2116                           ; Data sizes:
  2117                           ;		Autos:    0
  2118                           ;		Params:   0
  2119                           ;		Temp:     0
  2120                           ;		Total:    0
  2121                           ; This function calls:
  2122                           ;		Nothing
  2123                           ; This function is called by:
  2124                           ;		_main
  2125                           ;		_testToggle
  2126                           ; This function uses a non-reentrant model
  2127                           ; 
  2128                                   psect   text3,class=CODE,space=0,reloc=2
  2129                           
  2130                           	opt lm
  2131                           	file	"../code/main.c"
  2132                           	line	314
  2133  000000                     	__size_of_ToggleLeds	equ	__end_of_ToggleLeds-_T
                                 oggleLeds
  2134                           ;main.c: 314: void ToggleLeds () {
  2135                           	
  2136  013216                     _ToggleLeds:		; BSR set to: ?
  2137                           
  2138                           	opt stack 29
  2139                           	line	319
  2140  013216  0408               	decf	(0+((c:0)+08h)),c,w
  2141  013218  1009               	iorwf (1+((c:0)+08h)),c,w
  2142                           
  2143  01321A  A4D8               	btfss	status,2
  2144  01321C  EF12  F099         	goto	u4851
  2145  013220  EF14  F099         	goto	u4850
  2146  013224                     u4851:
  2147  013224  EF2E  F099         	goto	l878
  2148  013228                     u4850:
  2149  013228  040A               	decf	(0+((c:0)+0Ah)),c,w
  2150  01322A  100B               	iorwf (1+((c:0)+0Ah)),c,w
  2151                           
  2152  01322C  A4D8               	btfss	status,2
  2153  01322E  EF1B  F099         	goto	u4861
  2154  013232  EF1D  F099         	goto	u4860
  2155  013236                     u4861:
  2156  013236  EF2E  F099         	goto	l878
  2157  01323A                     u4860:
  2158  01323A  040C               	decf	(0+((c:0)+0Ch)),c,w
  2159  01323C  100D               	iorwf (1+((c:0)+0Ch)),c,w
  2160                           
  2161  01323E  A4D8               	btfss	status,2
  2162  013240  EF24  F099         	goto	u4871
  2163  013244  EF26  F099         	goto	u4870
  2164  013248                     u4871:
  2165  013248  EF2E  F099         	goto	l878
  2166  01324C                     u4870:
  2167                           	line	322
  2168                           ;main.c: 322: LATA = 0b11101111;
  2169  01324C  0EEF               	movlw	low(0EFh)
  2170  01324E  6E89               	movwf	((c:3977)),c	;volatile
  2171                           	line	324
  2172                           ;main.c: 324: LATB = 0b11100000;
  2173  013250  0EE0               	movlw	low(0E0h)
  2174  013252  6E8A               	movwf	((c:3978)),c	;volatile
  2175                           	line	326
  2176                           ;main.c: 326: LATC = 0b00001111;
  2177  013254  0E0F               	movlw	low(0Fh)
  2178  013256  6E8B               	movwf	((c:3979)),c	;volatile
  2179                           	line	327
  2180                           ;main.c: 327: } else if (led_array[4] == 1 && le
                                 d_array[5] == 1 && led_array[7] == 1) {
  2181  013258  EFFF  F09F         	goto	l879
  2182                           	
  2183  01325C                     l878:		; BSR set to: ?
  2184                           
  2185  01325C  0408               	decf	(0+((c:0)+08h)),c,w
  2186  01325E  1009               	iorwf (1+((c:0)+08h)),c,w
  2187                           
  2188  013260  A4D8               	btfss	status,2
  2189  013262  EF35  F099         	goto	u4881
  2190  013266  EF37  F099         	goto	u4880
  2191  01326A                     u4881:
  2192  01326A  EF51  F099         	goto	l880
  2193  01326E                     u4880:
  2194  01326E  040A               	decf	(0+((c:0)+0Ah)),c,w
  2195  013270  100B               	iorwf (1+((c:0)+0Ah)),c,w
  2196                           
  2197  013272  A4D8               	btfss	status,2
  2198  013274  EF3E  F099         	goto	u4891
  2199  013278  EF40  F099         	goto	u4890
  2200  01327C                     u4891:
  2201  01327C  EF51  F099         	goto	l880
  2202  013280                     u4890:
  2203  013280  040E               	decf	(0+((c:0)+0Eh)),c,w
  2204  013282  100F               	iorwf (1+((c:0)+0Eh)),c,w
  2205                           
  2206  013284  A4D8               	btfss	status,2
  2207  013286  EF47  F099         	goto	u4901
  2208  01328A  EF49  F099         	goto	u4900
  2209  01328E                     u4901:
  2210  01328E  EF51  F099         	goto	l880
  2211  013292                     u4900:
  2212                           	line	330
  2213                           ;main.c: 330: LATA = 0b10111111;
  2214  013292  0EBF               	movlw	low(0BFh)
  2215  013294  6E89               	movwf	((c:3977)),c	;volatile
  2216                           	line	332
  2217                           ;main.c: 332: LATB = 0b11100000;
  2218  013296  0EE0               	movlw	low(0E0h)
  2219  013298  6E8A               	movwf	((c:3978)),c	;volatile
  2220                           	line	334
  2221                           ;main.c: 334: LATC = 0b00001111;
  2222  01329A  0E0F               	movlw	low(0Fh)
  2223  01329C  6E8B               	movwf	((c:3979)),c	;volatile
  2224                           	line	335
  2225                           ;main.c: 335: } else if (led_array[4] == 1 && le
                                 d_array[5] == 1 && led_array[8] == 1) {
  2226  01329E  EFFF  F09F         	goto	l879
  2227                           	
  2228  0132A2                     l880:		; BSR set to: ?
  2229                           
  2230  0132A2  0408               	decf	(0+((c:0)+08h)),c,w
  2231  0132A4  1009               	iorwf (1+((c:0)+08h)),c,w
  2232                           
  2233  0132A6  A4D8               	btfss	status,2
  2234  0132A8  EF58  F099         	goto	u4911
  2235  0132AC  EF5A  F099         	goto	u4910
  2236  0132B0                     u4911:
  2237  0132B0  EF73  F099         	goto	l882
  2238  0132B4                     u4910:
  2239  0132B4  040A               	decf	(0+((c:0)+0Ah)),c,w
  2240  0132B6  100B               	iorwf (1+((c:0)+0Ah)),c,w
  2241                           
  2242  0132B8  A4D8               	btfss	status,2
  2243  0132BA  EF61  F099         	goto	u4921
  2244  0132BE  EF63  F099         	goto	u4920
  2245  0132C2                     u4921:
  2246  0132C2  EF73  F099         	goto	l882
  2247  0132C6                     u4920:
  2248  0132C6  0410               	decf	(0+((c:0)+010h)),c,w
  2249  0132C8  1011               	iorwf (1+((c:0)+010h)),c,w
  2250                           
  2251  0132CA  A4D8               	btfss	status,2
  2252  0132CC  EF6A  F099         	goto	u4931
  2253  0132D0  EF6C  F099         	goto	u4930
  2254  0132D4                     u4931:
  2255  0132D4  EF73  F099         	goto	l882
  2256  0132D8                     u4930:
  2257                           	line	338
  2258                           ;main.c: 338: LATA = 0b11111111;
  2259  0132D8  6889               	setf	((c:3977)),c	;volatile
  2260                           	line	340
  2261                           ;main.c: 340: LATB = 0b11100000;
  2262  0132DA  0EE0               	movlw	low(0E0h)
  2263  0132DC  6E8A               	movwf	((c:3978)),c	;volatile
  2264                           	line	342
  2265                           ;main.c: 342: LATC = 0b00001110;
  2266  0132DE  0E0E               	movlw	low(0Eh)
  2267  0132E0  6E8B               	movwf	((c:3979)),c	;volatile
  2268                           	line	343
  2269                           ;main.c: 343: } else if (led_array[4] == 1 && le
                                 d_array[5] == 1 && led_array[9] == 1) {
  2270  0132E2  EFFF  F09F         	goto	l879
  2271                           	
  2272  0132E6                     l882:		; BSR set to: ?
  2273                           
  2274  0132E6  0408               	decf	(0+((c:0)+08h)),c,w
  2275  0132E8  1009               	iorwf (1+((c:0)+08h)),c,w
  2276                           
  2277  0132EA  A4D8               	btfss	status,2
  2278  0132EC  EF7A  F099         	goto	u4941
  2279  0132F0  EF7C  F099         	goto	u4940
  2280  0132F4                     u4941:
  2281  0132F4  EF95  F099         	goto	l884
  2282  0132F8                     u4940:
  2283  0132F8  040A               	decf	(0+((c:0)+0Ah)),c,w
  2284  0132FA  100B               	iorwf (1+((c:0)+0Ah)),c,w
  2285                           
  2286  0132FC  A4D8               	btfss	status,2
  2287  0132FE  EF83  F099         	goto	u4951
  2288  013302  EF85  F099         	goto	u4950
  2289  013306                     u4951:
  2290  013306  EF95  F099         	goto	l884
  2291  01330A                     u4950:
  2292  01330A  0412               	decf	(0+((c:0)+012h)),c,w
  2293  01330C  1013               	iorwf (1+((c:0)+012h)),c,w
  2294                           
  2295  01330E  A4D8               	btfss	status,2
  2296  013310  EF8C  F099         	goto	u4961
  2297  013314  EF8E  F099         	goto	u4960
  2298  013318                     u4961:
  2299  013318  EF95  F099         	goto	l884
  2300  01331C                     u4960:
  2301                           	line	346
  2302                           ;main.c: 346: LATA = 0b11111111;
  2303  01331C  6889               	setf	((c:3977)),c	;volatile
  2304                           	line	348
  2305                           ;main.c: 348: LATB = 0b11100000;
  2306  01331E  0EE0               	movlw	low(0E0h)
  2307  013320  6E8A               	movwf	((c:3978)),c	;volatile
  2308                           	line	350
  2309                           ;main.c: 350: LATC = 0b00001101;
  2310  013322  0E0D               	movlw	low(0Dh)
  2311  013324  6E8B               	movwf	((c:3979)),c	;volatile
  2312                           	line	351
  2313                           ;main.c: 351: } else if (led_array[4] == 1 && le
                                 d_array[5] == 1 && led_array[10] == 1) {
  2314  013326  EFFF  F09F         	goto	l879
  2315                           	
  2316  01332A                     l884:		; BSR set to: ?
  2317                           
  2318  01332A  0408               	decf	(0+((c:0)+08h)),c,w
  2319  01332C  1009               	iorwf (1+((c:0)+08h)),c,w
  2320                           
  2321  01332E  A4D8               	btfss	status,2
  2322  013330  EF9C  F099         	goto	u4971
  2323  013334  EF9E  F099         	goto	u4970
  2324  013338                     u4971:
  2325  013338  EFB7  F099         	goto	l886
  2326  01333C                     u4970:
  2327  01333C  040A               	decf	(0+((c:0)+0Ah)),c,w
  2328  01333E  100B               	iorwf (1+((c:0)+0Ah)),c,w
  2329                           
  2330  013340  A4D8               	btfss	status,2
  2331  013342  EFA5  F099         	goto	u4981
  2332  013346  EFA7  F099         	goto	u4980
  2333  01334A                     u4981:
  2334  01334A  EFB7  F099         	goto	l886
  2335  01334E                     u4980:
  2336  01334E  0414               	decf	(0+((c:0)+014h)),c,w
  2337  013350  1015               	iorwf (1+((c:0)+014h)),c,w
  2338                           
  2339  013352  A4D8               	btfss	status,2
  2340  013354  EFAE  F099         	goto	u4991
  2341  013358  EFB0  F099         	goto	u4990
  2342  01335C                     u4991:
  2343  01335C  EFB7  F099         	goto	l886
  2344  013360                     u4990:
  2345                           	line	354
  2346                           ;main.c: 354: LATA = 0b11111111;
  2347  013360  6889               	setf	((c:3977)),c	;volatile
  2348                           	line	356
  2349                           ;main.c: 356: LATB = 0b01100000;
  2350  013362  0E60               	movlw	low(060h)
  2351  013364  6E8A               	movwf	((c:3978)),c	;volatile
  2352                           	line	358
  2353                           ;main.c: 358: LATC = 0b00001111;
  2354  013366  0E0F               	movlw	low(0Fh)
  2355  013368  6E8B               	movwf	((c:3979)),c	;volatile
  2356                           	line	359
  2357                           ;main.c: 359: } else if (led_array[4] == 1 && le
                                 d_array[5] == 1 && led_array[11] == 1) {
  2358  01336A  EFFF  F09F         	goto	l879
  2359                           	
  2360  01336E                     l886:		; BSR set to: ?
  2361                           
  2362  01336E  0408               	decf	(0+((c:0)+08h)),c,w
  2363  013370  1009               	iorwf (1+((c:0)+08h)),c,w
  2364                           
  2365  013372  A4D8               	btfss	status,2
  2366  013374  EFBE  F099         	goto	u5001
  2367  013378  EFC0  F099         	goto	u5000
  2368  01337C                     u5001:
  2369  01337C  EFD9  F099         	goto	l888
  2370  013380                     u5000:
  2371  013380  040A               	decf	(0+((c:0)+0Ah)),c,w
  2372  013382  100B               	iorwf (1+((c:0)+0Ah)),c,w
  2373                           
  2374  013384  A4D8               	btfss	status,2
  2375  013386  EFC7  F099         	goto	u5011
  2376  01338A  EFC9  F099         	goto	u5010
  2377  01338E                     u5011:
  2378  01338E  EFD9  F099         	goto	l888
  2379  013392                     u5010:
  2380  013392  0416               	decf	(0+((c:0)+016h)),c,w
  2381  013394  1017               	iorwf (1+((c:0)+016h)),c,w
  2382                           
  2383  013396  A4D8               	btfss	status,2
  2384  013398  EFD0  F099         	goto	u5021
  2385  01339C  EFD2  F099         	goto	u5020
  2386  0133A0                     u5021:
  2387  0133A0  EFD9  F099         	goto	l888
  2388  0133A4                     u5020:
  2389+                          	line	362
  2390+                          ;main.c: 362: LATA = 0b11111111;
  2391+ 0133A4  6889               	setf	((c:3977)),c	;volatile
  2392+                          	line	364
  2393+                          ;main.c: 364: LATB = 0b11100000;
  2394+ 0133A6  0EE0               	movlw	low(0E0h)
  2395+ 0133A8  6E8A               	movwf	((c:3978)),c	;volatile
  2396+                          	line	366
  2397+                          ;main.c: 366: LATC = 0b00001011;
  2398+ 0133AA  0E0B               	movlw	low(0Bh)
  2399+ 0133AC  6E8B               	movwf	((c:3979)),c	;volatile
  2400+                          	line	367
  2401+                          ;main.c: 367: } else if (led_array[4] == 1 && le
      +                          d_array[5] == 1 && led_array[12] == 1) {
  2402+ 0133AE  EFFF  F09F         	goto	l879
  2403+                          	
  2404+ 0133B2                     l888:		; BSR set to: ?
  2405+                          
  2406+ 0133B2  0408               	decf	(0+((c:0)+08h)),c,w
  2407+ 0133B4  1009               	iorwf (1+((c:0)+08h)),c,w
  2408+                          
  2409+ 0133B6  A4D8               	btfss	status,2
  2410+ 0133B8  EFE0  F099         	goto	u5031
  2411+ 0133BC  EFE2  F099         	goto	u5030
  2412+ 0133C0                     u5031:
  2413+ 0133C0  EFFB  F099         	goto	l890
  2414+ 0133C4                     u5030:
  2415+ 0133C4  040A               	decf	(0+((c:0)+0Ah)),c,w
  2416+ 0133C6  100B               	iorwf (1+((c:0)+0Ah)),c,w
  2417+                          
  2418+ 0133C8  A4D8               	btfss	status,2
  2419+ 0133CA  EFE9  F099         	goto	u5041
  2420+ 0133CE  EFEB  F099         	goto	u5040
  2421+ 0133D2                     u5041:
  2422+ 0133D2  EFFB  F099         	goto	l890
  2423+ 0133D6                     u5040:
  2424+ 0133D6  0418               	decf	(0+((c:0)+018h)),c,w
  2425+ 0133D8  1019               	iorwf (1+((c:0)+018h)),c,w
  2426+                          
  2427+ 0133DA  A4D8               	btfss	status,2
  2428+ 0133DC  EFF2  F099         	goto	u5051
  2429+ 0133E0  EFF4  F099         	goto	u5050
  2430+ 0133E4                     u5051:
  2431+ 0133E4  EFFB  F099         	goto	l890
  2432+ 0133E8                     u5050:
  2433+                          	line	370
  2434+                          ;main.c: 370: LATA = 0b11111111;
  2435+ 0133E8  6889               	setf	((c:3977)),c	;volatile
  2436+                          	line	372
  2437+                          ;main.c: 372: LATB = 0b11100000;
  2438+ 0133EA  0EE0               	movlw	low(0E0h)
  2439+ 0133EC  6E8A               	movwf	((c:3978)),c	;volatile
  2440+                          	line	374
  2441+                          ;main.c: 374: LATC = 0b00000111;
  2442+ 0133EE  0E07               	movlw	low(07h)
  2443+ 0133F0  6E8B               	movwf	((c:3979)),c	;volatile
  2444+                          	line	376
  2445+                          ;main.c: 376: } else if (led_array[4] == 1 && le
      +                          d_array[6] == 1) {
  2446+ 0133F2  EFFF  F09F         	goto	l879
  2447+                          	
  2448+ 0133F6                     l890:		; BSR set to: ?
  2449+                          
  2450+ 0133F6  0408               	decf	(0+((c:0)+08h)),c,w
  2451+ 0133F8  1009               	iorwf (1+((c:0)+08h)),c,w
  2452+                          
  2453+ 0133FA  A4D8               	btfss	status,2
  2454+ 0133FC  EF02  F09A         	goto	u5061
  2455+ 013400  EF04  F09A         	goto	u5060
  2456+ 013404                     u5061:
  2457+ 013404  EF15  F09A         	goto	l892
  2458+ 013408                     u5060:
  2459+ 013408  040C               	decf	(0+((c:0)+0Ch)),c,w
  2460+ 01340A  100D               	iorwf (1+((c:0)+0Ch)),c,w
  2461+                          
  2462+ 01340C  A4D8               	btfss	status,2
  2463+ 01340E  EF0B  F09A         	goto	u5071
  2464+ 013412  EF0D  F09A         	goto	u5070
  2465+ 013416                     u5071:
  2466+ 013416  EF15  F09A         	goto	l892
  2467+ 01341A                     u5070:
  2468+                          	line	379
  2469+                          ;main.c: 379: LATA = 0b11101111;
  2470+ 01341A  0EEF               	movlw	low(0EFh)
  2471+ 01341C  6E89               	movwf	((c:3977)),c	;volatile
  2472+                          	line	381
  2473+                          ;main.c: 381: LATB = 0b11000000;
  2474+ 01341E  0EC0               	movlw	low(0C0h)
  2475+ 013420  6E8A               	movwf	((c:3978)),c	;volatile
  2476+                          	line	383
  2477+                          ;main.c: 383: LATC = 0b00001111;
  2478+ 013422  0E0F               	movlw	low(0Fh)
  2479+ 013424  6E8B               	movwf	((c:3979)),c	;volatile
  2480+                          	line	384
  2481+                          ;main.c: 384: } else if (led_array[4] == 1 && le
      +                          d_array[7] == 1) {
  2482+ 013426  EFFF  F09F         	goto	l879
  2483+                          	
  2484+ 01342A                     l892:		; BSR set to: ?
  2485+                          
  2486+ 01342A  0408               	decf	(0+((c:0)+08h)),c,w
  2487+ 01342C  1009               	iorwf (1+((c:0)+08h)),c,w
  2488+                          
  2489+ 01342E  A4D8               	btfss	status,2
  2490+ 013430  EF1C  F09A         	goto	u5081
  2491+ 013434  EF1E  F09A         	goto	u5080
  2492+ 013438                     u5081:
  2493+ 013438  EF2F  F09A         	goto	l894
  2494+ 01343C                     u5080:
  2495+ 01343C  040E               	decf	(0+((c:0)+0Eh)),c,w
  2496+ 01343E  100F               	iorwf (1+((c:0)+0Eh)),c,w
  2497+                          
  2498+ 013440  A4D8               	btfss	status,2
  2499+ 013442  EF25  F09A         	goto	u5091
  2500+ 013446  EF27  F09A         	goto	u5090
  2501+ 01344A                     u5091:
  2502+ 01344A  EF2F  F09A         	goto	l894
  2503+ 01344E                     u5090:
  2504+                          	line	387
  2505+                          ;main.c: 387: LATA = 0b10111111;
  2506+ 01344E  0EBF               	movlw	low(0BFh)
  2507+ 013450  6E89               	movwf	((c:3977)),c	;volatile
  2508+                          	line	389
  2509+                          ;main.c: 389: LATB = 0b11000000;
  2510+ 013452  0EC0               	movlw	low(0C0h)
  2511+ 013454  6E8A               	movwf	((c:3978)),c	;volatile
  2512+                          	line	391
  2513+                          ;main.c: 391: LATC = 0b00001111;
  2514+ 013456  0E0F               	movlw	low(0Fh)
  2515+ 013458  6E8B               	movwf	((c:3979)),c	;volatile
  2516+                          	line	392
  2517+                          ;main.c: 392: } else if (led_array[4] == 1 && le
      +                          d_array[8] == 1) {
  2518+ 01345A  EFFF  F09F         	goto	l879
  2519+                          	
  2520+ 01345E                     l894:		; BSR set to: ?
  2521+                          
  2522+ 01345E  0408               	decf	(0+((c:0)+08h)),c,w
  2523+ 013460  1009               	iorwf (1+((c:0)+08h)),c,w
  2524+                          
  2525+ 013462  A4D8               	btfss	status,2
  2526+ 013464  EF36  F09A         	goto	u5101
  2527+ 013468  EF38  F09A         	goto	u5100
  2528+ 01346C                     u5101:
  2529+ 01346C  EF48  F09A         	goto	l896
  2530+ 013470                     u5100:
  2531+ 013470  0410               	decf	(0+((c:0)+010h)),c,w
  2532+ 013472  1011               	iorwf (1+((c:0)+010h)),c,w
  2533+                          
  2534+ 013474  A4D8               	btfss	status,2
  2535+ 013476  EF3F  F09A         	goto	u5111
  2536+ 01347A  EF41  F09A         	goto	u5110
  2537+ 01347E                     u5111:
  2538+ 01347E  EF48  F09A         	goto	l896
  2539+ 013482                     u5110:
  2540+                          	line	395
  2541+                          ;main.c: 395: LATA = 0b11111111;
  2542+ 013482  6889               	setf	((c:3977)),c	;volatile
  2543+                          	line	397
  2544+                          ;main.c: 397: LATB = 0b11000000;
  2545+ 013484  0EC0               	movlw	low(0C0h)
  2546+ 013486  6E8A               	movwf	((c:3978)),c	;volatile
  2547+                          	line	399
  2548+                          ;main.c: 399: LATC = 0b00001110;
  2549+ 013488  0E0E               	movlw	low(0Eh)
  2550+ 01348A  6E8B               	movwf	((c:3979)),c	;volatile
  2551+                          	line	400
  2552+                          ;main.c: 400: } else if (led_array[4] == 1 && le
      +                          d_array[9] == 1) {
  2553+ 01348C  EFFF  F09F         	goto	l879
  2554+                          	
  2555+ 013490                     l896:		; BSR set to: ?
  2556+                          
  2557+ 013490  0408               	decf	(0+((c:0)+08h)),c,w
  2558+ 013492  1009               	iorwf (1+((c:0)+08h)),c,w
  2559+                          
  2560+ 013494  A4D8               	btfss	status,2
  2561+ 013496  EF4F  F09A         	goto	u5121
  2562+ 01349A  EF51  F09A         	goto	u5120
  2563+ 01349E                     u5121:
  2564+ 01349E  EF61  F09A         	goto	l898
  2565+ 0134A2                     u5120:
  2566+ 0134A2  0412               	decf	(0+((c:0)+012h)),c,w
  2567+ 0134A4  1013               	iorwf (1+((c:0)+012h)),c,w
  2568+                          
  2569+ 0134A6  A4D8               	btfss	status,2
  2570+ 0134A8  EF58  F09A         	goto	u5131
  2571+ 0134AC  EF5A  F09A         	goto	u5130
  2572+ 0134B0                     u5131:
  2573+ 0134B0  EF61  F09A         	goto	l898
  2574+ 0134B4                     u5130:
  2575+                          	line	403
  2576+                          ;main.c: 403: LATA = 0b11111111;
  2577+ 0134B4  6889               	setf	((c:3977)),c	;volatile
  2578+                          	line	405
  2579+                          ;main.c: 405: LATB = 0b11000000;
  2580+ 0134B6  0EC0               	movlw	low(0C0h)
  2581+ 0134B8  6E8A               	movwf	((c:3978)),c	;volatile
  2582+                          	line	407
  2583+                          ;main.c: 407: LATC = 0b00001101;
  2584+ 0134BA  0E0D               	movlw	low(0Dh)
  2585+ 0134BC  6E8B               	movwf	((c:3979)),c	;volatile
  2586+                          	line	409
  2587+                          ;main.c: 409: } else if (led_array[4] == 1 && le
      +                          d_array[10] == 1) {
  2588+ 0134BE  EFFF  F09F         	goto	l879
  2589+                          	
  2590+ 0134C2                     l898:		; BSR set to: ?
  2591+                          
  2592+ 0134C2  0408               	decf	(0+((c:0)+08h)),c,w
  2593+ 0134C4  1009               	iorwf (1+((c:0)+08h)),c,w
  2594+                          
  2595+ 0134C6  A4D8               	btfss	status,2
  2596+ 0134C8  EF68  F09A         	goto	u5141
  2597+ 0134CC  EF6A  F09A         	goto	u5140
  2598+ 0134D0                     u5141:
  2599+ 0134D0  EF7A  F09A         	goto	l900
  2600+ 0134D4                     u5140:
  2601+ 0134D4  0414               	decf	(0+((c:0)+014h)),c,w
  2602+ 0134D6  1015               	iorwf (1+((c:0)+014h)),c,w
  2603+                          
  2604+ 0134D8  A4D8               	btfss	status,2
  2605+ 0134DA  EF71  F09A         	goto	u5151
  2606+ 0134DE  EF73  F09A         	goto	u5150
  2607+ 0134E2                     u5151:
  2608+ 0134E2  EF7A  F09A         	goto	l900
  2609+ 0134E6                     u5150:
  2610+                          	line	412
  2611+                          ;main.c: 412: LATA = 0b11111111;
  2612+ 0134E6  6889               	setf	((c:3977)),c	;volatile
  2613+                          	line	414
  2614+                          ;main.c: 414: LATB = 0b01000000;
  2615+ 0134E8  0E40               	movlw	low(040h)
  2616+ 0134EA  6E8A               	movwf	((c:3978)),c	;volatile
  2617+                          	line	416
  2618+                          ;main.c: 416: LATC = 0b00001111;
  2619+ 0134EC  0E0F               	movlw	low(0Fh)
  2620+ 0134EE  6E8B               	movwf	((c:3979)),c	;volatile
  2621+                          	line	418
  2622+                          ;main.c: 418: } else if (led_array[4] == 1 && le
      +                          d_array[11] == 1) {
  2623+ 0134F0  EFFF  F09F         	goto	l879
  2624+                          	
  2625+ 0134F4                     l900:		; BSR set to: ?
  2626+                          
  2627+ 0134F4  0408               	decf	(0+((c:0)+08h)),c,w
  2628+ 0134F6  1009               	iorwf (1+((c:0)+08h)),c,w
  2629+                          
  2630+ 0134F8  A4D8               	btfss	status,2
  2631+ 0134FA  EF81  F09A         	goto	u5161
  2632+ 0134FE  EF83  F09A         	goto	u5160
  2633+ 013502                     u5161:
  2634+ 013502  EF93  F09A         	goto	l902
  2635+ 013506                     u5160:
  2636+ 013506  0416               	decf	(0+((c:0)+016h)),c,w
  2637+ 013508  1017               	iorwf (1+((c:0)+016h)),c,w
  2638+                          
  2639+ 01350A  A4D8               	btfss	status,2
  2640+ 01350C  EF8A  F09A         	goto	u5171
  2641+ 013510  EF8C  F09A         	goto	u5170
  2642+ 013514                     u5171:
  2643+ 013514  EF93  F09A         	goto	l902
  2644+ 013518                     u5170:
  2645+                          	line	421
  2646+                          ;main.c: 421: LATA = 0b11111111;
  2647+ 013518  6889               	setf	((c:3977)),c	;volatile
  2648+                          	line	423
  2649+                          ;main.c: 423: LATB = 0b11000000;
  2650+ 01351A  0EC0               	movlw	low(0C0h)
  2651+ 01351C  6E8A               	movwf	((c:3978)),c	;volatile
  2652+                          	line	425
  2653+                          ;main.c: 425: LATC = 0b00001011;
  2654+ 01351E  0E0B               	movlw	low(0Bh)
  2655+ 013520  6E8B               	movwf	((c:3979)),c	;volatile
  2656+                          	line	427
  2657+                          ;main.c: 427: } else if (led_array[4] == 1 && le
      +                          d_array[12] == 1) {
  2658+ 013522  EFFF  F09F         	goto	l879
  2659+                          	
  2660+ 013526                     l902:		; BSR set to: ?
  2661+                          
  2662+ 013526  0408               	decf	(0+((c:0)+08h)),c,w
  2663+ 013528  1009               	iorwf (1+((c:0)+08h)),c,w
  2664+                          
  2665+ 01352A  A4D8               	btfss	status,2
  2666+ 01352C  EF9A  F09A         	goto	u5181
  2667+ 013530  EF9C  F09A         	goto	u5180
  2668+ 013534                     u5181:
  2669+ 013534  EFAC  F09A         	goto	l904
  2670+ 013538                     u5180:
  2671+ 013538  0418               	decf	(0+((c:0)+018h)),c,w
  2672+ 01353A  1019               	iorwf (1+((c:0)+018h)),c,w
  2673+                          
  2674+ 01353C  A4D8               	btfss	status,2
  2675+ 01353E  EFA3  F09A         	goto	u5191
  2676+ 013542  EFA5  F09A         	goto	u5190
  2677+ 013546                     u5191:
  2678+ 013546  EFAC  F09A         	goto	l904
  2679+ 01354A                     u5190:
  2680+                          	line	430
  2681+                          ;main.c: 430: LATA = 0b11111111;
  2682+ 01354A  6889               	setf	((c:3977)),c	;volatile
  2683+                          	line	432
  2684+                          ;main.c: 432: LATB = 0b11000000;
  2685+ 01354C  0EC0               	movlw	low(0C0h)
  2686+ 01354E  6E8A               	movwf	((c:3978)),c	;volatile
  2687+                          	line	434
  2688+                          ;main.c: 434: LATC = 0b00000111;
  2689+ 013550  0E07               	movlw	low(07h)
  2690+ 013552  6E8B               	movwf	((c:3979)),c	;volatile
  2691+                          	line	436
  2692+                          ;main.c: 436: } else if (led_array[5] == 1 && le
      +                          d_array[6] == 1) {
  2693+ 013554  EFFF  F09F         	goto	l879
  2694                           	
  2695  013558                     l904:		; BSR set to: ?
  2696                           
  2697  013558  040A               	decf	(0+((c:0)+0Ah)),c,w
  2698  01355A  100B               	iorwf (1+((c:0)+0Ah)),c,w
  2699                           
  2700  01355C  A4D8               	btfss	status,2
  2701  01355E  EFB3  F09A         	goto	u5201
  2702  013562  EFB5  F09A         	goto	u5200
  2703  013566                     u5201:
  2704  013566  EFC6  F09A         	goto	l906
  2705  01356A                     u5200:
  2706  01356A  040C               	decf	(0+((c:0)+0Ch)),c,w
  2707  01356C  100D               	iorwf (1+((c:0)+0Ch)),c,w
  2708                           
  2709  01356E  A4D8               	btfss	status,2
  2710  013570  EFBC  F09A         	goto	u5211
  2711  013574  EFBE  F09A         	goto	u5210
  2712  013578                     u5211:
  2713  013578  EFC6  F09A         	goto	l906
  2714  01357C                     u5210:
  2715                           	line	439
  2716                           ;main.c: 439: LATA = 0b11101111;
  2717  01357C  0EEF               	movlw	low(0EFh)
  2718  01357E  6E89               	movwf	((c:3977)),c	;volatile
  2719                           	line	441
  2720                           ;main.c: 441: LATB = 0b10100000;
  2721  013580  0EA0               	movlw	low(0A0h)
  2722  013582  6E8A               	movwf	((c:3978)),c	;volatile
  2723                           	line	443
  2724                           ;main.c: 443: LATC = 0b00001111;
  2725  013584  0E0F               	movlw	low(0Fh)
  2726  013586  6E8B               	movwf	((c:3979)),c	;volatile
  2727                           	line	445
  2728                           ;main.c: 445: } else if (led_array[5] == 1 && le
                                 d_array[7] == 1) {
  2729  013588  EFFF  F09F         	goto	l879
  2730                           	
  2731  01358C                     l906:		; BSR set to: ?
  2732                           
  2733  01358C  040A               	decf	(0+((c:0)+0Ah)),c,w
  2734  01358E  100B               	iorwf (1+((c:0)+0Ah)),c,w
  2735                           
  2736  013590  A4D8               	btfss	status,2
  2737  013592  EFCD  F09A         	goto	u5221
  2738  013596  EFCF  F09A         	goto	u5220
  2739  01359A                     u5221:
  2740  01359A  EFE0  F09A         	goto	l908
  2741  01359E                     u5220:
  2742  01359E  040E               	decf	(0+((c:0)+0Eh)),c,w
  2743  0135A0  100F               	iorwf (1+((c:0)+0Eh)),c,w
  2744                           
  2745  0135A2  A4D8               	btfss	status,2
  2746  0135A4  EFD6  F09A         	goto	u5231
  2747  0135A8  EFD8  F09A         	goto	u5230
  2748  0135AC                     u5231:
  2749  0135AC  EFE0  F09A         	goto	l908
  2750  0135B0                     u5230:
  2751                           	line	448
  2752                           ;main.c: 448: LATA = 0b10111111;
  2753  0135B0  0EBF               	movlw	low(0BFh)
  2754  0135B2  6E89               	movwf	((c:3977)),c	;volatile
  2755                           	line	450
  2756                           ;main.c: 450: LATB = 0b10100000;
  2757  0135B4  0EA0               	movlw	low(0A0h)
  2758  0135B6  6E8A               	movwf	((c:3978)),c	;volatile
  2759                           	line	452
  2760                           ;main.c: 452: LATC = 0b00001111;
  2761  0135B8  0E0F               	movlw	low(0Fh)
  2762  0135BA  6E8B               	movwf	((c:3979)),c	;volatile
  2763                           	line	454
  2764                           ;main.c: 454: } else if (led_array[5] == 1 && le
                                 d_array[8] == 1) {
  2765  0135BC  EFFF  F09F         	goto	l879
  2766                           	
  2767  0135C0                     l908:		; BSR set to: ?
  2768                           
  2769  0135C0  040A               	decf	(0+((c:0)+0Ah)),c,w
  2770  0135C2  100B               	iorwf (1+((c:0)+0Ah)),c,w
  2771                           
  2772  0135C4  A4D8               	btfss	status,2
  2773  0135C6  EFE7  F09A         	goto	u5241
  2774  0135CA  EFE9  F09A         	goto	u5240
  2775  0135CE                     u5241:
  2776  0135CE  EFF9  F09A         	goto	l910
  2777  0135D2                     u5240:
  2778  0135D2  0410               	decf	(0+((c:0)+010h)),c,w
  2779  0135D4  1011               	iorwf (1+((c:0)+010h)),c,w
  2780                           
  2781  0135D6  A4D8               	btfss	status,2
  2782  0135D8  EFF0  F09A         	goto	u5251
  2783  0135DC  EFF2  F09A         	goto	u5250
  2784  0135E0                     u5251:
  2785  0135E0  EFF9  F09A         	goto	l910
  2786  0135E4                     u5250:
  2787                           	line	457
  2788                           ;main.c: 457: LATA = 0b11111111;
  2789  0135E4  6889               	setf	((c:3977)),c	;volatile
  2790                           	line	459
  2791                           ;main.c: 459: LATB = 0b10100000;
  2792  0135E6  0EA0               	movlw	low(0A0h)
  2793  0135E8  6E8A               	movwf	((c:3978)),c	;volatile
  2794                           	line	461
  2795                           ;main.c: 461: LATC = 0b00001110;
  2796  0135EA  0E0E               	movlw	low(0Eh)
  2797  0135EC  6E8B               	movwf	((c:3979)),c	;volatile
  2798                           	line	463
  2799                           ;main.c: 463: } else if (led_array[5] == 1 && le
                                 d_array[9] == 1) {
  2800  0135EE  EFFF  F09F         	goto	l879
  2801                           	
  2802  0135F2                     l910:		; BSR set to: ?
  2803                           
  2804  0135F2  040A               	decf	(0+((c:0)+0Ah)),c,w
  2805  0135F4  100B               	iorwf (1+((c:0)+0Ah)),c,w
  2806                           
  2807  0135F6  A4D8               	btfss	status,2
  2808  0135F8  EF00  F09B         	goto	u5261
  2809  0135FC  EF02  F09B         	goto	u5260
  2810  013600                     u5261:
  2811  013600  EF12  F09B         	goto	l912
  2812  013604                     u5260:
  2813  013604  0412               	decf	(0+((c:0)+012h)),c,w
  2814  013606  1013               	iorwf (1+((c:0)+012h)),c,w
  2815                           
  2816  013608  A4D8               	btfss	status,2
  2817  01360A  EF09  F09B         	goto	u5271
  2818  01360E  EF0B  F09B         	goto	u5270
  2819  013612                     u5271:
  2820  013612  EF12  F09B         	goto	l912
  2821  013616                     u5270:
  2822                           	line	466
  2823                           ;main.c: 466: LATA = 0b11111111;
  2824  013616  6889               	setf	((c:3977)),c	;volatile
  2825                           	line	468
  2826                           ;main.c: 468: LATB = 0b10100000;
  2827  013618  0EA0               	movlw	low(0A0h)
  2828  01361A  6E8A               	movwf	((c:3978)),c	;volatile
  2829                           	line	470
  2830                           ;main.c: 470: LATC = 0b00001101;
  2831  01361C  0E0D               	movlw	low(0Dh)
  2832  01361E  6E8B               	movwf	((c:3979)),c	;volatile
  2833                           	line	472
  2834                           ;main.c: 472: } else if (led_array[5] == 1 && le
                                 d_array[10] == 1) {
  2835  013620  EFFF  F09F         	goto	l879
  2836                           	
  2837  013624                     l912:		; BSR set to: ?
  2838                           
  2839  013624  040A               	decf	(0+((c:0)+0Ah)),c,w
  2840  013626  100B               	iorwf (1+((c:0)+0Ah)),c,w
  2841                           
  2842  013628  A4D8               	btfss	status,2
  2843  01362A  EF19  F09B         	goto	u5281
  2844  01362E  EF1B  F09B         	goto	u5280
  2845  013632                     u5281:
  2846  013632  EF2B  F09B         	goto	l914
  2847  013636                     u5280:
  2848  013636  0414               	decf	(0+((c:0)+014h)),c,w
  2849  013638  1015               	iorwf (1+((c:0)+014h)),c,w
  2850                           
  2851  01363A  A4D8               	btfss	status,2
  2852  01363C  EF22  F09B         	goto	u5291
  2853  013640  EF24  F09B         	goto	u5290
  2854  013644                     u5291:
  2855  013644  EF2B  F09B         	goto	l914
  2856  013648                     u5290:
  2857                           	line	475
  2858                           ;main.c: 475: LATA = 0b11111111;
  2859  013648  6889               	setf	((c:3977)),c	;volatile
  2860                           	line	477
  2861                           ;main.c: 477: LATB = 0b00100000;
  2862  01364A  0E20               	movlw	low(020h)
  2863  01364C  6E8A               	movwf	((c:3978)),c	;volatile
  2864                           	line	479
  2865                           ;main.c: 479: LATC = 0b00001111;
  2866  01364E  0E0F               	movlw	low(0Fh)
  2867  013650  6E8B               	movwf	((c:3979)),c	;volatile
  2868                           	line	481
  2869                           ;main.c: 481: } else if (led_array[5] == 1 && le
                                 d_array[11] == 1) {
  2870  013652  EFFF  F09F         	goto	l879
  2871                           	
  2872  013656                     l914:		; BSR set to: ?
  2873                           
  2874  013656  040A               	decf	(0+((c:0)+0Ah)),c,w
  2875  013658  100B               	iorwf (1+((c:0)+0Ah)),c,w
  2876                           
  2877  01365A  A4D8               	btfss	status,2
  2878  01365C  EF32  F09B         	goto	u5301
  2879  013660  EF34  F09B         	goto	u5300
  2880  013664                     u5301:
  2881  013664  EF44  F09B         	goto	l916
  2882  013668                     u5300:
  2883  013668  0416               	decf	(0+((c:0)+016h)),c,w
  2884  01366A  1017               	iorwf (1+((c:0)+016h)),c,w
  2885                           
  2886  01366C  A4D8               	btfss	status,2
  2887  01366E  EF3B  F09B         	goto	u5311
  2888  013672  EF3D  F09B         	goto	u5310
  2889  013676                     u5311:
  2890  013676  EF44  F09B         	goto	l916
  2891  01367A                     u5310:
  2892                           	line	484
  2893                           ;main.c: 484: LATA = 0b11111111;
  2894  01367A  6889               	setf	((c:3977)),c	;volatile
  2895                           	line	486
  2896                           ;main.c: 486: LATB = 0b10100000;
  2897  01367C  0EA0               	movlw	low(0A0h)
  2898  01367E  6E8A               	movwf	((c:3978)),c	;volatile
  2899                           	line	488
  2900                           ;main.c: 488: LATC = 0b00001011;
  2901  013680  0E0B               	movlw	low(0Bh)
  2902  013682  6E8B               	movwf	((c:3979)),c	;volatile
  2903                           	line	490
  2904                           ;main.c: 490: } else if (led_array[5] == 1 && le
                                 d_array[12] == 1) {
  2905  013684  EFFF  F09F         	goto	l879
  2906                           	
  2907  013688                     l916:		; BSR set to: ?
  2908                           
  2909  013688  040A               	decf	(0+((c:0)+0Ah)),c,w
  2910  01368A  100B               	iorwf (1+((c:0)+0Ah)),c,w
  2911                           
  2912  01368C  A4D8               	btfss	status,2
  2913  01368E  EF4B  F09B         	goto	u5321
  2914  013692  EF4D  F09B         	goto	u5320
  2915  013696                     u5321:
  2916  013696  EF5D  F09B         	goto	l918
  2917  01369A                     u5320:
  2918  01369A  0418               	decf	(0+((c:0)+018h)),c,w
  2919  01369C  1019               	iorwf (1+((c:0)+018h)),c,w
  2920                           
  2921  01369E  A4D8               	btfss	status,2
  2922  0136A0  EF54  F09B         	goto	u5331
  2923  0136A4  EF56  F09B         	goto	u5330
  2924  0136A8                     u5331:
  2925  0136A8  EF5D  F09B         	goto	l918
  2926  0136AC                     u5330:
  2927                           	line	493
  2928                           ;main.c: 493: LATA = 0b11111111;
  2929  0136AC  6889               	setf	((c:3977)),c	;volatile
  2930                           	line	495
  2931                           ;main.c: 495: LATB = 0b10100000;
  2932  0136AE  0EA0               	movlw	low(0A0h)
  2933  0136B0  6E8A               	movwf	((c:3978)),c	;volatile
  2934                           	line	497
  2935                           ;main.c: 497: LATC = 0b00000111;
  2936  0136B2  0E07               	movlw	low(07h)
  2937  0136B4  6E8B               	movwf	((c:3979)),c	;volatile
  2938                           	line	498
  2939                           ;main.c: 498: }
  2940  0136B6  EFFF  F09F         	goto	l879
  2941                           	line	501
  2942                           	
  2943  0136BA                     l918:		; BSR set to: ?
  2944                           
  2945                           ;main.c: 501: else if (led_array[2] == 1 && led_
                                 array[3] == 1 && led_array[6] == 1) {
  2946  0136BA  0404               	decf	(0+((c:0)+04h)),c,w
  2947  0136BC  1005               	iorwf (1+((c:0)+04h)),c,w
  2948                           
  2949  0136BE  A4D8               	btfss	status,2
  2950  0136C0  EF64  F09B         	goto	u5341
  2951  0136C4  EF66  F09B         	goto	u5340
  2952  0136C8                     u5341:
  2953  0136C8  EF80  F09B         	goto	l920
  2954  0136CC                     u5340:
  2955  0136CC  0406               	decf	(0+((c:0)+06h)),c,w
  2956  0136CE  1007               	iorwf (1+((c:0)+06h)),c,w
  2957                           
  2958  0136D0  A4D8               	btfss	status,2
  2959  0136D2  EF6D  F09B         	goto	u5351
  2960  0136D6  EF6F  F09B         	goto	u5350
  2961  0136DA                     u5351:
  2962  0136DA  EF80  F09B         	goto	l920
  2963  0136DE                     u5350:
  2964  0136DE  040C               	decf	(0+((c:0)+0Ch)),c,w
  2965  0136E0  100D               	iorwf (1+((c:0)+0Ch)),c,w
  2966                           
  2967  0136E2  A4D8               	btfss	status,2
  2968  0136E4  EF76  F09B         	goto	u5361
  2969  0136E8  EF78  F09B         	goto	u5360
  2970  0136EC                     u5361:
  2971  0136EC  EF80  F09B         	goto	l920
  2972  0136F0                     u5360:
  2973                           	line	504
  2974                           ;main.c: 504: LATA = 0b11101111;
  2975  0136F0  0EEF               	movlw	low(0EFh)
  2976  0136F2  6E89               	movwf	((c:3977)),c	;volatile
  2977                           	line	506
  2978                           ;main.c: 506: LATB = 0b10001100;
  2979  0136F4  0E8C               	movlw	low(08Ch)
  2980  0136F6  6E8A               	movwf	((c:3978)),c	;volatile
  2981                           	line	508
  2982                           ;main.c: 508: LATC = 0b00001111;
  2983  0136F8  0E0F               	movlw	low(0Fh)
  2984  0136FA  6E8B               	movwf	((c:3979)),c	;volatile
  2985                           	line	510
  2986                           ;main.c: 510: } else if (led_array[2] == 1 && le
                                 d_array[3] == 1 && led_array[7] == 1) {
  2987  0136FC  EFFF  F09F         	goto	l879
  2988                           	
  2989  013700                     l920:		; BSR set to: ?
  2990                           
  2991  013700  0404               	decf	(0+((c:0)+04h)),c,w
  2992  013702  1005               	iorwf (1+((c:0)+04h)),c,w
  2993                           
  2994  013704  A4D8               	btfss	status,2
  2995  013706  EF87  F09B         	goto	u5371
  2996  01370A  EF89  F09B         	goto	u5370
  2997  01370E                     u5371:
  2998  01370E  EFA3  F09B         	goto	l922
  2999  013712                     u5370:
  3000  013712  0406               	decf	(0+((c:0)+06h)),c,w
  3001  013714  1007               	iorwf (1+((c:0)+06h)),c,w
  3002                           
  3003  013716  A4D8               	btfss	status,2
  3004  013718  EF90  F09B         	goto	u5381
  3005  01371C  EF92  F09B         	goto	u5380
  3006  013720                     u5381:
  3007  013720  EFA3  F09B         	goto	l922
  3008  013724                     u5380:
  3009  013724  040E               	decf	(0+((c:0)+0Eh)),c,w
  3010  013726  100F               	iorwf (1+((c:0)+0Eh)),c,w
  3011                           
  3012  013728  A4D8               	btfss	status,2
  3013  01372A  EF99  F09B         	goto	u5391
  3014  01372E  EF9B  F09B         	goto	u5390
  3015  013732                     u5391:
  3016  013732  EFA3  F09B         	goto	l922
  3017  013736                     u5390:
  3018                           	line	513
  3019                           ;main.c: 513: LATA = 0b10111111;
  3020  013736  0EBF               	movlw	low(0BFh)
  3021  013738  6E89               	movwf	((c:3977)),c	;volatile
  3022                           	line	515
  3023                           ;main.c: 515: LATB = 0b10001100;
  3024  01373A  0E8C               	movlw	low(08Ch)
  3025  01373C  6E8A               	movwf	((c:3978)),c	;volatile
  3026                           	line	517
  3027                           ;main.c: 517: LATC = 0b00001111;
  3028  01373E  0E0F               	movlw	low(0Fh)
  3029  013740  6E8B               	movwf	((c:3979)),c	;volatile
  3030                           	line	519
  3031                           ;main.c: 519: } else if (led_array[2] == 1 && le
                                 d_array[3] == 1 && led_array[8] == 1) {
  3032  013742  EFFF  F09F         	goto	l879
  3033                           	
  3034  013746                     l922:		; BSR set to: ?
  3035                           
  3036  013746  0404               	decf	(0+((c:0)+04h)),c,w
  3037  013748  1005               	iorwf (1+((c:0)+04h)),c,w
  3038                           
  3039  01374A  A4D8               	btfss	status,2
  3040  01374C  EFAA  F09B         	goto	u5401
  3041  013750  EFAC  F09B         	goto	u5400
  3042  013754                     u5401:
  3043  013754  EFC5  F09B         	goto	l924
  3044  013758                     u5400:
  3045  013758  0406               	decf	(0+((c:0)+06h)),c,w
  3046  01375A  1007               	iorwf (1+((c:0)+06h)),c,w
  3047                           
  3048  01375C  A4D8               	btfss	status,2
  3049  01375E  EFB3  F09B         	goto	u5411
  3050  013762  EFB5  F09B         	goto	u5410
  3051  013766                     u5411:
  3052  013766  EFC5  F09B         	goto	l924
  3053  01376A                     u5410:
  3054  01376A  0410               	decf	(0+((c:0)+010h)),c,w
  3055  01376C  1011               	iorwf (1+((c:0)+010h)),c,w
  3056                           
  3057  01376E  A4D8               	btfss	status,2
  3058  013770  EFBC  F09B         	goto	u5421
  3059  013774  EFBE  F09B         	goto	u5420
  3060  013778                     u5421:
  3061  013778  EFC5  F09B         	goto	l924
  3062  01377C                     u5420:
  3063                           	line	522
  3064                           ;main.c: 522: LATA = 0b11111111;
  3065  01377C  6889               	setf	((c:3977)),c	;volatile
  3066                           	line	524
  3067                           ;main.c: 524: LATB = 0b10001100;
  3068  01377E  0E8C               	movlw	low(08Ch)
  3069  013780  6E8A               	movwf	((c:3978)),c	;volatile
  3070                           	line	526
  3071                           ;main.c: 526: LATC = 0b00001110;
  3072  013782  0E0E               	movlw	low(0Eh)
  3073  013784  6E8B               	movwf	((c:3979)),c	;volatile
  3074                           	line	528
  3075                           ;main.c: 528: } else if (led_array[2] == 1 && le
                                 d_array[3] == 1 && led_array[9] == 1) {
  3076  013786  EFFF  F09F         	goto	l879
  3077                           	
  3078  01378A                     l924:		; BSR set to: ?
  3079                           
  3080  01378A  0404               	decf	(0+((c:0)+04h)),c,w
  3081  01378C  1005               	iorwf (1+((c:0)+04h)),c,w
  3082                           
  3083  01378E  A4D8               	btfss	status,2
  3084  013790  EFCC  F09B         	goto	u5431
  3085  013794  EFCE  F09B         	goto	u5430
  3086  013798                     u5431:
  3087  013798  EFE7  F09B         	goto	l926
  3088  01379C                     u5430:
  3089  01379C  0406               	decf	(0+((c:0)+06h)),c,w
  3090  01379E  1007               	iorwf (1+((c:0)+06h)),c,w
  3091                           
  3092  0137A0  A4D8               	btfss	status,2
  3093  0137A2  EFD5  F09B         	goto	u5441
  3094  0137A6  EFD7  F09B         	goto	u5440
  3095  0137AA                     u5441:
  3096  0137AA  EFE7  F09B         	goto	l926
  3097  0137AE                     u5440:
  3098  0137AE  0412               	decf	(0+((c:0)+012h)),c,w
  3099  0137B0  1013               	iorwf (1+((c:0)+012h)),c,w
  3100                           
  3101  0137B2  A4D8               	btfss	status,2
  3102  0137B4  EFDE  F09B         	goto	u5451
  3103  0137B8  EFE0  F09B         	goto	u5450
  3104  0137BC                     u5451:
  3105  0137BC  EFE7  F09B         	goto	l926
  3106  0137C0                     u5450:
  3107                           	line	531
  3108                           ;main.c: 531: LATA = 0b11111111;
  3109  0137C0  6889               	setf	((c:3977)),c	;volatile
  3110                           	line	533
  3111                           ;main.c: 533: LATB = 0b10001100;
  3112  0137C2  0E8C               	movlw	low(08Ch)
  3113  0137C4  6E8A               	movwf	((c:3978)),c	;volatile
  3114                           	line	535
  3115                           ;main.c: 535: LATC = 0b00001101;
  3116  0137C6  0E0D               	movlw	low(0Dh)
  3117  0137C8  6E8B               	movwf	((c:3979)),c	;volatile
  3118                           	line	536
  3119                           ;main.c: 536: } else if (led_array[2] == 1 && le
                                 d_array[3] == 1 && led_array[10] == 1) {
  3120  0137CA  EFFF  F09F         	goto	l879
  3121                           	
  3122  0137CE                     l926:		; BSR set to: ?
  3123                           
  3124  0137CE  0404               	decf	(0+((c:0)+04h)),c,w
  3125  0137D0  1005               	iorwf (1+((c:0)+04h)),c,w
  3126                           
  3127  0137D2  A4D8               	btfss	status,2
  3128  0137D4  EFEE  F09B         	goto	u5461
  3129  0137D8  EFF0  F09B         	goto	u5460
  3130  0137DC                     u5461:
  3131  0137DC  EF09  F09C         	goto	l928
  3132  0137E0                     u5460:
  3133  0137E0  0406               	decf	(0+((c:0)+06h)),c,w
  3134  0137E2  1007               	iorwf (1+((c:0)+06h)),c,w
  3135                           
  3136  0137E4  A4D8               	btfss	status,2
  3137  0137E6  EFF7  F09B         	goto	u5471
  3138  0137EA  EFF9  F09B         	goto	u5470
  3139  0137EE                     u5471:
  3140  0137EE  EF09  F09C         	goto	l928
  3141  0137F2                     u5470:
  3142  0137F2  0414               	decf	(0+((c:0)+014h)),c,w
  3143  0137F4  1015               	iorwf (1+((c:0)+014h)),c,w
  3144                           
  3145  0137F6  A4D8               	btfss	status,2
  3146  0137F8  EF00  F09C         	goto	u5481
  3147  0137FC  EF02  F09C         	goto	u5480
  3148  013800                     u5481:
  3149  013800  EF09  F09C         	goto	l928
  3150  013804                     u5480:
  3151                           	line	539
  3152                           ;main.c: 539: LATA = 0b11111111;
  3153  013804  6889               	setf	((c:3977)),c	;volatile
  3154                           	line	541
  3155                           ;main.c: 541: LATB = 0b00001100;
  3156  013806  0E0C               	movlw	low(0Ch)
  3157  013808  6E8A               	movwf	((c:3978)),c	;volatile
  3158                           	line	543
  3159                           ;main.c: 543: LATC = 0b00001111;
  3160  01380A  0E0F               	movlw	low(0Fh)
  3161  01380C  6E8B               	movwf	((c:3979)),c	;volatile
  3162                           	line	544
  3163                           ;main.c: 544: } else if (led_array[2] == 1 && le
                                 d_array[3] == 1 && led_array[11] == 1) {
  3164  01380E  EFFF  F09F         	goto	l879
  3165                           	
  3166  013812                     l928:		; BSR set to: ?
  3167                           
  3168  013812  0404               	decf	(0+((c:0)+04h)),c,w
  3169  013814  1005               	iorwf (1+((c:0)+04h)),c,w
  3170                           
  3171  013816  A4D8               	btfss	status,2
  3172  013818  EF10  F09C         	goto	u5491
  3173  01381C  EF12  F09C         	goto	u5490
  3174  013820                     u5491:
  3175  013820  EF2B  F09C         	goto	l930
  3176  013824                     u5490:
  3177  013824  0406               	decf	(0+((c:0)+06h)),c,w
  3178  013826  1007               	iorwf (1+((c:0)+06h)),c,w
  3179                           
  3180  013828  A4D8               	btfss	status,2
  3181  01382A  EF19  F09C         	goto	u5501
  3182  01382E  EF1B  F09C         	goto	u5500
  3183  013832                     u5501:
  3184  013832  EF2B  F09C         	goto	l930
  3185  013836                     u5500:
  3186  013836  0416               	decf	(0+((c:0)+016h)),c,w
  3187  013838  1017               	iorwf (1+((c:0)+016h)),c,w
  3188                           
  3189  01383A  A4D8               	btfss	status,2
  3190  01383C  EF22  F09C         	goto	u5511
  3191  013840  EF24  F09C         	goto	u5510
  3192  013844                     u5511:
  3193  013844  EF2B  F09C         	goto	l930
  3194  013848                     u5510:
  3195                           	line	547
  3196                           ;main.c: 547: LATA = 0b11111111;
  3197  013848  6889               	setf	((c:3977)),c	;volatile
  3198                           	line	549
  3199                           ;main.c: 549: LATB = 0b10001100;
  3200  01384A  0E8C               	movlw	low(08Ch)
  3201  01384C  6E8A               	movwf	((c:3978)),c	;volatile
  3202                           	line	551
  3203                           ;main.c: 551: LATC = 0b00001011;
  3204  01384E  0E0B               	movlw	low(0Bh)
  3205  013850  6E8B               	movwf	((c:3979)),c	;volatile
  3206                           	line	552
  3207                           ;main.c: 552: } else if (led_array[2] == 1 && le
                                 d_array[3] == 1 && led_array[12] == 1) {
  3208  013852  EFFF  F09F         	goto	l879
  3209                           	
  3210  013856                     l930:		; BSR set to: ?
  3211                           
  3212  013856  0404               	decf	(0+((c:0)+04h)),c,w
  3213  013858  1005               	iorwf (1+((c:0)+04h)),c,w
  3214                           
  3215  01385A  A4D8               	btfss	status,2
  3216  01385C  EF32  F09C         	goto	u5521
  3217  013860  EF34  F09C         	goto	u5520
  3218  013864                     u5521:
  3219  013864  EF4D  F09C         	goto	l932
  3220  013868                     u5520:
  3221  013868  0406               	decf	(0+((c:0)+06h)),c,w
  3222  01386A  1007               	iorwf (1+((c:0)+06h)),c,w
  3223                           
  3224  01386C  A4D8               	btfss	status,2
  3225  01386E  EF3B  F09C         	goto	u5531
  3226  013872  EF3D  F09C         	goto	u5530
  3227  013876                     u5531:
  3228  013876  EF4D  F09C         	goto	l932
  3229  01387A                     u5530:
  3230  01387A  0418               	decf	(0+((c:0)+018h)),c,w
  3231  01387C  1019               	iorwf (1+((c:0)+018h)),c,w
  3232                           
  3233  01387E  A4D8               	btfss	status,2
  3234  013880  EF44  F09C         	goto	u5541
  3235  013884  EF46  F09C         	goto	u5540
  3236  013888                     u5541:
  3237  013888  EF4D  F09C         	goto	l932
  3238  01388C                     u5540:
  3239                           	line	555
  3240                           ;main.c: 555: LATA = 0b11111111;
  3241  01388C  6889               	setf	((c:3977)),c	;volatile
  3242                           	line	557
  3243                           ;main.c: 557: LATB = 0b10001100;
  3244  01388E  0E8C               	movlw	low(08Ch)
  3245  013890  6E8A               	movwf	((c:3978)),c	;volatile
  3246                           	line	559
  3247                           ;main.c: 559: LATC = 0b00000111;
  3248  013892  0E07               	movlw	low(07h)
  3249  013894  6E8B               	movwf	((c:3979)),c	;volatile
  3250                           	line	560
  3251                           ;main.c: 560: } else if (led_array[2] == 1 && le
                                 d_array[6] == 1) {
  3252  013896  EFFF  F09F         	goto	l879
  3253                           	
  3254  01389A                     l932:		; BSR set to: ?
  3255                           
  3256  01389A  0404               	decf	(0+((c:0)+04h)),c,w
  3257  01389C  1005               	iorwf (1+((c:0)+04h)),c,w
  3258                           
  3259  01389E  A4D8               	btfss	status,2
  3260  0138A0  EF54  F09C         	goto	u5551
  3261  0138A4  EF56  F09C         	goto	u5550
  3262  0138A8                     u5551:
  3263  0138A8  EF67  F09C         	goto	l934
  3264  0138AC                     u5550:
  3265  0138AC  040C               	decf	(0+((c:0)+0Ch)),c,w
  3266  0138AE  100D               	iorwf (1+((c:0)+0Ch)),c,w
  3267                           
  3268  0138B0  A4D8               	btfss	status,2
  3269  0138B2  EF5D  F09C         	goto	u5561
  3270  0138B6  EF5F  F09C         	goto	u5560
  3271  0138BA                     u5561:
  3272  0138BA  EF67  F09C         	goto	l934
  3273  0138BE                     u5560:
  3274                           	line	563
  3275                           ;main.c: 563: LATA = 0b11101111;
  3276  0138BE  0EEF               	movlw	low(0EFh)
  3277+ 0138C0  6E89               	movwf	((c:3977)),c	;volatile
  3278+                          	line	565
  3279+                          ;main.c: 565: LATB = 0b10000100;
  3280+ 0138C2  0E84               	movlw	low(084h)
  3281+ 0138C4  6E8A               	movwf	((c:3978)),c	;volatile
  3282+                          	line	567
  3283+                          ;main.c: 567: LATC = 0b00001111;
  3284+ 0138C6  0E0F               	movlw	low(0Fh)
  3285+ 0138C8  6E8B               	movwf	((c:3979)),c	;volatile
  3286+                          	line	569
  3287+                          ;main.c: 569: } else if (led_array[2] == 1 && le
      +                          d_array[7] == 1) {
  3288+ 0138CA  EFFF  F09F         	goto	l879
  3289+                          	
  3290+ 0138CE                     l934:		; BSR set to: ?
  3291+                          
  3292+ 0138CE  0404               	decf	(0+((c:0)+04h)),c,w
  3293+ 0138D0  1005               	iorwf (1+((c:0)+04h)),c,w
  3294+                          
  3295+ 0138D2  A4D8               	btfss	status,2
  3296+ 0138D4  EF6E  F09C         	goto	u5571
  3297+ 0138D8  EF70  F09C         	goto	u5570
  3298+ 0138DC                     u5571:
  3299+ 0138DC  EF81  F09C         	goto	l936
  3300+ 0138E0                     u5570:
  3301+ 0138E0  040E               	decf	(0+((c:0)+0Eh)),c,w
  3302+ 0138E2  100F               	iorwf (1+((c:0)+0Eh)),c,w
  3303+                          
  3304+ 0138E4  A4D8               	btfss	status,2
  3305+ 0138E6  EF77  F09C         	goto	u5581
  3306+ 0138EA  EF79  F09C         	goto	u5580
  3307+ 0138EE                     u5581:
  3308+ 0138EE  EF81  F09C         	goto	l936
  3309+ 0138F2                     u5580:
  3310+                          	line	572
  3311+                          ;main.c: 572: LATA = 0b10111111;
  3312+ 0138F2  0EBF               	movlw	low(0BFh)
  3313+ 0138F4  6E89               	movwf	((c:3977)),c	;volatile
  3314+                          	line	574
  3315+                          ;main.c: 574: LATB = 0b10000100;
  3316+ 0138F6  0E84               	movlw	low(084h)
  3317+ 0138F8  6E8A               	movwf	((c:3978)),c	;volatile
  3318+                          	line	576
  3319+                          ;main.c: 576: LATC = 0b00001111;
  3320+ 0138FA  0E0F               	movlw	low(0Fh)
  3321+ 0138FC  6E8B               	movwf	((c:3979)),c	;volatile
  3322+                          	line	578
  3323+                          ;main.c: 578: } else if (led_array[2] == 1 && le
      +                          d_array[8] == 1) {
  3324+ 0138FE  EFFF  F09F         	goto	l879
  3325+                          	
  3326+ 013902                     l936:		; BSR set to: ?
  3327+                          
  3328+ 013902  0404               	decf	(0+((c:0)+04h)),c,w
  3329+ 013904  1005               	iorwf (1+((c:0)+04h)),c,w
  3330+                          
  3331+ 013906  A4D8               	btfss	status,2
  3332+ 013908  EF88  F09C         	goto	u5591
  3333+ 01390C  EF8A  F09C         	goto	u5590
  3334+ 013910                     u5591:
  3335+ 013910  EF9A  F09C         	goto	l938
  3336+ 013914                     u5590:
  3337+ 013914  0410               	decf	(0+((c:0)+010h)),c,w
  3338+ 013916  1011               	iorwf (1+((c:0)+010h)),c,w
  3339+                          
  3340+ 013918  A4D8               	btfss	status,2
  3341+ 01391A  EF91  F09C         	goto	u5601
  3342+ 01391E  EF93  F09C         	goto	u5600
  3343+ 013922                     u5601:
  3344+ 013922  EF9A  F09C         	goto	l938
  3345+ 013926                     u5600:
  3346+                          	line	581
  3347+                          ;main.c: 581: LATA = 0b11111111;
  3348+ 013926  6889               	setf	((c:3977)),c	;volatile
  3349+                          	line	583
  3350+                          ;main.c: 583: LATB = 0b10000100;
  3351+ 013928  0E84               	movlw	low(084h)
  3352+ 01392A  6E8A               	movwf	((c:3978)),c	;volatile
  3353+                          	line	585
  3354+                          ;main.c: 585: LATC = 0b00001110;
  3355+ 01392C  0E0E               	movlw	low(0Eh)
  3356+ 01392E  6E8B               	movwf	((c:3979)),c	;volatile
  3357+                          	line	587
  3358+                          ;main.c: 587: } else if (led_array[2] == 1 && le
      +                          d_array[9] == 1) {
  3359+ 013930  EFFF  F09F         	goto	l879
  3360+                          	
  3361+ 013934                     l938:		; BSR set to: ?
  3362+                          
  3363+ 013934  0404               	decf	(0+((c:0)+04h)),c,w
  3364+ 013936  1005               	iorwf (1+((c:0)+04h)),c,w
  3365+                          
  3366+ 013938  A4D8               	btfss	status,2
  3367+ 01393A  EFA1  F09C         	goto	u5611
  3368+ 01393E  EFA3  F09C         	goto	u5610
  3369+ 013942                     u5611:
  3370+ 013942  EFB3  F09C         	goto	l940
  3371+ 013946                     u5610:
  3372+ 013946  0412               	decf	(0+((c:0)+012h)),c,w
  3373+ 013948  1013               	iorwf (1+((c:0)+012h)),c,w
  3374+                          
  3375+ 01394A  A4D8               	btfss	status,2
  3376+ 01394C  EFAA  F09C         	goto	u5621
  3377+ 013950  EFAC  F09C         	goto	u5620
  3378+ 013954                     u5621:
  3379+ 013954  EFB3  F09C         	goto	l940
  3380+ 013958                     u5620:
  3381+                          	line	590
  3382+                          ;main.c: 590: LATA = 0b11111111;
  3383+ 013958  6889               	setf	((c:3977)),c	;volatile
  3384+                          	line	592
  3385+                          ;main.c: 592: LATB = 0b10000100;
  3386+ 01395A  0E84               	movlw	low(084h)
  3387+ 01395C  6E8A               	movwf	((c:3978)),c	;volatile
  3388+                          	line	594
  3389+                          ;main.c: 594: LATC = 0b00001101;
  3390+ 01395E  0E0D               	movlw	low(0Dh)
  3391+ 013960  6E8B               	movwf	((c:3979)),c	;volatile
  3392+                          	line	596
  3393+                          ;main.c: 596: } else if (led_array[2] == 1 && le
      +                          d_array[10] == 1) {
  3394+ 013962  EFFF  F09F         	goto	l879
  3395+                          	
  3396+ 013966                     l940:		; BSR set to: ?
  3397+                          
  3398+ 013966  0404               	decf	(0+((c:0)+04h)),c,w
  3399+ 013968  1005               	iorwf (1+((c:0)+04h)),c,w
  3400+                          
  3401+ 01396A  A4D8               	btfss	status,2
  3402+ 01396C  EFBA  F09C         	goto	u5631
  3403+ 013970  EFBC  F09C         	goto	u5630
  3404+ 013974                     u5631:
  3405+ 013974  EFCC  F09C         	goto	l942
  3406+ 013978                     u5630:
  3407+ 013978  0414               	decf	(0+((c:0)+014h)),c,w
  3408+ 01397A  1015               	iorwf (1+((c:0)+014h)),c,w
  3409+                          
  3410+ 01397C  A4D8               	btfss	status,2
  3411+ 01397E  EFC3  F09C         	goto	u5641
  3412+ 013982  EFC5  F09C         	goto	u5640
  3413+ 013986                     u5641:
  3414+ 013986  EFCC  F09C         	goto	l942
  3415+ 01398A                     u5640:
  3416+                          	line	599
  3417+                          ;main.c: 599: LATA = 0b11111111;
  3418+ 01398A  6889               	setf	((c:3977)),c	;volatile
  3419+                          	line	601
  3420+                          ;main.c: 601: LATB = 0b00000100;
  3421+ 01398C  0E04               	movlw	low(04h)
  3422+ 01398E  6E8A               	movwf	((c:3978)),c	;volatile
  3423+                          	line	603
  3424+                          ;main.c: 603: LATC = 0b00001111;
  3425+ 013990  0E0F               	movlw	low(0Fh)
  3426+ 013992  6E8B               	movwf	((c:3979)),c	;volatile
  3427+                          	line	605
  3428+                          ;main.c: 605: } else if (led_array[2] == 1 && le
      +                          d_array[11] == 1) {
  3429+ 013994  EFFF  F09F         	goto	l879
  3430+                          	
  3431+ 013998                     l942:		; BSR set to: ?
  3432+                          
  3433+ 013998  0404               	decf	(0+((c:0)+04h)),c,w
  3434+ 01399A  1005               	iorwf (1+((c:0)+04h)),c,w
  3435+                          
  3436+ 01399C  A4D8               	btfss	status,2
  3437+ 01399E  EFD3  F09C         	goto	u5651
  3438+ 0139A2  EFD5  F09C         	goto	u5650
  3439+ 0139A6                     u5651:
  3440+ 0139A6  EFE5  F09C         	goto	l944
  3441+ 0139AA                     u5650:
  3442+ 0139AA  0416               	decf	(0+((c:0)+016h)),c,w
  3443+ 0139AC  1017               	iorwf (1+((c:0)+016h)),c,w
  3444+                          
  3445+ 0139AE  A4D8               	btfss	status,2
  3446+ 0139B0  EFDC  F09C         	goto	u5661
  3447+ 0139B4  EFDE  F09C         	goto	u5660
  3448+ 0139B8                     u5661:
  3449+ 0139B8  EFE5  F09C         	goto	l944
  3450+ 0139BC                     u5660:
  3451+                          	line	608
  3452+                          ;main.c: 608: LATA = 0b11111111;
  3453+ 0139BC  6889               	setf	((c:3977)),c	;volatile
  3454+                          	line	610
  3455+                          ;main.c: 610: LATB = 0b10000100;
  3456+ 0139BE  0E84               	movlw	low(084h)
  3457+ 0139C0  6E8A               	movwf	((c:3978)),c	;volatile
  3458+                          	line	612
  3459+                          ;main.c: 612: LATC = 0b00001011;
  3460+ 0139C2  0E0B               	movlw	low(0Bh)
  3461+ 0139C4  6E8B               	movwf	((c:3979)),c	;volatile
  3462+                          	line	614
  3463+                          ;main.c: 614: } else if (led_array[2] == 1 && le
      +                          d_array[12] == 1) {
  3464+ 0139C6  EFFF  F09F         	goto	l879
  3465+                          	
  3466+ 0139CA                     l944:		; BSR set to: ?
  3467+                          
  3468+ 0139CA  0404               	decf	(0+((c:0)+04h)),c,w
  3469+ 0139CC  1005               	iorwf (1+((c:0)+04h)),c,w
  3470+                          
  3471+ 0139CE  A4D8               	btfss	status,2
  3472+ 0139D0  EFEC  F09C         	goto	u5671
  3473+ 0139D4  EFEE  F09C         	goto	u5670
  3474+ 0139D8                     u5671:
  3475+ 0139D8  EFFE  F09C         	goto	l946
  3476+ 0139DC                     u5670:
  3477+ 0139DC  0418               	decf	(0+((c:0)+018h)),c,w
  3478+ 0139DE  1019               	iorwf (1+((c:0)+018h)),c,w
  3479+                          
  3480+ 0139E0  A4D8               	btfss	status,2
  3481+ 0139E2  EFF5  F09C         	goto	u5681
  3482+ 0139E6  EFF7  F09C         	goto	u5680
  3483+ 0139EA                     u5681:
  3484+ 0139EA  EFFE  F09C         	goto	l946
  3485+ 0139EE                     u5680:
  3486+                          	line	617
  3487+                          ;main.c: 617: LATA = 0b11111111;
  3488+ 0139EE  6889               	setf	((c:3977)),c	;volatile
  3489+                          	line	619
  3490+                          ;main.c: 619: LATB = 0b10000100;
  3491+ 0139F0  0E84               	movlw	low(084h)
  3492+ 0139F2  6E8A               	movwf	((c:3978)),c	;volatile
  3493+                          	line	621
  3494+                          ;main.c: 621: LATC = 0b00000111;
  3495+ 0139F4  0E07               	movlw	low(07h)
  3496+ 0139F6  6E8B               	movwf	((c:3979)),c	;volatile
  3497+                          	line	623
  3498+                          ;main.c: 623: } else if (led_array[3] == 1 && le
      +                          d_array[6] == 1) {
  3499+ 0139F8  EFFF  F09F         	goto	l879
  3500+                          	
  3501+ 0139FC                     l946:		; BSR set to: ?
  3502+                          
  3503+ 0139FC  0406               	decf	(0+((c:0)+06h)),c,w
  3504+ 0139FE  1007               	iorwf (1+((c:0)+06h)),c,w
  3505+                          
  3506+ 013A00  A4D8               	btfss	status,2
  3507+ 013A02  EF05  F09D         	goto	u5691
  3508+ 013A06  EF07  F09D         	goto	u5690
  3509+ 013A0A                     u5691:
  3510+ 013A0A  EF18  F09D         	goto	l948
  3511+ 013A0E                     u5690:
  3512+ 013A0E  040C               	decf	(0+((c:0)+0Ch)),c,w
  3513+ 013A10  100D               	iorwf (1+((c:0)+0Ch)),c,w
  3514+                          
  3515+ 013A12  A4D8               	btfss	status,2
  3516+ 013A14  EF0E  F09D         	goto	u5701
  3517+ 013A18  EF10  F09D         	goto	u5700
  3518+ 013A1C                     u5701:
  3519+ 013A1C  EF18  F09D         	goto	l948
  3520+ 013A20                     u5700:
  3521+                          	line	626
  3522+                          ;main.c: 626: LATA = 0b11101111;
  3523+ 013A20  0EEF               	movlw	low(0EFh)
  3524+ 013A22  6E89               	movwf	((c:3977)),c	;volatile
  3525+                          	line	628
  3526+                          ;main.c: 628: LATB = 0b10001000;
  3527+ 013A24  0E88               	movlw	low(088h)
  3528+ 013A26  6E8A               	movwf	((c:3978)),c	;volatile
  3529+                          	line	630
  3530+                          ;main.c: 630: LATC = 0b00001111;
  3531+ 013A28  0E0F               	movlw	low(0Fh)
  3532+ 013A2A  6E8B               	movwf	((c:3979)),c	;volatile
  3533+                          	line	632
  3534+                          ;main.c: 632: } else if (led_array[3] == 1 && le
      +                          d_array[7] == 1) {
  3535+ 013A2C  EFFF  F09F         	goto	l879
  3536+                          	
  3537+ 013A30                     l948:		; BSR set to: ?
  3538+                          
  3539+ 013A30  0406               	decf	(0+((c:0)+06h)),c,w
  3540+ 013A32  1007               	iorwf (1+((c:0)+06h)),c,w
  3541+                          
  3542+ 013A34  A4D8               	btfss	status,2
  3543+ 013A36  EF1F  F09D         	goto	u5711
  3544+ 013A3A  EF21  F09D         	goto	u5710
  3545+ 013A3E                     u5711:
  3546+ 013A3E  EF32  F09D         	goto	l950
  3547+ 013A42                     u5710:
  3548+ 013A42  040E               	decf	(0+((c:0)+0Eh)),c,w
  3549+ 013A44  100F               	iorwf (1+((c:0)+0Eh)),c,w
  3550+                          
  3551+ 013A46  A4D8               	btfss	status,2
  3552+ 013A48  EF28  F09D         	goto	u5721
  3553+ 013A4C  EF2A  F09D         	goto	u5720
  3554+ 013A50                     u5721:
  3555+ 013A50  EF32  F09D         	goto	l950
  3556+ 013A54                     u5720:
  3557+                          	line	635
  3558+                          ;main.c: 635: LATA = 0b10111111;
  3559+ 013A54  0EBF               	movlw	low(0BFh)
  3560+ 013A56  6E89               	movwf	((c:3977)),c	;volatile
  3561+                          	line	637
  3562+                          ;main.c: 637: LATB = 0b10001000;
  3563+ 013A58  0E88               	movlw	low(088h)
  3564+ 013A5A  6E8A               	movwf	((c:3978)),c	;volatile
  3565+                          	line	639
  3566+                          ;main.c: 639: LATC = 0b00001111;
  3567+ 013A5C  0E0F               	movlw	low(0Fh)
  3568+ 013A5E  6E8B               	movwf	((c:3979)),c	;volatile
  3569+                          	line	641
  3570+                          ;main.c: 641: } else if (led_array[3] == 1 && le
      +                          d_array[8] == 1) {
  3571+ 013A60  EFFF  F09F         	goto	l879
  3572+                          	
  3573+ 013A64                     l950:		; BSR set to: ?
  3574+                          
  3575+ 013A64  0406               	decf	(0+((c:0)+06h)),c,w
  3576+ 013A66  1007               	iorwf (1+((c:0)+06h)),c,w
  3577+                          
  3578+ 013A68  A4D8               	btfss	status,2
  3579+ 013A6A  EF39  F09D         	goto	u5731
  3580+ 013A6E  EF3B  F09D         	goto	u5730
  3581+ 013A72                     u5731:
  3582+ 013A72  EF4B  F09D         	goto	l952
  3583+ 013A76                     u5730:
  3584+ 013A76  0410               	decf	(0+((c:0)+010h)),c,w
  3585+ 013A78  1011               	iorwf (1+((c:0)+010h)),c,w
  3586+                          
  3587+ 013A7A  A4D8               	btfss	status,2
  3588+ 013A7C  EF42  F09D         	goto	u5741
  3589+ 013A80  EF44  F09D         	goto	u5740
  3590+ 013A84                     u5741:
  3591+ 013A84  EF4B  F09D         	goto	l952
  3592+ 013A88                     u5740:
  3593+                          	line	644
  3594+                          ;main.c: 644: LATA = 0b11111111;
  3595+ 013A88  6889               	setf	((c:3977)),c	;volatile
  3596+                          	line	646
  3597+                          ;main.c: 646: LATB = 0b10001000;
  3598+ 013A8A  0E88               	movlw	low(088h)
  3599+ 013A8C  6E8A               	movwf	((c:3978)),c	;volatile
  3600+                          	line	648
  3601+                          ;main.c: 648: LATC = 0b00001110;
  3602+ 013A8E  0E0E               	movlw	low(0Eh)
  3603+ 013A90  6E8B               	movwf	((c:3979)),c	;volatile
  3604+                          	line	650
  3605+                          ;main.c: 650: } else if (led_array[3] == 1 && le
      +                          d_array[9] == 1) {
  3606+ 013A92  EFFF  F09F         	goto	l879
  3607+                          	
  3608+ 013A96                     l952:		; BSR set to: ?
  3609+                          
  3610+ 013A96  0406               	decf	(0+((c:0)+06h)),c,w
  3611+ 013A98  1007               	iorwf (1+((c:0)+06h)),c,w
  3612+                          
  3613+ 013A9A  A4D8               	btfss	status,2
  3614+ 013A9C  EF52  F09D         	goto	u5751
  3615+ 013AA0  EF54  F09D         	goto	u5750
  3616+ 013AA4                     u5751:
  3617+ 013AA4  EF64  F09D         	goto	l954
  3618+ 013AA8                     u5750:
  3619+ 013AA8  0412               	decf	(0+((c:0)+012h)),c,w
  3620+ 013AAA  1013               	iorwf (1+((c:0)+012h)),c,w
  3621+                          
  3622+ 013AAC  A4D8               	btfss	status,2
  3623+ 013AAE  EF5B  F09D         	goto	u5761
  3624+ 013AB2  EF5D  F09D         	goto	u5760
  3625+ 013AB6                     u5761:
  3626+ 013AB6  EF64  F09D         	goto	l954
  3627+ 013ABA                     u5760:
  3628+                          	line	653
  3629+                          ;main.c: 653: LATA = 0b11111111;
  3630+ 013ABA  6889               	setf	((c:3977)),c	;volatile
  3631+                          	line	655
  3632+                          ;main.c: 655: LATB = 0b10001000;
  3633+ 013ABC  0E88               	movlw	low(088h)
  3634+ 013ABE  6E8A               	movwf	((c:3978)),c	;volatile
  3635+                          	line	657
  3636+                          ;main.c: 657: LATC = 0b00001101;
  3637+ 013AC0  0E0D               	movlw	low(0Dh)
  3638+ 013AC2  6E8B               	movwf	((c:3979)),c	;volatile
  3639+                          	line	659
  3640+                          ;main.c: 659: } else if (led_array[3] == 1 && le
      +                          d_array[10] == 1) {
  3641+ 013AC4  EFFF  F09F         	goto	l879
  3642+                          	
  3643+ 013AC8                     l954:		; BSR set to: ?
  3644+                          
  3645+ 013AC8  0406               	decf	(0+((c:0)+06h)),c,w
  3646+ 013ACA  1007               	iorwf (1+((c:0)+06h)),c,w
  3647+                          
  3648+ 013ACC  A4D8               	btfss	status,2
  3649+ 013ACE  EF6B  F09D         	goto	u5771
  3650+ 013AD2  EF6D  F09D         	goto	u5770
  3651+ 013AD6                     u5771:
  3652+ 013AD6  EF7D  F09D         	goto	l956
  3653+ 013ADA                     u5770:
  3654+ 013ADA  0414               	decf	(0+((c:0)+014h)),c,w
  3655+ 013ADC  1015               	iorwf (1+((c:0)+014h)),c,w
  3656+                          
  3657+ 013ADE  A4D8               	btfss	status,2
  3658+ 013AE0  EF74  F09D         	goto	u5781
  3659+ 013AE4  EF76  F09D         	goto	u5780
  3660+ 013AE8                     u5781:
  3661+ 013AE8  EF7D  F09D         	goto	l956
  3662+ 013AEC                     u5780:
  3663+                          	line	662
  3664+                          ;main.c: 662: LATA = 0b11111111;
  3665+ 013AEC  6889               	setf	((c:3977)),c	;volatile
  3666+                          	line	664
  3667+                          ;main.c: 664: LATB = 0b00001000;
  3668+ 013AEE  0E08               	movlw	low(08h)
  3669+ 013AF0  6E8A               	movwf	((c:3978)),c	;volatile
  3670+                          	line	666
  3671+                          ;main.c: 666: LATC = 0b00001111;
  3672+ 013AF2  0E0F               	movlw	low(0Fh)
  3673+ 013AF4  6E8B               	movwf	((c:3979)),c	;volatile
  3674+                          	line	668
  3675+                          ;main.c: 668: } else if (led_array[3] == 1 && le
      +                          d_array[11] == 1) {
  3676+ 013AF6  EFFF  F09F         	goto	l879
  3677+                          	
  3678+ 013AFA                     l956:		; BSR set to: ?
  3679+                          
  3680+ 013AFA  0406               	decf	(0+((c:0)+06h)),c,w
  3681+ 013AFC  1007               	iorwf (1+((c:0)+06h)),c,w
  3682+                          
  3683+ 013AFE  A4D8               	btfss	status,2
  3684+ 013B00  EF84  F09D         	goto	u5791
  3685+ 013B04  EF86  F09D         	goto	u5790
  3686+ 013B08                     u5791:
  3687+ 013B08  EF96  F09D         	goto	l958
  3688+ 013B0C                     u5790:
  3689+ 013B0C  0416               	decf	(0+((c:0)+016h)),c,w
  3690+ 013B0E  1017               	iorwf (1+((c:0)+016h)),c,w
  3691+                          
  3692+ 013B10  A4D8               	btfss	status,2
  3693+ 013B12  EF8D  F09D         	goto	u5801
  3694+ 013B16  EF8F  F09D         	goto	u5800
  3695+ 013B1A                     u5801:
  3696+ 013B1A  EF96  F09D         	goto	l958
  3697+ 013B1E                     u5800:
  3698+                          	line	671
  3699+                          ;main.c: 671: LATA = 0b11111111;
  3700+ 013B1E  6889               	setf	((c:3977)),c	;volatile
  3701+                          	line	673
  3702+                          ;main.c: 673: LATB = 0b10001000;
  3703+ 013B20  0E88               	movlw	low(088h)
  3704+ 013B22  6E8A               	movwf	((c:3978)),c	;volatile
  3705+                          	line	675
  3706+                          ;main.c: 675: LATC = 0b00001011;
  3707+ 013B24  0E0B               	movlw	low(0Bh)
  3708+ 013B26  6E8B               	movwf	((c:3979)),c	;volatile
  3709+                          	line	677
  3710+                          ;main.c: 677: } else if (led_array[3] == 1 && le
      +                          d_array[12] == 1) {
  3711+ 013B28  EFFF  F09F         	goto	l879
  3712+                          	
  3713+ 013B2C                     l958:		; BSR set to: ?
  3714+                          
  3715+ 013B2C  0406               	decf	(0+((c:0)+06h)),c,w
  3716+ 013B2E  1007               	iorwf (1+((c:0)+06h)),c,w
  3717+                          
  3718+ 013B30  A4D8               	btfss	status,2
  3719+ 013B32  EF9D  F09D         	goto	u5811
  3720+ 013B36  EF9F  F09D         	goto	u5810
  3721+ 013B3A                     u5811:
  3722+ 013B3A  EFAF  F09D         	goto	l960
  3723+ 013B3E                     u5810:
  3724+ 013B3E  0418               	decf	(0+((c:0)+018h)),c,w
  3725+ 013B40  1019               	iorwf (1+((c:0)+018h)),c,w
  3726+                          
  3727+ 013B42  A4D8               	btfss	status,2
  3728+ 013B44  EFA6  F09D         	goto	u5821
  3729+ 013B48  EFA8  F09D         	goto	u5820
  3730+ 013B4C                     u5821:
  3731+ 013B4C  EFAF  F09D         	goto	l960
  3732+ 013B50                     u5820:
  3733+                          	line	680
  3734+                          ;main.c: 680: LATA = 0b11111111;
  3735+ 013B50  6889               	setf	((c:3977)),c	;volatile
  3736+                          	line	682
  3737+                          ;main.c: 682: LATB = 0b10001000;
  3738+ 013B52  0E88               	movlw	low(088h)
  3739+ 013B54  6E8A               	movwf	((c:3978)),c	;volatile
  3740+                          	line	684
  3741+                          ;main.c: 684: LATC = 0b00000111;
  3742+ 013B56  0E07               	movlw	low(07h)
  3743+ 013B58  6E8B               	movwf	((c:3979)),c	;volatile
  3744+                          	line	685
  3745+                          ;main.c: 685: }
  3746+ 013B5A  EFFF  F09F         	goto	l879
  3747+                          	line	688
  3748+                          	
  3749+ 013B5E                     l960:		; BSR set to: ?
  3750+                          
  3751+                          ;main.c: 688: else if (led_array[0] == 1 && led_
      +                          array[1] == 1 && led_array[6] == 1) {
  3752+ 013B5E  0400               	decf	((c:0)),c,w
  3753+ 013B60  1001               	iorwf ((c:0+1)),c,w
  3754+                          
  3755+ 013B62  A4D8               	btfss	status,2
  3756+ 013B64  EFB6  F09D         	goto	u5831
  3757+ 013B68  EFB8  F09D         	goto	u5830
  3758+ 013B6C                     u5831:
  3759+ 013B6C  EFD2  F09D         	goto	l962
  3760+ 013B70                     u5830:
  3761+ 013B70  0402               	decf	(0+((c:0)+02h)),c,w
  3762+ 013B72  1003               	iorwf (1+((c:0)+02h)),c,w
  3763+                          
  3764+ 013B74  A4D8               	btfss	status,2
  3765+ 013B76  EFBF  F09D         	goto	u5841
  3766+ 013B7A  EFC1  F09D         	goto	u5840
  3767+ 013B7E                     u5841:
  3768+ 013B7E  EFD2  F09D         	goto	l962
  3769+ 013B82                     u5840:
  3770+ 013B82  040C               	decf	(0+((c:0)+0Ch)),c,w
  3771+ 013B84  100D               	iorwf (1+((c:0)+0Ch)),c,w
  3772+                          
  3773+ 013B86  A4D8               	btfss	status,2
  3774+ 013B88  EFC8  F09D         	goto	u5851
  3775+ 013B8C  EFCA  F09D         	goto	u5850
  3776+ 013B90                     u5851:
  3777+ 013B90  EFD2  F09D         	goto	l962
  3778+ 013B94                     u5850:
  3779+                          	line	691
  3780+                          ;main.c: 691: LATA = 0b11101111;
  3781+ 013B94  0EEF               	movlw	low(0EFh)
  3782+ 013B96  6E89               	movwf	((c:3977)),c	;volatile
  3783+                          	line	693
  3784+                          ;main.c: 693: LATB = 0b10000000;
  3785+ 013B98  0E80               	movlw	low(080h)
  3786+ 013B9A  6E8A               	movwf	((c:3978)),c	;volatile
  3787+                          	line	695
  3788+                          ;main.c: 695: LATC = 0b00111111;
  3789+ 013B9C  0E3F               	movlw	low(03Fh)
  3790+ 013B9E  6E8B               	movwf	((c:3979)),c	;volatile
  3791+                          	line	697
  3792+                          ;main.c: 697: } else if (led_array[0] == 1 && le
      +                          d_array[1] == 1 && led_array[7] == 1) {
  3793+ 013BA0  EFFF  F09F         	goto	l879
  3794+                          	
  3795+ 013BA4                     l962:		; BSR set to: ?
  3796+                          
  3797+ 013BA4  0400               	decf	((c:0)),c,w
  3798+ 013BA6  1001               	iorwf ((c:0+1)),c,w
  3799+                          
  3800+ 013BA8  A4D8               	btfss	status,2
  3801+ 013BAA  EFD9  F09D         	goto	u5861
  3802+ 013BAE  EFDB  F09D         	goto	u5860
  3803+ 013BB2                     u5861:
  3804+ 013BB2  EFF5  F09D         	goto	l964
  3805+ 013BB6                     u5860:
  3806+ 013BB6  0402               	decf	(0+((c:0)+02h)),c,w
  3807+ 013BB8  1003               	iorwf (1+((c:0)+02h)),c,w
  3808+                          
  3809+ 013BBA  A4D8               	btfss	status,2
  3810+ 013BBC  EFE2  F09D         	goto	u5871
  3811+ 013BC0  EFE4  F09D         	goto	u5870
  3812+ 013BC4                     u5871:
  3813+ 013BC4  EFF5  F09D         	goto	l964
  3814+ 013BC8                     u5870:
  3815+ 013BC8  040E               	decf	(0+((c:0)+0Eh)),c,w
  3816+ 013BCA  100F               	iorwf (1+((c:0)+0Eh)),c,w
  3817+                          
  3818+ 013BCC  A4D8               	btfss	status,2
  3819+ 013BCE  EFEB  F09D         	goto	u5881
  3820+ 013BD2  EFED  F09D         	goto	u5880
  3821+ 013BD6                     u5881:
  3822+ 013BD6  EFF5  F09D         	goto	l964
  3823+ 013BDA                     u5880:
  3824+                          	line	700
  3825+                          ;main.c: 700: LATA = 0b10111111;
  3826+ 013BDA  0EBF               	movlw	low(0BFh)
  3827+ 013BDC  6E89               	movwf	((c:3977)),c	;volatile
  3828+                          	line	702
  3829+                          ;main.c: 702: LATB = 0b10000000;
  3830+ 013BDE  0E80               	movlw	low(080h)
  3831+ 013BE0  6E8A               	movwf	((c:3978)),c	;volatile
  3832+                          	line	704
  3833+                          ;main.c: 704: LATC = 0b00111111;
  3834+ 013BE2  0E3F               	movlw	low(03Fh)
  3835+ 013BE4  6E8B               	movwf	((c:3979)),c	;volatile
  3836+                          	line	706
  3837+                          ;main.c: 706: } else if (led_array[0] == 1 && le
      +                          d_array[1] == 1 && led_array[8] == 1) {
  3838+ 013BE6  EFFF  F09F         	goto	l879
  3839+                          	
  3840+ 013BEA                     l964:		; BSR set to: ?
  3841+                          
  3842+ 013BEA  0400               	decf	((c:0)),c,w
  3843+ 013BEC  1001               	iorwf ((c:0+1)),c,w
  3844+                          
  3845+ 013BEE  A4D8               	btfss	status,2
  3846+ 013BF0  EFFC  F09D         	goto	u5891
  3847+ 013BF4  EFFE  F09D         	goto	u5890
  3848+ 013BF8                     u5891:
  3849+ 013BF8  EF17  F09E         	goto	l966
  3850+ 013BFC                     u5890:
  3851+ 013BFC  0402               	decf	(0+((c:0)+02h)),c,w
  3852+ 013BFE  1003               	iorwf (1+((c:0)+02h)),c,w
  3853+                          
  3854+ 013C00  A4D8               	btfss	status,2
  3855+ 013C02  EF05  F09E         	goto	u5901
  3856+ 013C06  EF07  F09E         	goto	u5900
  3857+ 013C0A                     u5901:
  3858+ 013C0A  EF17  F09E         	goto	l966
  3859+ 013C0E                     u5900:
  3860+ 013C0E  0410               	decf	(0+((c:0)+010h)),c,w
  3861+ 013C10  1011               	iorwf (1+((c:0)+010h)),c,w
  3862+                          
  3863+ 013C12  A4D8               	btfss	status,2
  3864+ 013C14  EF0E  F09E         	goto	u5911
  3865+ 013C18  EF10  F09E         	goto	u5910
  3866+ 013C1C                     u5911:
  3867+ 013C1C  EF17  F09E         	goto	l966
  3868+ 013C20                     u5910:
  3869+                          	line	709
  3870+                          ;main.c: 709: LATA = 0b11111111;
  3871+ 013C20  6889               	setf	((c:3977)),c	;volatile
  3872+                          	line	711
  3873+                          ;main.c: 711: LATB = 0b10000000;
  3874+ 013C22  0E80               	movlw	low(080h)
  3875+ 013C24  6E8A               	movwf	((c:3978)),c	;volatile
  3876+                          	line	713
  3877+                          ;main.c: 713: LATC = 0b00111110;
  3878+ 013C26  0E3E               	movlw	low(03Eh)
  3879+ 013C28  6E8B               	movwf	((c:3979)),c	;volatile
  3880+                          	line	715
  3881+                          ;main.c: 715: } else if (led_array[0] == 1 && le
      +                          d_array[1] == 1 && led_array[9] == 1) {
  3882+ 013C2A  EFFF  F09F         	goto	l879
  3883+                          	
  3884+ 013C2E                     l966:		; BSR set to: ?
  3885+                          
  3886+ 013C2E  0400               	decf	((c:0)),c,w
  3887+ 013C30  1001               	iorwf ((c:0+1)),c,w
  3888+                          
  3889+ 013C32  A4D8               	btfss	status,2
  3890+ 013C34  EF1E  F09E         	goto	u5921
  3891+ 013C38  EF20  F09E         	goto	u5920
  3892+ 013C3C                     u5921:
  3893+ 013C3C  EF39  F09E         	goto	l968
  3894+ 013C40                     u5920:
  3895+ 013C40  0402               	decf	(0+((c:0)+02h)),c,w
  3896+ 013C42  1003               	iorwf (1+((c:0)+02h)),c,w
  3897+                          
  3898+ 013C44  A4D8               	btfss	status,2
  3899+ 013C46  EF27  F09E         	goto	u5931
  3900+ 013C4A  EF29  F09E         	goto	u5930
  3901+ 013C4E                     u5931:
  3902+ 013C4E  EF39  F09E         	goto	l968
  3903+ 013C52                     u5930:
  3904+ 013C52  0412               	decf	(0+((c:0)+012h)),c,w
  3905+ 013C54  1013               	iorwf (1+((c:0)+012h)),c,w
  3906+                          
  3907+ 013C56  A4D8               	btfss	status,2
  3908+ 013C58  EF30  F09E         	goto	u5941
  3909+ 013C5C  EF32  F09E         	goto	u5940
  3910+ 013C60                     u5941:
  3911+ 013C60  EF39  F09E         	goto	l968
  3912+ 013C64                     u5940:
  3913+                          	line	718
  3914+                          ;main.c: 718: LATA = 0b11111111;
  3915+ 013C64  6889               	setf	((c:3977)),c	;volatile
  3916+                          	line	720
  3917+                          ;main.c: 720: LATB = 0b10000000;
  3918+ 013C66  0E80               	movlw	low(080h)
  3919+ 013C68  6E8A               	movwf	((c:3978)),c	;volatile
  3920+                          	line	722
  3921+                          ;main.c: 722: LATC = 0b00111101;
  3922+ 013C6A  0E3D               	movlw	low(03Dh)
  3923+ 013C6C  6E8B               	movwf	((c:3979)),c	;volatile
  3924+                          	line	723
  3925+                          ;main.c: 723: } else if (led_array[0] == 1 && le
      +                          d_array[1] == 1 && led_array[10] == 1) {
  3926+ 013C6E  EFFF  F09F         	goto	l879
  3927+                          	
  3928+ 013C72                     l968:		; BSR set to: ?
  3929+                          
  3930+ 013C72  0400               	decf	((c:0)),c,w
  3931+ 013C74  1001               	iorwf ((c:0+1)),c,w
  3932+                          
  3933+ 013C76  A4D8               	btfss	status,2
  3934+ 013C78  EF40  F09E         	goto	u5951
  3935+ 013C7C  EF42  F09E         	goto	u5950
  3936+ 013C80                     u5951:
  3937+ 013C80  EF5B  F09E         	goto	l970
  3938+ 013C84                     u5950:
  3939+ 013C84  0402               	decf	(0+((c:0)+02h)),c,w
  3940+ 013C86  1003               	iorwf (1+((c:0)+02h)),c,w
  3941+                          
  3942+ 013C88  A4D8               	btfss	status,2
  3943+ 013C8A  EF49  F09E         	goto	u5961
  3944+ 013C8E  EF4B  F09E         	goto	u5960
  3945+ 013C92                     u5961:
  3946+ 013C92  EF5B  F09E         	goto	l970
  3947+ 013C96                     u5960:
  3948+ 013C96  0414               	decf	(0+((c:0)+014h)),c,w
  3949+ 013C98  1015               	iorwf (1+((c:0)+014h)),c,w
  3950+                          
  3951+ 013C9A  A4D8               	btfss	status,2
  3952+ 013C9C  EF52  F09E         	goto	u5971
  3953+ 013CA0  EF54  F09E         	goto	u5970
  3954+ 013CA4                     u5971:
  3955+ 013CA4  EF5B  F09E         	goto	l970
  3956+ 013CA8                     u5970:
  3957+                          	line	726
  3958+                          ;main.c: 726: LATA = 0b11111111;
  3959+ 013CA8  6889               	setf	((c:3977)),c	;volatile
  3960+                          	line	728
  3961+                          ;main.c: 728: LATB = 0b00000000;
  3962+ 013CAA  0E00               	movlw	low(0)
  3963+ 013CAC  6E8A               	movwf	((c:3978)),c	;volatile
  3964+                          	line	730
  3965+                          ;main.c: 730: LATC = 0b00111111;
  3966+ 013CAE  0E3F               	movlw	low(03Fh)
  3967+ 013CB0  6E8B               	movwf	((c:3979)),c	;volatile
  3968+                          	line	731
  3969+                          ;main.c: 731: } else if (led_array[0] == 1 && le
      +                          d_array[1] == 1 && led_array[11] == 1) {
  3970+ 013CB2  EFFF  F09F         	goto	l879
  3971+                          	
  3972+ 013CB6                     l970:		; BSR set to: ?
  3973+                          
  3974+ 013CB6  0400               	decf	((c:0)),c,w
  3975+ 013CB8  1001               	iorwf ((c:0+1)),c,w
  3976+                          
  3977+ 013CBA  A4D8               	btfss	status,2
  3978+ 013CBC  EF62  F09E         	goto	u5981
  3979+ 013CC0  EF64  F09E         	goto	u5980
  3980+ 013CC4                     u5981:
  3981+ 013CC4  EF7D  F09E         	goto	l972
  3982+ 013CC8                     u5980:
  3983+ 013CC8  0402               	decf	(0+((c:0)+02h)),c,w
  3984+ 013CCA  1003               	iorwf (1+((c:0)+02h)),c,w
  3985+                          
  3986+ 013CCC  A4D8               	btfss	status,2
  3987+ 013CCE  EF6B  F09E         	goto	u5991
  3988+ 013CD2  EF6D  F09E         	goto	u5990
  3989+ 013CD6                     u5991:
  3990+ 013CD6  EF7D  F09E         	goto	l972
  3991+ 013CDA                     u5990:
  3992+ 013CDA  0416               	decf	(0+((c:0)+016h)),c,w
  3993+ 013CDC  1017               	iorwf (1+((c:0)+016h)),c,w
  3994+                          
  3995+ 013CDE  A4D8               	btfss	status,2
  3996+ 013CE0  EF74  F09E         	goto	u6001
  3997+ 013CE4  EF76  F09E         	goto	u6000
  3998+ 013CE8                     u6001:
  3999+ 013CE8  EF7D  F09E         	goto	l972
  4000+ 013CEC                     u6000:
  4001+                          	line	734
  4002+                          ;main.c: 734: LATA = 0b11111111;
  4003+ 013CEC  6889               	setf	((c:3977)),c	;volatile
  4004+                          	line	736
  4005+                          ;main.c: 736: LATB = 0b10000000;
  4006+ 013CEE  0E80               	movlw	low(080h)
  4007+ 013CF0  6E8A               	movwf	((c:3978)),c	;volatile
  4008+                          	line	738
  4009+                          ;main.c: 738: LATC = 0b00111011;
  4010+ 013CF2  0E3B               	movlw	low(03Bh)
  4011+ 013CF4  6E8B               	movwf	((c:3979)),c	;volatile
  4012+                          	line	739
  4013+                          ;main.c: 739: } else if (led_array[0] == 1 && le
      +                          d_array[1] == 1 && led_array[12] == 1) {
  4014+ 013CF6  EFFF  F09F         	goto	l879
  4015+                          	
  4016+ 013CFA                     l972:		; BSR set to: ?
  4017+                          
  4018+ 013CFA  0400               	decf	((c:0)),c,w
  4019+ 013CFC  1001               	iorwf ((c:0+1)),c,w
  4020+                          
  4021+ 013CFE  A4D8               	btfss	status,2
  4022+ 013D00  EF84  F09E         	goto	u6011
  4023+ 013D04  EF86  F09E         	goto	u6010
  4024+ 013D08                     u6011:
  4025+ 013D08  EF9F  F09E         	goto	l974
  4026+ 013D0C                     u6010:
  4027+ 013D0C  0402               	decf	(0+((c:0)+02h)),c,w
  4028+ 013D0E  1003               	iorwf (1+((c:0)+02h)),c,w
  4029+                          
  4030+ 013D10  A4D8               	btfss	status,2
  4031+ 013D12  EF8D  F09E         	goto	u6021
  4032+ 013D16  EF8F  F09E         	goto	u6020
  4033+ 013D1A                     u6021:
  4034+ 013D1A  EF9F  F09E         	goto	l974
  4035+ 013D1E                     u6020:
  4036+ 013D1E  0418               	decf	(0+((c:0)+018h)),c,w
  4037+ 013D20  1019               	iorwf (1+((c:0)+018h)),c,w
  4038+                          
  4039+ 013D22  A4D8               	btfss	status,2
  4040+ 013D24  EF96  F09E         	goto	u6031
  4041+ 013D28  EF98  F09E         	goto	u6030
  4042+ 013D2C                     u6031:
  4043+ 013D2C  EF9F  F09E         	goto	l974
  4044+ 013D30                     u6030:
  4045+                          	line	742
  4046+                          ;main.c: 742: LATA = 0b11111111;
  4047+ 013D30  6889               	setf	((c:3977)),c	;volatile
  4048+                          	line	744
  4049+                          ;main.c: 744: LATB = 0b10000000;
  4050+ 013D32  0E80               	movlw	low(080h)
  4051+ 013D34  6E8A               	movwf	((c:3978)),c	;volatile
  4052+                          	line	746
  4053+                          ;main.c: 746: LATC = 0b00110111;
  4054+ 013D36  0E37               	movlw	low(037h)
  4055+ 013D38  6E8B               	movwf	((c:3979)),c	;volatile
  4056+                          	line	748
  4057+                          ;main.c: 748: } else if (led_array[0] == 1 && le
      +                          d_array[6] == 1) {
  4058+ 013D3A  EFFF  F09F         	goto	l879
  4059+                          	
  4060+ 013D3E                     l974:		; BSR set to: ?
  4061+                          
  4062+ 013D3E  0400               	decf	((c:0)),c,w
  4063+ 013D40  1001               	iorwf ((c:0+1)),c,w
  4064+                          
  4065+ 013D42  A4D8               	btfss	status,2
  4066+ 013D44  EFA6  F09E         	goto	u6041
  4067+ 013D48  EFA8  F09E         	goto	u6040
  4068+ 013D4C                     u6041:
  4069+ 013D4C  EFB9  F09E         	goto	l976
  4070+ 013D50                     u6040:
  4071+ 013D50  040C               	decf	(0+((c:0)+0Ch)),c,w
  4072+ 013D52  100D               	iorwf (1+((c:0)+0Ch)),c,w
  4073+                          
  4074+ 013D54  A4D8               	btfss	status,2
  4075+ 013D56  EFAF  F09E         	goto	u6051
  4076+ 013D5A  EFB1  F09E         	goto	u6050
  4077+ 013D5E                     u6051:
  4078+ 013D5E  EFB9  F09E         	goto	l976
  4079+ 013D62                     u6050:
  4080+                          	line	751
  4081+                          ;main.c: 751: LATA = 0b11101111;
  4082+ 013D62  0EEF               	movlw	low(0EFh)
  4083+ 013D64  6E89               	movwf	((c:3977)),c	;volatile
  4084+                          	line	753
  4085+                          ;main.c: 753: LATB = 0b10000000;
  4086+ 013D66  0E80               	movlw	low(080h)
  4087+ 013D68  6E8A               	movwf	((c:3978)),c	;volatile
  4088+                          	line	755
  4089+                          ;main.c: 755: LATC = 0b00011111;
  4090+ 013D6A  0E1F               	movlw	low(01Fh)
  4091+ 013D6C  6E8B               	movwf	((c:3979)),c	;volatile
  4092+                          	line	757
  4093+                          ;main.c: 757: } else if (led_array[0] == 1 && le
      +                          d_array[7] == 1) {
  4094+ 013D6E  EFFF  F09F         	goto	l879
  4095+                          	
  4096+ 013D72                     l976:		; BSR set to: ?
  4097+                          
  4098+ 013D72  0400               	decf	((c:0)),c,w
  4099+ 013D74  1001               	iorwf ((c:0+1)),c,w
  4100+                          
  4101+ 013D76  A4D8               	btfss	status,2
  4102+ 013D78  EFC0  F09E         	goto	u6061
  4103+ 013D7C  EFC2  F09E         	goto	u6060
  4104+ 013D80                     u6061:
  4105+ 013D80  EFD3  F09E         	goto	l978
  4106+ 013D84                     u6060:
  4107+ 013D84  040E               	decf	(0+((c:0)+0Eh)),c,w
  4108+ 013D86  100F               	iorwf (1+((c:0)+0Eh)),c,w
  4109+                          
  4110+ 013D88  A4D8               	btfss	status,2
  4111+ 013D8A  EFC9  F09E         	goto	u6071
  4112+ 013D8E  EFCB  F09E         	goto	u6070
  4113+ 013D92                     u6071:
  4114+ 013D92  EFD3  F09E         	goto	l978
  4115+ 013D96                     u6070:
  4116+                          	line	760
  4117+                          ;main.c: 760: LATA = 0b10111111;
  4118+ 013D96  0EBF               	movlw	low(0BFh)
  4119+ 013D98  6E89               	movwf	((c:3977)),c	;volatile
  4120+                          	line	762
  4121+                          ;main.c: 762: LATB = 0b10000000;
  4122+ 013D9A  0E80               	movlw	low(080h)
  4123+ 013D9C  6E8A               	movwf	((c:3978)),c	;volatile
  4124+                          	line	764
  4125+                          ;main.c: 764: LATC = 0b00011111;
  4126+ 013D9E  0E1F               	movlw	low(01Fh)
  4127+ 013DA0  6E8B               	movwf	((c:3979)),c	;volatile
  4128+                          	line	766
  4129+                          ;main.c: 766: } else if (led_array[0] == 1 && le
      +                          d_array[8] == 1) {
  4130+ 013DA2  EFFF  F09F         	goto	l879
  4131+                          	
  4132+ 013DA6                     l978:		; BSR set to: ?
  4133+                          
  4134+ 013DA6  0400               	decf	((c:0)),c,w
  4135+ 013DA8  1001               	iorwf ((c:0+1)),c,w
  4136+                          
  4137+ 013DAA  A4D8               	btfss	status,2
  4138+ 013DAC  EFDA  F09E         	goto	u6081
  4139+ 013DB0  EFDC  F09E         	goto	u6080
  4140+ 013DB4                     u6081:
  4141+ 013DB4  EFEC  F09E         	goto	l980
  4142+ 013DB8                     u6080:
  4143+ 013DB8  0410               	decf	(0+((c:0)+010h)),c,w
  4144+ 013DBA  1011               	iorwf (1+((c:0)+010h)),c,w
  4145+                          
  4146+ 013DBC  A4D8               	btfss	status,2
  4147+ 013DBE  EFE3  F09E         	goto	u6091
  4148+ 013DC2  EFE5  F09E         	goto	u6090
  4149+ 013DC6                     u6091:
  4150+ 013DC6  EFEC  F09E         	goto	l980
  4151+ 013DCA                     u6090:
  4152+                          	line	769
  4153+                          ;main.c: 769: LATA = 0b11111111;
  4154+ 013DCA  6889               	setf	((c:3977)),c	;volatile
  4155+                          	line	771
  4156+                          ;main.c: 771: LATB = 0b10000000;
  4157+ 013DCC  0E80               	movlw	low(080h)
  4158+ 013DCE  6E8A               	movwf	((c:3978)),c	;volatile
  4159+                          	line	773
  4160+                          ;main.c: 773: LATC = 0b00011110;
  4161+ 013DD0  0E1E               	movlw	low(01Eh)
  4162+ 013DD2  6E8B               	movwf	((c:3979)),c	;volatile
  4163+                          	line	775
  4164+                          ;main.c: 775: } else if (led_array[0] == 1 && le
      +                          d_array[9] == 1) {
  4165+ 013DD4  EFFF  F09F         	goto	l879
  4166+                          	
  4167+ 013DD8                     l980:		; BSR set to: ?
  4168+                          
  4169+ 013DD8  0400               	decf	((c:0)),c,w
  4170+ 013DDA  1001               	iorwf ((c:0+1)),c,w
  4171+                          
  4172+ 013DDC  A4D8               	btfss	status,2
  4173+ 013DDE  EFF3  F09E         	goto	u6101
  4174+ 013DE2  EFF5  F09E         	goto	u6100
  4175+ 013DE6                     u6101:
  4176+ 013DE6  EF05  F09F         	goto	l982
  4177+ 013DEA                     u6100:
  4178+ 013DEA  0412               	decf	(0+((c:0)+012h)),c,w
  4179+ 013DEC  1013               	iorwf (1+((c:0)+012h)),c,w
  4180+                          
  4181+ 013DEE  A4D8               	btfss	status,2
  4182+ 013DF0  EFFC  F09E         	goto	u6111
  4183+ 013DF4  EFFE  F09E         	goto	u6110
  4184+ 013DF8                     u6111:
  4185+ 013DF8  EF05  F09F         	goto	l982
  4186+ 013DFC                     u6110:
  4187+                          	line	778
  4188+                          ;main.c: 778: LATA = 0b11111111;
  4189+ 013DFC  6889               	setf	((c:3977)),c	;volatile
  4190+                          	line	780
  4191+                          ;main.c: 780: LATB = 0b10000000;
  4192+ 013DFE  0E80               	movlw	low(080h)
  4193+ 013E00  6E8A               	movwf	((c:3978)),c	;volatile
  4194+                          	line	782
  4195+                          ;main.c: 782: LATC = 0b00011101;
  4196+ 013E02  0E1D               	movlw	low(01Dh)
  4197+ 013E04  6E8B               	movwf	((c:3979)),c	;volatile
  4198+                          	line	784
  4199+                          ;main.c: 784: } else if (led_array[0] == 1 && le
      +                          d_array[10] == 1) {
  4200+ 013E06  EFFF  F09F         	goto	l879
  4201+                          	
  4202+ 013E0A                     l982:		; BSR set to: ?
  4203+                          
  4204+ 013E0A  0400               	decf	((c:0)),c,w
  4205+ 013E0C  1001               	iorwf ((c:0+1)),c,w
  4206+                          
  4207+ 013E0E  A4D8               	btfss	status,2
  4208+ 013E10  EF0C  F09F         	goto	u6121
  4209+ 013E14  EF0E  F09F         	goto	u6120
  4210+ 013E18                     u6121:
  4211+ 013E18  EF1E  F09F         	goto	l984
  4212+ 013E1C                     u6120:
  4213+ 013E1C  0414               	decf	(0+((c:0)+014h)),c,w
  4214+ 013E1E  1015               	iorwf (1+((c:0)+014h)),c,w
  4215+                          
  4216+ 013E20  A4D8               	btfss	status,2
  4217+ 013E22  EF15  F09F         	goto	u6131
  4218+ 013E26  EF17  F09F         	goto	u6130
  4219+ 013E2A                     u6131:
  4220+ 013E2A  EF1E  F09F         	goto	l984
  4221+ 013E2E                     u6130:
  4222+                          	line	787
  4223+                          ;main.c: 787: LATA = 0b11111111;
  4224+ 013E2E  6889               	setf	((c:3977)),c	;volatile
  4225+                          	line	789
  4226+                          ;main.c: 789: LATB = 0b00000000;
  4227+ 013E30  0E00               	movlw	low(0)
  4228+ 013E32  6E8A               	movwf	((c:3978)),c	;volatile
  4229+                          	line	791
  4230+                          ;main.c: 791: LATC = 0b00011111;
  4231+ 013E34  0E1F               	movlw	low(01Fh)
  4232+ 013E36  6E8B               	movwf	((c:3979)),c	;volatile
  4233+                          	line	793
  4234+                          ;main.c: 793: } else if (led_array[0] == 1 && le
      +                          d_array[11] == 1) {
  4235+ 013E38  EFFF  F09F         	goto	l879
  4236+                          	
  4237+ 013E3C                     l984:		; BSR set to: ?
  4238+                          
  4239+ 013E3C  0400               	decf	((c:0)),c,w
  4240+ 013E3E  1001               	iorwf ((c:0+1)),c,w
  4241+                          
  4242+ 013E40  A4D8               	btfss	status,2
  4243+ 013E42  EF25  F09F         	goto	u6141
  4244+ 013E46  EF27  F09F         	goto	u6140
  4245+ 013E4A                     u6141:
  4246+ 013E4A  EF37  F09F         	goto	l986
  4247+ 013E4E                     u6140:
  4248+ 013E4E  0416               	decf	(0+((c:0)+016h)),c,w
  4249+ 013E50  1017               	iorwf (1+((c:0)+016h)),c,w
  4250+                          
  4251+ 013E52  A4D8               	btfss	status,2
  4252+ 013E54  EF2E  F09F         	goto	u6151
  4253+ 013E58  EF30  F09F         	goto	u6150
  4254+ 013E5C                     u6151:
  4255+ 013E5C  EF37  F09F         	goto	l986
  4256+ 013E60                     u6150:
  4257+                          	line	796
  4258+                          ;main.c: 796: LATA = 0b11111111;
  4259+ 013E60  6889               	setf	((c:3977)),c	;volatile
  4260+                          	line	798
  4261+                          ;main.c: 798: LATB = 0b10000000;
  4262+ 013E62  0E80               	movlw	low(080h)
  4263+ 013E64  6E8A               	movwf	((c:3978)),c	;volatile
  4264+                          	line	800
  4265+                          ;main.c: 800: LATC = 0b00011011;
  4266+ 013E66  0E1B               	movlw	low(01Bh)
  4267+ 013E68  6E8B               	movwf	((c:3979)),c	;volatile
  4268+                          	line	802
  4269+                          ;main.c: 802: } else if (led_array[0] == 1 && le
      +                          d_array[12] == 1) {
  4270+ 013E6A  EFFF  F09F         	goto	l879
  4271+                          	
  4272+ 013E6E                     l986:		; BSR set to: ?
  4273+                          
  4274+ 013E6E  0400               	decf	((c:0)),c,w
  4275+ 013E70  1001               	iorwf ((c:0+1)),c,w
  4276+                          
  4277+ 013E72  A4D8               	btfss	status,2
  4278+ 013E74  EF3E  F09F         	goto	u6161
  4279+ 013E78  EF40  F09F         	goto	u6160
  4280+ 013E7C                     u6161:
  4281+ 013E7C  EF50  F09F         	goto	l988
  4282+ 013E80                     u6160:
  4283+ 013E80  0418               	decf	(0+((c:0)+018h)),c,w
  4284+ 013E82  1019               	iorwf (1+((c:0)+018h)),c,w
  4285+                          
  4286+ 013E84  A4D8               	btfss	status,2
  4287+ 013E86  EF47  F09F         	goto	u6171
  4288+ 013E8A  EF49  F09F         	goto	u6170
  4289+ 013E8E                     u6171:
  4290+ 013E8E  EF50  F09F         	goto	l988
  4291+ 013E92                     u6170:
  4292+                          	line	805
  4293+                          ;main.c: 805: LATA = 0b11111111;
  4294+ 013E92  6889               	setf	((c:3977)),c	;volatile
  4295+                          	line	807
  4296+                          ;main.c: 807: LATB = 0b10000000;
  4297+ 013E94  0E80               	movlw	low(080h)
  4298+ 013E96  6E8A               	movwf	((c:3978)),c	;volatile
  4299+                          	line	809
  4300+                          ;main.c: 809: LATC = 0b00010111;
  4301+ 013E98  0E17               	movlw	low(017h)
  4302+ 013E9A  6E8B               	movwf	((c:3979)),c	;volatile
  4303+                          	line	811
  4304+                          ;main.c: 811: } else if (led_array[1] == 1 && le
      +                          d_array[6] == 1) {
  4305+ 013E9C  EFFF  F09F         	goto	l879
  4306+                          	
  4307+ 013EA0                     l988:		; BSR set to: ?
  4308+                          
  4309+ 013EA0  0402               	decf	(0+((c:0)+02h)),c,w
  4310+ 013EA2  1003               	iorwf (1+((c:0)+02h)),c,w
  4311+                          
  4312+ 013EA4  A4D8               	btfss	status,2
  4313+ 013EA6  EF57  F09F         	goto	u6181
  4314+ 013EAA  EF59  F09F         	goto	u6180
  4315+ 013EAE                     u6181:
  4316+ 013EAE  EF6A  F09F         	goto	l990
  4317+ 013EB2                     u6180:
  4318+ 013EB2  040C               	decf	(0+((c:0)+0Ch)),c,w
  4319+ 013EB4  100D               	iorwf (1+((c:0)+0Ch)),c,w
  4320+                          
  4321+ 013EB6  A4D8               	btfss	status,2
  4322+ 013EB8  EF60  F09F         	goto	u6191
  4323+ 013EBC  EF62  F09F         	goto	u6190
  4324+ 013EC0                     u6191:
  4325+ 013EC0  EF6A  F09F         	goto	l990
  4326+ 013EC4                     u6190:
  4327+                          	line	814
  4328+                          ;main.c: 814: LATA = 0b11101111;
  4329+ 013EC4  0EEF               	movlw	low(0EFh)
  4330+ 013EC6  6E89               	movwf	((c:3977)),c	;volatile
  4331+                          	line	816
  4332+                          ;main.c: 816: LATB = 0b10000000;
  4333+ 013EC8  0E80               	movlw	low(080h)
  4334+ 013ECA  6E8A               	movwf	((c:3978)),c	;volatile
  4335+                          	line	818
  4336+                          ;main.c: 818: LATC = 0b00101111;
  4337+ 013ECC  0E2F               	movlw	low(02Fh)
  4338+ 013ECE  6E8B               	movwf	((c:3979)),c	;volatile
  4339+                          	line	820
  4340+                          ;main.c: 820: } else if (led_array[1] == 1 && le
      +                          d_array[7] == 1) {
  4341+ 013ED0  EFFF  F09F         	goto	l879
  4342+                          	
  4343+ 013ED4                     l990:		; BSR set to: ?
  4344+                          
  4345+ 013ED4  0402               	decf	(0+((c:0)+02h)),c,w
  4346+ 013ED6  1003               	iorwf (1+((c:0)+02h)),c,w
  4347+                          
  4348+ 013ED8  A4D8               	btfss	status,2
  4349+ 013EDA  EF71  F09F         	goto	u6201
  4350+ 013EDE  EF73  F09F         	goto	u6200
  4351+ 013EE2                     u6201:
  4352+ 013EE2  EF84  F09F         	goto	l992
  4353+ 013EE6                     u6200:
  4354+ 013EE6  040E               	decf	(0+((c:0)+0Eh)),c,w
  4355+ 013EE8  100F               	iorwf (1+((c:0)+0Eh)),c,w
  4356+                          
  4357+ 013EEA  A4D8               	btfss	status,2
  4358+ 013EEC  EF7A  F09F         	goto	u6211
  4359+ 013EF0  EF7C  F09F         	goto	u6210
  4360+ 013EF4                     u6211:
  4361+ 013EF4  EF84  F09F         	goto	l992
  4362+ 013EF8                     u6210:
  4363+                          	line	823
  4364+                          ;main.c: 823: LATA = 0b10111111;
  4365+ 013EF8  0EBF               	movlw	low(0BFh)
  4366+ 013EFA  6E89               	movwf	((c:3977)),c	;volatile
  4367+                          	line	825
  4368+                          ;main.c: 825: LATB = 0b10000000;
  4369+ 013EFC  0E80               	movlw	low(080h)
  4370+ 013EFE  6E8A               	movwf	((c:3978)),c	;volatile
  4371+                          	line	827
  4372+                          ;main.c: 827: LATC = 0b00101111;
  4373+ 013F00  0E2F               	movlw	low(02Fh)
  4374+ 013F02  6E8B               	movwf	((c:3979)),c	;volatile
  4375+                          	line	829
  4376+                          ;main.c: 829: } else if (led_array[1] == 1 && le
      +                          d_array[8] == 1) {
  4377+ 013F04  EFFF  F09F         	goto	l879
  4378+                          	
  4379+ 013F08                     l992:		; BSR set to: ?
  4380+                          
  4381+ 013F08  0402               	decf	(0+((c:0)+02h)),c,w
  4382+ 013F0A  1003               	iorwf (1+((c:0)+02h)),c,w
  4383+                          
  4384+ 013F0C  A4D8               	btfss	status,2
  4385+ 013F0E  EF8B  F09F         	goto	u6221
  4386+ 013F12  EF8D  F09F         	goto	u6220
  4387+ 013F16                     u6221:
  4388+ 013F16  EF9D  F09F         	goto	l994
  4389+ 013F1A                     u6220:
  4390+ 013F1A  0410               	decf	(0+((c:0)+010h)),c,w
  4391+ 013F1C  1011               	iorwf (1+((c:0)+010h)),c,w
  4392+                          
  4393+ 013F1E  A4D8               	btfss	status,2
  4394+ 013F20  EF94  F09F         	goto	u6231
  4395+ 013F24  EF96  F09F         	goto	u6230
  4396+ 013F28                     u6231:
  4397+ 013F28  EF9D  F09F         	goto	l994
  4398+ 013F2C                     u6230:
  4399+                          	line	832
  4400+                          ;main.c: 832: LATA = 0b11111111;
  4401+ 013F2C  6889               	setf	((c:3977)),c	;volatile
  4402+                          	line	834
  4403+                          ;main.c: 834: LATB = 0b10000000;
  4404+ 013F2E  0E80               	movlw	low(080h)
  4405+ 013F30  6E8A               	movwf	((c:3978)),c	;volatile
  4406+                          	line	836
  4407+                          ;main.c: 836: LATC = 0b00101110;
  4408+ 013F32  0E2E               	movlw	low(02Eh)
  4409+ 013F34  6E8B               	movwf	((c:3979)),c	;volatile
  4410+                          	line	838
  4411+                          ;main.c: 838: } else if (led_array[1] == 1 && le
      +                          d_array[9] == 1) {
  4412+ 013F36  EFFF  F09F         	goto	l879
  4413+                          	
  4414+ 013F3A                     l994:		; BSR set to: ?
  4415+                          
  4416+ 013F3A  0402               	decf	(0+((c:0)+02h)),c,w
  4417+ 013F3C  1003               	iorwf (1+((c:0)+02h)),c,w
  4418+                          
  4419+ 013F3E  A4D8               	btfss	status,2
  4420+ 013F40  EFA4  F09F         	goto	u6241
  4421+ 013F44  EFA6  F09F         	goto	u6240
  4422+ 013F48                     u6241:
  4423+ 013F48  EFB6  F09F         	goto	l996
  4424+ 013F4C                     u6240:
  4425+ 013F4C  0412               	decf	(0+((c:0)+012h)),c,w
  4426+ 013F4E  1013               	iorwf (1+((c:0)+012h)),c,w
  4427+                          
  4428+ 013F50  A4D8               	btfss	status,2
  4429+ 013F52  EFAD  F09F         	goto	u6251
  4430+ 013F56  EFAF  F09F         	goto	u6250
  4431+ 013F5A                     u6251:
  4432+ 013F5A  EFB6  F09F         	goto	l996
  4433+ 013F5E                     u6250:
  4434+                          	line	841
  4435+                          ;main.c: 841: LATA = 0b11111111;
  4436+ 013F5E  6889               	setf	((c:3977)),c	;volatile
  4437+                          	line	843
  4438+                          ;main.c: 843: LATB = 0b10000000;
  4439+ 013F60  0E80               	movlw	low(080h)
  4440+ 013F62  6E8A               	movwf	((c:3978)),c	;volatile
  4441+                          	line	845
  4442+                          ;main.c: 845: LATC = 0b00101101;
  4443+ 013F64  0E2D               	movlw	low(02Dh)
  4444+ 013F66  6E8B               	movwf	((c:3979)),c	;volatile
  4445+                          	line	847
  4446+                          ;main.c: 847: } else if (led_array[1] == 1 && le
      +                          d_array[10] == 1) {
  4447+ 013F68  EFFF  F09F         	goto	l879
  4448+                          	
  4449+ 013F6C                     l996:		; BSR set to: ?
  4450+                          
  4451+ 013F6C  0402               	decf	(0+((c:0)+02h)),c,w
  4452+ 013F6E  1003               	iorwf (1+((c:0)+02h)),c,w
  4453+                          
  4454+ 013F70  A4D8               	btfss	status,2
  4455+ 013F72  EFBD  F09F         	goto	u6261
  4456+ 013F76  EFBF  F09F         	goto	u6260
  4457+ 013F7A                     u6261:
  4458+ 013F7A  EFCF  F09F         	goto	l998
  4459+ 013F7E                     u6260:
  4460+ 013F7E  0414               	decf	(0+((c:0)+014h)),c,w
  4461+ 013F80  1015               	iorwf (1+((c:0)+014h)),c,w
  4462+                          
  4463+ 013F82  A4D8               	btfss	status,2
  4464+ 013F84  EFC6  F09F         	goto	u6271
  4465+ 013F88  EFC8  F09F         	goto	u6270
  4466+ 013F8C                     u6271:
  4467+ 013F8C  EFCF  F09F         	goto	l998
  4468+ 013F90                     u6270:
  4469+                          	line	850
  4470+                          ;main.c: 850: LATA = 0b11111111;
  4471+ 013F90  6889               	setf	((c:3977)),c	;volatile
  4472+                          	line	852
  4473+                          ;main.c: 852: LATB = 0b00000000;
  4474+ 013F92  0E00               	movlw	low(0)
  4475+ 013F94  6E8A               	movwf	((c:3978)),c	;volatile
  4476+                          	line	854
  4477+                          ;main.c: 854: LATC = 0b00101111;
  4478+ 013F96  0E2F               	movlw	low(02Fh)
  4479+ 013F98  6E8B               	movwf	((c:3979)),c	;volatile
  4480+                          	line	856
  4481+                          ;main.c: 856: } else if (led_array[1] == 1 && le
      +                          d_array[11] == 1) {
  4482+ 013F9A  EFFF  F09F         	goto	l879
  4483+                          	
  4484+ 013F9E                     l998:		; BSR set to: ?
  4485+                          
  4486+ 013F9E  0402               	decf	(0+((c:0)+02h)),c,w
  4487+ 013FA0  1003               	iorwf (1+((c:0)+02h)),c,w
  4488+                          
  4489+ 013FA2  A4D8               	btfss	status,2
  4490+ 013FA4  EFD6  F09F         	goto	u6281
  4491+ 013FA8  EFD8  F09F         	goto	u6280
  4492+ 013FAC                     u6281:
  4493+ 013FAC  EFE8  F09F         	goto	l1000
  4494+ 013FB0                     u6280:
  4495+ 013FB0  0416               	decf	(0+((c:0)+016h)),c,w
  4496+ 013FB2  1017               	iorwf (1+((c:0)+016h)),c,w
  4497+                          
  4498+ 013FB4  A4D8               	btfss	status,2
  4499+ 013FB6  EFDF  F09F         	goto	u6291
  4500+ 013FBA  EFE1  F09F         	goto	u6290
  4501+ 013FBE                     u6291:
  4502+ 013FBE  EFE8  F09F         	goto	l1000
  4503+ 013FC2                     u6290:
  4504+                          	line	859
  4505+                          ;main.c: 859: LATA = 0b11111111;
  4506+ 013FC2  6889               	setf	((c:3977)),c	;volatile
  4507+                          	line	861
  4508+                          ;main.c: 861: LATB = 0b10000000;
  4509+ 013FC4  0E80               	movlw	low(080h)
  4510+ 013FC6  6E8A               	movwf	((c:3978)),c	;volatile
  4511+                          	line	863
  4512+                          ;main.c: 863: LATC = 0b00101011;
  4513+ 013FC8  0E2B               	movlw	low(02Bh)
  4514+ 013FCA  6E8B               	movwf	((c:3979)),c	;volatile
  4515+                          	line	865
  4516+                          ;main.c: 865: } else if (led_array[1] == 1 && le
      +                          d_array[12] == 1) {
  4517+ 013FCC  EFFF  F09F         	goto	l879
  4518+                          	
  4519+ 013FD0                     l1000:		; BSR set to: ?
  4520+                          
  4521+ 013FD0  0402               	decf	(0+((c:0)+02h)),c,w
  4522+ 013FD2  1003               	iorwf (1+((c:0)+02h)),c,w
  4523+                          
  4524+ 013FD4  A4D8               	btfss	status,2
  4525+ 013FD6  EFEF  F09F         	goto	u6301
  4526+ 013FDA  EFF1  F09F         	goto	u6300
  4527+ 013FDE                     u6301:
  4528+ 013FDE  EFFF  F09F         	goto	l879
  4529+ 013FE2                     u6300:
  4530+ 013FE2  0418               	decf	(0+((c:0)+018h)),c,w
  4531+ 013FE4  1019               	iorwf (1+((c:0)+018h)),c,w
  4532+                          
  4533+ 013FE6  A4D8               	btfss	status,2
  4534+ 013FE8  EFF8  F09F         	goto	u6311
  4535+ 013FEC  EFFA  F09F         	goto	u6310
  4536+ 013FF0                     u6311:
  4537+ 013FF0  EFFF  F09F         	goto	l879
  4538+ 013FF4                     u6310:
  4539+                          	line	868
  4540+                          ;main.c: 868: LATA = 0b11111111;
  4541+ 013FF4  6889               	setf	((c:3977)),c	;volatile
  4542+                          	line	870
  4543+                          ;main.c: 870: LATB = 0b10000000;
  4544+ 013FF6  0E80               	movlw	low(080h)
  4545+ 013FF8  6E8A               	movwf	((c:3978)),c	;volatile
  4546+                          	line	872
  4547+                          ;main.c: 872: LATC = 0b00100111;
  4548+ 013FFA  0E27               	movlw	low(027h)
  4549+ 013FFC  6E8B               	movwf	((c:3979)),c	;volatile
  4550+                          	line	873
  4551+                          	
  4552+ 013FFE                     l1002:		; BSR set to: ?
  4553+                          
  4554+                          	line	874
  4555+                          	
  4556+ 013FFE                     l1001:		; BSR set to: ?
  4557+                          
  4558+                          	
  4559+ 013FFE                     l999:		; BSR set to: ?
  4560+                          
  4561+                          	
  4562+ 013FFE                     l997:		; BSR set to: ?
  4563+                          
  4564+                          	
  4565+ 013FFE                     l995:		; BSR set to: ?
  4566+                          
  4567+                          	
  4568+ 013FFE                     l993:		; BSR set to: ?
  4569+                          
  4570+                          	
  4571+ 013FFE                     l991:		; BSR set to: ?
  4572+                          
  4573+                          	
  4574+ 013FFE                     l989:		; BSR set to: ?
  4575+                          
  4576+                          	
  4577+ 013FFE                     l987:		; BSR set to: ?
  4578+                          
  4579+                          	
  4580+ 013FFE                     l985:		; BSR set to: ?
  4581+                          
  4582+                          	
  4583+ 013FFE                     l983:		; BSR set to: ?
  4584+                          
  4585+                          	
  4586+ 013FFE                     l981:		; BSR set to: ?
  4587+                          
  4588+                          	
  4589+ 013FFE                     l979:		; BSR set to: ?
  4590+                          
  4591+                          	
  4592+ 013FFE                     l977:		; BSR set to: ?
  4593+                          
  4594+                          	
  4595+ 013FFE                     l975:		; BSR set to: ?
  4596+                          
  4597+                          	
  4598+ 013FFE                     l973:		; BSR set to: ?
  4599+                          
  4600+                          	
  4601+ 013FFE                     l971:		; BSR set to: ?
  4602+                          
  4603+                          	
  4604+ 013FFE                     l969:		; BSR set to: ?
  4605+                          
  4606+                          	
  4607+ 013FFE                     l967:		; BSR set to: ?
  4608+                          
  4609+                          	
  4610+ 013FFE                     l965:		; BSR set to: ?
  4611+                          
  4612+                          	
  4613+ 013FFE                     l963:		; BSR set to: ?
  4614+                          
  4615+                          	
  4616+ 013FFE                     l961:		; BSR set to: ?
  4617+                          
  4618+                          	
  4619+ 013FFE                     l959:		; BSR set to: ?
  4620+                          
  4621+                          	
  4622+ 013FFE                     l957:		; BSR set to: ?
  4623+                          
  4624+                          	
  4625+ 013FFE                     l955:		; BSR set to: ?
  4626+                          
  4627+                          	
  4628+ 013FFE                     l953:		; BSR set to: ?
  4629+                          
  4630+                          	
  4631+ 013FFE                     l951:		; BSR set to: ?
  4632+                          
  4633+                          	
  4634+ 013FFE                     l949:		; BSR set to: ?
  4635+                          
  4636+                          	
  4637+ 013FFE                     l947:		; BSR set to: ?
  4638+                          
  4639+                          	
  4640+ 013FFE                     l945:		; BSR set to: ?
  4641+                          
  4642+                          	
  4643+ 013FFE                     l943:		; BSR set to: ?
  4644+                          
  4645+                          	
  4646+ 013FFE                     l941:		; BSR set to: ?
  4647+                          
  4648+                          	
  4649+ 013FFE                     l939:		; BSR set to: ?
  4650+                          
  4651+                          	
  4652+ 013FFE                     l937:		; BSR set to: ?
  4653+                          
  4654+                          	
  4655+ 013FFE                     l935:		; BSR set to: ?
  4656+                          
  4657+                          	
  4658+ 013FFE                     l933:		; BSR set to: ?
  4659+                          
  4660+                          	
  4661+ 013FFE                     l931:		; BSR set to: ?
  4662+                          
  4663+                          	
  4664+ 013FFE                     l929:		; BSR set to: ?
  4665+                          
  4666+                          	
  4667+ 013FFE                     l927:		; BSR set to: ?
  4668+                          
  4669+                          	
  4670+ 013FFE                     l925:		; BSR set to: ?
  4671+                          
  4672+                          	
  4673+ 013FFE                     l923:		; BSR set to: ?
  4674+                          
  4675+                          	
  4676+ 013FFE                     l921:		; BSR set to: ?
  4677+                          
  4678+                          	
  4679+ 013FFE                     l919:		; BSR set to: ?
  4680+                          
  4681+                          	
  4682+ 013FFE                     l917:		; BSR set to: ?
  4683+                          
  4684+                          	
  4685+ 013FFE                     l915:		; BSR set to: ?
  4686+                          
  4687+                          	
  4688+ 013FFE                     l913:		; BSR set to: ?
  4689+                          
  4690+                          	
  4691+ 013FFE                     l911:		; BSR set to: ?
  4692+                          
  4693+                          	
  4694+ 013FFE                     l909:		; BSR set to: ?
  4695+                          
  4696+                          	
  4697+ 013FFE                     l907:		; BSR set to: ?
  4698+                          
  4699+                          	
  4700+ 013FFE                     l905:		; BSR set to: ?
  4701+                          
  4702+                          	
  4703+ 013FFE                     l903:		; BSR set to: ?
  4704+                          
  4705+                          	
  4706+ 013FFE                     l901:		; BSR set to: ?
  4707+                          
  4708+                          	
  4709+ 013FFE                     l899:		; BSR set to: ?
  4710+                          
  4711+                          	
  4712+ 013FFE                     l897:		; BSR set to: ?
  4713+                          
  4714+                          	
  4715+ 013FFE                     l895:		; BSR set to: ?
  4716+                          
  4717+                          	
  4718+ 013FFE                     l893:		; BSR set to: ?
  4719+                          
  4720+                          	
  4721+ 013FFE                     l891:		; BSR set to: ?
  4722+                          
  4723+                          	
  4724+ 013FFE                     l889:		; BSR set to: ?
  4725+                          
  4726+                          	
  4727+ 013FFE                     l887:		; BSR set to: ?
  4728+                          
  4729+                          	
  4730+ 013FFE                     l885:		; BSR set to: ?
  4731+                          
  4732+                          	
  4733+ 013FFE                     l883:		; BSR set to: ?
  4734+                          
  4735+                          	
  4736+ 013FFE                     l881:		; BSR set to: ?
  4737+                          
  4738+                          	
  4739+ 013FFE                     l879:		; BSR set to: ?
  4740+                          
  4741+                          ;main.c: 873: }
  4742+                          ;main.c: 874: }
  4743+ 013FFE                     l877:
  4744+                          			; BSR set to: ?
  4745+                          
  4746+ 013FFE  0012               	return
  4747+                          	opt stack 0
  4748+                          GLOBAL __end_of_ToggleLeds
  4749+ 014000                     	__end_of_ToggleLeds:
  4750+                          	FNSIZE	_ToggleLeds,0,0
  4751+                          ; =============== function _ToggleLeds ends ====
      +                          ========
  4752+                          
  4753+                          	signat	_ToggleLeds,88
  4754+                          	FNCALL	_main,_ToggleLeds
  4755+                          	FNCALL	_main,_testToggle
  4756+                          	FNCALL	_testToggle,_ToggleLeds
  4757+                          	FNCALL	_testToggle,_DelayMs
  4758+                          	FNROOT	_main
  4759+                                  psect   const,class=CODE,space=0,reloc=2
  4760+                          	global	_led_array
  4761+                          	global	_led_array
  4762+ 000000                     _led_array  equ     0
  4763+                          
  4764+                          	DABS	1,0,26	;_led_array
  4765+                          	global	_cur_inputs
  4766+                          	global	_cur_inputs
  4767+ 000000                     _cur_inputs  equ     26
  4768+                          
  4769+                          	DABS	1,26,14	;_cur_inputs
  4770+                          	global	_prev_inputs
  4771+                          	global	_prev_inputs
  4772+ 000000                     _prev_inputs  equ     51
  4773+                          
  4774+                          	DABS	1,51,14	;_prev_inputs
  4775+                          	global	_conv_result
  4776+                          	global	_conv_result
  4777+ 000000                     _conv_result  equ     42
  4778+                          
  4779+                          	DABS	1,42,4	;_conv_result
  4780+                          	global	_index
  4781+                          	global	_index
  4782+ 000000                     _index  equ     40
  4783+                          
  4784+                          	DABS	1,40,2	;_index
  4785+                          	global	_USART_Status
  4786+                          	global	_USART_Status
  4787+ 000000                     _USART_Status  equ     48
  4788+                          
  4789+                          	DABS	1,48,1	;_USART_Status
  4790+                          	global	_adc_num
  4791+                          	global	_adc_num
  4792+ 000000                     _adc_num  equ     46
  4793+                          
  4794+                          	DABS	1,46,1	;_adc_num
  4795+                          	global	_change_val
  4796+                          	global	_change_val
  4797+ 000000                     _change_val  equ     47
  4798+                          
  4799+                          	DABS	1,47,1	;_change_val
  4800+                          	global	_uart_in
  4801+                          	global	_uart_in
  4802+ 000000                     _uart_in  equ     50
  4803+                          
  4804+                          	DABS	1,50,1	;_uart_in
  4805+                          	global	_uart_out
  4806+                          	global	_uart_out
  4807+ 000000                     _uart_out  equ     49
  4808+                          
  4809+                          	DABS	1,49,1	;_uart_out
  4810+                          	global	_ADRES
  4811+ 000000                     _ADRES	equ	0xFC3
  4812+                          	global	_ADCON0
  4813+ 000000                     _ADCON0	equ	0xFC2
  4814+                          	global	_ADCON1
  4815+ 000000                     _ADCON1	equ	0xFC1
  4816+                          	global	_ADCON2
  4817+ 000000                     _ADCON2	equ	0xFC0
  4818+                          	global	_ADRESH
  4819+ 000000                     _ADRESH	equ	0xFC4
  4820+                          	global	_ADRESL
  4821+ 000000                     _ADRESL	equ	0xFC3
  4822+                          	global	_BAUDCON
  4823+ 000000                     _BAUDCON	equ	0xFB8
  4824+                          	global	_LATA
  4825+ 000000                     _LATA	equ	0xF89
  4826+                          	global	_LATB
  4827+ 000000                     _LATB	equ	0xF8A
  4828+                          	global	_LATC
  4829+ 000000                     _LATC	equ	0xF8B
  4830+                          	global	_OSCCON
  4831+ 000000                     _OSCCON	equ	0xFD3
  4832+                          	global	_RCREG
  4833+ 000000                     _RCREG	equ	0xFAE
  4834+                          	global	_RCSTA
  4835+ 000000                     _RCSTA	equ	0xFAB
  4836+                          	global	_SPBRG
  4837+ 000000                     _SPBRG	equ	0xFAF
  4838+                          	global	_SPBRGH
  4839+ 000000                     _SPBRGH	equ	0xFB0
  4840+                          	global	_TRISA
  4841+ 000000                     _TRISA	equ	0xF92
  4842+                          	global	_TRISB
  4843+ 000000                     _TRISB	equ	0xF93
  4844+                          	global	_TRISC
  4845+ 000000                     _TRISC	equ	0xF94
  4846+                          	global	_TXREG
  4847+ 000000                     _TXREG	equ	0xFAD
  4848+                          	global	_TXSTA
  4849+ 000000                     _TXSTA	equ	0xFAC
  4850+                          	global	_ADON
  4851+ 000000                     _ADON	equ	0x7E10
  4852+                          	global	_BRGH_x
  4853+ 000000                     _BRGH_x	equ	0x7D62
  4854+                          	global	_CREN_x
  4855+ 000000                     _CREN_x	equ	0x7D5C
  4856+                          	global	_CSRC_x
  4857+ 000000                     _CSRC_x	equ	0x7D67
  4858+                          	global	_FERR
  4859+ 000000                     _FERR	equ	0x7D5A
  4860+                          	global	_GODONE
  4861+ 000000                     _GODONE	equ	0x7E11
  4862+                          	global	_OERR
  4863+ 000000                     _OERR	equ	0x7D59
  4864+                          	global	_RCIE_x
  4865+ 000000                     _RCIE_x	equ	0x7CED
  4866+                          	global	_RCIF
  4867+ 000000                     _RCIF	equ	0x7CF5
  4868+                          	global	_RX9D
  4869+ 000000                     _RX9D	equ	0x7D58
  4870+                          	global	_RX9_x
  4871+ 000000                     _RX9_x	equ	0x7D5E
  4872+                          	global	_SENDB_x
  4873+ 000000                     _SENDB_x	equ	0x7D63
  4874+                          	global	_SPEN_x
  4875+ 000000                     _SPEN_x	equ	0x7D5F
  4876+                          	global	_SREN_x
  4877+ 000000                     _SREN_x	equ	0x7D5D
  4878+                          	global	_SYNC_x
  4879+ 000000                     _SYNC_x	equ	0x7D64
  4880+                          	global	_TRISC6
  4881+ 000000                     _TRISC6	equ	0x7CA6
  4882+                          	global	_TRISC7
  4883+ 000000                     _TRISC7	equ	0x7CA7
  4884+                          	global	_TRMT_x
  4885+ 000000                     _TRMT_x	equ	0x7D61
  4886+                          	global	_TX9D
  4887+ 000000                     _TX9D	equ	0x7D60
  4888+                          	global	_TX9_x
  4889+ 000000                     _TX9_x	equ	0x7D66
  4890+                          	global	_TXEN_x
  4891+ 000000                     _TXEN_x	equ	0x7D65
  4892+                          	global	_TXIE_x
  4893+ 000000                     _TXIE_x	equ	0x7CEC
  4894+                          	global	_TXIF
  4895+ 000000                     _TXIF	equ	0x7CF4
  4896+                          	psect	intsave_regs,class=BIGRAM,space=1
  4897+                          	PSECT	param1,class=BANK1,space=1
  4898+                          	GLOBAL	__Lparam1
  4899+                          	FNCONF	param1,??,?
  4900+                          	GLOBAL	__Labsbss0
  4901+ 000000                     __Labsbss0	EQU	0
  4902+                          	GLOBAL	__Habsbss0
  4903+ 000000                     __Habsbss0	EQU	65
  4904+                          GLOBAL	__Lparam, __Hparam
  4905+                          GLOBAL	__Lparam1, __Hparam1
  4906+ 000000                     __Lparam	EQU	__Lparam1
  4907+ 000000                     __Hparam	EQU	__Hparam1


HI-TECH Software PICC-18 Macro Assembler V9.66 build 8870 
Symbol Table                                           Sat May 05 22:00:50 2012

                l900 34F4                  l901 3FFE  
                l910 35F2                  l902 3526  
                l903 3FFE                  l911 3FFE  
                l920 3700                  l912 3624  
                l904 3558                  l905 3FFE  
                l913 3FFE                  l921 3FFE  
                l930 3856                  l922 3746  
                l914 3656                  l906 358C  
                l907 3FFE                  l915 3FFE  
                l923 3FFE                  l931 3FFE  
                l940 3966                  l932 389A  
                l924 378A                  l916 3688  
                l908 35C0                  l909 3FFE  
                l917 3FFE                  l925 3FFE  
                l933 3FFE                  l941 3FFE  
                l950 3A64                  l942 3998  
                l934 38CE                  l926 37CE  
                l918 36BA                  l870 27DA  
                l919 3FFE                  l927 3FFE  
                l935 3FFE                  l943 3FFE  
                l951 3FFE                  l871 27A4  
                l960 3B5E                  l952 3A96  
                l944 39CA                  l936 3902  
                l928 3812                  l880 32A2  
                l872 27A0                  l881 3FFE  
                l929 3FFE                  l937 3FFE  
                l945 3FFE                  l953 3FFE  
                l961 3FFE                  l873 27B4  
                l970 3CB6                  l962 3BA4  
                l954 3AC8                  l946 39FC  
                l938 3934                  l890 33F6  
                l882 32E6                  l874 280A  
                l883 3FFE                  l891 3FFE  
                l939 3FFE                  l947 3FFE  
                l955 3FFE                  l963 3FFE  
                l971 3FFE                  l867 2856  
                l875 2852                  l980 3DD8  
                l972 3CFA                  l964 3BEA  
                l956 3AFA                  l948 3A30  
                l892 342A                  l884 332A  
                l868 27DA                  l877 3FFE  
                l885 3FFE                  l893 3FFE  
                l949 3FFE                  l957 3FFE  
                l965 3FFE                  l973 3FFE  
                l981 3FFE                  l990 3ED4  
                l982 3E0A                  l974 3D3E  
                l966 3C2E                  l958 3B2C  
                l894 345E                  l886 336E  
                l878 325C                  l887 3FFE  
                l895 3FFE                  l959 3FFE  
                l967 3FFE                  l975 3FFE  
                l983 3FFE                  l991 3FFE  
                l879 3FFE                  l992 3F08  
                l984 3E3C                  l976 3D72  
                l968 3C72                  l896 3490  
                l888 33B2                  l889 3FFE  
                l897 3FFE                  l969 3FFE  
                l977 3FFE                  l985 3FFE  
                l993 3FFE                  l994 3F3A  
                l986 3E6E                  l978 3DA6  
                l898 34C2                  l899 3FFE  
                l979 3FFE                  l987 3FFE  
                l995 3FFE                  l996 3F6C  
                l988 3EA0                  l989 3FFE  
                l997 3FFE                  l998 3F9E  
                l999 3FFE       testToggle@i_70 010E  
     testToggle@i_80 0118       testToggle@i_72 0110  
     testToggle@i_82 011A       testToggle@i_74 0112  
     testToggle@i_76 0114       testToggle@i_68 010C  
     testToggle@i_78 0116       testToggle@j_71 0120  
     testToggle@j_81 012A       testToggle@j_73 0122  
     testToggle@j_83 012C       testToggle@j_75 0124  
     testToggle@j_77 0126       testToggle@j_69 011E  
     testToggle@j_79 0128          main@channel 0104  
               l1000 3FD0                 l1001 3FFE  
               l1002 3FFE                 l1010 29A4  
               l1003 3214                 l1011 2A86  
               l1020 2B2A                 l1004 288A  
               l1013 29D2                 l1005 2974  
               l1022 2BC8                 l1014 2A18  
               l1031 2D10                 l1023 2CB2  
               l1007 28B8                 l1040 2F06  
               l1032 2D56                 l1016 2AB6  
               l1008 28FE                 l1041 2FF0  
               l1025 2BF6                 l1017 2B98  
               l1050 3094                 l1034 2DF4  
               l1026 2C3C                 l1043 2F34  
               l1035 2ED6                 l1019 2AE4  
               l1052 3132                 l1044 2F7A  
               l1028 2CE2                 l1053 3214  
               l1037 2E22                 l1029 2DC4  
               l1046 3020                 l1038 2E68  
               l1055 3160                 l1047 3102  
               l1080 274E                 l1056 31A6  
               l1081 2722                 l1049 304E  
               l1082 273A                 l1075 2758  
               l1083 2736                 l1084 2744  
               l1077 2758                 l1078 2712  
               _ADON 007E10                 _FERR 007D5A  
               _LATA 000F89                 _LATB 000F8A  
               _LATC 000F8B                 u5000 3380  
               u5001 337C                 u5010 3392  
               u5011 338E                 u5100 3470  
               u5020 33A4                 u5101 346C  
               u5021 33A0                 u5110 3482  
               u5030 33C4                 u5111 347E  
               u5031 33C0                 u6000 3CEC  
               u5200 356A                 u5120 34A2  
               u5040 33D6                 u6001 3CE8  
               u5201 3566                 u5121 349E  
               u5041 33D2                 u6010 3D0C  
               u5210 357C                 u5130 34B4  
               u5050 33E8                 u6011 3D08  
               u5211 3578                 u5131 34B0  
               u5051 33E4                 u6100 3DEA  
               u6020 3D1E                 u5300 3668  
               u5220 359E                 u5140 34D4  
               u5060 3408                 u4500 28B4  
               u6101 3DE6                 u6021 3D1A  
               u5301 3664                 u5221 359A  
               u5141 34D0                 u5061 3404  
               u4501 28B0                 u6110 3DFC  
               u6030 3D30                 u5310 367A  
               u5230 35B0                 u5150 34E6  
               u5070 341A                 u4510 28FE  
               u6111 3DF8                 u6031 3D2C  
               u5311 3676                 u5231 35AC  
               u5151 34E2                 u5071 3416  
               u4511 28FA                 u6200 3EE6  
               u6120 3E1C                 u6040 3D50  
               u5400 3758                 u5320 369A  
               u5240 35D2                 u5160 3506  
               u5080 343C                 u4600 2B98  
               u4520 2974                 u6201 3EE2  
               u6121 3E18                 u6041 3D4C  
               u5401 3754                 u5321 3696  
               u5241 35CE                 u5161 3502  
               u5081 3438                 u4601 2B94  
               u4521 2970                 u6210 3EF8  
               u6130 3E2E                 u6050 3D62  
               u5410 376A                 u5330 36AC  
               u5250 35E4                 u5170 3518  
               u5090 344E                 u4610 2BC4  
               u4530 29A0                 u6211 3EF4  
               u6131 3E2A                 u6051 3D5E  
               u5411 3766                 u5331 36A8  
               u5251 35E0                 u5171 3514  
               u5091 344A                 u4611 2BC0  
               u4531 299C                 u6300 3FE2  
               u6220 3F1A                 u6140 3E4E  
               u6060 3D84                 u5500 3836  
               u5420 377C                 u5340 36CC  
               u5260 3604                 u5180 3538  
               u4700 2E1E                 u4620 2BF2  
               u4540 29CE                 u4460 27B4  
               u6301 3FDE                 u6221 3F16  
               u6141 3E4A                 u6061 3D80  
               u5501 3832                 u5421 3778  
               u5341 36C8                 u5261 3600  
               u5181 3534                 u4701 2E1A  
               u4621 2BEE                 u4541 29CA  
               u4461 27B0                 u6310 3FF4  
               u6230 3F2C                 u6150 3E60  
               u6070 3D96                 u5510 3848  
               u5430 379C                 u5350 36DE  
               u5270 3616                 u5190 354A  
               u4710 2E68                 u4630 2C3C  
               u4550 2A18                 u4470 2806  
               u6311 3FF0                 u6231 3F28  
               u6151 3E5C                 u6071 3D92  
               u5511 3844                 u5431 3798  
               u5351 36DA                 u5271 3612  
               u5191 3546                 u4711 2E64  
               u4631 2C38                 u4551 2A14  
               u4471 2802                 u6240 3F4C  
               u6160 3E80                 u6080 3DB8  
               u5600 3926                 u5520 3868  
               u5440 37AE                 u5360 36F0  
               u5280 3636                 u4800 3102  
               u4720 2ED6                 u4640 2CB2  
               u4560 2A86                 u4480 2852  
               u6241 3F48                 u6161 3E7C  
               u6081 3DB4                 u5601 3922  
               u5521 3864                 u5441 37AA  
               u5361 36EC                 u5281 3632  
               u4801 30FE                 u4721 2ED2  
               u4641 2CAE                 u4561 2A82  
               u4481 284E                 u6250 3F5E  
               u6170 3E92                 u6090 3DCA  
               u5610 3946                 u5530 387A  
               u5450 37C0                 u5370 3712  
               u5290 3648                 u4810 312E  
               u4730 2F02                 u4650 2CDE  
               u4570 2AB2                 u4490 2886  
               u6251 3F5A                 u6171 3E8E  
               u6091 3DC6                 u5611 3942  
               u5531 3876                 u5451 37BC  
               u5371 370E                 u5291 3644  
               u4811 312A                 u4731 2EFE  
               u4651 2CDA                 u4571 2AAE  
               u4491 2882                 _RCIF 007CF5  
               u6260 3F7E                 u6180 3EB2  
               u5700 3A20                 u5620 3958  
               u5540 388C                 u5460 37E0  
               u5380 3724                 u4900 3292  
               u4820 315C                 u4740 2F30  
               u4660 2D0C                 u4580 2AE0  
               u6261 3F7A                 u6181 3EAE  
               u5701 3A1C                 u5621 3954  
               u5541 3888                 u5461 37DC  
               u5381 3720                 u4901 328E  
               u4821 3158                 u4741 2F2C  
               u4661 2D08                 u4581 2ADC  
               u6270 3F90                 u6190 3EC4  
               u5710 3A42                 u5630 3978  
               u5550 38AC                 u5470 37F2  
               u5390 3736                 u4910 32B4  
               u4830 31A6                 u4750 2F7A  
               u4670 2D56                 u4590 2B2A  
               u6271 3F8C                 u6191 3EC0  
               u5711 3A3E                 u5631 3974  
               u5551 38A8                 u5471 37EE  
               u5391 3732                 u4911 32B0  
               u4831 31A2                 u4751 2F76  
               u4671 2D52                 u4591 2B26  
               u6280 3FB0                 u5800 3B1E  
               u5720 3A54                 u5640 398A  
               u5560 38BE                 u5480 3804  
               u4920 32C6                 u4840 3214  
               u4760 2FF0                 u4680 2DC4  
               u6281 3FAC                 u5801 3B1A  
               u5721 3A50                 u5641 3986  
               u5561 38BA                 u5481 3800  
               u4921 32C2                 u4841 3210  
               u4761 2FEC                 u4681 2DC0  
               u6290 3FC2                 u5810 3B3E  
               u5730 3A76                 u5650 39AA  
               u5570 38E0                 u5490 3824  
               u4930 32D8                 u4850 3228  
               u4770 301C                 u4690 2DF0  
               u6291 3FBE                 u5811 3B3A  
               u5731 3A72                 u5651 39A6  
               u5571 38DC                 u5491 3820  
               u4931 32D4                 u4851 3224  
               u4771 3018                 u4691 2DEC  
               u5900 3C0E                 u5820 3B50  
               u5740 3A88                 u5660 39BC  
               u5580 38F2                 u4940 32F8  
               u4860 323A                 u4780 304A  
               u5901 3C0A                 u5821 3B4C  
               u5741 3A84                 u5661 39B8  
               u5581 38EE                 u4941 32F4  
               u4861 3236                 u4781 3046  
               u5910 3C20                 u5830 3B70  
               u5750 3AA8                 u5670 39DC  
               u5590 3914                 u4950 330A  
               u4870 324C                 u4790 3094  
               u5911 3C1C                 u5831 3B6C  
               u5751 3AA4                 u5671 39D8  
               u5591 3910                 u4951 3306  
               u4871 3248                 u4791 3090  
               u5920 3C40                 u5840 3B82  
               u5760 3ABA                 u5680 39EE  
               u4960 331C                 u4880 326E  
               u5921 3C3C                 u5841 3B7E  
               u5761 3AB6                 u5681 39EA  
               u4961 3318                 u4881 326A  
               _OERR 007D59                 u5930 3C52  
               u5850 3B94                 u5770 3ADA  
               u5690 3A0E                 u4970 333C  
               u4890 3280                 u5931 3C4E  
               u5851 3B90                 u5771 3AD6  
               u5691 3A0A                 u4971 3338  
               u4891 327C                 u5940 3C64  
               u5860 3BB6                 u5780 3AEC  
               u4980 334E                 u5941 3C60  
               u5861 3BB2                 u5781 3AE8  
               u4981 334A                 u5950 3C84  
               u5870 3BC8                 u5790 3B0C  
               u4990 3360                 u5951 3C80  
               u5871 3BC4                 u5791 3B08  
               u4991 335C                 u5960 3C96  
               u5880 3BDA                 u5961 3C92  
               u5881 3BD6                 u5970 3CA8  
               u5890 3BFC                 u5971 3CA4  
               u5891 3BF8                 u5980 3CC8  
               u5981 3CC4                 u5990 3CDA  
               u5991 3CD6                 _RX9D 007D58  
               _TX9D 007D60                 _TXIF 007CF4  
               _main 275A                 fsr0l 000FE9  
               start 0000      __end_of_DelayMs 275A  
              ?_main 0100                _ADRES 000FC3  
              _RCREG 000FAE                _RCSTA 000FAB  
              _SPBRG 000FAF                _TRISA 000F92  
              _TRISB 000F93                _TRISC 000F94  
              _RX9_x 007D5E                _TXREG 000FAD  
              _TX9_x 007D66                _TXSTA 000FAC  
              _index 000028                main@i 0107  
              status 000FD8         __end_of_main 285A  
             ??_main 0104        __activetblptr 000000  
             _ADCON0 000FC2               _ADCON1 000FC1  
             _ADCON2 000FC0               _ADRESH 000FC4  
             _ADRESL 000FC3               _BRGH_x 007D62  
             _GODONE 007E11               _CREN_x 007D5C  
             _CSRC_x 007D67            ??_DelayMs 0130  
             _RCIE_x 007CED               _OSCCON 000FD3  
             _SPBRGH 000FB0               _TRISC6 007CA6  
             _TRISC7 007CA7               _SPEN_x 007D5F  
             _SREN_x 007D5D               _TRMT_x 007D61  
             _TXIE_x 007CEC               _TXEN_x 007D65  
             _SYNC_x 007D64               __Ldata 000000  
         _ToggleLeds 3216         __mediumconst 0D00  
         __accesstop 0060           _change_val 00002F  
            _BAUDCON 000FB8          ?_ToggleLeds 012F  
            _SENDB_x 007D63              _DelayMs 2712  
            __Hparam 0133           _cur_inputs 00001A  
            __Lparam 0100              _adc_num 00002E  
            __ramtop 0D00              _uart_in 000032  
      __Lmediumconst 0D00              postdec0 000FED  
            postinc0 000FEE           _testToggle 285A  
        testToggle@i 010A          testToggle@j 011C  
         main@result 0105         DelayMs@_dcnt 0131  
          __Habsbss0 000041            __Labsbss0 000000  
        ?_testToggle 010A         ??_ToggleLeds 012F  
           ?_DelayMs 012F   __end_of_ToggleLeds 4000  
          _led_array 000000          __smallconst 0D00  
           DelayMs@i 0130          _conv_result 00002A  
           __Hparam1 0133             __Lparam1 0100  
       __Lsmallconst 0D00             __config1 00F0FF  
           __config2 00FEFF             __config3 007FFF  
           __config4 00FFFB             __config5 00FFFF  
           __config6 00FFFF             __config7 00FFFF  
           _uart_out 000031             main@argc 0100  
           main@argv 0102         ??_testToggle 010A  
         DelayMs@cnt 012F   __end_of_testToggle 3216  
        _prev_inputs 000033         _USART_Status 000030  
