

HI-TECH Software LITE Macro Assembler (PIC18) V9.66 build 8870 
                                                       Tue May 01 14:03:36 2012

HI-TECH Software Omniscient Code Generator build 8870
     1  000000                     opt subtitle "HI-TECH Software Omniscient Code G
                                 enerator build 8870"
     2                           
     3                           	processor	18F2682
     4  000000                     porta	equ	0F80h
     5  000000                     portb	equ	0F81h
     6  000000                     portc	equ	0F82h
     7  000000                     portd	equ	0F83h
     8  000000                     porte	equ	0F84h
     9  000000                     lata	equ	0F89h
    10  000000                     latb	equ	0F8Ah
    11  000000                     latc	equ	0F8Bh
    12  000000                     latd	equ	0F8Ch
    13  000000                     late	equ	0F8Dh
    14  000000                     trisa	equ	0F92h
    15  000000                     trisb	equ	0F93h
    16  000000                     trisc	equ	0F94h
    17  000000                     trisd	equ	0F95h
    18  000000                     trise	equ	0F96h
    19  000000                     pie1	equ	0F9Dh
    20  000000                     pir1	equ	0F9Eh
    21  000000                     ipr1	equ	0F9Fh
    22  000000                     pie2	equ	0FA0h
    23  000000                     pir2	equ	0FA1h
    24  000000                     ipr2	equ	0FA2h
    25  000000                     t3con	equ	0FB1h
    26  000000                     tmr3l	equ	0FB2h
    27  000000                     tmr3h	equ	0FB3h
    28  000000                     ccp1con	equ	0FBDh
    29  000000                     ccpr1l	equ	0FBEh
    30  000000                     ccpr1h	equ	0FBFh
    31  000000                     adcon1	equ	0FC1h
    32  000000                     adcon0	equ	0FC2h
    33  000000                     adresl	equ	0FC3h
    34  000000                     adresh	equ	0FC4h
    35  000000                     sspcon2	equ	0FC5h
    36  000000                     sspcon1	equ	0FC6h
    37  000000                     sspstat	equ	0FC7h
    38  000000                     sspadd	equ	0FC8h
    39  000000                     sspbuf	equ	0FC9h
    40  000000                     t2con	equ	0FCAh
    41  000000                     pr2	equ	0FCBh
    42  000000                     tmr2	equ	0FCCh
    43  000000                     t1con	equ	0FCDh
    44  000000                     tmr1l	equ	0FCEh
    45  000000                     tmr1h	equ	0FCFh
    46  000000                     rcon	equ	0FD0h
    47  000000                     wdtcon	equ	0FD1h
    48  000000                     lvdcon	equ	0FD2h
    49  000000                     osccon	equ	0FD3h
    50  000000                     t0con	equ	0FD5h
    51  000000                     tmr0l	equ	0FD6h
    52  000000                     tmr0h	equ	0FD7h
    53  000000                     status	equ	0FD8h
    54  000000                     fsr2	equ	0FD9h
    55  000000                     fsr2l	equ	0FD9h
    56  000000                     fsr2h	equ	0FDAh
    57  000000                     plusw2	equ	0FDBh
    58  000000                     preinc2	equ	0FDCh
    59  000000                     postdec2	equ	0FDDh
    60  000000                     postinc2	equ	0FDEh
    61  000000                     indf2	equ	0FDFh
    62  000000                     bsr	equ	0FE0h
    63  000000                     fsr1	equ	0FE1h
    64  000000                     fsr1l	equ	0FE1h
    65  000000                     fsr1h	equ	0FE2h
    66  000000                     plusw1	equ	0FE3h
    67  000000                     preinc1	equ	0FE4h
    68  000000                     postdec1	equ	0FE5h
    69  000000                     postinc1	equ	0FE6h
    70  000000                     indf1	equ	0FE7h
    71  000000                     wreg	equ	0FE8h
    72  000000                     fsr0	equ	0FE9h
    73  000000                     fsr0l	equ	0FE9h
    74  000000                     fsr0h	equ	0FEAh
    75  000000                     plusw0	equ	0FEBh
    76  000000                     preinc0	equ	0FECh
    77  000000                     postdec0	equ	0FEDh
    78  000000                     postinc0	equ	0FEEh
    79  000000                     indf0	equ	0FEFh
    80  000000                     intcon3	equ	0FF0h
    81  000000                     intcon2	equ	0FF1h
    82  000000                     intcon	equ	0FF2h
    83  000000                     prod	equ	0FF3h
    84  000000                     prodl	equ	0FF3h
    85  000000                     prodh	equ	0FF4h
    86  000000                     tablat	equ	0FF5h
    87  000000                     tblptr	equ	0FF6h
    88  000000                     tblptrl	equ	0FF6h
    89  000000                     tblptrh	equ	0FF7h
    90  000000                     tblptru	equ	0FF8h
    91  000000                     pcl	equ	0FF9h
    92  000000                     pclat	equ	0FFAh
    93  000000                     pclath	equ	0FFAh
    94  000000                     pclatu	equ	0FFBh
    95  000000                     stkptr	equ	0FFCh
    96  000000                     tosl	equ	0FFDh
    97  000000                     tosh	equ	0FFEh
    98  000000                     tosu	equ	0FFFh
    99                           	global	__ramtop
   100                           	global	__accesstop
   101                           # 20 "../code/main.c"
   102                           	global __config1 ;#
   103                           # 20 "../code/main.c"
   104  000000                     	__config1 equ 0xF0FF ;#
   105                           # 21 "../code/main.c"
   106                           	global __config2 ;#
   107                           # 21 "../code/main.c"
   108  000000                     	__config2 equ 0xFEFF ;#
   109                           # 22 "../code/main.c"
   110                           	global __config3 ;#
   111                           # 22 "../code/main.c"
   112  000000                     	__config3 equ 0x7FFF ;#
   113                           # 23 "../code/main.c"
   114                           	global __config4 ;#
   115                           # 23 "../code/main.c"
   116  000000                     	__config4 equ 0xFFFB & 0xFFFF ;#
   117                           # 24 "../code/main.c"
   118                           	global __config5 ;#
   119                           # 24 "../code/main.c"
   120  000000                     	__config5 equ 0xFFFF ;#
   121                           # 25 "../code/main.c"
   122                           	global __config6 ;#
   123                           # 25 "../code/main.c"
   124  000000                     	__config6 equ 0xFFFF ;#
   125                           # 26 "../code/main.c"
   126                           	global __config7 ;#
   127                           # 26 "../code/main.c"
   128  000000                     	__config7 equ 0xFFFF ;#
   129                           	GLOBAL	__activetblptr
   130  000000                     __activetblptr	EQU	0
   131                           	GLOBAL	__smallconst,__Lsmallconst
   132  000000                     __smallconst	EQU	__Lsmallconst
   133                           	GLOBAL	__mediumconst,__Lmediumconst
   134  000000                     __mediumconst	EQU	__Lmediumconst
   135                           	GLOBAL	__Ldata
   136  000000                     __Ldata	EQU	0
   137  000000                     main@channel	equ	??_main+0
   138                           	global	main@channel
   139  000000                     main@result	equ	??_main+1
   140                           	global	main@result
   141  000000                     main@argc	equ	?_main+0
   142                           	global	main@argc
   143  000000                     main@argv	equ	?_main+2
   144                           	global	main@argv
   145                           ;Data sizes: Strings 0, constant 0, data 0, bss 
                                 0, persistent 0 stack 8
   146                           	global	_main
   147                           	global	??_main
   148                           	global	?_main
   149                           
   150                           ; *************** function _main ***************
                                 **
   151                           ; Defined at:
   152                           ;		line 163 in file "../code/main.c"
   153                           ; Parameters:
   154                           ;		argc           size:   2offs:   0	type: int 
   155                           ;		argv           size:   2offs:   2	type: PTR P
                                 TR unsigned char 
   156                           ; Auto variables:
   157                           ;		channel     	       	type: unsigned char 
   158                           ;		result      	       	type: int 
   159                           ; Return value:
   160                           ;		type: int 
   161                           ;		size: 2
   162                           ; Registers used:
   163                           ;		wreg, fsr0l, fsr0h, status,2, status,0, cstac
                                 k
   164                           ; Tracked objects:
   165                           ;		On entry : 0/0
   166                           ;		On exit  : 0/0
   167                           ;		Unchanged: 0/0
   168                           ; Data sizes:
   169                           ;		Autos:    3
   170                           ;		Params:   4
   171                           ;		Temp:     1
   172                           ;		Total:    8
   173                           ; This function calls:
   174                           ;		_ToggleLeds
   175                           ; This function is called by:
   176                           ;		Startup code after reset
   177                           ; This function uses a non-reentrant model
   178                           ; 
   179                                   psect   text0,class=CODE,space=0,reloc=2
   180                           
   181                           	opt lm
   182                           	file	"../code/main.c"
   183                           	line	163
   184  000000                     	__size_of_main	equ	__end_of_main-_main
   185                                   psect   text0
   186                           ;main.c: 20: asm("\tglobal __config" "1"); asm("
                                 \t__config" "1" " equ " "0xF0FF");
   187                           ;main.c: 21: asm("\tglobal __config" "2"); asm("
                                 \t__config" "2" " equ " "0xFEFF");
   188                           ;main.c: 22: asm("\tglobal __config" "3"); asm("
                                 \t__config" "3" " equ " "0x7FFF");
   189                           ;main.c: 23: asm("\tglobal __config" "4"); asm("
                                 \t__config" "4" " equ " "0xFFFB & 0xFFFF");
   190                           ;main.c: 24: asm("\tglobal __config" "5"); asm("
                                 \t__config" "5" " equ " "0xFFFF");
   191                           ;main.c: 25: asm("\tglobal __config" "6"); asm("
                                 \t__config" "6" " equ " "0xFFFF");
   192                           ;main.c: 26: asm("\tglobal __config" "7"); asm("
                                 \t__config" "7" " equ " "0xFFFF");
   193                           	
   194  01312C                     _main:		; BSR set to: ?
   195                           
   196                           	opt stack 31
   197                           	line	166
   198                           ;main.c: 166: OSCCON |= 0b01110010;
   199  01312C  0E72               	movlw	(072h)&0ffh
   200  01312E  12D3               	iorwf	((c:4051)),c	;volatile
   201                           	line	169
   202                           ;main.c: 169: ADCON0 = 0b00000000;
   203  013130  0E00               	movlw	low(0)
   204  013132  6EC2               	movwf	((c:4034)),c	;volatile
   205                           	line	170
   206                           ;main.c: 170: ADCON1 = 0b00000101;
   207  013134  0E05               	movlw	low(05h)
   208  013136  6EC1               	movwf	((c:4033)),c	;volatile
   209                           	line	171
   210                           ;main.c: 171: ADCON2 = 0b10000000;
   211  013138  0E80               	movlw	low(080h)
   212  01313A  6EC0               	movwf	((c:4032)),c	;volatile
   213                           	line	172
   214                           ;main.c: 172: ADCON2 = 0b10100000;
   215  01313C  0EA0               	movlw	low(0A0h)
   216  01313E  6EC0               	movwf	((c:4032)),c	;volatile
   217                           	line	173
   218                           ;main.c: 173: adc_num = 0;
   219  013140  0E00               	movlw	low(0)
   220  013142  6E2E               	movwf	((c:46)),c	;volatile
   221                           	line	176
   222                           ;main.c: 176: TRISA = 0b10101111;
   223  013144  0EAF               	movlw	low(0AFh)
   224  013146  6E92               	movwf	((c:3986)),c	;volatile
   225                           	line	177
   226                           ;main.c: 177: TRISB = 0b00010010;
   227  013148  0E12               	movlw	low(012h)
   228  01314A  6E93               	movwf	((c:3987)),c	;volatile
   229                           	line	178
   230                           ;main.c: 178: TRISC = 0b10000000;
   231  01314C  0E80               	movlw	low(080h)
   232  01314E  6E94               	movwf	((c:3988)),c	;volatile
   233                           	line	200
   234                           ;main.c: 200: SPBRGH = (((8000000L/19200UL)/16) 
                                 - 1) >> 8;
   235  013150  0E00               	movlw	low(0)
   236  013152  6EB0               	movwf	((c:4016)),c	;volatile
   237                           	line	201
   238                           ;main.c: 201: SPBRG = (((8000000L/19200UL)/16) -
                                  1);
   239  013154  0E19               	movlw	low(019h)
   240  013156  6EAF               	movwf	((c:4015)),c	;volatile
   241                           	line	202
   242                           ;main.c: 202: BAUDCON = 0b00001000;
   243  013158  0E08               	movlw	low(08h)
   244  01315A  6EB8               	movwf	((c:4024)),c	;volatile
   245                           	line	203
   246                           ;main.c: 203: RCSTA = 0b10010000;
   247  01315C  0E90               	movlw	low(090h)
   248  01315E  6EAB               	movwf	((c:4011)),c	;volatile
   249                           	line	204
   250                           ;main.c: 204: TXSTA = 0b00100000;
   251  013160  0E20               	movlw	low(020h)
   252  013162  6EAC               	movwf	((c:4012)),c	;volatile
   253                           	line	206
   254                           ;main.c: 206: LATB = 0b00000000;
   255  013164  0E00               	movlw	low(0)
   256  013166  6E8A               	movwf	((c:3978)),c	;volatile
   257                           	line	264
   258                           ;main.c: 264: while (0) {
   259  013168  EFD3  F098         	goto	l870
   260                           	line	269
   261                           	
   262  01316C                     l872:		; BSR set to: ?
   263                           
   264                           	line	271
   265                           ;main.c: 271: continue;
   266  01316C  EFB8  F098         	goto	l871
   267                           	line	272
   268                           	
   269  013170                     l871:		; BSR set to: ?
   270                           
   271                           	line	269
   272  013170  502F               	movf	((c:47)),c,w
   273  013172  B4D8               	btfsc	status,2
   274  013174  EFBE  F098         	goto	u5171
   275  013178  EFC0  F098         	goto	u5170
   276  01317C                     u5171:
   277  01317C  EFB6  F098         	goto	l872
   278  013180                     u5170:
   279                           	
   280  013180                     l873:		; BSR set to: ?
   281                           
   282                           	line	273
   283                           ;main.c: 272: }
   284                           ;main.c: 273: int result = cur_inputs[index];
   285  013180  90D8               	bcf	status,0
   286  013182  3428               	rlcf	((c:40)),c,w
   287  013184  0101               	movlb	1	; () banked
   288  013186  6F07               	movwf	(??_main+3+0)&0ffh
   289  013188  0E1A               	movlw	low((c:26))
   290  01318A  0101               	movlb	1	; () banked
   291  01318C  2507               	addwf	(??_main+3+0)&0ffh,w
   292  01318E  6EE9               	movwf	c:fsr0l
   293  013190  6AEA               	clrf	1+c:fsr0l
   294  013192  0E00               	movlw	high((c:26))
   295  013194  22EA               	addwfc	1+c:fsr0l
   296  013196  0101               	movlb	1	; () banked
   297  013198  CFEE F105          	movff	postinc0,(main@result)
   298  01319C  0101               	movlb	1	; () banked
   299  01319E  CFED F106          	movff	postdec0,(main@result+1)
   300                           	line	274
   301                           ;main.c: 274: char channel = index;
   302  0131A2  C028 F104          	movff	(c:40),(main@channel)
   303                           	line	277
   304                           	
   305  0131A6                     l868:		; BSR set to: ?
   306                           
   307                           	line	264
   308                           	
   309  0131A6                     l870:		; BSR set to: ?
   310                           
   311                           	line	279
   312                           ;main.c: 277: }
   313                           ;main.c: 279: ToggleLeds();
   314  0131A6  ECD7  F098         	call	_ToggleLeds	;wreg free
   315                           	line	302
   316                           ;main.c: 302: }
   317  0131AA                     l867:
   318                           			; BSR set to: ?
   319                           
   320                           	global	start
   321  0131AA  EF00  F000         	goto	start
   322                           	opt stack 0
   323                           GLOBAL __end_of_main
   324  0131AE                     	__end_of_main:
   325                           	FNSIZE	_main,4,4
   326                           ; =============== function _main ends ==========
                                 ==
   327                           
   328                           	signat	_main,8314
   329                           	global	_ToggleLeds
   330                           	global	??_ToggleLeds
   331                           	global	?_ToggleLeds
   332                           
   333                           ; *************** function _ToggleLeds *********
                                 ********
   334                           ; Defined at:
   335                           ;		line 312 in file "../code/main.c"
   336                           ; Parameters:
   337                           ;		None
   338                           ; Auto variables:
   339                           ;		None
   340                           ; Return value:
   341                           ;		type: void 
   342                           ;		size: 0
   343                           ; Registers used:
   344                           ;		wreg, status,2, status,0
   345                           ; Tracked objects:
   346                           ;		On entry : 0/0
   347                           ;		On exit  : 0/0
   348                           ;		Unchanged: 0/0
   349                           ; Data sizes:
   350                           ;		Autos:    0
   351                           ;		Params:   0
   352                           ;		Temp:     0
   353                           ;		Total:    0
   354                           ; This function calls:
   355                           ;		Nothing
   356                           ; This function is called by:
   357                           ;		_main
   358                           ; This function uses a non-reentrant model
   359                           ; 
   360                                   psect   text1,class=CODE,space=0,reloc=2
   361                           
   362                           	opt lm
   363                           	file	"../code/main.c"
   364                           	line	312
   365  000000                     	__size_of_ToggleLeds	equ	__end_of_ToggleLeds-_T
                                 oggleLeds
   366                           ;main.c: 312: void ToggleLeds () {
   367                           	
   368  0131AE                     _ToggleLeds:		; BSR set to: ?
   369                           
   370                           	opt stack 30
   371                           	line	317
   372  0131AE  0E01               	movlw	low(01h)
   373  0131B0  6E08               	movwf	(0+((c:0)+08h)),c
   374  0131B2  0E00               	movlw	high(01h)
   375  0131B4  6E09               	movwf	(1+((c:0)+08h)),c
   376                           	line	318
   377                           ;main.c: 318: led_array[5] = 0;
   378  0131B6  0E00               	movlw	low(0)
   379  0131B8  6E0A               	movwf	(0+((c:0)+0Ah)),c
   380  0131BA  0E00               	movlw	high(0)
   381  0131BC  6E0B               	movwf	(1+((c:0)+0Ah)),c
   382                           	line	319
   383                           ;main.c: 319: led_array[7] = 1;
   384  0131BE  0E01               	movlw	low(01h)
   385  0131C0  6E0E               	movwf	(0+((c:0)+0Eh)),c
   386  0131C2  0E00               	movlw	high(01h)
   387  0131C4  6E0F               	movwf	(1+((c:0)+0Eh)),c
   388                           	line	320
   389                           ;main.c: 320: if (led_array[4] == 1 && led_array
                                 [5] == 1 && led_array[6] == 1) {
   390  0131C6  0408               	decf	(0+((c:0)+08h)),c,w
   391  0131C8  1009               	iorwf (1+((c:0)+08h)),c,w
   392                           
   393  0131CA  A4D8               	btfss	status,2
   394  0131CC  EFEA  F098         	goto	u3701
   395  0131D0  EFEC  F098         	goto	u3700
   396  0131D4                     u3701:
   397  0131D4  EF06  F099         	goto	l875
   398  0131D8                     u3700:
   399  0131D8  040A               	decf	(0+((c:0)+0Ah)),c,w
   400  0131DA  100B               	iorwf (1+((c:0)+0Ah)),c,w
   401                           
   402  0131DC  A4D8               	btfss	status,2
   403  0131DE  EFF3  F098         	goto	u3711
   404  0131E2  EFF5  F098         	goto	u3710
   405  0131E6                     u3711:
   406+ 0131E6  EF06  F099         	goto	l875
   407+ 0131EA                     u3710:
   408  0131EA  040C               	decf	(0+((c:0)+0Ch)),c,w
   409  0131EC  100D               	iorwf (1+((c:0)+0Ch)),c,w
   410                           
   411  0131EE  A4D8               	btfss	status,2
   412  0131F0  EFFC  F098         	goto	u3721
   413  0131F4  EFFE  F098         	goto	u3720
   414  0131F8                     u3721:
   415  0131F8  EF06  F099         	goto	l875
   416  0131FC                     u3720:
   417                           	line	324
   418                           ;main.c: 324: LATA = 0b11101111;
   419  0131FC  0EEF               	movlw	low(0EFh)
   420  0131FE  6E89               	movwf	((c:3977)),c	;volatile
   421                           	line	326
   422                           ;main.c: 326: LATB = 0b1110000;
   423  013200  0E70               	movlw	low(070h)
   424  013202  6E8A               	movwf	((c:3978)),c	;volatile
   425                           	line	328
   426                           ;main.c: 328: LATC = 0b00000111;
   427  013204  0E07               	movlw	low(07h)
   428  013206  6E8B               	movwf	((c:3979)),c	;volatile
   429                           	line	329
   430                           ;main.c: 329: } else if (led_array[4] == 1 && le
                                 d_array[5] == 1 && led_array[7] == 1) {
   431  013208  EFFF  F09F         	goto	l876
   432                           	
   433  01320C                     l875:		; BSR set to: ?
   434                           
   435  01320C  0408               	decf	(0+((c:0)+08h)),c,w
   436  01320E  1009               	iorwf (1+((c:0)+08h)),c,w
   437                           
   438  013210  A4D8               	btfss	status,2
   439  013212  EF0D  F099         	goto	u3731
   440  013216  EF0F  F099         	goto	u3730
   441  01321A                     u3731:
   442  01321A  EF29  F099         	goto	l877
   443  01321E                     u3730:
   444  01321E  040A               	decf	(0+((c:0)+0Ah)),c,w
   445  013220  100B               	iorwf (1+((c:0)+0Ah)),c,w
   446                           
   447  013222  A4D8               	btfss	status,2
   448  013224  EF16  F099         	goto	u3741
   449  013228  EF18  F099         	goto	u3740
   450  01322C                     u3741:
   451  01322C  EF29  F099         	goto	l877
   452  013230                     u3740:
   453  013230  040E               	decf	(0+((c:0)+0Eh)),c,w
   454  013232  100F               	iorwf (1+((c:0)+0Eh)),c,w
   455                           
   456  013234  A4D8               	btfss	status,2
   457  013236  EF1F  F099         	goto	u3751
   458  01323A  EF21  F099         	goto	u3750
   459  01323E                     u3751:
   460  01323E  EF29  F099         	goto	l877
   461  013242                     u3750:
   462                           	line	332
   463                           ;main.c: 332: LATA = 0b10111111;
   464  013242  0EBF               	movlw	low(0BFh)
   465  013244  6E89               	movwf	((c:3977)),c	;volatile
   466                           	line	334
   467                           ;main.c: 334: LATB = 0b11100000;
   468  013246  0EE0               	movlw	low(0E0h)
   469  013248  6E8A               	movwf	((c:3978)),c	;volatile
   470                           	line	336
   471                           ;main.c: 336: LATC = 0b00001111;
   472  01324A  0E0F               	movlw	low(0Fh)
   473  01324C  6E8B               	movwf	((c:3979)),c	;volatile
   474                           	line	337
   475                           ;main.c: 337: } else if (led_array[4] == 1 && le
                                 d_array[5] == 1 && led_array[8] == 1) {
   476  01324E  EFFF  F09F         	goto	l876
   477                           	
   478  013252                     l877:		; BSR set to: ?
   479                           
   480  013252  0408               	decf	(0+((c:0)+08h)),c,w
   481  013254  1009               	iorwf (1+((c:0)+08h)),c,w
   482                           
   483  013256  A4D8               	btfss	status,2
   484  013258  EF30  F099         	goto	u3761
   485  01325C  EF32  F099         	goto	u3760
   486  013260                     u3761:
   487  013260  EF4B  F099         	goto	l879
   488  013264                     u3760:
   489  013264  040A               	decf	(0+((c:0)+0Ah)),c,w
   490  013266  100B               	iorwf (1+((c:0)+0Ah)),c,w
   491                           
   492  013268  A4D8               	btfss	status,2
   493  01326A  EF39  F099         	goto	u3771
   494  01326E  EF3B  F099         	goto	u3770
   495  013272                     u3771:
   496  013272  EF4B  F099         	goto	l879
   497  013276                     u3770:
   498  013276  0410               	decf	(0+((c:0)+010h)),c,w
   499  013278  1011               	iorwf (1+((c:0)+010h)),c,w
   500                           
   501  01327A  A4D8               	btfss	status,2
   502  01327C  EF42  F099         	goto	u3781
   503  013280  EF44  F099         	goto	u3780
   504  013284                     u3781:
   505  013284  EF4B  F099         	goto	l879
   506  013288                     u3780:
   507                           	line	340
   508                           ;main.c: 340: LATA = 0b11111111;
   509  013288  6889               	setf	((c:3977)),c	;volatile
   510                           	line	342
   511                           ;main.c: 342: LATB = 0b11100000;
   512  01328A  0EE0               	movlw	low(0E0h)
   513  01328C  6E8A               	movwf	((c:3978)),c	;volatile
   514                           	line	344
   515                           ;main.c: 344: LATC = 0b00001110;
   516  01328E  0E0E               	movlw	low(0Eh)
   517  013290  6E8B               	movwf	((c:3979)),c	;volatile
   518                           	line	345
   519                           ;main.c: 345: } else if (led_array[4] == 1 && le
                                 d_array[5] == 1 && led_array[9] == 1) {
   520  013292  EFFF  F09F         	goto	l876
   521                           	
   522  013296                     l879:		; BSR set to: ?
   523                           
   524  013296  0408               	decf	(0+((c:0)+08h)),c,w
   525  013298  1009               	iorwf (1+((c:0)+08h)),c,w
   526                           
   527  01329A  A4D8               	btfss	status,2
   528  01329C  EF52  F099         	goto	u3791
   529  0132A0  EF54  F099         	goto	u3790
   530  0132A4                     u3791:
   531  0132A4  EF6D  F099         	goto	l881
   532  0132A8                     u3790:
   533  0132A8  040A               	decf	(0+((c:0)+0Ah)),c,w
   534  0132AA  100B               	iorwf (1+((c:0)+0Ah)),c,w
   535                           
   536  0132AC  A4D8               	btfss	status,2
   537  0132AE  EF5B  F099         	goto	u3801
   538  0132B2  EF5D  F099         	goto	u3800
   539  0132B6                     u3801:
   540  0132B6  EF6D  F099         	goto	l881
   541  0132BA                     u3800:
   542  0132BA  0412               	decf	(0+((c:0)+012h)),c,w
   543  0132BC  1013               	iorwf (1+((c:0)+012h)),c,w
   544                           
   545  0132BE  A4D8               	btfss	status,2
   546  0132C0  EF64  F099         	goto	u3811
   547  0132C4  EF66  F099         	goto	u3810
   548  0132C8                     u3811:
   549  0132C8  EF6D  F099         	goto	l881
   550  0132CC                     u3810:
   551                           	line	348
   552                           ;main.c: 348: LATA = 0b11111111;
   553  0132CC  6889               	setf	((c:3977)),c	;volatile
   554                           	line	350
   555                           ;main.c: 350: LATB = 0b11100000;
   556  0132CE  0EE0               	movlw	low(0E0h)
   557  0132D0  6E8A               	movwf	((c:3978)),c	;volatile
   558                           	line	352
   559                           ;main.c: 352: LATC = 0b00001101;
   560  0132D2  0E0D               	movlw	low(0Dh)
   561  0132D4  6E8B               	movwf	((c:3979)),c	;volatile
   562                           	line	353
   563                           ;main.c: 353: } else if (led_array[4] == 1 && le
                                 d_array[5] == 1 && led_array[10] == 1) {
   564  0132D6  EFFF  F09F         	goto	l876
   565                           	
   566  0132DA                     l881:		; BSR set to: ?
   567                           
   568  0132DA  0408               	decf	(0+((c:0)+08h)),c,w
   569  0132DC  1009               	iorwf (1+((c:0)+08h)),c,w
   570                           
   571  0132DE  A4D8               	btfss	status,2
   572  0132E0  EF74  F099         	goto	u3821
   573  0132E4  EF76  F099         	goto	u3820
   574  0132E8                     u3821:
   575  0132E8  EF8F  F099         	goto	l883
   576  0132EC                     u3820:
   577  0132EC  040A               	decf	(0+((c:0)+0Ah)),c,w
   578  0132EE  100B               	iorwf (1+((c:0)+0Ah)),c,w
   579                           
   580  0132F0  A4D8               	btfss	status,2
   581  0132F2  EF7D  F099         	goto	u3831
   582  0132F6  EF7F  F099         	goto	u3830
   583  0132FA                     u3831:
   584  0132FA  EF8F  F099         	goto	l883
   585  0132FE                     u3830:
   586  0132FE  0414               	decf	(0+((c:0)+014h)),c,w
   587  013300  1015               	iorwf (1+((c:0)+014h)),c,w
   588                           
   589  013302  A4D8               	btfss	status,2
   590  013304  EF86  F099         	goto	u3841
   591  013308  EF88  F099         	goto	u3840
   592  01330C                     u3841:
   593  01330C  EF8F  F099         	goto	l883
   594  013310                     u3840:
   595                           	line	356
   596                           ;main.c: 356: LATA = 0b11111111;
   597  013310  6889               	setf	((c:3977)),c	;volatile
   598                           	line	358
   599                           ;main.c: 358: LATB = 0b01100000;
   600  013312  0E60               	movlw	low(060h)
   601  013314  6E8A               	movwf	((c:3978)),c	;volatile
   602                           	line	360
   603                           ;main.c: 360: LATC = 0b00001111;
   604  013316  0E0F               	movlw	low(0Fh)
   605  013318  6E8B               	movwf	((c:3979)),c	;volatile
   606                           	line	361
   607                           ;main.c: 361: } else if (led_array[4] == 1 && le
                                 d_array[5] == 1 && led_array[11] == 1) {
   608  01331A  EFFF  F09F         	goto	l876
   609                           	
   610  01331E                     l883:		; BSR set to: ?
   611                           
   612  01331E  0408               	decf	(0+((c:0)+08h)),c,w
   613  013320  1009               	iorwf (1+((c:0)+08h)),c,w
   614                           
   615  013322  A4D8               	btfss	status,2
   616  013324  EF96  F099         	goto	u3851
   617  013328  EF98  F099         	goto	u3850
   618  01332C                     u3851:
   619  01332C  EFB1  F099         	goto	l885
   620  013330                     u3850:
   621  013330  040A               	decf	(0+((c:0)+0Ah)),c,w
   622  013332  100B               	iorwf (1+((c:0)+0Ah)),c,w
   623                           
   624  013334  A4D8               	btfss	status,2
   625  013336  EF9F  F099         	goto	u3861
   626  01333A  EFA1  F099         	goto	u3860
   627  01333E                     u3861:
   628  01333E  EFB1  F099         	goto	l885
   629  013342                     u3860:
   630  013342  0416               	decf	(0+((c:0)+016h)),c,w
   631  013344  1017               	iorwf (1+((c:0)+016h)),c,w
   632                           
   633  013346  A4D8               	btfss	status,2
   634  013348  EFA8  F099         	goto	u3871
   635  01334C  EFAA  F099         	goto	u3870
   636  013350                     u3871:
   637  013350  EFB1  F099         	goto	l885
   638  013354                     u3870:
   639                           	line	364
   640                           ;main.c: 364: LATA = 0b11111111;
   641  013354  6889               	setf	((c:3977)),c	;volatile
   642                           	line	366
   643                           ;main.c: 366: LATB = 0b11100000;
   644  013356  0EE0               	movlw	low(0E0h)
   645  013358  6E8A               	movwf	((c:3978)),c	;volatile
   646                           	line	368
   647                           ;main.c: 368: LATC = 0b00001011;
   648  01335A  0E0B               	movlw	low(0Bh)
   649  01335C  6E8B               	movwf	((c:3979)),c	;volatile
   650                           	line	369
   651                           ;main.c: 369: } else if (led_array[4] == 1 && le
                                 d_array[5] == 1 && led_array[12] == 1) {
   652  01335E  EFFF  F09F         	goto	l876
   653                           	
   654  013362                     l885:		; BSR set to: ?
   655                           
   656  013362  0408               	decf	(0+((c:0)+08h)),c,w
   657  013364  1009               	iorwf (1+((c:0)+08h)),c,w
   658                           
   659  013366  A4D8               	btfss	status,2
   660  013368  EFB8  F099         	goto	u3881
   661  01336C  EFBA  F099         	goto	u3880
   662  013370                     u3881:
   663  013370  EFD3  F099         	goto	l887
   664  013374                     u3880:
   665  013374  040A               	decf	(0+((c:0)+0Ah)),c,w
   666  013376  100B               	iorwf (1+((c:0)+0Ah)),c,w
   667                           
   668  013378  A4D8               	btfss	status,2
   669  01337A  EFC1  F099         	goto	u3891
   670  01337E  EFC3  F099         	goto	u3890
   671  013382                     u3891:
   672  013382  EFD3  F099         	goto	l887
   673  013386                     u3890:
   674  013386  0418               	decf	(0+((c:0)+018h)),c,w
   675  013388  1019               	iorwf (1+((c:0)+018h)),c,w
   676                           
   677  01338A  A4D8               	btfss	status,2
   678  01338C  EFCA  F099         	goto	u3901
   679  013390  EFCC  F099         	goto	u3900
   680  013394                     u3901:
   681  013394  EFD3  F099         	goto	l887
   682  013398                     u3900:
   683                           	line	372
   684                           ;main.c: 372: LATA = 0b11111111;
   685  013398  6889               	setf	((c:3977)),c	;volatile
   686                           	line	374
   687                           ;main.c: 374: LATB = 0b11100000;
   688  01339A  0EE0               	movlw	low(0E0h)
   689  01339C  6E8A               	movwf	((c:3978)),c	;volatile
   690                           	line	376
   691                           ;main.c: 376: LATC = 0b00000111;
   692  01339E  0E07               	movlw	low(07h)
   693  0133A0  6E8B               	movwf	((c:3979)),c	;volatile
   694                           	line	378
   695                           ;main.c: 378: } else if (led_array[4] == 1 && le
                                 d_array[6] == 1) {
   696  0133A2  EFFF  F09F         	goto	l876
   697                           	
   698  0133A6                     l887:		; BSR set to: ?
   699                           
   700  0133A6  0408               	decf	(0+((c:0)+08h)),c,w
   701  0133A8  1009               	iorwf (1+((c:0)+08h)),c,w
   702                           
   703  0133AA  A4D8               	btfss	status,2
   704  0133AC  EFDA  F099         	goto	u3911
   705  0133B0  EFDC  F099         	goto	u3910
   706  0133B4                     u3911:
   707  0133B4  EFED  F099         	goto	l889
   708  0133B8                     u3910:
   709  0133B8  040C               	decf	(0+((c:0)+0Ch)),c,w
   710  0133BA  100D               	iorwf (1+((c:0)+0Ch)),c,w
   711                           
   712  0133BC  A4D8               	btfss	status,2
   713  0133BE  EFE3  F099         	goto	u3921
   714  0133C2  EFE5  F099         	goto	u3920
   715  0133C6                     u3921:
   716  0133C6  EFED  F099         	goto	l889
   717  0133CA                     u3920:
   718                           	line	381
   719                           ;main.c: 381: LATA = 0b10111111;
   720  0133CA  0EBF               	movlw	low(0BFh)
   721  0133CC  6E89               	movwf	((c:3977)),c	;volatile
   722                           	line	383
   723                           ;main.c: 383: LATB = 0b1100000;
   724  0133CE  0E60               	movlw	low(060h)
   725  0133D0  6E8A               	movwf	((c:3978)),c	;volatile
   726                           	line	385
   727                           ;main.c: 385: LATC = 0b00000111;
   728  0133D2  0E07               	movlw	low(07h)
   729  0133D4  6E8B               	movwf	((c:3979)),c	;volatile
   730                           	line	386
   731                           ;main.c: 386: } else if (led_array[4] == 1 && le
                                 d_array[7] == 1) {
   732  0133D6  EFFF  F09F         	goto	l876
   733                           	
   734  0133DA                     l889:		; BSR set to: ?
   735                           
   736  0133DA  0408               	decf	(0+((c:0)+08h)),c,w
   737  0133DC  1009               	iorwf (1+((c:0)+08h)),c,w
   738                           
   739  0133DE  A4D8               	btfss	status,2
   740  0133E0  EFF4  F099         	goto	u3931
   741  0133E4  EFF6  F099         	goto	u3930
   742  0133E8                     u3931:
   743  0133E8  EF07  F09A         	goto	l891
   744  0133EC                     u3930:
   745  0133EC  040E               	decf	(0+((c:0)+0Eh)),c,w
   746  0133EE  100F               	iorwf (1+((c:0)+0Eh)),c,w
   747                           
   748  0133F0  A4D8               	btfss	status,2
   749  0133F2  EFFD  F099         	goto	u3941
   750  0133F6  EFFF  F099         	goto	u3940
   751  0133FA                     u3941:
   752  0133FA  EF07  F09A         	goto	l891
   753  0133FE                     u3940:
   754                           	line	389
   755                           ;main.c: 389: LATA = 0b10111111;
   756  0133FE  0EBF               	movlw	low(0BFh)
   757  013400  6E89               	movwf	((c:3977)),c	;volatile
   758                           	line	391
   759                           ;main.c: 391: LATB = 0b1100000;
   760  013402  0E60               	movlw	low(060h)
   761  013404  6E8A               	movwf	((c:3978)),c	;volatile
   762                           	line	393
   763                           ;main.c: 393: LATC = 0b00000111;
   764  013406  0E07               	movlw	low(07h)
   765  013408  6E8B               	movwf	((c:3979)),c	;volatile
   766                           	line	394
   767                           ;main.c: 394: } else if (led_array[4] == 1 && le
                                 d_array[8] == 1) {
   768  01340A  EFFF  F09F         	goto	l876
   769                           	
   770  01340E                     l891:		; BSR set to: ?
   771                           
   772  01340E  0408               	decf	(0+((c:0)+08h)),c,w
   773  013410  1009               	iorwf (1+((c:0)+08h)),c,w
   774                           
   775  013412  A4D8               	btfss	status,2
   776  013414  EF0E  F09A         	goto	u3951
   777  013418  EF10  F09A         	goto	u3950
   778  01341C                     u3951:
   779  01341C  EF21  F09A         	goto	l893
   780  013420                     u3950:
   781  013420  0410               	decf	(0+((c:0)+010h)),c,w
   782  013422  1011               	iorwf (1+((c:0)+010h)),c,w
   783                           
   784  013424  A4D8               	btfss	status,2
   785  013426  EF17  F09A         	goto	u3961
   786  01342A  EF19  F09A         	goto	u3960
   787  01342E                     u3961:
   788  01342E  EF21  F09A         	goto	l893
   789  013432                     u3960:
   790                           	line	397
   791                           ;main.c: 397: LATA = 0b11101111;
   792  013432  0EEF               	movlw	low(0EFh)
   793  013434  6E89               	movwf	((c:3977)),c	;volatile
   794                           	line	399
   795                           ;main.c: 399: LATB = 0b10000100;
   796  013436  0E84               	movlw	low(084h)
   797  013438  6E8A               	movwf	((c:3978)),c	;volatile
   798                           	line	401
   799                           ;main.c: 401: LATC = 0b00001111;
   800  01343A  0E0F               	movlw	low(0Fh)
   801  01343C  6E8B               	movwf	((c:3979)),c	;volatile
   802                           	line	403
   803                           ;main.c: 403: } else if (led_array[4] == 1 && le
                                 d_array[9] == 1) {
   804  01343E  EFFF  F09F         	goto	l876
   805                           	
   806  013442                     l893:		; BSR set to: ?
   807                           
   808  013442  0408               	decf	(0+((c:0)+08h)),c,w
   809  013444  1009               	iorwf (1+((c:0)+08h)),c,w
   810                           
   811  013446  A4D8               	btfss	status,2
   812  013448  EF28  F09A         	goto	u3971
   813  01344C  EF2A  F09A         	goto	u3970
   814  013450                     u3971:
   815  013450  EF3B  F09A         	goto	l895
   816  013454                     u3970:
   817  013454  0412               	decf	(0+((c:0)+012h)),c,w
   818  013456  1013               	iorwf (1+((c:0)+012h)),c,w
   819                           
   820  013458  A4D8               	btfss	status,2
   821  01345A  EF31  F09A         	goto	u3981
   822  01345E  EF33  F09A         	goto	u3980
   823  013462                     u3981:
   824  013462  EF3B  F09A         	goto	l895
   825  013466                     u3980:
   826                           	line	406
   827                           ;main.c: 406: LATA = 0b11101111;
   828  013466  0EEF               	movlw	low(0EFh)
   829  013468  6E89               	movwf	((c:3977)),c	;volatile
   830                           	line	408
   831                           ;main.c: 408: LATB = 0b10000100;
   832  01346A  0E84               	movlw	low(084h)
   833  01346C  6E8A               	movwf	((c:3978)),c	;volatile
   834                           	line	410
   835                           ;main.c: 410: LATC = 0b00001111;
   836  01346E  0E0F               	movlw	low(0Fh)
   837  013470  6E8B               	movwf	((c:3979)),c	;volatile
   838                           	line	412
   839                           ;main.c: 412: } else if (led_array[4] == 1 && le
                                 d_array[10] == 1) {
   840  013472  EFFF  F09F         	goto	l876
   841                           	
   842  013476                     l895:		; BSR set to: ?
   843                           
   844  013476  0408               	decf	(0+((c:0)+08h)),c,w
   845  013478  1009               	iorwf (1+((c:0)+08h)),c,w
   846                           
   847  01347A  A4D8               	btfss	status,2
   848  01347C  EF42  F09A         	goto	u3991
   849  013480  EF44  F09A         	goto	u3990
   850  013484                     u3991:
   851  013484  EF55  F09A         	goto	l897
   852  013488                     u3990:
   853  013488  0414               	decf	(0+((c:0)+014h)),c,w
   854  01348A  1015               	iorwf (1+((c:0)+014h)),c,w
   855                           
   856  01348C  A4D8               	btfss	status,2
   857  01348E  EF4B  F09A         	goto	u4001
   858  013492  EF4D  F09A         	goto	u4000
   859  013496                     u4001:
   860  013496  EF55  F09A         	goto	l897
   861  01349A                     u4000:
   862                           	line	415
   863                           ;main.c: 415: LATA = 0b11101111;
   864  01349A  0EEF               	movlw	low(0EFh)
   865  01349C  6E89               	movwf	((c:3977)),c	;volatile
   866                           	line	417
   867                           ;main.c: 417: LATB = 0b10000100;
   868  01349E  0E84               	movlw	low(084h)
   869  0134A0  6E8A               	movwf	((c:3978)),c	;volatile
   870                           	line	419
   871                           ;main.c: 419: LATC = 0b00001111;
   872  0134A2  0E0F               	movlw	low(0Fh)
   873  0134A4  6E8B               	movwf	((c:3979)),c	;volatile
   874                           	line	421
   875                           ;main.c: 421: } else if (led_array[4] == 1 && le
                                 d_array[11] == 1) {
   876  0134A6  EFFF  F09F         	goto	l876
   877                           	
   878  0134AA                     l897:		; BSR set to: ?
   879                           
   880  0134AA  0408               	decf	(0+((c:0)+08h)),c,w
   881  0134AC  1009               	iorwf (1+((c:0)+08h)),c,w
   882                           
   883  0134AE  A4D8               	btfss	status,2
   884  0134B0  EF5C  F09A         	goto	u4011
   885  0134B4  EF5E  F09A         	goto	u4010
   886  0134B8                     u4011:
   887  0134B8  EF6F  F09A         	goto	l899
   888  0134BC                     u4010:
   889+ 0134BC  0416               	decf	(0+((c:0)+016h)),c,w
   890+ 0134BE  1017               	iorwf (1+((c:0)+016h)),c,w
   891                           
   892  0134C0  A4D8               	btfss	status,2
   893  0134C2  EF65  F09A         	goto	u4021
   894  0134C6  EF67  F09A         	goto	u4020
   895  0134CA                     u4021:
   896  0134CA  EF6F  F09A         	goto	l899
   897  0134CE                     u4020:
   898                           	line	424
   899                           ;main.c: 424: LATA = 0b11101111;
   900  0134CE  0EEF               	movlw	low(0EFh)
   901  0134D0  6E89               	movwf	((c:3977)),c	;volatile
   902                           	line	426
   903                           ;main.c: 426: LATB = 0b10000100;
   904  0134D2  0E84               	movlw	low(084h)
   905  0134D4  6E8A               	movwf	((c:3978)),c	;volatile
   906                           	line	428
   907                           ;main.c: 428: LATC = 0b00001111;
   908  0134D6  0E0F               	movlw	low(0Fh)
   909  0134D8  6E8B               	movwf	((c:3979)),c	;volatile
   910                           	line	430
   911                           ;main.c: 430: } else if (led_array[4] == 1 && le
                                 d_array[12] == 1) {
   912  0134DA  EFFF  F09F         	goto	l876
   913                           	
   914  0134DE                     l899:		; BSR set to: ?
   915                           
   916  0134DE  0408               	decf	(0+((c:0)+08h)),c,w
   917  0134E0  1009               	iorwf (1+((c:0)+08h)),c,w
   918                           
   919  0134E2  A4D8               	btfss	status,2
   920  0134E4  EF76  F09A         	goto	u4031
   921  0134E8  EF78  F09A         	goto	u4030
   922  0134EC                     u4031:
   923  0134EC  EF89  F09A         	goto	l901
   924  0134F0                     u4030:
   925  0134F0  0418               	decf	(0+((c:0)+018h)),c,w
   926  0134F2  1019               	iorwf (1+((c:0)+018h)),c,w
   927                           
   928  0134F4  A4D8               	btfss	status,2
   929  0134F6  EF7F  F09A         	goto	u4041
   930  0134FA  EF81  F09A         	goto	u4040
   931  0134FE                     u4041:
   932  0134FE  EF89  F09A         	goto	l901
   933  013502                     u4040:
   934                           	line	433
   935                           ;main.c: 433: LATA = 0b11101111;
   936  013502  0EEF               	movlw	low(0EFh)
   937  013504  6E89               	movwf	((c:3977)),c	;volatile
   938                           	line	435
   939                           ;main.c: 435: LATB = 0b10000100;
   940  013506  0E84               	movlw	low(084h)
   941  013508  6E8A               	movwf	((c:3978)),c	;volatile
   942                           	line	437
   943                           ;main.c: 437: LATC = 0b00001111;
   944  01350A  0E0F               	movlw	low(0Fh)
   945  01350C  6E8B               	movwf	((c:3979)),c	;volatile
   946                           	line	439
   947                           ;main.c: 439: } else if (led_array[5] == 1 && le
                                 d_array[6] == 1) {
   948  01350E  EFFF  F09F         	goto	l876
   949                           	
   950  013512                     l901:		; BSR set to: ?
   951                           
   952  013512  040A               	decf	(0+((c:0)+0Ah)),c,w
   953  013514  100B               	iorwf (1+((c:0)+0Ah)),c,w
   954                           
   955  013516  A4D8               	btfss	status,2
   956  013518  EF90  F09A         	goto	u4051
   957  01351C  EF92  F09A         	goto	u4050
   958  013520                     u4051:
   959  013520  EFA3  F09A         	goto	l903
   960  013524                     u4050:
   961  013524  040C               	decf	(0+((c:0)+0Ch)),c,w
   962  013526  100D               	iorwf (1+((c:0)+0Ch)),c,w
   963                           
   964  013528  A4D8               	btfss	status,2
   965  01352A  EF99  F09A         	goto	u4061
   966  01352E  EF9B  F09A         	goto	u4060
   967  013532                     u4061:
   968  013532  EFA3  F09A         	goto	l903
   969  013536                     u4060:
   970                           	line	442
   971                           ;main.c: 442: LATA = 0b11101111;
   972  013536  0EEF               	movlw	low(0EFh)
   973  013538  6E89               	movwf	((c:3977)),c	;volatile
   974                           	line	444
   975                           ;main.c: 444: LATB = 0b10000100;
   976  01353A  0E84               	movlw	low(084h)
   977  01353C  6E8A               	movwf	((c:3978)),c	;volatile
   978                           	line	446
   979                           ;main.c: 446: LATC = 0b00001111;
   980  01353E  0E0F               	movlw	low(0Fh)
   981  013540  6E8B               	movwf	((c:3979)),c	;volatile
   982                           	line	448
   983                           ;main.c: 448: } else if (led_array[5] == 1 && le
                                 d_array[7] == 1) {
   984  013542  EFFF  F09F         	goto	l876
   985                           	
   986  013546                     l903:		; BSR set to: ?
   987                           
   988  013546  040A               	decf	(0+((c:0)+0Ah)),c,w
   989  013548  100B               	iorwf (1+((c:0)+0Ah)),c,w
   990                           
   991  01354A  A4D8               	btfss	status,2
   992  01354C  EFAA  F09A         	goto	u4071
   993  013550  EFAC  F09A         	goto	u4070
   994  013554                     u4071:
   995  013554  EFBD  F09A         	goto	l905
   996  013558                     u4070:
   997  013558  040E               	decf	(0+((c:0)+0Eh)),c,w
   998  01355A  100F               	iorwf (1+((c:0)+0Eh)),c,w
   999                           
  1000  01355C  A4D8               	btfss	status,2
  1001  01355E  EFB3  F09A         	goto	u4081
  1002  013562  EFB5  F09A         	goto	u4080
  1003  013566                     u4081:
  1004  013566  EFBD  F09A         	goto	l905
  1005  01356A                     u4080:
  1006                           	line	451
  1007                           ;main.c: 451: LATA = 0b11101111;
  1008  01356A  0EEF               	movlw	low(0EFh)
  1009  01356C  6E89               	movwf	((c:3977)),c	;volatile
  1010                           	line	453
  1011                           ;main.c: 453: LATB = 0b10000100;
  1012  01356E  0E84               	movlw	low(084h)
  1013  013570  6E8A               	movwf	((c:3978)),c	;volatile
  1014                           	line	455
  1015                           ;main.c: 455: LATC = 0b00001111;
  1016  013572  0E0F               	movlw	low(0Fh)
  1017  013574  6E8B               	movwf	((c:3979)),c	;volatile
  1018                           	line	457
  1019                           ;main.c: 457: } else if (led_array[5] == 1 && le
                                 d_array[8] == 1) {
  1020  013576  EFFF  F09F         	goto	l876
  1021                           	
  1022  01357A                     l905:		; BSR set to: ?
  1023                           
  1024  01357A  040A               	decf	(0+((c:0)+0Ah)),c,w
  1025  01357C  100B               	iorwf (1+((c:0)+0Ah)),c,w
  1026                           
  1027  01357E  A4D8               	btfss	status,2
  1028  013580  EFC4  F09A         	goto	u4091
  1029  013584  EFC6  F09A         	goto	u4090
  1030  013588                     u4091:
  1031  013588  EFD7  F09A         	goto	l907
  1032  01358C                     u4090:
  1033  01358C  0410               	decf	(0+((c:0)+010h)),c,w
  1034  01358E  1011               	iorwf (1+((c:0)+010h)),c,w
  1035                           
  1036  013590  A4D8               	btfss	status,2
  1037  013592  EFCD  F09A         	goto	u4101
  1038  013596  EFCF  F09A         	goto	u4100
  1039  01359A                     u4101:
  1040  01359A  EFD7  F09A         	goto	l907
  1041  01359E                     u4100:
  1042                           	line	460
  1043                           ;main.c: 460: LATA = 0b11101111;
  1044  01359E  0EEF               	movlw	low(0EFh)
  1045  0135A0  6E89               	movwf	((c:3977)),c	;volatile
  1046                           	line	462
  1047                           ;main.c: 462: LATB = 0b10000100;
  1048  0135A2  0E84               	movlw	low(084h)
  1049  0135A4  6E8A               	movwf	((c:3978)),c	;volatile
  1050                           	line	464
  1051                           ;main.c: 464: LATC = 0b00001111;
  1052  0135A6  0E0F               	movlw	low(0Fh)
  1053  0135A8  6E8B               	movwf	((c:3979)),c	;volatile
  1054                           	line	466
  1055                           ;main.c: 466: } else if (led_array[5] == 1 && le
                                 d_array[9] == 1) {
  1056  0135AA  EFFF  F09F         	goto	l876
  1057                           	
  1058  0135AE                     l907:		; BSR set to: ?
  1059                           
  1060  0135AE  040A               	decf	(0+((c:0)+0Ah)),c,w
  1061  0135B0  100B               	iorwf (1+((c:0)+0Ah)),c,w
  1062                           
  1063  0135B2  A4D8               	btfss	status,2
  1064  0135B4  EFDE  F09A         	goto	u4111
  1065  0135B8  EFE0  F09A         	goto	u4110
  1066  0135BC                     u4111:
  1067  0135BC  EFF1  F09A         	goto	l909
  1068  0135C0                     u4110:
  1069  0135C0  0412               	decf	(0+((c:0)+012h)),c,w
  1070  0135C2  1013               	iorwf (1+((c:0)+012h)),c,w
  1071                           
  1072  0135C4  A4D8               	btfss	status,2
  1073  0135C6  EFE7  F09A         	goto	u4121
  1074  0135CA  EFE9  F09A         	goto	u4120
  1075  0135CE                     u4121:
  1076  0135CE  EFF1  F09A         	goto	l909
  1077  0135D2                     u4120:
  1078                           	line	469
  1079                           ;main.c: 469: LATA = 0b11101111;
  1080  0135D2  0EEF               	movlw	low(0EFh)
  1081  0135D4  6E89               	movwf	((c:3977)),c	;volatile
  1082                           	line	471
  1083                           ;main.c: 471: LATB = 0b10000100;
  1084  0135D6  0E84               	movlw	low(084h)
  1085  0135D8  6E8A               	movwf	((c:3978)),c	;volatile
  1086                           	line	473
  1087                           ;main.c: 473: LATC = 0b00001111;
  1088  0135DA  0E0F               	movlw	low(0Fh)
  1089  0135DC  6E8B               	movwf	((c:3979)),c	;volatile
  1090                           	line	475
  1091                           ;main.c: 475: } else if (led_array[5] == 1 && le
                                 d_array[10] == 1) {
  1092  0135DE  EFFF  F09F         	goto	l876
  1093                           	
  1094  0135E2                     l909:		; BSR set to: ?
  1095                           
  1096  0135E2  040A               	decf	(0+((c:0)+0Ah)),c,w
  1097  0135E4  100B               	iorwf (1+((c:0)+0Ah)),c,w
  1098                           
  1099  0135E6  A4D8               	btfss	status,2
  1100  0135E8  EFF8  F09A         	goto	u4131
  1101  0135EC  EFFA  F09A         	goto	u4130
  1102  0135F0                     u4131:
  1103  0135F0  EF0B  F09B         	goto	l911
  1104  0135F4                     u4130:
  1105  0135F4  0414               	decf	(0+((c:0)+014h)),c,w
  1106  0135F6  1015               	iorwf (1+((c:0)+014h)),c,w
  1107                           
  1108  0135F8  A4D8               	btfss	status,2
  1109  0135FA  EF01  F09B         	goto	u4141
  1110  0135FE  EF03  F09B         	goto	u4140
  1111  013602                     u4141:
  1112  013602  EF0B  F09B         	goto	l911
  1113  013606                     u4140:
  1114                           	line	478
  1115                           ;main.c: 478: LATA = 0b11101111;
  1116  013606  0EEF               	movlw	low(0EFh)
  1117  013608  6E89               	movwf	((c:3977)),c	;volatile
  1118                           	line	480
  1119                           ;main.c: 480: LATB = 0b10000100;
  1120  01360A  0E84               	movlw	low(084h)
  1121  01360C  6E8A               	movwf	((c:3978)),c	;volatile
  1122                           	line	482
  1123                           ;main.c: 482: LATC = 0b00001111;
  1124  01360E  0E0F               	movlw	low(0Fh)
  1125  013610  6E8B               	movwf	((c:3979)),c	;volatile
  1126                           	line	484
  1127                           ;main.c: 484: } else if (led_array[5] == 1 && le
                                 d_array[11] == 1) {
  1128  013612  EFFF  F09F         	goto	l876
  1129                           	
  1130  013616                     l911:		; BSR set to: ?
  1131                           
  1132  013616  040A               	decf	(0+((c:0)+0Ah)),c,w
  1133  013618  100B               	iorwf (1+((c:0)+0Ah)),c,w
  1134                           
  1135  01361A  A4D8               	btfss	status,2
  1136  01361C  EF12  F09B         	goto	u4151
  1137  013620  EF14  F09B         	goto	u4150
  1138  013624                     u4151:
  1139  013624  EF25  F09B         	goto	l913
  1140  013628                     u4150:
  1141  013628  0416               	decf	(0+((c:0)+016h)),c,w
  1142  01362A  1017               	iorwf (1+((c:0)+016h)),c,w
  1143                           
  1144  01362C  A4D8               	btfss	status,2
  1145  01362E  EF1B  F09B         	goto	u4161
  1146  013632  EF1D  F09B         	goto	u4160
  1147  013636                     u4161:
  1148  013636  EF25  F09B         	goto	l913
  1149  01363A                     u4160:
  1150                           	line	487
  1151                           ;main.c: 487: LATA = 0b11101111;
  1152  01363A  0EEF               	movlw	low(0EFh)
  1153  01363C  6E89               	movwf	((c:3977)),c	;volatile
  1154                           	line	489
  1155                           ;main.c: 489: LATB = 0b10000100;
  1156  01363E  0E84               	movlw	low(084h)
  1157  013640  6E8A               	movwf	((c:3978)),c	;volatile
  1158                           	line	491
  1159                           ;main.c: 491: LATC = 0b00001111;
  1160  013642  0E0F               	movlw	low(0Fh)
  1161  013644  6E8B               	movwf	((c:3979)),c	;volatile
  1162                           	line	493
  1163                           ;main.c: 493: } else if (led_array[5] == 1 && le
                                 d_array[12] == 1) {
  1164  013646  EFFF  F09F         	goto	l876
  1165                           	
  1166  01364A                     l913:		; BSR set to: ?
  1167                           
  1168  01364A  040A               	decf	(0+((c:0)+0Ah)),c,w
  1169  01364C  100B               	iorwf (1+((c:0)+0Ah)),c,w
  1170                           
  1171  01364E  A4D8               	btfss	status,2
  1172  013650  EF2C  F09B         	goto	u4171
  1173  013654  EF2E  F09B         	goto	u4170
  1174  013658                     u4171:
  1175  013658  EF3F  F09B         	goto	l915
  1176  01365C                     u4170:
  1177  01365C  0418               	decf	(0+((c:0)+018h)),c,w
  1178  01365E  1019               	iorwf (1+((c:0)+018h)),c,w
  1179                           
  1180  013660  A4D8               	btfss	status,2
  1181  013662  EF35  F09B         	goto	u4181
  1182  013666  EF37  F09B         	goto	u4180
  1183  01366A                     u4181:
  1184  01366A  EF3F  F09B         	goto	l915
  1185  01366E                     u4180:
  1186                           	line	496
  1187                           ;main.c: 496: LATA = 0b11101111;
  1188  01366E  0EEF               	movlw	low(0EFh)
  1189  013670  6E89               	movwf	((c:3977)),c	;volatile
  1190                           	line	498
  1191                           ;main.c: 498: LATB = 0b10000100;
  1192  013672  0E84               	movlw	low(084h)
  1193  013674  6E8A               	movwf	((c:3978)),c	;volatile
  1194                           	line	500
  1195                           ;main.c: 500: LATC = 0b00001111;
  1196  013676  0E0F               	movlw	low(0Fh)
  1197  013678  6E8B               	movwf	((c:3979)),c	;volatile
  1198                           	line	501
  1199                           ;main.c: 501: }
  1200  01367A  EFFF  F09F         	goto	l876
  1201                           	line	504
  1202                           	
  1203  01367E                     l915:		; BSR set to: ?
  1204                           
  1205                           ;main.c: 504: else if (led_array[2] == 1 && led_
                                 array[3] == 1 && led_array[6] == 1) {
  1206  01367E  0404               	decf	(0+((c:0)+04h)),c,w
  1207  013680  1005               	iorwf (1+((c:0)+04h)),c,w
  1208                           
  1209  013682  A4D8               	btfss	status,2
  1210  013684  EF46  F09B         	goto	u4191
  1211  013688  EF48  F09B         	goto	u4190
  1212  01368C                     u4191:
  1213  01368C  EF62  F09B         	goto	l917
  1214  013690                     u4190:
  1215  013690  0406               	decf	(0+((c:0)+06h)),c,w
  1216  013692  1007               	iorwf (1+((c:0)+06h)),c,w
  1217                           
  1218  013694  A4D8               	btfss	status,2
  1219  013696  EF4F  F09B         	goto	u4201
  1220  01369A  EF51  F09B         	goto	u4200
  1221  01369E                     u4201:
  1222  01369E  EF62  F09B         	goto	l917
  1223  0136A2                     u4200:
  1224  0136A2  040C               	decf	(0+((c:0)+0Ch)),c,w
  1225  0136A4  100D               	iorwf (1+((c:0)+0Ch)),c,w
  1226                           
  1227  0136A6  A4D8               	btfss	status,2
  1228  0136A8  EF58  F09B         	goto	u4211
  1229  0136AC  EF5A  F09B         	goto	u4210
  1230  0136B0                     u4211:
  1231  0136B0  EF62  F09B         	goto	l917
  1232  0136B4                     u4210:
  1233                           	line	507
  1234                           ;main.c: 507: LATA = 0b11101111;
  1235  0136B4  0EEF               	movlw	low(0EFh)
  1236  0136B6  6E89               	movwf	((c:3977)),c	;volatile
  1237                           	line	509
  1238                           ;main.c: 509: LATB = 0b10000100;
  1239  0136B8  0E84               	movlw	low(084h)
  1240  0136BA  6E8A               	movwf	((c:3978)),c	;volatile
  1241                           	line	511
  1242                           ;main.c: 511: LATC = 0b00001111;
  1243  0136BC  0E0F               	movlw	low(0Fh)
  1244  0136BE  6E8B               	movwf	((c:3979)),c	;volatile
  1245                           	line	513
  1246                           ;main.c: 513: } else if (led_array[2] == 1 && le
                                 d_array[3] == 1 && led_array[7] == 1) {
  1247  0136C0  EFFF  F09F         	goto	l876
  1248                           	
  1249  0136C4                     l917:		; BSR set to: ?
  1250                           
  1251  0136C4  0404               	decf	(0+((c:0)+04h)),c,w
  1252  0136C6  1005               	iorwf (1+((c:0)+04h)),c,w
  1253                           
  1254  0136C8  A4D8               	btfss	status,2
  1255  0136CA  EF69  F09B         	goto	u4221
  1256  0136CE  EF6B  F09B         	goto	u4220
  1257  0136D2                     u4221:
  1258  0136D2  EF85  F09B         	goto	l919
  1259  0136D6                     u4220:
  1260  0136D6  0406               	decf	(0+((c:0)+06h)),c,w
  1261  0136D8  1007               	iorwf (1+((c:0)+06h)),c,w
  1262                           
  1263  0136DA  A4D8               	btfss	status,2
  1264  0136DC  EF72  F09B         	goto	u4231
  1265  0136E0  EF74  F09B         	goto	u4230
  1266  0136E4                     u4231:
  1267  0136E4  EF85  F09B         	goto	l919
  1268  0136E8                     u4230:
  1269  0136E8  040E               	decf	(0+((c:0)+0Eh)),c,w
  1270  0136EA  100F               	iorwf (1+((c:0)+0Eh)),c,w
  1271                           
  1272  0136EC  A4D8               	btfss	status,2
  1273  0136EE  EF7B  F09B         	goto	u4241
  1274  0136F2  EF7D  F09B         	goto	u4240
  1275  0136F6                     u4241:
  1276  0136F6  EF85  F09B         	goto	l919
  1277  0136FA                     u4240:
  1278                           	line	516
  1279                           ;main.c: 516: LATA = 0b11101111;
  1280  0136FA  0EEF               	movlw	low(0EFh)
  1281  0136FC  6E89               	movwf	((c:3977)),c	;volatile
  1282                           	line	518
  1283                           ;main.c: 518: LATB = 0b10000100;
  1284  0136FE  0E84               	movlw	low(084h)
  1285  013700  6E8A               	movwf	((c:3978)),c	;volatile
  1286                           	line	520
  1287                           ;main.c: 520: LATC = 0b00001111;
  1288  013702  0E0F               	movlw	low(0Fh)
  1289  013704  6E8B               	movwf	((c:3979)),c	;volatile
  1290                           	line	522
  1291                           ;main.c: 522: } else if (led_array[2] == 1 && le
                                 d_array[3] == 1 && led_array[8] == 1) {
  1292  013706  EFFF  F09F         	goto	l876
  1293                           	
  1294  01370A                     l919:		; BSR set to: ?
  1295                           
  1296  01370A  0404               	decf	(0+((c:0)+04h)),c,w
  1297  01370C  1005               	iorwf (1+((c:0)+04h)),c,w
  1298                           
  1299  01370E  A4D8               	btfss	status,2
  1300  013710  EF8C  F09B         	goto	u4251
  1301  013714  EF8E  F09B         	goto	u4250
  1302  013718                     u4251:
  1303  013718  EFA8  F09B         	goto	l921
  1304  01371C                     u4250:
  1305  01371C  0406               	decf	(0+((c:0)+06h)),c,w
  1306  01371E  1007               	iorwf (1+((c:0)+06h)),c,w
  1307                           
  1308  013720  A4D8               	btfss	status,2
  1309  013722  EF95  F09B         	goto	u4261
  1310  013726  EF97  F09B         	goto	u4260
  1311  01372A                     u4261:
  1312  01372A  EFA8  F09B         	goto	l921
  1313  01372E                     u4260:
  1314  01372E  0410               	decf	(0+((c:0)+010h)),c,w
  1315  013730  1011               	iorwf (1+((c:0)+010h)),c,w
  1316                           
  1317  013732  A4D8               	btfss	status,2
  1318  013734  EF9E  F09B         	goto	u4271
  1319  013738  EFA0  F09B         	goto	u4270
  1320  01373C                     u4271:
  1321  01373C  EFA8  F09B         	goto	l921
  1322  013740                     u4270:
  1323                           	line	525
  1324                           ;main.c: 525: LATA = 0b11101111;
  1325  013740  0EEF               	movlw	low(0EFh)
  1326  013742  6E89               	movwf	((c:3977)),c	;volatile
  1327                           	line	527
  1328                           ;main.c: 527: LATB = 0b10000100;
  1329  013744  0E84               	movlw	low(084h)
  1330  013746  6E8A               	movwf	((c:3978)),c	;volatile
  1331                           	line	529
  1332                           ;main.c: 529: LATC = 0b00001111;
  1333  013748  0E0F               	movlw	low(0Fh)
  1334  01374A  6E8B               	movwf	((c:3979)),c	;volatile
  1335                           	line	531
  1336                           ;main.c: 531: } else if (led_array[2] == 1 && le
                                 d_array[3] == 1 && led_array[9] == 1) {
  1337  01374C  EFFF  F09F         	goto	l876
  1338                           	
  1339  013750                     l921:		; BSR set to: ?
  1340                           
  1341  013750  0404               	decf	(0+((c:0)+04h)),c,w
  1342  013752  1005               	iorwf (1+((c:0)+04h)),c,w
  1343                           
  1344  013754  A4D8               	btfss	status,2
  1345  013756  EFAF  F09B         	goto	u4281
  1346  01375A  EFB1  F09B         	goto	u4280
  1347  01375E                     u4281:
  1348  01375E  EFCB  F09B         	goto	l923
  1349  013762                     u4280:
  1350  013762  0406               	decf	(0+((c:0)+06h)),c,w
  1351  013764  1007               	iorwf (1+((c:0)+06h)),c,w
  1352                           
  1353  013766  A4D8               	btfss	status,2
  1354  013768  EFB8  F09B         	goto	u4291
  1355  01376C  EFBA  F09B         	goto	u4290
  1356  013770                     u4291:
  1357  013770  EFCB  F09B         	goto	l923
  1358  013774                     u4290:
  1359  013774  0412               	decf	(0+((c:0)+012h)),c,w
  1360  013776  1013               	iorwf (1+((c:0)+012h)),c,w
  1361                           
  1362  013778  A4D8               	btfss	status,2
  1363  01377A  EFC1  F09B         	goto	u4301
  1364  01377E  EFC3  F09B         	goto	u4300
  1365  013782                     u4301:
  1366  013782  EFCB  F09B         	goto	l923
  1367  013786                     u4300:
  1368                           	line	534
  1369                           ;main.c: 534: LATA = 0b11101111;
  1370  013786  0EEF               	movlw	low(0EFh)
  1371  013788  6E89               	movwf	((c:3977)),c	;volatile
  1372                           	line	536
  1373                           ;main.c: 536: LATB = 0b10000100;
  1374  01378A  0E84               	movlw	low(084h)
  1375  01378C  6E8A               	movwf	((c:3978)),c	;volatile
  1376                           	line	538
  1377                           ;main.c: 538: LATC = 0b00001111;
  1378  01378E  0E0F               	movlw	low(0Fh)
  1379  013790  6E8B               	movwf	((c:3979)),c	;volatile
  1380                           	line	539
  1381                           ;main.c: 539: } else if (led_array[2] == 1 && le
                                 d_array[3] == 1 && led_array[10] == 1) {
  1382  013792  EFFF  F09F         	goto	l876
  1383                           	
  1384  013796                     l923:		; BSR set to: ?
  1385                           
  1386  013796  0404               	decf	(0+((c:0)+04h)),c,w
  1387  013798  1005               	iorwf (1+((c:0)+04h)),c,w
  1388                           
  1389  01379A  A4D8               	btfss	status,2
  1390  01379C  EFD2  F09B         	goto	u4311
  1391  0137A0  EFD4  F09B         	goto	u4310
  1392  0137A4                     u4311:
  1393  0137A4  EFEE  F09B         	goto	l925
  1394  0137A8                     u4310:
  1395  0137A8  0406               	decf	(0+((c:0)+06h)),c,w
  1396  0137AA  1007               	iorwf (1+((c:0)+06h)),c,w
  1397                           
  1398  0137AC  A4D8               	btfss	status,2
  1399  0137AE  EFDB  F09B         	goto	u4321
  1400  0137B2  EFDD  F09B         	goto	u4320
  1401  0137B6                     u4321:
  1402  0137B6  EFEE  F09B         	goto	l925
  1403  0137BA                     u4320:
  1404  0137BA  0414               	decf	(0+((c:0)+014h)),c,w
  1405  0137BC  1015               	iorwf (1+((c:0)+014h)),c,w
  1406                           
  1407  0137BE  A4D8               	btfss	status,2
  1408  0137C0  EFE4  F09B         	goto	u4331
  1409  0137C4  EFE6  F09B         	goto	u4330
  1410  0137C8                     u4331:
  1411  0137C8  EFEE  F09B         	goto	l925
  1412  0137CC                     u4330:
  1413                           	line	542
  1414                           ;main.c: 542: LATA = 0b11101111;
  1415  0137CC  0EEF               	movlw	low(0EFh)
  1416  0137CE  6E89               	movwf	((c:3977)),c	;volatile
  1417                           	line	544
  1418                           ;main.c: 544: LATB = 0b10000100;
  1419  0137D0  0E84               	movlw	low(084h)
  1420  0137D2  6E8A               	movwf	((c:3978)),c	;volatile
  1421                           	line	546
  1422                           ;main.c: 546: LATC = 0b00001111;
  1423  0137D4  0E0F               	movlw	low(0Fh)
  1424  0137D6  6E8B               	movwf	((c:3979)),c	;volatile
  1425                           	line	547
  1426                           ;main.c: 547: } else if (led_array[2] == 1 && le
                                 d_array[3] == 1 && led_array[11] == 1) {
  1427  0137D8  EFFF  F09F         	goto	l876
  1428                           	
  1429  0137DC                     l925:		; BSR set to: ?
  1430                           
  1431  0137DC  0404               	decf	(0+((c:0)+04h)),c,w
  1432  0137DE  1005               	iorwf (1+((c:0)+04h)),c,w
  1433                           
  1434  0137E0  A4D8               	btfss	status,2
  1435  0137E2  EFF5  F09B         	goto	u4341
  1436  0137E6  EFF7  F09B         	goto	u4340
  1437  0137EA                     u4341:
  1438  0137EA  EF11  F09C         	goto	l927
  1439  0137EE                     u4340:
  1440  0137EE  0406               	decf	(0+((c:0)+06h)),c,w
  1441  0137F0  1007               	iorwf (1+((c:0)+06h)),c,w
  1442                           
  1443  0137F2  A4D8               	btfss	status,2
  1444  0137F4  EFFE  F09B         	goto	u4351
  1445  0137F8  EF00  F09C         	goto	u4350
  1446  0137FC                     u4351:
  1447  0137FC  EF11  F09C         	goto	l927
  1448  013800                     u4350:
  1449  013800  0416               	decf	(0+((c:0)+016h)),c,w
  1450  013802  1017               	iorwf (1+((c:0)+016h)),c,w
  1451                           
  1452  013804  A4D8               	btfss	status,2
  1453  013806  EF07  F09C         	goto	u4361
  1454  01380A  EF09  F09C         	goto	u4360
  1455  01380E                     u4361:
  1456  01380E  EF11  F09C         	goto	l927
  1457  013812                     u4360:
  1458                           	line	550
  1459                           ;main.c: 550: LATA = 0b11101111;
  1460  013812  0EEF               	movlw	low(0EFh)
  1461  013814  6E89               	movwf	((c:3977)),c	;volatile
  1462                           	line	552
  1463                           ;main.c: 552: LATB = 0b10000100;
  1464  013816  0E84               	movlw	low(084h)
  1465  013818  6E8A               	movwf	((c:3978)),c	;volatile
  1466                           	line	554
  1467                           ;main.c: 554: LATC = 0b00001111;
  1468  01381A  0E0F               	movlw	low(0Fh)
  1469  01381C  6E8B               	movwf	((c:3979)),c	;volatile
  1470                           	line	555
  1471                           ;main.c: 555: } else if (led_array[2] == 1 && le
                                 d_array[3] == 1 && led_array[12] == 1) {
  1472  01381E  EFFF  F09F         	goto	l876
  1473                           	
  1474  013822                     l927:		; BSR set to: ?
  1475                           
  1476  013822  0404               	decf	(0+((c:0)+04h)),c,w
  1477  013824  1005               	iorwf (1+((c:0)+04h)),c,w
  1478                           
  1479  013826  A4D8               	btfss	status,2
  1480  013828  EF18  F09C         	goto	u4371
  1481  01382C  EF1A  F09C         	goto	u4370
  1482  013830                     u4371:
  1483  013830  EF34  F09C         	goto	l929
  1484  013834                     u4370:
  1485  013834  0406               	decf	(0+((c:0)+06h)),c,w
  1486  013836  1007               	iorwf (1+((c:0)+06h)),c,w
  1487                           
  1488  013838  A4D8               	btfss	status,2
  1489  01383A  EF21  F09C         	goto	u4381
  1490  01383E  EF23  F09C         	goto	u4380
  1491  013842                     u4381:
  1492  013842  EF34  F09C         	goto	l929
  1493  013846                     u4380:
  1494  013846  0418               	decf	(0+((c:0)+018h)),c,w
  1495  013848  1019               	iorwf (1+((c:0)+018h)),c,w
  1496                           
  1497  01384A  A4D8               	btfss	status,2
  1498  01384C  EF2A  F09C         	goto	u4391
  1499  013850  EF2C  F09C         	goto	u4390
  1500  013854                     u4391:
  1501  013854  EF34  F09C         	goto	l929
  1502  013858                     u4390:
  1503                           	line	558
  1504                           ;main.c: 558: LATA = 0b11101111;
  1505  013858  0EEF               	movlw	low(0EFh)
  1506  01385A  6E89               	movwf	((c:3977)),c	;volatile
  1507                           	line	560
  1508                           ;main.c: 560: LATB = 0b10000100;
  1509  01385C  0E84               	movlw	low(084h)
  1510  01385E  6E8A               	movwf	((c:3978)),c	;volatile
  1511                           	line	562
  1512                           ;main.c: 562: LATC = 0b00001111;
  1513  013860  0E0F               	movlw	low(0Fh)
  1514  013862  6E8B               	movwf	((c:3979)),c	;volatile
  1515                           	line	563
  1516                           ;main.c: 563: } else if (led_array[2] == 1 && le
                                 d_array[6] == 1) {
  1517  013864  EFFF  F09F         	goto	l876
  1518                           	
  1519  013868                     l929:		; BSR set to: ?
  1520                           
  1521  013868  0404               	decf	(0+((c:0)+04h)),c,w
  1522  01386A  1005               	iorwf (1+((c:0)+04h)),c,w
  1523                           
  1524  01386C  A4D8               	btfss	status,2
  1525  01386E  EF3B  F09C         	goto	u4401
  1526  013872  EF3D  F09C         	goto	u4400
  1527  013876                     u4401:
  1528  013876  EF4E  F09C         	goto	l931
  1529  01387A                     u4400:
  1530  01387A  040C               	decf	(0+((c:0)+0Ch)),c,w
  1531  01387C  100D               	iorwf (1+((c:0)+0Ch)),c,w
  1532                           
  1533  01387E  A4D8               	btfss	status,2
  1534  013880  EF44  F09C         	goto	u4411
  1535  013884  EF46  F09C         	goto	u4410
  1536  013888                     u4411:
  1537  013888  EF4E  F09C         	goto	l931
  1538  01388C                     u4410:
  1539                           	line	566
  1540                           ;main.c: 566: LATA = 0b11101111;
  1541  01388C  0EEF               	movlw	low(0EFh)
  1542  01388E  6E89               	movwf	((c:3977)),c	;volatile
  1543                           	line	568
  1544                           ;main.c: 568: LATB = 0b10000100;
  1545  013890  0E84               	movlw	low(084h)
  1546  013892  6E8A               	movwf	((c:3978)),c	;volatile
  1547                           	line	570
  1548                           ;main.c: 570: LATC = 0b00001111;
  1549  013894  0E0F               	movlw	low(0Fh)
  1550  013896  6E8B               	movwf	((c:3979)),c	;volatile
  1551                           	line	572
  1552                           ;main.c: 572: } else if (led_array[2] == 1 && le
                                 d_array[7] == 1) {
  1553  013898  EFFF  F09F         	goto	l876
  1554                           	
  1555  01389C                     l931:		; BSR set to: ?
  1556                           
  1557  01389C  0404               	decf	(0+((c:0)+04h)),c,w
  1558  01389E  1005               	iorwf (1+((c:0)+04h)),c,w
  1559                           
  1560  0138A0  A4D8               	btfss	status,2
  1561  0138A2  EF55  F09C         	goto	u4421
  1562  0138A6  EF57  F09C         	goto	u4420
  1563  0138AA                     u4421:
  1564  0138AA  EF68  F09C         	goto	l933
  1565  0138AE                     u4420:
  1566  0138AE  040E               	decf	(0+((c:0)+0Eh)),c,w
  1567  0138B0  100F               	iorwf (1+((c:0)+0Eh)),c,w
  1568                           
  1569  0138B2  A4D8               	btfss	status,2
  1570  0138B4  EF5E  F09C         	goto	u4431
  1571  0138B8  EF60  F09C         	goto	u4430
  1572  0138BC                     u4431:
  1573  0138BC  EF68  F09C         	goto	l933
  1574  0138C0                     u4430:
  1575                           	line	575
  1576                           ;main.c: 575: LATA = 0b11101111;
  1577  0138C0  0EEF               	movlw	low(0EFh)
  1578  0138C2  6E89               	movwf	((c:3977)),c	;volatile
  1579                           	line	577
  1580                           ;main.c: 577: LATB = 0b10000100;
  1581  0138C4  0E84               	movlw	low(084h)
  1582  0138C6  6E8A               	movwf	((c:3978)),c	;volatile
  1583                           	line	579
  1584                           ;main.c: 579: LATC = 0b00001111;
  1585  0138C8  0E0F               	movlw	low(0Fh)
  1586  0138CA  6E8B               	movwf	((c:3979)),c	;volatile
  1587                           	line	581
  1588                           ;main.c: 581: } else if (led_array[2] == 1 && le
                                 d_array[8] == 1) {
  1589  0138CC  EFFF  F09F         	goto	l876
  1590                           	
  1591  0138D0                     l933:		; BSR set to: ?
  1592                           
  1593  0138D0  0404               	decf	(0+((c:0)+04h)),c,w
  1594  0138D2  1005               	iorwf (1+((c:0)+04h)),c,w
  1595                           
  1596  0138D4  A4D8               	btfss	status,2
  1597  0138D6  EF6F  F09C         	goto	u4441
  1598  0138DA  EF71  F09C         	goto	u4440
  1599  0138DE                     u4441:
  1600  0138DE  EF82  F09C         	goto	l935
  1601  0138E2                     u4440:
  1602  0138E2  0410               	decf	(0+((c:0)+010h)),c,w
  1603  0138E4  1011               	iorwf (1+((c:0)+010h)),c,w
  1604                           
  1605  0138E6  A4D8               	btfss	status,2
  1606  0138E8  EF78  F09C         	goto	u4451
  1607  0138EC  EF7A  F09C         	goto	u4450
  1608  0138F0                     u4451:
  1609  0138F0  EF82  F09C         	goto	l935
  1610  0138F4                     u4450:
  1611                           	line	584
  1612                           ;main.c: 584: LATA = 0b11101111;
  1613  0138F4  0EEF               	movlw	low(0EFh)
  1614  0138F6  6E89               	movwf	((c:3977)),c	;volatile
  1615                           	line	586
  1616                           ;main.c: 586: LATB = 0b10000100;
  1617  0138F8  0E84               	movlw	low(084h)
  1618  0138FA  6E8A               	movwf	((c:3978)),c	;volatile
  1619                           	line	588
  1620                           ;main.c: 588: LATC = 0b00001111;
  1621  0138FC  0E0F               	movlw	low(0Fh)
  1622  0138FE  6E8B               	movwf	((c:3979)),c	;volatile
  1623                           	line	590
  1624                           ;main.c: 590: } else if (led_array[2] == 1 && le
                                 d_array[9] == 1) {
  1625  013900  EFFF  F09F         	goto	l876
  1626                           	
  1627  013904                     l935:		; BSR set to: ?
  1628                           
  1629  013904  0404               	decf	(0+((c:0)+04h)),c,w
  1630  013906  1005               	iorwf (1+((c:0)+04h)),c,w
  1631                           
  1632  013908  A4D8               	btfss	status,2
  1633  01390A  EF89  F09C         	goto	u4461
  1634  01390E  EF8B  F09C         	goto	u4460
  1635  013912                     u4461:
  1636  013912  EF9C  F09C         	goto	l937
  1637  013916                     u4460:
  1638  013916  0412               	decf	(0+((c:0)+012h)),c,w
  1639  013918  1013               	iorwf (1+((c:0)+012h)),c,w
  1640                           
  1641  01391A  A4D8               	btfss	status,2
  1642  01391C  EF92  F09C         	goto	u4471
  1643  013920  EF94  F09C         	goto	u4470
  1644  013924                     u4471:
  1645  013924  EF9C  F09C         	goto	l937
  1646  013928                     u4470:
  1647                           	line	593
  1648                           ;main.c: 593: LATA = 0b11101111;
  1649  013928  0EEF               	movlw	low(0EFh)
  1650  01392A  6E89               	movwf	((c:3977)),c	;volatile
  1651                           	line	595
  1652                           ;main.c: 595: LATB = 0b10000100;
  1653  01392C  0E84               	movlw	low(084h)
  1654  01392E  6E8A               	movwf	((c:3978)),c	;volatile
  1655                           	line	597
  1656                           ;main.c: 597: LATC = 0b00001111;
  1657  013930  0E0F               	movlw	low(0Fh)
  1658  013932  6E8B               	movwf	((c:3979)),c	;volatile
  1659                           	line	599
  1660                           ;main.c: 599: } else if (led_array[2] == 1 && le
                                 d_array[10] == 1) {
  1661  013934  EFFF  F09F         	goto	l876
  1662                           	
  1663  013938                     l937:		; BSR set to: ?
  1664                           
  1665  013938  0404               	decf	(0+((c:0)+04h)),c,w
  1666  01393A  1005               	iorwf (1+((c:0)+04h)),c,w
  1667                           
  1668  01393C  A4D8               	btfss	status,2
  1669  01393E  EFA3  F09C         	goto	u4481
  1670  013942  EFA5  F09C         	goto	u4480
  1671  013946                     u4481:
  1672  013946  EFB6  F09C         	goto	l939
  1673  01394A                     u4480:
  1674  01394A  0414               	decf	(0+((c:0)+014h)),c,w
  1675  01394C  1015               	iorwf (1+((c:0)+014h)),c,w
  1676                           
  1677  01394E  A4D8               	btfss	status,2
  1678  013950  EFAC  F09C         	goto	u4491
  1679  013954  EFAE  F09C         	goto	u4490
  1680  013958                     u4491:
  1681  013958  EFB6  F09C         	goto	l939
  1682  01395C                     u4490:
  1683                           	line	602
  1684                           ;main.c: 602: LATA = 0b11101111;
  1685  01395C  0EEF               	movlw	low(0EFh)
  1686  01395E  6E89               	movwf	((c:3977)),c	;volatile
  1687                           	line	604
  1688                           ;main.c: 604: LATB = 0b10000100;
  1689  013960  0E84               	movlw	low(084h)
  1690  013962  6E8A               	movwf	((c:3978)),c	;volatile
  1691                           	line	606
  1692                           ;main.c: 606: LATC = 0b00001111;
  1693  013964  0E0F               	movlw	low(0Fh)
  1694  013966  6E8B               	movwf	((c:3979)),c	;volatile
  1695                           	line	608
  1696                           ;main.c: 608: } else if (led_array[2] == 1 && le
                                 d_array[11] == 1) {
  1697  013968  EFFF  F09F         	goto	l876
  1698                           	
  1699  01396C                     l939:		; BSR set to: ?
  1700                           
  1701  01396C  0404               	decf	(0+((c:0)+04h)),c,w
  1702  01396E  1005               	iorwf (1+((c:0)+04h)),c,w
  1703                           
  1704  013970  A4D8               	btfss	status,2
  1705  013972  EFBD  F09C         	goto	u4501
  1706  013976  EFBF  F09C         	goto	u4500
  1707  01397A                     u4501:
  1708  01397A  EFD0  F09C         	goto	l941
  1709  01397E                     u4500:
  1710  01397E  0416               	decf	(0+((c:0)+016h)),c,w
  1711  013980  1017               	iorwf (1+((c:0)+016h)),c,w
  1712                           
  1713  013982  A4D8               	btfss	status,2
  1714  013984  EFC6  F09C         	goto	u4511
  1715  013988  EFC8  F09C         	goto	u4510
  1716  01398C                     u4511:
  1717  01398C  EFD0  F09C         	goto	l941
  1718  013990                     u4510:
  1719                           	line	611
  1720                           ;main.c: 611: LATA = 0b11101111;
  1721  013990  0EEF               	movlw	low(0EFh)
  1722  013992  6E89               	movwf	((c:3977)),c	;volatile
  1723                           	line	613
  1724                           ;main.c: 613: LATB = 0b10000100;
  1725  013994  0E84               	movlw	low(084h)
  1726  013996  6E8A               	movwf	((c:3978)),c	;volatile
  1727                           	line	615
  1728                           ;main.c: 615: LATC = 0b00001111;
  1729  013998  0E0F               	movlw	low(0Fh)
  1730  01399A  6E8B               	movwf	((c:3979)),c	;volatile
  1731                           	line	617
  1732                           ;main.c: 617: } else if (led_array[2] == 1 && le
                                 d_array[12] == 1) {
  1733  01399C  EFFF  F09F         	goto	l876
  1734                           	
  1735  0139A0                     l941:		; BSR set to: ?
  1736                           
  1737  0139A0  0404               	decf	(0+((c:0)+04h)),c,w
  1738  0139A2  1005               	iorwf (1+((c:0)+04h)),c,w
  1739                           
  1740  0139A4  A4D8               	btfss	status,2
  1741  0139A6  EFD7  F09C         	goto	u4521
  1742  0139AA  EFD9  F09C         	goto	u4520
  1743  0139AE                     u4521:
  1744  0139AE  EFEA  F09C         	goto	l943
  1745  0139B2                     u4520:
  1746  0139B2  0418               	decf	(0+((c:0)+018h)),c,w
  1747  0139B4  1019               	iorwf (1+((c:0)+018h)),c,w
  1748                           
  1749  0139B6  A4D8               	btfss	status,2
  1750  0139B8  EFE0  F09C         	goto	u4531
  1751  0139BC  EFE2  F09C         	goto	u4530
  1752  0139C0                     u4531:
  1753  0139C0  EFEA  F09C         	goto	l943
  1754  0139C4                     u4530:
  1755                           	line	620
  1756                           ;main.c: 620: LATA = 0b11101111;
  1757  0139C4  0EEF               	movlw	low(0EFh)
  1758  0139C6  6E89               	movwf	((c:3977)),c	;volatile
  1759                           	line	622
  1760                           ;main.c: 622: LATB = 0b10000100;
  1761  0139C8  0E84               	movlw	low(084h)
  1762  0139CA  6E8A               	movwf	((c:3978)),c	;volatile
  1763                           	line	624
  1764                           ;main.c: 624: LATC = 0b00001111;
  1765  0139CC  0E0F               	movlw	low(0Fh)
  1766  0139CE  6E8B               	movwf	((c:3979)),c	;volatile
  1767                           	line	626
  1768                           ;main.c: 626: } else if (led_array[3] == 1 && le
                                 d_array[6] == 1) {
  1769  0139D0  EFFF  F09F         	goto	l876
  1770                           	
  1771  0139D4                     l943:		; BSR set to: ?
  1772                           
  1773  0139D4  0406               	decf	(0+((c:0)+06h)),c,w
  1774  0139D6  1007               	iorwf (1+((c:0)+06h)),c,w
  1775                           
  1776  0139D8  A4D8               	btfss	status,2
  1777  0139DA  EFF1  F09C         	goto	u4541
  1778  0139DE  EFF3  F09C         	goto	u4540
  1779  0139E2                     u4541:
  1780  0139E2  EF04  F09D         	goto	l945
  1781  0139E6                     u4540:
  1782  0139E6  040C               	decf	(0+((c:0)+0Ch)),c,w
  1783  0139E8  100D               	iorwf (1+((c:0)+0Ch)),c,w
  1784                           
  1785  0139EA  A4D8               	btfss	status,2
  1786  0139EC  EFFA  F09C         	goto	u4551
  1787  0139F0  EFFC  F09C         	goto	u4550
  1788  0139F4                     u4551:
  1789  0139F4  EF04  F09D         	goto	l945
  1790  0139F8                     u4550:
  1791                           	line	629
  1792                           ;main.c: 629: LATA = 0b11101111;
  1793  0139F8  0EEF               	movlw	low(0EFh)
  1794  0139FA  6E89               	movwf	((c:3977)),c	;volatile
  1795                           	line	631
  1796                           ;main.c: 631: LATB = 0b10000100;
  1797  0139FC  0E84               	movlw	low(084h)
  1798  0139FE  6E8A               	movwf	((c:3978)),c	;volatile
  1799                           	line	633
  1800                           ;main.c: 633: LATC = 0b00001111;
  1801  013A00  0E0F               	movlw	low(0Fh)
  1802  013A02  6E8B               	movwf	((c:3979)),c	;volatile
  1803                           	line	635
  1804                           ;main.c: 635: } else if (led_array[3] == 1 && le
                                 d_array[7] == 1) {
  1805  013A04  EFFF  F09F         	goto	l876
  1806                           	
  1807  013A08                     l945:		; BSR set to: ?
  1808                           
  1809  013A08  0406               	decf	(0+((c:0)+06h)),c,w
  1810  013A0A  1007               	iorwf (1+((c:0)+06h)),c,w
  1811                           
  1812  013A0C  A4D8               	btfss	status,2
  1813  013A0E  EF0B  F09D         	goto	u4561
  1814  013A12  EF0D  F09D         	goto	u4560
  1815  013A16                     u4561:
  1816  013A16  EF1E  F09D         	goto	l947
  1817  013A1A                     u4560:
  1818  013A1A  040E               	decf	(0+((c:0)+0Eh)),c,w
  1819  013A1C  100F               	iorwf (1+((c:0)+0Eh)),c,w
  1820                           
  1821  013A1E  A4D8               	btfss	status,2
  1822  013A20  EF14  F09D         	goto	u4571
  1823  013A24  EF16  F09D         	goto	u4570
  1824  013A28                     u4571:
  1825  013A28  EF1E  F09D         	goto	l947
  1826  013A2C                     u4570:
  1827                           	line	638
  1828                           ;main.c: 638: LATA = 0b11101111;
  1829  013A2C  0EEF               	movlw	low(0EFh)
  1830  013A2E  6E89               	movwf	((c:3977)),c	;volatile
  1831                           	line	640
  1832                           ;main.c: 640: LATB = 0b10000100;
  1833  013A30  0E84               	movlw	low(084h)
  1834  013A32  6E8A               	movwf	((c:3978)),c	;volatile
  1835                           	line	642
  1836                           ;main.c: 642: LATC = 0b00001111;
  1837  013A34  0E0F               	movlw	low(0Fh)
  1838  013A36  6E8B               	movwf	((c:3979)),c	;volatile
  1839                           	line	644
  1840                           ;main.c: 644: } else if (led_array[3] == 1 && le
                                 d_array[8] == 1) {
  1841  013A38  EFFF  F09F         	goto	l876
  1842                           	
  1843  013A3C                     l947:		; BSR set to: ?
  1844                           
  1845  013A3C  0406               	decf	(0+((c:0)+06h)),c,w
  1846  013A3E  1007               	iorwf (1+((c:0)+06h)),c,w
  1847                           
  1848  013A40  A4D8               	btfss	status,2
  1849  013A42  EF25  F09D         	goto	u4581
  1850  013A46  EF27  F09D         	goto	u4580
  1851  013A4A                     u4581:
  1852  013A4A  EF38  F09D         	goto	l949
  1853  013A4E                     u4580:
  1854  013A4E  0410               	decf	(0+((c:0)+010h)),c,w
  1855  013A50  1011               	iorwf (1+((c:0)+010h)),c,w
  1856                           
  1857  013A52  A4D8               	btfss	status,2
  1858  013A54  EF2E  F09D         	goto	u4591
  1859  013A58  EF30  F09D         	goto	u4590
  1860  013A5C                     u4591:
  1861  013A5C  EF38  F09D         	goto	l949
  1862  013A60                     u4590:
  1863                           	line	647
  1864                           ;main.c: 647: LATA = 0b11101111;
  1865  013A60  0EEF               	movlw	low(0EFh)
  1866  013A62  6E89               	movwf	((c:3977)),c	;volatile
  1867                           	line	649
  1868                           ;main.c: 649: LATB = 0b10000100;
  1869  013A64  0E84               	movlw	low(084h)
  1870  013A66  6E8A               	movwf	((c:3978)),c	;volatile
  1871                           	line	651
  1872                           ;main.c: 651: LATC = 0b00001111;
  1873  013A68  0E0F               	movlw	low(0Fh)
  1874  013A6A  6E8B               	movwf	((c:3979)),c	;volatile
  1875                           	line	653
  1876                           ;main.c: 653: } else if (led_array[3] == 1 && le
                                 d_array[9] == 1) {
  1877  013A6C  EFFF  F09F         	goto	l876
  1878                           	
  1879  013A70                     l949:		; BSR set to: ?
  1880                           
  1881  013A70  0406               	decf	(0+((c:0)+06h)),c,w
  1882  013A72  1007               	iorwf (1+((c:0)+06h)),c,w
  1883                           
  1884  013A74  A4D8               	btfss	status,2
  1885  013A76  EF3F  F09D         	goto	u4601
  1886  013A7A  EF41  F09D         	goto	u4600
  1887  013A7E                     u4601:
  1888  013A7E  EF52  F09D         	goto	l951
  1889  013A82                     u4600:
  1890  013A82  0412               	decf	(0+((c:0)+012h)),c,w
  1891  013A84  1013               	iorwf (1+((c:0)+012h)),c,w
  1892                           
  1893  013A86  A4D8               	btfss	status,2
  1894  013A88  EF48  F09D         	goto	u4611
  1895  013A8C  EF4A  F09D         	goto	u4610
  1896  013A90                     u4611:
  1897  013A90  EF52  F09D         	goto	l951
  1898  013A94                     u4610:
  1899                           	line	656
  1900                           ;main.c: 656: LATA = 0b11101111;
  1901  013A94  0EEF               	movlw	low(0EFh)
  1902  013A96  6E89               	movwf	((c:3977)),c	;volatile
  1903                           	line	658
  1904                           ;main.c: 658: LATB = 0b10000100;
  1905  013A98  0E84               	movlw	low(084h)
  1906  013A9A  6E8A               	movwf	((c:3978)),c	;volatile
  1907                           	line	660
  1908                           ;main.c: 660: LATC = 0b00001111;
  1909  013A9C  0E0F               	movlw	low(0Fh)
  1910  013A9E  6E8B               	movwf	((c:3979)),c	;volatile
  1911                           	line	662
  1912                           ;main.c: 662: } else if (led_array[3] == 1 && le
                                 d_array[10] == 1) {
  1913  013AA0  EFFF  F09F         	goto	l876
  1914                           	
  1915  013AA4                     l951:		; BSR set to: ?
  1916                           
  1917  013AA4  0406               	decf	(0+((c:0)+06h)),c,w
  1918  013AA6  1007               	iorwf (1+((c:0)+06h)),c,w
  1919                           
  1920  013AA8  A4D8               	btfss	status,2
  1921  013AAA  EF59  F09D         	goto	u4621
  1922  013AAE  EF5B  F09D         	goto	u4620
  1923  013AB2                     u4621:
  1924  013AB2  EF6C  F09D         	goto	l953
  1925  013AB6                     u4620:
  1926  013AB6  0414               	decf	(0+((c:0)+014h)),c,w
  1927  013AB8  1015               	iorwf (1+((c:0)+014h)),c,w
  1928                           
  1929  013ABA  A4D8               	btfss	status,2
  1930  013ABC  EF62  F09D         	goto	u4631
  1931  013AC0  EF64  F09D         	goto	u4630
  1932  013AC4                     u4631:
  1933  013AC4  EF6C  F09D         	goto	l953
  1934  013AC8                     u4630:
  1935                           	line	665
  1936                           ;main.c: 665: LATA = 0b11101111;
  1937  013AC8  0EEF               	movlw	low(0EFh)
  1938  013ACA  6E89               	movwf	((c:3977)),c	;volatile
  1939                           	line	667
  1940                           ;main.c: 667: LATB = 0b10000100;
  1941  013ACC  0E84               	movlw	low(084h)
  1942  013ACE  6E8A               	movwf	((c:3978)),c	;volatile
  1943                           	line	669
  1944                           ;main.c: 669: LATC = 0b00001111;
  1945  013AD0  0E0F               	movlw	low(0Fh)
  1946  013AD2  6E8B               	movwf	((c:3979)),c	;volatile
  1947                           	line	671
  1948                           ;main.c: 671: } else if (led_array[3] == 1 && le
                                 d_array[11] == 1) {
  1949  013AD4  EFFF  F09F         	goto	l876
  1950                           	
  1951  013AD8                     l953:		; BSR set to: ?
  1952                           
  1953  013AD8  0406               	decf	(0+((c:0)+06h)),c,w
  1954  013ADA  1007               	iorwf (1+((c:0)+06h)),c,w
  1955                           
  1956  013ADC  A4D8               	btfss	status,2
  1957  013ADE  EF73  F09D         	goto	u4641
  1958  013AE2  EF75  F09D         	goto	u4640
  1959  013AE6                     u4641:
  1960  013AE6  EF86  F09D         	goto	l955
  1961  013AEA                     u4640:
  1962  013AEA  0416               	decf	(0+((c:0)+016h)),c,w
  1963  013AEC  1017               	iorwf (1+((c:0)+016h)),c,w
  1964                           
  1965  013AEE  A4D8               	btfss	status,2
  1966  013AF0  EF7C  F09D         	goto	u4651
  1967  013AF4  EF7E  F09D         	goto	u4650
  1968  013AF8                     u4651:
  1969  013AF8  EF86  F09D         	goto	l955
  1970  013AFC                     u4650:
  1971                           	line	674
  1972                           ;main.c: 674: LATA = 0b11101111;
  1973  013AFC  0EEF               	movlw	low(0EFh)
  1974  013AFE  6E89               	movwf	((c:3977)),c	;volatile
  1975                           	line	676
  1976                           ;main.c: 676: LATB = 0b10000100;
  1977  013B00  0E84               	movlw	low(084h)
  1978  013B02  6E8A               	movwf	((c:3978)),c	;volatile
  1979                           	line	678
  1980                           ;main.c: 678: LATC = 0b00001111;
  1981  013B04  0E0F               	movlw	low(0Fh)
  1982  013B06  6E8B               	movwf	((c:3979)),c	;volatile
  1983                           	line	680
  1984                           ;main.c: 680: } else if (led_array[3] == 1 && le
                                 d_array[12] == 1) {
  1985  013B08  EFFF  F09F         	goto	l876
  1986                           	
  1987  013B0C                     l955:		; BSR set to: ?
  1988                           
  1989  013B0C  0406               	decf	(0+((c:0)+06h)),c,w
  1990  013B0E  1007               	iorwf (1+((c:0)+06h)),c,w
  1991                           
  1992  013B10  A4D8               	btfss	status,2
  1993  013B12  EF8D  F09D         	goto	u4661
  1994  013B16  EF8F  F09D         	goto	u4660
  1995  013B1A                     u4661:
  1996  013B1A  EFA0  F09D         	goto	l957
  1997  013B1E                     u4660:
  1998  013B1E  0418               	decf	(0+((c:0)+018h)),c,w
  1999  013B20  1019               	iorwf (1+((c:0)+018h)),c,w
  2000                           
  2001  013B22  A4D8               	btfss	status,2
  2002  013B24  EF96  F09D         	goto	u4671
  2003  013B28  EF98  F09D         	goto	u4670
  2004  013B2C                     u4671:
  2005  013B2C  EFA0  F09D         	goto	l957
  2006  013B30                     u4670:
  2007                           	line	683
  2008                           ;main.c: 683: LATA = 0b11101111;
  2009  013B30  0EEF               	movlw	low(0EFh)
  2010  013B32  6E89               	movwf	((c:3977)),c	;volatile
  2011                           	line	685
  2012                           ;main.c: 685: LATB = 0b10000100;
  2013  013B34  0E84               	movlw	low(084h)
  2014  013B36  6E8A               	movwf	((c:3978)),c	;volatile
  2015                           	line	687
  2016                           ;main.c: 687: LATC = 0b00001111;
  2017  013B38  0E0F               	movlw	low(0Fh)
  2018  013B3A  6E8B               	movwf	((c:3979)),c	;volatile
  2019                           	line	688
  2020                           ;main.c: 688: }
  2021  013B3C  EFFF  F09F         	goto	l876
  2022                           	line	691
  2023                           	
  2024  013B40                     l957:		; BSR set to: ?
  2025                           
  2026                           ;main.c: 691: else if (led_array[0] == 1 && led_
                                 array[1] == 1 && led_array[6] == 1) {
  2027  013B40  0400               	decf	((c:0)),c,w
  2028  013B42  1001               	iorwf ((c:0+1)),c,w
  2029                           
  2030  013B44  A4D8               	btfss	status,2
  2031  013B46  EFA7  F09D         	goto	u4681
  2032  013B4A  EFA9  F09D         	goto	u4680
  2033  013B4E                     u4681:
  2034  013B4E  EFC3  F09D         	goto	l959
  2035  013B52                     u4680:
  2036  013B52  0402               	decf	(0+((c:0)+02h)),c,w
  2037  013B54  1003               	iorwf (1+((c:0)+02h)),c,w
  2038                           
  2039  013B56  A4D8               	btfss	status,2
  2040  013B58  EFB0  F09D         	goto	u4691
  2041  013B5C  EFB2  F09D         	goto	u4690
  2042  013B60                     u4691:
  2043  013B60  EFC3  F09D         	goto	l959
  2044  013B64                     u4690:
  2045  013B64  040C               	decf	(0+((c:0)+0Ch)),c,w
  2046  013B66  100D               	iorwf (1+((c:0)+0Ch)),c,w
  2047                           
  2048  013B68  A4D8               	btfss	status,2
  2049  013B6A  EFB9  F09D         	goto	u4701
  2050  013B6E  EFBB  F09D         	goto	u4700
  2051  013B72                     u4701:
  2052  013B72  EFC3  F09D         	goto	l959
  2053  013B76                     u4700:
  2054                           	line	694
  2055                           ;main.c: 694: LATA = 0b11101111;
  2056  013B76  0EEF               	movlw	low(0EFh)
  2057  013B78  6E89               	movwf	((c:3977)),c	;volatile
  2058                           	line	696
  2059                           ;main.c: 696: LATB = 0b10000100;
  2060  013B7A  0E84               	movlw	low(084h)
  2061  013B7C  6E8A               	movwf	((c:3978)),c	;volatile
  2062                           	line	698
  2063                           ;main.c: 698: LATC = 0b00001111;
  2064  013B7E  0E0F               	movlw	low(0Fh)
  2065  013B80  6E8B               	movwf	((c:3979)),c	;volatile
  2066                           	line	700
  2067                           ;main.c: 700: } else if (led_array[0] == 1 && le
                                 d_array[1] == 1 && led_array[7] == 1) {
  2068  013B82  EFFF  F09F         	goto	l876
  2069                           	
  2070  013B86                     l959:		; BSR set to: ?
  2071                           
  2072  013B86  0400               	decf	((c:0)),c,w
  2073  013B88  1001               	iorwf ((c:0+1)),c,w
  2074                           
  2075  013B8A  A4D8               	btfss	status,2
  2076  013B8C  EFCA  F09D         	goto	u4711
  2077  013B90  EFCC  F09D         	goto	u4710
  2078  013B94                     u4711:
  2079  013B94  EFE6  F09D         	goto	l961
  2080  013B98                     u4710:
  2081  013B98  0402               	decf	(0+((c:0)+02h)),c,w
  2082  013B9A  1003               	iorwf (1+((c:0)+02h)),c,w
  2083                           
  2084  013B9C  A4D8               	btfss	status,2
  2085  013B9E  EFD3  F09D         	goto	u4721
  2086  013BA2  EFD5  F09D         	goto	u4720
  2087  013BA6                     u4721:
  2088  013BA6  EFE6  F09D         	goto	l961
  2089  013BAA                     u4720:
  2090  013BAA  040E               	decf	(0+((c:0)+0Eh)),c,w
  2091  013BAC  100F               	iorwf (1+((c:0)+0Eh)),c,w
  2092                           
  2093  013BAE  A4D8               	btfss	status,2
  2094  013BB0  EFDC  F09D         	goto	u4731
  2095  013BB4  EFDE  F09D         	goto	u4730
  2096  013BB8                     u4731:
  2097  013BB8  EFE6  F09D         	goto	l961
  2098  013BBC                     u4730:
  2099                           	line	703
  2100                           ;main.c: 703: LATA = 0b11101111;
  2101  013BBC  0EEF               	movlw	low(0EFh)
  2102  013BBE  6E89               	movwf	((c:3977)),c	;volatile
  2103                           	line	705
  2104                           ;main.c: 705: LATB = 0b10000100;
  2105  013BC0  0E84               	movlw	low(084h)
  2106  013BC2  6E8A               	movwf	((c:3978)),c	;volatile
  2107                           	line	707
  2108                           ;main.c: 707: LATC = 0b00001111;
  2109  013BC4  0E0F               	movlw	low(0Fh)
  2110  013BC6  6E8B               	movwf	((c:3979)),c	;volatile
  2111                           	line	709
  2112                           ;main.c: 709: } else if (led_array[0] == 1 && le
                                 d_array[1] == 1 && led_array[8] == 1) {
  2113  013BC8  EFFF  F09F         	goto	l876
  2114                           	
  2115  013BCC                     l961:		; BSR set to: ?
  2116                           
  2117  013BCC  0400               	decf	((c:0)),c,w
  2118  013BCE  1001               	iorwf ((c:0+1)),c,w
  2119                           
  2120  013BD0  A4D8               	btfss	status,2
  2121  013BD2  EFED  F09D         	goto	u4741
  2122  013BD6  EFEF  F09D         	goto	u4740
  2123  013BDA                     u4741:
  2124  013BDA  EF09  F09E         	goto	l963
  2125  013BDE                     u4740:
  2126  013BDE  0402               	decf	(0+((c:0)+02h)),c,w
  2127  013BE0  1003               	iorwf (1+((c:0)+02h)),c,w
  2128                           
  2129  013BE2  A4D8               	btfss	status,2
  2130  013BE4  EFF6  F09D         	goto	u4751
  2131  013BE8  EFF8  F09D         	goto	u4750
  2132  013BEC                     u4751:
  2133  013BEC  EF09  F09E         	goto	l963
  2134  013BF0                     u4750:
  2135  013BF0  0410               	decf	(0+((c:0)+010h)),c,w
  2136  013BF2  1011               	iorwf (1+((c:0)+010h)),c,w
  2137                           
  2138  013BF4  A4D8               	btfss	status,2
  2139  013BF6  EFFF  F09D         	goto	u4761
  2140  013BFA  EF01  F09E         	goto	u4760
  2141  013BFE                     u4761:
  2142  013BFE  EF09  F09E         	goto	l963
  2143  013C02                     u4760:
  2144                           	line	712
  2145                           ;main.c: 712: LATA = 0b11101111;
  2146  013C02  0EEF               	movlw	low(0EFh)
  2147  013C04  6E89               	movwf	((c:3977)),c	;volatile
  2148                           	line	714
  2149                           ;main.c: 714: LATB = 0b10000100;
  2150  013C06  0E84               	movlw	low(084h)
  2151  013C08  6E8A               	movwf	((c:3978)),c	;volatile
  2152                           	line	716
  2153                           ;main.c: 716: LATC = 0b00001111;
  2154  013C0A  0E0F               	movlw	low(0Fh)
  2155  013C0C  6E8B               	movwf	((c:3979)),c	;volatile
  2156                           	line	718
  2157                           ;main.c: 718: } else if (led_array[0] == 1 && le
                                 d_array[1] == 1 && led_array[9] == 1) {
  2158  013C0E  EFFF  F09F         	goto	l876
  2159                           	
  2160  013C12                     l963:		; BSR set to: ?
  2161                           
  2162  013C12  0400               	decf	((c:0)),c,w
  2163  013C14  1001               	iorwf ((c:0+1)),c,w
  2164                           
  2165  013C16  A4D8               	btfss	status,2
  2166  013C18  EF10  F09E         	goto	u4771
  2167  013C1C  EF12  F09E         	goto	u4770
  2168  013C20                     u4771:
  2169  013C20  EF2C  F09E         	goto	l965
  2170  013C24                     u4770:
  2171  013C24  0402               	decf	(0+((c:0)+02h)),c,w
  2172  013C26  1003               	iorwf (1+((c:0)+02h)),c,w
  2173                           
  2174  013C28  A4D8               	btfss	status,2
  2175  013C2A  EF19  F09E         	goto	u4781
  2176  013C2E  EF1B  F09E         	goto	u4780
  2177  013C32                     u4781:
  2178  013C32  EF2C  F09E         	goto	l965
  2179  013C36                     u4780:
  2180  013C36  0412               	decf	(0+((c:0)+012h)),c,w
  2181  013C38  1013               	iorwf (1+((c:0)+012h)),c,w
  2182                           
  2183  013C3A  A4D8               	btfss	status,2
  2184  013C3C  EF22  F09E         	goto	u4791
  2185  013C40  EF24  F09E         	goto	u4790
  2186  013C44                     u4791:
  2187  013C44  EF2C  F09E         	goto	l965
  2188  013C48                     u4790:
  2189                           	line	721
  2190                           ;main.c: 721: LATA = 0b11101111;
  2191  013C48  0EEF               	movlw	low(0EFh)
  2192  013C4A  6E89               	movwf	((c:3977)),c	;volatile
  2193                           	line	723
  2194                           ;main.c: 723: LATB = 0b10000100;
  2195  013C4C  0E84               	movlw	low(084h)
  2196  013C4E  6E8A               	movwf	((c:3978)),c	;volatile
  2197                           	line	725
  2198                           ;main.c: 725: LATC = 0b00001111;
  2199  013C50  0E0F               	movlw	low(0Fh)
  2200  013C52  6E8B               	movwf	((c:3979)),c	;volatile
  2201                           	line	726
  2202                           ;main.c: 726: } else if (led_array[0] == 1 && le
                                 d_array[1] == 1 && led_array[10] == 1) {
  2203  013C54  EFFF  F09F         	goto	l876
  2204                           	
  2205  013C58                     l965:		; BSR set to: ?
  2206                           
  2207  013C58  0400               	decf	((c:0)),c,w
  2208  013C5A  1001               	iorwf ((c:0+1)),c,w
  2209                           
  2210  013C5C  A4D8               	btfss	status,2
  2211  013C5E  EF33  F09E         	goto	u4801
  2212  013C62  EF35  F09E         	goto	u4800
  2213  013C66                     u4801:
  2214  013C66  EF4F  F09E         	goto	l967
  2215  013C6A                     u4800:
  2216  013C6A  0402               	decf	(0+((c:0)+02h)),c,w
  2217  013C6C  1003               	iorwf (1+((c:0)+02h)),c,w
  2218                           
  2219  013C6E  A4D8               	btfss	status,2
  2220  013C70  EF3C  F09E         	goto	u4811
  2221  013C74  EF3E  F09E         	goto	u4810
  2222  013C78                     u4811:
  2223  013C78  EF4F  F09E         	goto	l967
  2224  013C7C                     u4810:
  2225  013C7C  0414               	decf	(0+((c:0)+014h)),c,w
  2226  013C7E  1015               	iorwf (1+((c:0)+014h)),c,w
  2227                           
  2228  013C80  A4D8               	btfss	status,2
  2229  013C82  EF45  F09E         	goto	u4821
  2230  013C86  EF47  F09E         	goto	u4820
  2231  013C8A                     u4821:
  2232  013C8A  EF4F  F09E         	goto	l967
  2233  013C8E                     u4820:
  2234                           	line	729
  2235                           ;main.c: 729: LATA = 0b11101111;
  2236  013C8E  0EEF               	movlw	low(0EFh)
  2237  013C90  6E89               	movwf	((c:3977)),c	;volatile
  2238                           	line	731
  2239                           ;main.c: 731: LATB = 0b10000100;
  2240  013C92  0E84               	movlw	low(084h)
  2241  013C94  6E8A               	movwf	((c:3978)),c	;volatile
  2242                           	line	733
  2243                           ;main.c: 733: LATC = 0b00001111;
  2244  013C96  0E0F               	movlw	low(0Fh)
  2245  013C98  6E8B               	movwf	((c:3979)),c	;volatile
  2246                           	line	734
  2247                           ;main.c: 734: } else if (led_array[0] == 1 && le
                                 d_array[1] == 1 && led_array[11] == 1) {
  2248  013C9A  EFFF  F09F         	goto	l876
  2249                           	
  2250  013C9E                     l967:		; BSR set to: ?
  2251                           
  2252  013C9E  0400               	decf	((c:0)),c,w
  2253  013CA0  1001               	iorwf ((c:0+1)),c,w
  2254                           
  2255  013CA2  A4D8               	btfss	status,2
  2256  013CA4  EF56  F09E         	goto	u4831
  2257  013CA8  EF58  F09E         	goto	u4830
  2258  013CAC                     u4831:
  2259  013CAC  EF72  F09E         	goto	l969
  2260  013CB0                     u4830:
  2261  013CB0  0402               	decf	(0+((c:0)+02h)),c,w
  2262  013CB2  1003               	iorwf (1+((c:0)+02h)),c,w
  2263                           
  2264  013CB4  A4D8               	btfss	status,2
  2265  013CB6  EF5F  F09E         	goto	u4841
  2266  013CBA  EF61  F09E         	goto	u4840
  2267  013CBE                     u4841:
  2268  013CBE  EF72  F09E         	goto	l969
  2269  013CC2                     u4840:
  2270  013CC2  0416               	decf	(0+((c:0)+016h)),c,w
  2271  013CC4  1017               	iorwf (1+((c:0)+016h)),c,w
  2272                           
  2273  013CC6  A4D8               	btfss	status,2
  2274  013CC8  EF68  F09E         	goto	u4851
  2275  013CCC  EF6A  F09E         	goto	u4850
  2276  013CD0                     u4851:
  2277  013CD0  EF72  F09E         	goto	l969
  2278  013CD4                     u4850:
  2279                           	line	737
  2280                           ;main.c: 737: LATA = 0b11101111;
  2281  013CD4  0EEF               	movlw	low(0EFh)
  2282  013CD6  6E89               	movwf	((c:3977)),c	;volatile
  2283                           	line	739
  2284                           ;main.c: 739: LATB = 0b10000100;
  2285  013CD8  0E84               	movlw	low(084h)
  2286  013CDA  6E8A               	movwf	((c:3978)),c	;volatile
  2287                           	line	741
  2288                           ;main.c: 741: LATC = 0b00001111;
  2289  013CDC  0E0F               	movlw	low(0Fh)
  2290  013CDE  6E8B               	movwf	((c:3979)),c	;volatile
  2291                           	line	742
  2292                           ;main.c: 742: } else if (led_array[0] == 1 && le
                                 d_array[1] == 1 && led_array[12] == 1) {
  2293  013CE0  EFFF  F09F         	goto	l876
  2294                           	
  2295  013CE4                     l969:		; BSR set to: ?
  2296                           
  2297  013CE4  0400               	decf	((c:0)),c,w
  2298  013CE6  1001               	iorwf ((c:0+1)),c,w
  2299                           
  2300  013CE8  A4D8               	btfss	status,2
  2301  013CEA  EF79  F09E         	goto	u4861
  2302  013CEE  EF7B  F09E         	goto	u4860
  2303  013CF2                     u4861:
  2304  013CF2  EF95  F09E         	goto	l971
  2305  013CF6                     u4860:
  2306  013CF6  0402               	decf	(0+((c:0)+02h)),c,w
  2307  013CF8  1003               	iorwf (1+((c:0)+02h)),c,w
  2308                           
  2309  013CFA  A4D8               	btfss	status,2
  2310  013CFC  EF82  F09E         	goto	u4871
  2311  013D00  EF84  F09E         	goto	u4870
  2312  013D04                     u4871:
  2313  013D04  EF95  F09E         	goto	l971
  2314  013D08                     u4870:
  2315  013D08  0418               	decf	(0+((c:0)+018h)),c,w
  2316  013D0A  1019               	iorwf (1+((c:0)+018h)),c,w
  2317                           
  2318  013D0C  A4D8               	btfss	status,2
  2319  013D0E  EF8B  F09E         	goto	u4881
  2320  013D12  EF8D  F09E         	goto	u4880
  2321  013D16                     u4881:
  2322  013D16  EF95  F09E         	goto	l971
  2323  013D1A                     u4880:
  2324                           	line	745
  2325                           ;main.c: 745: LATA = 0b11101111;
  2326  013D1A  0EEF               	movlw	low(0EFh)
  2327  013D1C  6E89               	movwf	((c:3977)),c	;volatile
  2328                           	line	747
  2329                           ;main.c: 747: LATB = 0b10000100;
  2330  013D1E  0E84               	movlw	low(084h)
  2331  013D20  6E8A               	movwf	((c:3978)),c	;volatile
  2332                           	line	749
  2333                           ;main.c: 749: LATC = 0b00001111;
  2334  013D22  0E0F               	movlw	low(0Fh)
  2335  013D24  6E8B               	movwf	((c:3979)),c	;volatile
  2336                           	line	750
  2337                           ;main.c: 750: } else if (led_array[0] == 1 && le
                                 d_array[6] == 1) {
  2338  013D26  EFFF  F09F         	goto	l876
  2339                           	
  2340  013D2A                     l971:		; BSR set to: ?
  2341                           
  2342  013D2A  0400               	decf	((c:0)),c,w
  2343  013D2C  1001               	iorwf ((c:0+1)),c,w
  2344                           
  2345  013D2E  A4D8               	btfss	status,2
  2346  013D30  EF9C  F09E         	goto	u4891
  2347  013D34  EF9E  F09E         	goto	u4890
  2348  013D38                     u4891:
  2349  013D38  EFAF  F09E         	goto	l973
  2350  013D3C                     u4890:
  2351  013D3C  040C               	decf	(0+((c:0)+0Ch)),c,w
  2352  013D3E  100D               	iorwf (1+((c:0)+0Ch)),c,w
  2353                           
  2354  013D40  A4D8               	btfss	status,2
  2355  013D42  EFA5  F09E         	goto	u4901
  2356  013D46  EFA7  F09E         	goto	u4900
  2357  013D4A                     u4901:
  2358  013D4A  EFAF  F09E         	goto	l973
  2359  013D4E                     u4900:
  2360                           	line	753
  2361                           ;main.c: 753: LATA = 0b11101111;
  2362  013D4E  0EEF               	movlw	low(0EFh)
  2363  013D50  6E89               	movwf	((c:3977)),c	;volatile
  2364                           	line	755
  2365                           ;main.c: 755: LATB = 0b10000100;
  2366  013D52  0E84               	movlw	low(084h)
  2367  013D54  6E8A               	movwf	((c:3978)),c	;volatile
  2368                           	line	757
  2369                           ;main.c: 757: LATC = 0b00001111;
  2370  013D56  0E0F               	movlw	low(0Fh)
  2371  013D58  6E8B               	movwf	((c:3979)),c	;volatile
  2372                           	line	759
  2373                           ;main.c: 759: } else if (led_array[0] == 1 && le
                                 d_array[7] == 1) {
  2374  013D5A  EFFF  F09F         	goto	l876
  2375                           	
  2376  013D5E                     l973:		; BSR set to: ?
  2377                           
  2378  013D5E  0400               	decf	((c:0)),c,w
  2379  013D60  1001               	iorwf ((c:0+1)),c,w
  2380                           
  2381  013D62  A4D8               	btfss	status,2
  2382  013D64  EFB6  F09E         	goto	u4911
  2383  013D68  EFB8  F09E         	goto	u4910
  2384  013D6C                     u4911:
  2385  013D6C  EFC9  F09E         	goto	l975
  2386  013D70                     u4910:
  2387  013D70  040E               	decf	(0+((c:0)+0Eh)),c,w
  2388  013D72  100F               	iorwf (1+((c:0)+0Eh)),c,w
  2389                           
  2390  013D74  A4D8               	btfss	status,2
  2391  013D76  EFBF  F09E         	goto	u4921
  2392  013D7A  EFC1  F09E         	goto	u4920
  2393  013D7E                     u4921:
  2394  013D7E  EFC9  F09E         	goto	l975
  2395  013D82                     u4920:
  2396                           	line	762
  2397                           ;main.c: 762: LATA = 0b11101111;
  2398  013D82  0EEF               	movlw	low(0EFh)
  2399  013D84  6E89               	movwf	((c:3977)),c	;volatile
  2400                           	line	764
  2401                           ;main.c: 764: LATB = 0b10000100;
  2402  013D86  0E84               	movlw	low(084h)
  2403  013D88  6E8A               	movwf	((c:3978)),c	;volatile
  2404                           	line	766
  2405                           ;main.c: 766: LATC = 0b00001111;
  2406  013D8A  0E0F               	movlw	low(0Fh)
  2407  013D8C  6E8B               	movwf	((c:3979)),c	;volatile
  2408                           	line	768
  2409                           ;main.c: 768: } else if (led_array[0] == 1 && le
                                 d_array[8] == 1) {
  2410  013D8E  EFFF  F09F         	goto	l876
  2411                           	
  2412  013D92                     l975:		; BSR set to: ?
  2413                           
  2414  013D92  0400               	decf	((c:0)),c,w
  2415  013D94  1001               	iorwf ((c:0+1)),c,w
  2416                           
  2417  013D96  A4D8               	btfss	status,2
  2418  013D98  EFD0  F09E         	goto	u4931
  2419  013D9C  EFD2  F09E         	goto	u4930
  2420  013DA0                     u4931:
  2421  013DA0  EFE3  F09E         	goto	l977
  2422  013DA4                     u4930:
  2423  013DA4  0410               	decf	(0+((c:0)+010h)),c,w
  2424  013DA6  1011               	iorwf (1+((c:0)+010h)),c,w
  2425                           
  2426  013DA8  A4D8               	btfss	status,2
  2427  013DAA  EFD9  F09E         	goto	u4941
  2428  013DAE  EFDB  F09E         	goto	u4940
  2429  013DB2                     u4941:
  2430  013DB2  EFE3  F09E         	goto	l977
  2431  013DB6                     u4940:
  2432                           	line	771
  2433                           ;main.c: 771: LATA = 0b11101111;
  2434  013DB6  0EEF               	movlw	low(0EFh)
  2435  013DB8  6E89               	movwf	((c:3977)),c	;volatile
  2436                           	line	773
  2437                           ;main.c: 773: LATB = 0b10000100;
  2438  013DBA  0E84               	movlw	low(084h)
  2439  013DBC  6E8A               	movwf	((c:3978)),c	;volatile
  2440                           	line	775
  2441                           ;main.c: 775: LATC = 0b00001111;
  2442  013DBE  0E0F               	movlw	low(0Fh)
  2443  013DC0  6E8B               	movwf	((c:3979)),c	;volatile
  2444                           	line	777
  2445                           ;main.c: 777: } else if (led_array[0] == 1 && le
                                 d_array[9] == 1) {
  2446  013DC2  EFFF  F09F         	goto	l876
  2447                           	
  2448  013DC6                     l977:		; BSR set to: ?
  2449                           
  2450  013DC6  0400               	decf	((c:0)),c,w
  2451  013DC8  1001               	iorwf ((c:0+1)),c,w
  2452                           
  2453  013DCA  A4D8               	btfss	status,2
  2454  013DCC  EFEA  F09E         	goto	u4951
  2455  013DD0  EFEC  F09E         	goto	u4950
  2456  013DD4                     u4951:
  2457  013DD4  EFFD  F09E         	goto	l979
  2458  013DD8                     u4950:
  2459  013DD8  0412               	decf	(0+((c:0)+012h)),c,w
  2460  013DDA  1013               	iorwf (1+((c:0)+012h)),c,w
  2461                           
  2462  013DDC  A4D8               	btfss	status,2
  2463  013DDE  EFF3  F09E         	goto	u4961
  2464  013DE2  EFF5  F09E         	goto	u4960
  2465  013DE6                     u4961:
  2466  013DE6  EFFD  F09E         	goto	l979
  2467  013DEA                     u4960:
  2468                           	line	780
  2469                           ;main.c: 780: LATA = 0b11101111;
  2470  013DEA  0EEF               	movlw	low(0EFh)
  2471  013DEC  6E89               	movwf	((c:3977)),c	;volatile
  2472                           	line	782
  2473                           ;main.c: 782: LATB = 0b10000100;
  2474  013DEE  0E84               	movlw	low(084h)
  2475  013DF0  6E8A               	movwf	((c:3978)),c	;volatile
  2476                           	line	784
  2477                           ;main.c: 784: LATC = 0b00001111;
  2478  013DF2  0E0F               	movlw	low(0Fh)
  2479  013DF4  6E8B               	movwf	((c:3979)),c	;volatile
  2480                           	line	786
  2481                           ;main.c: 786: } else if (led_array[0] == 1 && le
                                 d_array[10] == 1) {
  2482  013DF6  EFFF  F09F         	goto	l876
  2483                           	
  2484  013DFA                     l979:		; BSR set to: ?
  2485                           
  2486  013DFA  0400               	decf	((c:0)),c,w
  2487  013DFC  1001               	iorwf ((c:0+1)),c,w
  2488                           
  2489  013DFE  A4D8               	btfss	status,2
  2490  013E00  EF04  F09F         	goto	u4971
  2491  013E04  EF06  F09F         	goto	u4970
  2492  013E08                     u4971:
  2493  013E08  EF17  F09F         	goto	l981
  2494  013E0C                     u4970:
  2495  013E0C  0414               	decf	(0+((c:0)+014h)),c,w
  2496  013E0E  1015               	iorwf (1+((c:0)+014h)),c,w
  2497                           
  2498  013E10  A4D8               	btfss	status,2
  2499  013E12  EF0D  F09F         	goto	u4981
  2500  013E16  EF0F  F09F         	goto	u4980
  2501  013E1A                     u4981:
  2502  013E1A  EF17  F09F         	goto	l981
  2503  013E1E                     u4980:
  2504                           	line	789
  2505                           ;main.c: 789: LATA = 0b11101111;
  2506  013E1E  0EEF               	movlw	low(0EFh)
  2507  013E20  6E89               	movwf	((c:3977)),c	;volatile
  2508                           	line	791
  2509                           ;main.c: 791: LATB = 0b10000100;
  2510  013E22  0E84               	movlw	low(084h)
  2511  013E24  6E8A               	movwf	((c:3978)),c	;volatile
  2512                           	line	793
  2513                           ;main.c: 793: LATC = 0b00001111;
  2514  013E26  0E0F               	movlw	low(0Fh)
  2515  013E28  6E8B               	movwf	((c:3979)),c	;volatile
  2516                           	line	795
  2517                           ;main.c: 795: } else if (led_array[0] == 1 && le
                                 d_array[11] == 1) {
  2518  013E2A  EFFF  F09F         	goto	l876
  2519                           	
  2520  013E2E                     l981:		; BSR set to: ?
  2521                           
  2522  013E2E  0400               	decf	((c:0)),c,w
  2523  013E30  1001               	iorwf ((c:0+1)),c,w
  2524                           
  2525  013E32  A4D8               	btfss	status,2
  2526  013E34  EF1E  F09F         	goto	u4991
  2527  013E38  EF20  F09F         	goto	u4990
  2528  013E3C                     u4991:
  2529  013E3C  EF31  F09F         	goto	l983
  2530  013E40                     u4990:
  2531  013E40  0416               	decf	(0+((c:0)+016h)),c,w
  2532  013E42  1017               	iorwf (1+((c:0)+016h)),c,w
  2533                           
  2534  013E44  A4D8               	btfss	status,2
  2535  013E46  EF27  F09F         	goto	u5001
  2536  013E4A  EF29  F09F         	goto	u5000
  2537  013E4E                     u5001:
  2538  013E4E  EF31  F09F         	goto	l983
  2539  013E52                     u5000:
  2540                           	line	798
  2541                           ;main.c: 798: LATA = 0b11101111;
  2542  013E52  0EEF               	movlw	low(0EFh)
  2543  013E54  6E89               	movwf	((c:3977)),c	;volatile
  2544                           	line	800
  2545                           ;main.c: 800: LATB = 0b10000100;
  2546  013E56  0E84               	movlw	low(084h)
  2547  013E58  6E8A               	movwf	((c:3978)),c	;volatile
  2548                           	line	802
  2549                           ;main.c: 802: LATC = 0b00001111;
  2550  013E5A  0E0F               	movlw	low(0Fh)
  2551  013E5C  6E8B               	movwf	((c:3979)),c	;volatile
  2552                           	line	804
  2553                           ;main.c: 804: } else if (led_array[0] == 1 && le
                                 d_array[12] == 1) {
  2554  013E5E  EFFF  F09F         	goto	l876
  2555                           	
  2556  013E62                     l983:		; BSR set to: ?
  2557                           
  2558  013E62  0400               	decf	((c:0)),c,w
  2559  013E64  1001               	iorwf ((c:0+1)),c,w
  2560                           
  2561  013E66  A4D8               	btfss	status,2
  2562  013E68  EF38  F09F         	goto	u5011
  2563  013E6C  EF3A  F09F         	goto	u5010
  2564  013E70                     u5011:
  2565  013E70  EF4B  F09F         	goto	l985
  2566  013E74                     u5010:
  2567  013E74  0418               	decf	(0+((c:0)+018h)),c,w
  2568  013E76  1019               	iorwf (1+((c:0)+018h)),c,w
  2569                           
  2570  013E78  A4D8               	btfss	status,2
  2571  013E7A  EF41  F09F         	goto	u5021
  2572  013E7E  EF43  F09F         	goto	u5020
  2573  013E82                     u5021:
  2574  013E82  EF4B  F09F         	goto	l985
  2575  013E86                     u5020:
  2576                           	line	807
  2577                           ;main.c: 807: LATA = 0b11101111;
  2578  013E86  0EEF               	movlw	low(0EFh)
  2579  013E88  6E89               	movwf	((c:3977)),c	;volatile
  2580                           	line	809
  2581                           ;main.c: 809: LATB = 0b10000100;
  2582  013E8A  0E84               	movlw	low(084h)
  2583  013E8C  6E8A               	movwf	((c:3978)),c	;volatile
  2584                           	line	811
  2585                           ;main.c: 811: LATC = 0b00001111;
  2586  013E8E  0E0F               	movlw	low(0Fh)
  2587  013E90  6E8B               	movwf	((c:3979)),c	;volatile
  2588                           	line	813
  2589                           ;main.c: 813: } else if (led_array[1] == 1 && le
                                 d_array[6] == 1) {
  2590  013E92  EFFF  F09F         	goto	l876
  2591                           	
  2592  013E96                     l985:		; BSR set to: ?
  2593                           
  2594  013E96  0402               	decf	(0+((c:0)+02h)),c,w
  2595  013E98  1003               	iorwf (1+((c:0)+02h)),c,w
  2596                           
  2597  013E9A  A4D8               	btfss	status,2
  2598  013E9C  EF52  F09F         	goto	u5031
  2599  013EA0  EF54  F09F         	goto	u5030
  2600  013EA4                     u5031:
  2601  013EA4  EF65  F09F         	goto	l987
  2602  013EA8                     u5030:
  2603  013EA8  040C               	decf	(0+((c:0)+0Ch)),c,w
  2604  013EAA  100D               	iorwf (1+((c:0)+0Ch)),c,w
  2605                           
  2606  013EAC  A4D8               	btfss	status,2
  2607  013EAE  EF5B  F09F         	goto	u5041
  2608  013EB2  EF5D  F09F         	goto	u5040
  2609  013EB6                     u5041:
  2610  013EB6  EF65  F09F         	goto	l987
  2611  013EBA                     u5040:
  2612                           	line	816
  2613                           ;main.c: 816: LATA = 0b11101111;
  2614  013EBA  0EEF               	movlw	low(0EFh)
  2615  013EBC  6E89               	movwf	((c:3977)),c	;volatile
  2616                           	line	818
  2617                           ;main.c: 818: LATB = 0b10000100;
  2618  013EBE  0E84               	movlw	low(084h)
  2619  013EC0  6E8A               	movwf	((c:3978)),c	;volatile
  2620                           	line	820
  2621                           ;main.c: 820: LATC = 0b00001111;
  2622  013EC2  0E0F               	movlw	low(0Fh)
  2623  013EC4  6E8B               	movwf	((c:3979)),c	;volatile
  2624                           	line	822
  2625                           ;main.c: 822: } else if (led_array[1] == 1 && le
                                 d_array[7] == 1) {
  2626  013EC6  EFFF  F09F         	goto	l876
  2627                           	
  2628  013ECA                     l987:		; BSR set to: ?
  2629                           
  2630  013ECA  0402               	decf	(0+((c:0)+02h)),c,w
  2631  013ECC  1003               	iorwf (1+((c:0)+02h)),c,w
  2632                           
  2633  013ECE  A4D8               	btfss	status,2
  2634  013ED0  EF6C  F09F         	goto	u5051
  2635  013ED4  EF6E  F09F         	goto	u5050
  2636  013ED8                     u5051:
  2637  013ED8  EF7F  F09F         	goto	l989
  2638  013EDC                     u5050:
  2639  013EDC  040E               	decf	(0+((c:0)+0Eh)),c,w
  2640  013EDE  100F               	iorwf (1+((c:0)+0Eh)),c,w
  2641                           
  2642  013EE0  A4D8               	btfss	status,2
  2643  013EE2  EF75  F09F         	goto	u5061
  2644  013EE6  EF77  F09F         	goto	u5060
  2645  013EEA                     u5061:
  2646  013EEA  EF7F  F09F         	goto	l989
  2647  013EEE                     u5060:
  2648                           	line	825
  2649                           ;main.c: 825: LATA = 0b11101111;
  2650  013EEE  0EEF               	movlw	low(0EFh)
  2651  013EF0  6E89               	movwf	((c:3977)),c	;volatile
  2652                           	line	827
  2653                           ;main.c: 827: LATB = 0b10000100;
  2654  013EF2  0E84               	movlw	low(084h)
  2655  013EF4  6E8A               	movwf	((c:3978)),c	;volatile
  2656                           	line	829
  2657                           ;main.c: 829: LATC = 0b00001111;
  2658  013EF6  0E0F               	movlw	low(0Fh)
  2659  013EF8  6E8B               	movwf	((c:3979)),c	;volatile
  2660                           	line	831
  2661                           ;main.c: 831: } else if (led_array[1] == 1 && le
                                 d_array[8] == 1) {
  2662  013EFA  EFFF  F09F         	goto	l876
  2663                           	
  2664  013EFE                     l989:		; BSR set to: ?
  2665                           
  2666  013EFE  0402               	decf	(0+((c:0)+02h)),c,w
  2667  013F00  1003               	iorwf (1+((c:0)+02h)),c,w
  2668                           
  2669  013F02  A4D8               	btfss	status,2
  2670  013F04  EF86  F09F         	goto	u5071
  2671  013F08  EF88  F09F         	goto	u5070
  2672  013F0C                     u5071:
  2673  013F0C  EF99  F09F         	goto	l991
  2674  013F10                     u5070:
  2675  013F10  0410               	decf	(0+((c:0)+010h)),c,w
  2676  013F12  1011               	iorwf (1+((c:0)+010h)),c,w
  2677                           
  2678  013F14  A4D8               	btfss	status,2
  2679  013F16  EF8F  F09F         	goto	u5081
  2680  013F1A  EF91  F09F         	goto	u5080
  2681  013F1E                     u5081:
  2682  013F1E  EF99  F09F         	goto	l991
  2683  013F22                     u5080:
  2684                           	line	834
  2685                           ;main.c: 834: LATA = 0b11101111;
  2686  013F22  0EEF               	movlw	low(0EFh)
  2687  013F24  6E89               	movwf	((c:3977)),c	;volatile
  2688                           	line	836
  2689                           ;main.c: 836: LATB = 0b10000100;
  2690  013F26  0E84               	movlw	low(084h)
  2691  013F28  6E8A               	movwf	((c:3978)),c	;volatile
  2692                           	line	838
  2693                           ;main.c: 838: LATC = 0b00001111;
  2694  013F2A  0E0F               	movlw	low(0Fh)
  2695  013F2C  6E8B               	movwf	((c:3979)),c	;volatile
  2696                           	line	840
  2697                           ;main.c: 840: } else if (led_array[1] == 1 && le
                                 d_array[9] == 1) {
  2698  013F2E  EFFF  F09F         	goto	l876
  2699                           	
  2700  013F32                     l991:		; BSR set to: ?
  2701                           
  2702  013F32  0402               	decf	(0+((c:0)+02h)),c,w
  2703  013F34  1003               	iorwf (1+((c:0)+02h)),c,w
  2704                           
  2705  013F36  A4D8               	btfss	status,2
  2706  013F38  EFA0  F09F         	goto	u5091
  2707  013F3C  EFA2  F09F         	goto	u5090
  2708  013F40                     u5091:
  2709  013F40  EFB3  F09F         	goto	l993
  2710  013F44                     u5090:
  2711  013F44  0412               	decf	(0+((c:0)+012h)),c,w
  2712  013F46  1013               	iorwf (1+((c:0)+012h)),c,w
  2713                           
  2714  013F48  A4D8               	btfss	status,2
  2715  013F4A  EFA9  F09F         	goto	u5101
  2716  013F4E  EFAB  F09F         	goto	u5100
  2717  013F52                     u5101:
  2718  013F52  EFB3  F09F         	goto	l993
  2719  013F56                     u5100:
  2720                           	line	843
  2721                           ;main.c: 843: LATA = 0b11101111;
  2722  013F56  0EEF               	movlw	low(0EFh)
  2723  013F58  6E89               	movwf	((c:3977)),c	;volatile
  2724                           	line	845
  2725                           ;main.c: 845: LATB = 0b10000100;
  2726  013F5A  0E84               	movlw	low(084h)
  2727  013F5C  6E8A               	movwf	((c:3978)),c	;volatile
  2728                           	line	847
  2729                           ;main.c: 847: LATC = 0b00001111;
  2730  013F5E  0E0F               	movlw	low(0Fh)
  2731  013F60  6E8B               	movwf	((c:3979)),c	;volatile
  2732                           	line	849
  2733                           ;main.c: 849: } else if (led_array[1] == 1 && le
                                 d_array[10] == 1) {
  2734  013F62  EFFF  F09F         	goto	l876
  2735                           	
  2736  013F66                     l993:		; BSR set to: ?
  2737                           
  2738  013F66  0402               	decf	(0+((c:0)+02h)),c,w
  2739  013F68  1003               	iorwf (1+((c:0)+02h)),c,w
  2740                           
  2741  013F6A  A4D8               	btfss	status,2
  2742  013F6C  EFBA  F09F         	goto	u5111
  2743  013F70  EFBC  F09F         	goto	u5110
  2744  013F74                     u5111:
  2745  013F74  EFCD  F09F         	goto	l995
  2746  013F78                     u5110:
  2747  013F78  0414               	decf	(0+((c:0)+014h)),c,w
  2748  013F7A  1015               	iorwf (1+((c:0)+014h)),c,w
  2749                           
  2750  013F7C  A4D8               	btfss	status,2
  2751  013F7E  EFC3  F09F         	goto	u5121
  2752  013F82  EFC5  F09F         	goto	u5120
  2753  013F86                     u5121:
  2754  013F86  EFCD  F09F         	goto	l995
  2755  013F8A                     u5120:
  2756                           	line	852
  2757                           ;main.c: 852: LATA = 0b11101111;
  2758  013F8A  0EEF               	movlw	low(0EFh)
  2759  013F8C  6E89               	movwf	((c:3977)),c	;volatile
  2760                           	line	854
  2761                           ;main.c: 854: LATB = 0b10000100;
  2762  013F8E  0E84               	movlw	low(084h)
  2763  013F90  6E8A               	movwf	((c:3978)),c	;volatile
  2764                           	line	856
  2765                           ;main.c: 856: LATC = 0b00001111;
  2766  013F92  0E0F               	movlw	low(0Fh)
  2767  013F94  6E8B               	movwf	((c:3979)),c	;volatile
  2768                           	line	858
  2769                           ;main.c: 858: } else if (led_array[1] == 1 && le
                                 d_array[11] == 1) {
  2770  013F96  EFFF  F09F         	goto	l876
  2771                           	
  2772  013F9A                     l995:		; BSR set to: ?
  2773                           
  2774  013F9A  0402               	decf	(0+((c:0)+02h)),c,w
  2775  013F9C  1003               	iorwf (1+((c:0)+02h)),c,w
  2776                           
  2777  013F9E  A4D8               	btfss	status,2
  2778  013FA0  EFD4  F09F         	goto	u5131
  2779  013FA4  EFD6  F09F         	goto	u5130
  2780  013FA8                     u5131:
  2781  013FA8  EFE7  F09F         	goto	l997
  2782  013FAC                     u5130:
  2783  013FAC  0416               	decf	(0+((c:0)+016h)),c,w
  2784  013FAE  1017               	iorwf (1+((c:0)+016h)),c,w
  2785                           
  2786  013FB0  A4D8               	btfss	status,2
  2787  013FB2  EFDD  F09F         	goto	u5141
  2788  013FB6  EFDF  F09F         	goto	u5140
  2789  013FBA                     u5141:
  2790  013FBA  EFE7  F09F         	goto	l997
  2791  013FBE                     u5140:
  2792                           	line	861
  2793                           ;main.c: 861: LATA = 0b11101111;
  2794  013FBE  0EEF               	movlw	low(0EFh)
  2795  013FC0  6E89               	movwf	((c:3977)),c	;volatile
  2796                           	line	863
  2797                           ;main.c: 863: LATB = 0b10000100;
  2798  013FC2  0E84               	movlw	low(084h)
  2799  013FC4  6E8A               	movwf	((c:3978)),c	;volatile
  2800                           	line	865
  2801                           ;main.c: 865: LATC = 0b00001111;
  2802  013FC6  0E0F               	movlw	low(0Fh)
  2803  013FC8  6E8B               	movwf	((c:3979)),c	;volatile
  2804                           	line	867
  2805                           ;main.c: 867: } else if (led_array[1] == 1 && le
                                 d_array[12] == 1) {
  2806  013FCA  EFFF  F09F         	goto	l876
  2807                           	
  2808  013FCE                     l997:		; BSR set to: ?
  2809                           
  2810  013FCE  0402               	decf	(0+((c:0)+02h)),c,w
  2811  013FD0  1003               	iorwf (1+((c:0)+02h)),c,w
  2812                           
  2813  013FD2  A4D8               	btfss	status,2
  2814  013FD4  EFEE  F09F         	goto	u5151
  2815  013FD8  EFF0  F09F         	goto	u5150
  2816  013FDC                     u5151:
  2817  013FDC  EFFF  F09F         	goto	l876
  2818  013FE0                     u5150:
  2819  013FE0  0418               	decf	(0+((c:0)+018h)),c,w
  2820  013FE2  1019               	iorwf (1+((c:0)+018h)),c,w
  2821                           
  2822  013FE4  A4D8               	btfss	status,2
  2823  013FE6  EFF7  F09F         	goto	u5161
  2824  013FEA  EFF9  F09F         	goto	u5160
  2825  013FEE                     u5161:
  2826  013FEE  EFFF  F09F         	goto	l876
  2827  013FF2                     u5160:
  2828                           	line	870
  2829                           ;main.c: 870: LATA = 0b11101111;
  2830  013FF2  0EEF               	movlw	low(0EFh)
  2831  013FF4  6E89               	movwf	((c:3977)),c	;volatile
  2832                           	line	872
  2833                           ;main.c: 872: LATB = 0b10000100;
  2834  013FF6  0E84               	movlw	low(084h)
  2835  013FF8  6E8A               	movwf	((c:3978)),c	;volatile
  2836                           	line	874
  2837                           ;main.c: 874: LATC = 0b00001111;
  2838  013FFA  0E0F               	movlw	low(0Fh)
  2839  013FFC  6E8B               	movwf	((c:3979)),c	;volatile
  2840                           	line	875
  2841                           	
  2842  013FFE                     l999:		; BSR set to: ?
  2843                           
  2844                           	line	880
  2845                           	
  2846  013FFE                     l998:		; BSR set to: ?
  2847                           
  2848                           	
  2849  013FFE                     l996:		; BSR set to: ?
  2850                           
  2851                           	
  2852  013FFE                     l994:		; BSR set to: ?
  2853                           
  2854                           	
  2855  013FFE                     l992:		; BSR set to: ?
  2856                           
  2857                           	
  2858  013FFE                     l990:		; BSR set to: ?
  2859                           
  2860                           	
  2861  013FFE                     l988:		; BSR set to: ?
  2862                           
  2863                           	
  2864  013FFE                     l986:		; BSR set to: ?
  2865                           
  2866                           	
  2867  013FFE                     l984:		; BSR set to: ?
  2868                           
  2869                           	
  2870  013FFE                     l982:		; BSR set to: ?
  2871                           
  2872                           	
  2873  013FFE                     l980:		; BSR set to: ?
  2874                           
  2875                           	
  2876  013FFE                     l978:		; BSR set to: ?
  2877                           
  2878                           	
  2879  013FFE                     l976:		; BSR set to: ?
  2880                           
  2881                           	
  2882  013FFE                     l974:		; BSR set to: ?
  2883                           
  2884                           	
  2885  013FFE                     l972:		; BSR set to: ?
  2886                           
  2887                           	
  2888  013FFE                     l970:		; BSR set to: ?
  2889                           
  2890                           	
  2891  013FFE                     l968:		; BSR set to: ?
  2892                           
  2893                           	
  2894  013FFE                     l966:		; BSR set to: ?
  2895                           
  2896                           	
  2897  013FFE                     l964:		; BSR set to: ?
  2898                           
  2899                           	
  2900  013FFE                     l962:		; BSR set to: ?
  2901                           
  2902                           	
  2903  013FFE                     l960:		; BSR set to: ?
  2904                           
  2905                           	
  2906  013FFE                     l958:		; BSR set to: ?
  2907                           
  2908                           	
  2909  013FFE                     l956:		; BSR set to: ?
  2910                           
  2911                           	
  2912  013FFE                     l954:		; BSR set to: ?
  2913                           
  2914                           	
  2915  013FFE                     l952:		; BSR set to: ?
  2916                           
  2917                           	
  2918  013FFE                     l950:		; BSR set to: ?
  2919                           
  2920                           	
  2921  013FFE                     l948:		; BSR set to: ?
  2922                           
  2923                           	
  2924  013FFE                     l946:		; BSR set to: ?
  2925                           
  2926                           	
  2927  013FFE                     l944:		; BSR set to: ?
  2928                           
  2929                           	
  2930  013FFE                     l942:		; BSR set to: ?
  2931                           
  2932                           	
  2933  013FFE                     l940:		; BSR set to: ?
  2934                           
  2935                           	
  2936  013FFE                     l938:		; BSR set to: ?
  2937                           
  2938                           	
  2939  013FFE                     l936:		; BSR set to: ?
  2940                           
  2941                           	
  2942  013FFE                     l934:		; BSR set to: ?
  2943                           
  2944                           	
  2945  013FFE                     l932:		; BSR set to: ?
  2946                           
  2947                           	
  2948  013FFE                     l930:		; BSR set to: ?
  2949                           
  2950                           	
  2951  013FFE                     l928:		; BSR set to: ?
  2952                           
  2953                           	
  2954  013FFE                     l926:		; BSR set to: ?
  2955                           
  2956                           	
  2957  013FFE                     l924:		; BSR set to: ?
  2958                           
  2959                           	
  2960  013FFE                     l922:		; BSR set to: ?
  2961                           
  2962                           	
  2963  013FFE                     l920:		; BSR set to: ?
  2964                           
  2965                           	
  2966  013FFE                     l918:		; BSR set to: ?
  2967                           
  2968                           	
  2969  013FFE                     l916:		; BSR set to: ?
  2970                           
  2971                           	
  2972  013FFE                     l914:		; BSR set to: ?
  2973                           
  2974                           	
  2975  013FFE                     l912:		; BSR set to: ?
  2976                           
  2977                           	
  2978  013FFE                     l910:		; BSR set to: ?
  2979                           
  2980                           	
  2981  013FFE                     l908:		; BSR set to: ?
  2982                           
  2983                           	
  2984  013FFE                     l906:		; BSR set to: ?
  2985                           
  2986                           	
  2987  013FFE                     l904:		; BSR set to: ?
  2988                           
  2989                           	
  2990  013FFE                     l902:		; BSR set to: ?
  2991                           
  2992                           	
  2993  013FFE                     l900:		; BSR set to: ?
  2994                           
  2995                           	
  2996  013FFE                     l898:		; BSR set to: ?
  2997                           
  2998                           	
  2999  013FFE                     l896:		; BSR set to: ?
  3000                           
  3001                           	
  3002  013FFE                     l894:		; BSR set to: ?
  3003                           
  3004                           	
  3005  013FFE                     l892:		; BSR set to: ?
  3006                           
  3007                           	
  3008  013FFE                     l890:		; BSR set to: ?
  3009                           
  3010                           	
  3011  013FFE                     l888:		; BSR set to: ?
  3012                           
  3013                           	
  3014  013FFE                     l886:		; BSR set to: ?
  3015                           
  3016                           	
  3017  013FFE                     l884:		; BSR set to: ?
  3018                           
  3019                           	
  3020  013FFE                     l882:		; BSR set to: ?
  3021                           
  3022                           	
  3023  013FFE                     l880:		; BSR set to: ?
  3024                           
  3025                           	
  3026  013FFE                     l878:		; BSR set to: ?
  3027                           
  3028                           	
  3029  013FFE                     l876:		; BSR set to: ?
  3030                           
  3031                           ;main.c: 875: }
  3032                           ;main.c: 880: }
  3033  013FFE                     l874:
  3034                           			; BSR set to: ?
  3035                           
  3036  013FFE  0012               	return
  3037                           	opt stack 0
  3038                           GLOBAL __end_of_ToggleLeds
  3039  014000                     	__end_of_ToggleLeds:
  3040                           	FNSIZE	_ToggleLeds,0,0
  3041                           ; =============== function _ToggleLeds ends ====
                                 ========
  3042                           
  3043                           	signat	_ToggleLeds,88
  3044                           	FNCALL	_main,_ToggleLeds
  3045                           	FNROOT	_main
  3046                                   psect   const,class=CODE,space=0,reloc=2
  3047                           	global	_led_array
  3048                           	global	_led_array
  3049  000000                     _led_array  equ     0
  3050                           
  3051                           	DABS	1,0,26	;_led_array
  3052                           	global	_cur_inputs
  3053                           	global	_cur_inputs
  3054  000000                     _cur_inputs  equ     26
  3055                           
  3056                           	DABS	1,26,14	;_cur_inputs
  3057                           	global	_prev_inputs
  3058                           	global	_prev_inputs
  3059  000000                     _prev_inputs  equ     51
  3060                           
  3061                           	DABS	1,51,14	;_prev_inputs
  3062                           	global	_conv_result
  3063                           	global	_conv_result
  3064  000000                     _conv_result  equ     42
  3065                           
  3066                           	DABS	1,42,4	;_conv_result
  3067                           	global	_index
  3068                           	global	_index
  3069  000000                     _index  equ     40
  3070                           
  3071                           	DABS	1,40,2	;_index
  3072                           	global	_USART_Status
  3073                           	global	_USART_Status
  3074  000000                     _USART_Status  equ     48
  3075                           
  3076                           	DABS	1,48,1	;_USART_Status
  3077                           	global	_adc_num
  3078                           	global	_adc_num
  3079  000000                     _adc_num  equ     46
  3080                           
  3081                           	DABS	1,46,1	;_adc_num
  3082                           	global	_change_val
  3083                           	global	_change_val
  3084  000000                     _change_val  equ     47
  3085                           
  3086                           	DABS	1,47,1	;_change_val
  3087                           	global	_uart_in
  3088                           	global	_uart_in
  3089  000000                     _uart_in  equ     50
  3090                           
  3091                           	DABS	1,50,1	;_uart_in
  3092                           	global	_uart_out
  3093                           	global	_uart_out
  3094  000000                     _uart_out  equ     49
  3095                           
  3096                           	DABS	1,49,1	;_uart_out
  3097                           	global	_ADRES
  3098  000000                     _ADRES	equ	0xFC3
  3099                           	global	_ADCON0
  3100  000000                     _ADCON0	equ	0xFC2
  3101                           	global	_ADCON1
  3102  000000                     _ADCON1	equ	0xFC1
  3103                           	global	_ADCON2
  3104  000000                     _ADCON2	equ	0xFC0
  3105                           	global	_ADRESH
  3106  000000                     _ADRESH	equ	0xFC4
  3107                           	global	_ADRESL
  3108  000000                     _ADRESL	equ	0xFC3
  3109                           	global	_BAUDCON
  3110  000000                     _BAUDCON	equ	0xFB8
  3111                           	global	_LATA
  3112  000000                     _LATA	equ	0xF89
  3113                           	global	_LATB
  3114  000000                     _LATB	equ	0xF8A
  3115                           	global	_LATC
  3116  000000                     _LATC	equ	0xF8B
  3117                           	global	_OSCCON
  3118  000000                     _OSCCON	equ	0xFD3
  3119                           	global	_RCREG
  3120  000000                     _RCREG	equ	0xFAE
  3121                           	global	_RCSTA
  3122  000000                     _RCSTA	equ	0xFAB
  3123                           	global	_SPBRG
  3124  000000                     _SPBRG	equ	0xFAF
  3125                           	global	_SPBRGH
  3126  000000                     _SPBRGH	equ	0xFB0
  3127                           	global	_TRISA
  3128  000000                     _TRISA	equ	0xF92
  3129                           	global	_TRISB
  3130  000000                     _TRISB	equ	0xF93
  3131                           	global	_TRISC
  3132  000000                     _TRISC	equ	0xF94
  3133                           	global	_TXREG
  3134  000000                     _TXREG	equ	0xFAD
  3135                           	global	_TXSTA
  3136  000000                     _TXSTA	equ	0xFAC
  3137                           	global	_ADON
  3138  000000                     _ADON	equ	0x7E10
  3139                           	global	_BRGH_x
  3140  000000                     _BRGH_x	equ	0x7D62
  3141                           	global	_CREN_x
  3142  000000                     _CREN_x	equ	0x7D5C
  3143                           	global	_CSRC_x
  3144  000000                     _CSRC_x	equ	0x7D67
  3145                           	global	_FERR
  3146  000000                     _FERR	equ	0x7D5A
  3147                           	global	_GODONE
  3148  000000                     _GODONE	equ	0x7E11
  3149                           	global	_OERR
  3150  000000                     _OERR	equ	0x7D59
  3151                           	global	_RCIE_x
  3152  000000                     _RCIE_x	equ	0x7CED
  3153                           	global	_RCIF
  3154  000000                     _RCIF	equ	0x7CF5
  3155                           	global	_RX9D
  3156  000000                     _RX9D	equ	0x7D58
  3157                           	global	_RX9_x
  3158  000000                     _RX9_x	equ	0x7D5E
  3159                           	global	_SENDB_x
  3160  000000                     _SENDB_x	equ	0x7D63
  3161                           	global	_SPEN_x
  3162  000000                     _SPEN_x	equ	0x7D5F
  3163                           	global	_SREN_x
  3164  000000                     _SREN_x	equ	0x7D5D
  3165                           	global	_SYNC_x
  3166  000000                     _SYNC_x	equ	0x7D64
  3167                           	global	_TRISC6
  3168  000000                     _TRISC6	equ	0x7CA6
  3169                           	global	_TRISC7
  3170  000000                     _TRISC7	equ	0x7CA7
  3171                           	global	_TRMT_x
  3172  000000                     _TRMT_x	equ	0x7D61
  3173                           	global	_TX9D
  3174  000000                     _TX9D	equ	0x7D60
  3175                           	global	_TX9_x
  3176  000000                     _TX9_x	equ	0x7D66
  3177                           	global	_TXEN_x
  3178  000000                     _TXEN_x	equ	0x7D65
  3179                           	global	_TXIE_x
  3180  000000                     _TXIE_x	equ	0x7CEC
  3181                           	global	_TXIF
  3182  000000                     _TXIF	equ	0x7CF4
  3183                           	psect	intsave_regs,class=BIGRAM,space=1
  3184                           	PSECT	param1,class=BANK1,space=1
  3185                           	GLOBAL	__Lparam1
  3186                           	FNCONF	param1,??,?
  3187                           	GLOBAL	__Labsbss0
  3188  000000                     __Labsbss0	EQU	0
  3189                           	GLOBAL	__Habsbss0
  3190  000000                     __Habsbss0	EQU	65
  3191                           GLOBAL	__Lparam, __Hparam
  3192                           GLOBAL	__Lparam1, __Hparam1
  3193  000000                     __Lparam	EQU	__Lparam1
  3194  000000                     __Hparam	EQU	__Hparam1


HI-TECH Software PICC-18 Macro Assembler V9.66 build 8870 
Symbol Table                                           Tue May 01 14:03:36 2012

                l900 3FFE                  l901 3512  
                l902 3FFE                  l910 3FFE  
                l911 3616                  l903 3546  
                l904 3FFE                  l912 3FFE  
                l920 3FFE                  l921 3750  
                l913 364A                  l905 357A  
                l906 3FFE                  l914 3FFE  
                l922 3FFE                  l930 3FFE  
                l931 389C                  l923 3796  
                l915 367E                  l907 35AE  
                l908 3FFE                  l916 3FFE  
                l924 3FFE                  l932 3FFE  
                l940 3FFE                  l941 39A0  
                l933 38D0                  l925 37DC  
                l917 36C4                  l909 35E2  
                l918 3FFE                  l926 3FFE  
                l934 3FFE                  l942 3FFE  
                l950 3FFE                  l870 31A6  
                l951 3AA4                  l943 39D4  
                l935 3904                  l927 3822  
                l919 370A                  l871 3170  
                l880 3FFE                  l928 3FFE  
                l936 3FFE                  l944 3FFE  
                l952 3FFE                  l960 3FFE  
                l872 316C                  l961 3BCC  
                l953 3AD8                  l945 3A08  
                l937 3938                  l929 3868  
                l881 32DA                  l873 3180  
                l874 3FFE                  l882 3FFE  
                l890 3FFE                  l938 3FFE  
                l946 3FFE                  l954 3FFE  
                l962 3FFE                  l970 3FFE  
                l971 3D2A                  l963 3C12  
                l955 3B0C                  l947 3A3C  
                l939 396C                  l891 340E  
                l883 331E                  l875 320C  
                l867 31AA                  l884 3FFE  
                l892 3FFE                  l948 3FFE  
                l956 3FFE                  l964 3FFE  
                l972 3FFE                  l980 3FFE  
                l876 3FFE                  l868 31A6  
                l981 3E2E                  l973 3D5E  
                l965 3C58                  l957 3B40  
                l949 3A70                  l893 3442  
                l885 3362                  l877 3252  
                l878 3FFE                  l886 3FFE  
                l894 3FFE                  l958 3FFE  
                l966 3FFE                  l974 3FFE  
                l982 3FFE                  l990 3FFE  
                l991 3F32                  l983 3E62  
                l975 3D92                  l967 3C9E  
                l959 3B86                  l895 3476  
                l887 33A6                  l879 3296  
                l888 3FFE                  l896 3FFE  
                l968 3FFE                  l976 3FFE  
                l984 3FFE                  l992 3FFE  
                l993 3F66                  l985 3E96  
                l977 3DC6                  l969 3CE4  
                l897 34AA                  l889 33DA  
                l898 3FFE                  l978 3FFE  
                l986 3FFE                  l994 3FFE  
                l995 3F9A                  l987 3ECA  
                l979 3DFA                  l899 34DE  
                l988 3FFE                  l996 3FFE  
                l997 3FCE                  l989 3EFE  
                l998 3FFE                  l999 3FFE  
        main@channel 0104                 _ADON 007E10  
               _FERR 007D5A                 _LATA 000F89  
               _LATB 000F8A                 _LATC 000F8B  
               u4000 349A                 u4001 3496  
               u4010 34BC                 u4011 34B8  
               u4100 359E                 u4020 34CE  
               u4101 359A                 u4021 34CA  
               u4110 35C0                 u4030 34F0  
               u4111 35BC                 u4031 34EC  
               u5000 3E52                 u4200 36A2  
               u4120 35D2                 u4040 3502  
               u5001 3E4E                 u4201 369E  
               u4121 35CE                 u4041 34FE  
               u5010 3E74                 u4210 36B4  
               u4130 35F4                 u4050 3524  
               u5011 3E70                 u4211 36B0  
               u4131 35F0                 u4051 3520  
               u5100 3F56                 u5020 3E86  
               u4300 3786                 u4220 36D6  
               u4140 3606                 u4060 3536  
               u5101 3F52                 u5021 3E82  
               u4301 3782                 u4221 36D2  
               u4141 3602                 u4061 3532  
               u5110 3F78                 u5030 3EA8  
               u4310 37A8                 u4230 36E8  
               u4150 3628                 u4070 3558  
               u5111 3F74                 u5031 3EA4  
               u4311 37A4                 u4231 36E4  
               u4151 3624                 u4071 3554  
               u5120 3F8A                 u5040 3EBA  
               u4400 387A                 u4320 37BA  
               u4240 36FA                 u4160 363A  
               u4080 356A                 u5121 3F86  
               u5041 3EB6                 u4401 3876  
               u4321 37B6                 u4241 36F6  
               u4161 3636                 u4081 3566  
               u5130 3FAC                 u5050 3EDC  
               u4410 388C                 u4330 37CC  
               u4250 371C                 u4170 365C  
               u4090 358C                 u5131 3FA8  
               u5051 3ED8                 u4411 3888  
               u4331 37C8                 u4251 3718  
               u4171 3658                 u4091 3588  
               u5140 3FBE                 u5060 3EEE  
               u4500 397E                 u4420 38AE  
               u4340 37EE                 u4260 372E  
               u4180 366E                 u3700 31D8  
               u5141 3FBA                 u5061 3EEA  
               u4501 397A                 u4421 38AA  
               u4341 37EA                 u4261 372A  
               u4181 366A                 u3701 31D4  
               u5150 3FE0                 u5070 3F10  
               u4510 3990                 u4430 38C0  
               u4350 3800                 u4270 3740  
               u4190 3690                 u3710 31EA  
               u5151 3FDC                 u5071 3F0C  
               u4511 398C                 u4431 38BC  
               u4351 37FC                 u4271 373C  
               u4191 368C                 u3711 31E6  
               u5160 3FF2                 u5080 3F22  
               u4600 3A82                 u4520 39B2  
               u4440 38E2                 u4360 3812  
               u4280 3762                 u3800 32BA  
               u3720 31FC                 u5161 3FEE  
               u5081 3F1E                 u4601 3A7E  
               u4521 39AE                 u4441 38DE  
               u4361 380E                 u4281 375E  
               u3801 32B6                 u3721 31F8  
               u5090 3F44                 u4610 3A94  
               u4530 39C4                 u4450 38F4  
               u4370 3834                 u4290 3774  
               u3810 32CC                 u3730 321E  
               u5170 3180                 u5091 3F40  
               u4611 3A90                 u4531 39C0  
               u4451 38F0                 u4371 3830  
               u4291 3770                 u3811 32C8  
               u3731 321A                 u5171 317C  
               u4700 3B76                 u4620 3AB6  
               u4540 39E6                 u4460 3916  
               u4380 3846                 u3900 3398  
               u3820 32EC                 u3740 3230  
               u4701 3B72                 u4621 3AB2  
               u4541 39E2                 u4461 3912  
               u4381 3842                 u3901 3394  
               u3821 32E8                 u3741 322C  
               u4710 3B98                 u4630 3AC8  
               u4550 39F8                 u4470 3928  
               u4390 3858                 u3910 33B8  
               u3830 32FE                 u3750 3242  
               u4711 3B94                 u4631 3AC4  
               u4551 39F4                 u4471 3924  
               u4391 3854                 u3911 33B4  
               u3831 32FA                 u3751 323E  
               u4800 3C6A                 u4720 3BAA  
               u4640 3AEA                 u4560 3A1A  
               u4480 394A                 u3920 33CA  
               u3840 3310                 u3760 3264  
               u4801 3C66                 u4721 3BA6  
               u4641 3AE6                 u4561 3A16  
               u4481 3946                 u3921 33C6  
               u3841 330C                 u3761 3260  
               u4810 3C7C                 u4730 3BBC  
               u4650 3AFC                 u4570 3A2C  
               u4490 395C                 u3930 33EC  
               u3850 3330                 u3770 3276  
               u4811 3C78                 u4731 3BB8  
               u4651 3AF8                 u4571 3A28  
               u4491 3958                 u3931 33E8  
               u3851 332C                 u3771 3272  
               _RCIF 007CF5                 u4900 3D4E  
               u4820 3C8E                 u4740 3BDE  
               u4660 3B1E                 u4580 3A4E  
               u3940 33FE                 u3860 3342  
               u3780 3288                 u4901 3D4A  
               u4821 3C8A                 u4741 3BDA  
               u4661 3B1A                 u4581 3A4A  
               u3941 33FA                 u3861 333E  
               u3781 3284                 u4910 3D70  
               u4830 3CB0                 u4750 3BF0  
               u4670 3B30                 u4590 3A60  
               u3950 3420                 u3870 3354  
               u3790 32A8                 u4911 3D6C  
               u4831 3CAC                 u4751 3BEC  
               u4671 3B2C                 u4591 3A5C  
               u3951 341C                 u3871 3350  
               u3791 32A4                 u4920 3D82  
               u4840 3CC2                 u4760 3C02  
               u4680 3B52                 u3960 3432  
               u3880 3374                 u4921 3D7E  
               u4841 3CBE                 u4761 3BFE  
               u4681 3B4E                 u3961 342E  
               u3881 3370                 u4930 3DA4  
               u4850 3CD4                 u4770 3C24  
               u4690 3B64                 u3970 3454  
               u3890 3386                 u4931 3DA0  
               u4851 3CD0                 u4771 3C20  
               u4691 3B60                 u3971 3450  
               u3891 3382                 u4940 3DB6  
               u4860 3CF6                 u4780 3C36  
               u3980 3466                 u4941 3DB2  
               u4861 3CF2                 u4781 3C32  
               u3981 3462                 u4950 3DD8  
               u4870 3D08                 u4790 3C48  
               u3990 3488                 u4951 3DD4  
               u4871 3D04                 u4791 3C44  
               u3991 3484                 u4960 3DEA  
               u4880 3D1A                 u4961 3DE6  
               u4881 3D16                 _OERR 007D59  
               u4970 3E0C                 u4890 3D3C  
               u4971 3E08                 u4891 3D38  
               u4980 3E1E                 u4981 3E1A  
               u4990 3E40                 u4991 3E3C  
               _RX9D 007D58                 _TX9D 007D60  
               _TXIF 007CF4                 _main 312C  
               fsr0l 000FE9                 start 0000  
              ?_main 0100                _ADRES 000FC3  
              _RCREG 000FAE                _RCSTA 000FAB  
              _SPBRG 000FAF                _TRISA 000F92  
              _TRISB 000F93                _TRISC 000F94  
              _RX9_x 007D5E                _TXREG 000FAD  
              _TX9_x 007D66                _TXSTA 000FAC  
              _index 000028                status 000FD8  
       __end_of_main 31AE               ??_main 0104  
      __activetblptr 000000               _ADCON0 000FC2  
             _ADCON1 000FC1               _ADCON2 000FC0  
             _ADRESH 000FC4               _ADRESL 000FC3  
             _BRGH_x 007D62               _GODONE 007E11  
             _CREN_x 007D5C               _CSRC_x 007D67  
             _RCIE_x 007CED               _OSCCON 000FD3  
             _SPBRGH 000FB0               _TRISC6 007CA6  
             _TRISC7 007CA7               _SPEN_x 007D5F  
             _SREN_x 007D5D               _TRMT_x 007D61  
             _TXIE_x 007CEC               _TXEN_x 007D65  
             _SYNC_x 007D64               __Ldata 000000  
         _ToggleLeds 31AE         __mediumconst 0D00  
         __accesstop 0060           _change_val 00002F  
            _BAUDCON 000FB8          ?_ToggleLeds 0108  
            _SENDB_x 007D63              __Hparam 0108  
         _cur_inputs 00001A              __Lparam 0100  
            _adc_num 00002E              __ramtop 0D00  
            _uart_in 000032        __Lmediumconst 0D00  
            postdec0 000FED              postinc0 000FEE  
         main@result 0105            __Habsbss0 000041  
          __Labsbss0 000000         ??_ToggleLeds 0108  
 __end_of_ToggleLeds 4000            _led_array 000000  
        __smallconst 0D00          _conv_result 00002A  
           __Hparam1 0108             __Lparam1 0100  
       __Lsmallconst 0D00             __config1 00F0FF  
           __config2 00FEFF             __config3 007FFF  
           __config4 00FFFB             __config5 00FFFF  
           __config6 00FFFF             __config7 00FFFF  
           _uart_out 000031             main@argc 0100  
           main@argv 0102          _prev_inputs 000033  
       _USART_Status 000030  
