

HI-TECH Software LITE Macro Assembler (PIC18) V9.66 build 8870 
                                                       Mon May 07 22:55:27 2012

HI-TECH Software Omniscient Code Generator build 8870
     1  000000                     opt subtitle "HI-TECH Software Omniscient Code G
                                 enerator build 8870"
     2                           
     3                           	processor	18F2682
     4  000000                     porta	equ	0F80h
     5  000000                     portb	equ	0F81h
     6  000000                     portc	equ	0F82h
     7  000000                     portd	equ	0F83h
     8  000000                     porte	equ	0F84h
     9  000000                     lata	equ	0F89h
    10  000000                     latb	equ	0F8Ah
    11  000000                     latc	equ	0F8Bh
    12  000000                     latd	equ	0F8Ch
    13  000000                     late	equ	0F8Dh
    14  000000                     trisa	equ	0F92h
    15  000000                     trisb	equ	0F93h
    16  000000                     trisc	equ	0F94h
    17  000000                     trisd	equ	0F95h
    18  000000                     trise	equ	0F96h
    19  000000                     pie1	equ	0F9Dh
    20  000000                     pir1	equ	0F9Eh
    21  000000                     ipr1	equ	0F9Fh
    22  000000                     pie2	equ	0FA0h
    23  000000                     pir2	equ	0FA1h
    24  000000                     ipr2	equ	0FA2h
    25  000000                     t3con	equ	0FB1h
    26  000000                     tmr3l	equ	0FB2h
    27  000000                     tmr3h	equ	0FB3h
    28  000000                     ccp1con	equ	0FBDh
    29  000000                     ccpr1l	equ	0FBEh
    30  000000                     ccpr1h	equ	0FBFh
    31  000000                     adcon1	equ	0FC1h
    32  000000                     adcon0	equ	0FC2h
    33  000000                     adresl	equ	0FC3h
    34  000000                     adresh	equ	0FC4h
    35  000000                     sspcon2	equ	0FC5h
    36  000000                     sspcon1	equ	0FC6h
    37  000000                     sspstat	equ	0FC7h
    38  000000                     sspadd	equ	0FC8h
    39  000000                     sspbuf	equ	0FC9h
    40  000000                     t2con	equ	0FCAh
    41  000000                     pr2	equ	0FCBh
    42  000000                     tmr2	equ	0FCCh
    43  000000                     t1con	equ	0FCDh
    44  000000                     tmr1l	equ	0FCEh
    45  000000                     tmr1h	equ	0FCFh
    46  000000                     rcon	equ	0FD0h
    47  000000                     wdtcon	equ	0FD1h
    48  000000                     lvdcon	equ	0FD2h
    49  000000                     osccon	equ	0FD3h
    50  000000                     t0con	equ	0FD5h
    51  000000                     tmr0l	equ	0FD6h
    52  000000                     tmr0h	equ	0FD7h
    53  000000                     status	equ	0FD8h
    54  000000                     fsr2	equ	0FD9h
    55  000000                     fsr2l	equ	0FD9h
    56  000000                     fsr2h	equ	0FDAh
    57  000000                     plusw2	equ	0FDBh
    58  000000                     preinc2	equ	0FDCh
    59  000000                     postdec2	equ	0FDDh
    60  000000                     postinc2	equ	0FDEh
    61  000000                     indf2	equ	0FDFh
    62  000000                     bsr	equ	0FE0h
    63  000000                     fsr1	equ	0FE1h
    64  000000                     fsr1l	equ	0FE1h
    65  000000                     fsr1h	equ	0FE2h
    66  000000                     plusw1	equ	0FE3h
    67  000000                     preinc1	equ	0FE4h
    68  000000                     postdec1	equ	0FE5h
    69  000000                     postinc1	equ	0FE6h
    70  000000                     indf1	equ	0FE7h
    71  000000                     wreg	equ	0FE8h
    72  000000                     fsr0	equ	0FE9h
    73  000000                     fsr0l	equ	0FE9h
    74  000000                     fsr0h	equ	0FEAh
    75  000000                     plusw0	equ	0FEBh
    76  000000                     preinc0	equ	0FECh
    77  000000                     postdec0	equ	0FEDh
    78  000000                     postinc0	equ	0FEEh
    79  000000                     indf0	equ	0FEFh
    80  000000                     intcon3	equ	0FF0h
    81  000000                     intcon2	equ	0FF1h
    82  000000                     intcon	equ	0FF2h
    83  000000                     prod	equ	0FF3h
    84  000000                     prodl	equ	0FF3h
    85  000000                     prodh	equ	0FF4h
    86  000000                     tablat	equ	0FF5h
    87  000000                     tblptr	equ	0FF6h
    88  000000                     tblptrl	equ	0FF6h
    89  000000                     tblptrh	equ	0FF7h
    90  000000                     tblptru	equ	0FF8h
    91  000000                     pcl	equ	0FF9h
    92  000000                     pclat	equ	0FFAh
    93  000000                     pclath	equ	0FFAh
    94  000000                     pclatu	equ	0FFBh
    95  000000                     stkptr	equ	0FFCh
    96  000000                     tosl	equ	0FFDh
    97  000000                     tosh	equ	0FFEh
    98  000000                     tosu	equ	0FFFh
    99                           	global	__ramtop
   100                           	global	__accesstop
   101                           # 21 "../code/main.c"
   102                           	global __config1 ;#
   103                           # 21 "../code/main.c"
   104  000000                     	__config1 equ 0xF0FF ;#
   105                           # 22 "../code/main.c"
   106                           	global __config2 ;#
   107                           # 22 "../code/main.c"
   108  000000                     	__config2 equ 0xFEFF ;#
   109                           # 23 "../code/main.c"
   110                           	global __config3 ;#
   111                           # 23 "../code/main.c"
   112  000000                     	__config3 equ 0x7FFF ;#
   113                           # 24 "../code/main.c"
   114                           	global __config4 ;#
   115                           # 24 "../code/main.c"
   116  000000                     	__config4 equ 0xFFFB & 0xFFFF ;#
   117                           # 25 "../code/main.c"
   118                           	global __config5 ;#
   119                           # 25 "../code/main.c"
   120  000000                     	__config5 equ 0xFFFF ;#
   121                           # 26 "../code/main.c"
   122                           	global __config6 ;#
   123                           # 26 "../code/main.c"
   124  000000                     	__config6 equ 0xFFFF ;#
   125                           # 27 "../code/main.c"
   126                           	global __config7 ;#
   127                           # 27 "../code/main.c"
   128  000000                     	__config7 equ 0xFFFF ;#
   129                           	GLOBAL	__activetblptr
   130  000000                     __activetblptr	EQU	0
   131                           	GLOBAL	__smallconst,__Lsmallconst
   132  000000                     __smallconst	EQU	__Lsmallconst
   133                           	GLOBAL	__mediumconst,__Lmediumconst
   134  000000                     __mediumconst	EQU	__Lmediumconst
   135                           	GLOBAL	__Ldata
   136  000000                     __Ldata	EQU	0
   137  000000                     main@argc	equ	?_main+0
   138                           	global	main@argc
   139  000000                     main@argv	equ	?_main+2
   140                           	global	main@argv
   141  000000                     adc_conversion@hResult	equ	??_adc_conversion+0
   142                           	global	adc_conversion@hResult
   143  000000                     adc_conversion@lResult	equ	??_adc_conversion+1
   144                           	global	adc_conversion@lResult
   145  000000                     adc_conversion@note	equ	??_adc_conversion+2
   146                           	global	adc_conversion@note
   147  000000                     getNote@new_note	equ	??_getNote+0
   148                           	global	getNote@new_note
   149  000000                     getNote@hResult	equ	?_getNote+0
   150                           	global	getNote@hResult
   151  000000                     getNote@lResult	equ	?_getNote+1
   152                           	global	getNote@lResult
   153                           ;Data sizes: Strings 0, constant 0, data 0, bss 
                                 0, persistent 0 stack 26
   154                           	global	_main
   155                           	global	??_main
   156                           	global	?_main
   157                           
   158                           ; *************** function _main ***************
                                 **
   159                           ; Defined at:
   160                           ;		line 164 in file "../code/main.c"
   161                           ; Parameters:
   162                           ;		argc           size:   2offs:   0	type: int 
   163                           ;		argv           size:   2offs:   2	type: PTR P
                                 TR unsigned char 
   164                           ; Auto variables:
   165                           ;		None
   166                           ; Return value:
   167                           ;		type: int 
   168                           ;		size: 2
   169                           ; Registers used:
   170                           ;		wreg, status,2, status,0
   171                           ; Tracked objects:
   172                           ;		On entry : 0/0
   173                           ;		On exit  : 0/0
   174                           ;		Unchanged: 0/0
   175                           ; Data sizes:
   176                           ;		Autos:    0
   177                           ;		Params:   4
   178                           ;		Temp:     1
   179                           ;		Total:    5
   180                           ; This function calls:
   181                           ;		Nothing
   182                           ; This function is called by:
   183                           ;		Startup code after reset
   184                           ; This function uses a non-reentrant model
   185                           ; 
   186                                   psect   text0,class=CODE,space=0,reloc=2
   187                           
   188                           	opt lm
   189                           	file	"../code/main.c"
   190                           	line	164
   191  000000                     	__size_of_main	equ	__end_of_main-_main
   192                                   psect   text0
   193                           ;stdio.h: 12: typedef int ptrdiff_t;
   194                           ;stdio.h: 13: typedef unsigned size_t;
   195                           ;stdio.h: 14: typedef unsigned short wchar_t;
   196                           ;stdarg.h: 36: typedef void * va_list[1];
   197                           ;stdarg.h: 39: extern void * __va_start(void);
   198                           ;stdarg.h: 42: extern void * __va_arg(void *);
   199                           ;stdio.h: 27: extern int errno;
   200                           ;stdio.h: 58: struct __prbuf
   201                           ;stdio.h: 59: {
   202                           ;stdio.h: 60: char * ptr;
   203                           ;stdio.h: 61: void (* func)(char);
   204                           ;stdio.h: 62: };
   205                           ;conio.h: 17: extern int errno;
   206                           ;conio.h: 20: extern void init_uart(void);
   207                           ;conio.h: 22: extern char getch(void);
   208                           	
   209  00228C                     _main:		; BSR set to: ?
   210                           
   211                           	opt stack 28
   212                           	line	166
   213                           	
   214  00228C                     l869:		; BSR set to: ?
   215                           
   216                           	line	168
   217                           ;main.c: 168: OSCCON |= 0b01110010;
   218  00228C  0E72               	movlw	(072h)&0ffh
   219  00228E  12D3               	iorwf	((c:4051)),c	;volatile
   220                           	line	171
   221                           ;main.c: 171: TRISA = 0b10101111;
   222  002290  0EAF               	movlw	low(0AFh)
   223+ 002292  6E92               	movwf	((c:3986)),c	;volatile
   224+                          	line	172
   225+                          ;main.c: 172: TRISB = 0b00010010;
   226+ 002294  0E12               	movlw	low(012h)
   227  002296  6E93               	movwf	((c:3987)),c	;volatile
   228                           	line	173
   229                           ;main.c: 173: TRISC = 0b10000000;
   230  002298  0E80               	movlw	low(080h)
   231  00229A  6E94               	movwf	((c:3988)),c	;volatile
   232                           	line	176
   233                           ;main.c: 176: ADCON0 = 0b00000000;
   234  00229C  0E00               	movlw	low(0)
   235  00229E  6EC2               	movwf	((c:4034)),c	;volatile
   236                           	line	177
   237                           ;main.c: 177: ADCON1 = 0b00000101;
   238  0022A0  0E05               	movlw	low(05h)
   239  0022A2  6EC1               	movwf	((c:4033)),c	;volatile
   240                           	line	178
   241                           ;main.c: 178: ADCON2 = 0b10001101;
   242  0022A4  0E8D               	movlw	low(08Dh)
   243  0022A6  6EC0               	movwf	((c:4032)),c	;volatile
   244                           	line	179
   245                           ;main.c: 179: adc_num = 0;
   246  0022A8  0E00               	movlw	low(0)
   247  0022AA  6E00               	movwf	((c:0)),c	;volatile
   248                           	line	184
   249                           ;main.c: 184: T0CON = 0b10000000;
   250  0022AC  0E80               	movlw	low(080h)
   251  0022AE  6ED5               	movwf	((c:4053)),c	;volatile
   252                           	line	187
   253                           ;main.c: 187: INTCON = 0b00100000;
   254  0022B0  0E20               	movlw	low(020h)
   255  0022B2  6EF2               	movwf	((c:4082)),c	;volatile
   256                           	line	190
   257                           ;main.c: 190: PIE1 |= 0b00100000;
   258  0022B4  8A9D               	bsf	(0+(5/8)+(c:3997)),c,(5)&7	;volatile
   259                           	line	193
   260                           ;main.c: 193: SPBRGH = (((8000000L/19200UL)/16) 
                                 - 1) >> 8;
   261  0022B6  0E00               	movlw	low(0)
   262  0022B8  6EB0               	movwf	((c:4016)),c	;volatile
   263                           	line	194
   264                           ;main.c: 194: SPBRG = (((8000000L/19200UL)/16) -
                                  1);
   265  0022BA  0E19               	movlw	low(019h)
   266  0022BC  6EAF               	movwf	((c:4015)),c	;volatile
   267                           	line	195
   268                           ;main.c: 195: BAUDCON = 0b00001000;
   269  0022BE  0E08               	movlw	low(08h)
   270  0022C0  6EB8               	movwf	((c:4024)),c	;volatile
   271                           	line	196
   272                           ;main.c: 196: RCSTA = 0b10010000;
   273  0022C2  0E90               	movlw	low(090h)
   274  0022C4  6EAB               	movwf	((c:4011)),c	;volatile
   275                           	line	197
   276                           ;main.c: 197: TXSTA = 0b00100000;
   277  0022C6  0E20               	movlw	low(020h)
   278  0022C8  6EAC               	movwf	((c:4012)),c	;volatile
   279                           	line	200
   280                           ;main.c: 200: LATA = 0b11111111;
   281  0022CA  6889               	setf	((c:3977)),c	;volatile
   282                           	line	202
   283                           ;main.c: 202: LATB = 0b10000000;
   284  0022CC  0E80               	movlw	low(080h)
   285  0022CE  6E8A               	movwf	((c:3978)),c	;volatile
   286                           	line	204
   287                           ;main.c: 204: LATC = 0b00001111;
   288  0022D0  0E0F               	movlw	low(0Fh)
   289  0022D2  6E8B               	movwf	((c:3979)),c	;volatile
   290                           	line	206
   291                           ;main.c: 206: INTCON |= 0b10000000;
   292  0022D4  8EF2               	bsf	(0+(7/8)+(c:4082)),c,(7)&7	;volatile
   293                           	line	208
   294                           ;main.c: 208: if (mode == 0) {
   295  0022D6  6603               	tstfsz	((c:3)),c
   296  0022D8  EF70  F011         	goto	u10181
   297  0022DC  EF72  F011         	goto	u10180
   298  0022E0                     u10181:
   299  0022E0  EF7E  F011         	goto	l871
   300  0022E4                     u10180:
   301                           	line	209
   302                           ;main.c: 209: while (mode == 0);
   303  0022E4  EF74  F011         	goto	l872
   304                           	
   305  0022E8                     l872:		; BSR set to: ?
   306                           
   307  0022E8  5003               	movf	((c:3)),c,w
   308  0022EA  B4D8               	btfsc	status,2
   309  0022EC  EF7A  F011         	goto	u10191
   310  0022F0  EF7C  F011         	goto	u10190
   311  0022F4                     u10191:
   312  0022F4  EF74  F011         	goto	l872
   313  0022F8                     u10190:
   314                           	
   315  0022F8                     l874:		; BSR set to: ?
   316                           
   317                           	line	210
   318                           ;main.c: 210: }
   319  0022F8  EFCA  F011         	goto	l868
   320                           	line	212
   321                           	
   322  0022FC                     l871:		; BSR set to: ?
   323                           
   324                           ;main.c: 212: else if (mode == 1) {
   325  0022FC  0403               	decf	((c:3)),c,w
   326                           
   327  0022FE  A4D8               	btfss	status,2
   328  002300  EF84  F011         	goto	u10201
   329  002304  EF86  F011         	goto	u10200
   330  002308                     u10201:
   331  002308  EF94  F011         	goto	l876
   332  00230C                     u10200:
   333                           	line	214
   334                           ;main.c: 214: INTCON = 0b10000000;
   335  00230C  0E80               	movlw	low(080h)
   336  00230E  6EF2               	movwf	((c:4082)),c	;volatile
   337                           	line	215
   338                           ;main.c: 215: while (mode == 1) {
   339  002310  EF8A  F011         	goto	l877
   340                           	line	217
   341                           	
   342  002314                     l877:		; BSR set to: ?
   343                           
   344                           	line	215
   345  002314  0403               	decf	((c:3)),c,w
   346                           
   347  002316  B4D8               	btfsc	status,2
   348  002318  EF90  F011         	goto	u10211
   349  00231C  EF92  F011         	goto	u10210
   350  002320                     u10211:
   351  002320  EF8A  F011         	goto	l877
   352  002324                     u10210:
   353                           	
   354  002324                     l879:		; BSR set to: ?
   355                           
   356                           	line	218
   357                           ;main.c: 217: }
   358                           ;main.c: 218: }
   359  002324  EFCA  F011         	goto	l868
   360                           	line	220
   361                           	
   362  002328                     l876:		; BSR set to: ?
   363                           
   364                           ;main.c: 220: else if (mode == 2) {
   365  002328  5003               	movf	((c:3)),c,w
   366  00232A  0A02               	xorlw	2
   367                           
   368  00232C  A4D8               	btfss	status,2
   369  00232E  EF9B  F011         	goto	u10221
   370  002332  EF9D  F011         	goto	u10220
   371  002336                     u10221:
   372  002336  EFAC  F011         	goto	l881
   373  00233A                     u10220:
   374                           	line	222
   375                           ;main.c: 222: INTCON = 0b10000000;
   376  00233A  0E80               	movlw	low(080h)
   377  00233C  6EF2               	movwf	((c:4082)),c	;volatile
   378                           	line	223
   379                           ;main.c: 223: while (mode == 2) {
   380  00233E  EFA1  F011         	goto	l882
   381                           	line	225
   382                           	
   383  002342                     l882:		; BSR set to: ?
   384                           
   385                           	line	223
   386  002342  5003               	movf	((c:3)),c,w
   387  002344  0A02               	xorlw	2
   388                           
   389  002346  B4D8               	btfsc	status,2
   390  002348  EFA8  F011         	goto	u10231
   391  00234C  EFAA  F011         	goto	u10230
   392  002350                     u10231:
   393  002350  EFA1  F011         	goto	l882
   394  002354                     u10230:
   395                           	
   396  002354                     l884:		; BSR set to: ?
   397                           
   398                           	line	226
   399                           ;main.c: 225: }
   400                           ;main.c: 226: }
   401  002354  EFCA  F011         	goto	l868
   402                           	line	228
   403                           	
   404  002358                     l881:		; BSR set to: ?
   405                           
   406                           ;main.c: 228: else if (mode == 3) {
   407  002358  5003               	movf	((c:3)),c,w
   408  00235A  0A03               	xorlw	3
   409                           
   410  00235C  A4D8               	btfss	status,2
   411  00235E  EFB3  F011         	goto	u10241
   412  002362  EFB5  F011         	goto	u10240
   413  002366                     u10241:
   414  002366  EFC4  F011         	goto	l886
   415  00236A                     u10240:
   416                           	line	230
   417                           ;main.c: 230: INTCON = 0b10000000;
   418  00236A  0E80               	movlw	low(080h)
   419  00236C  6EF2               	movwf	((c:4082)),c	;volatile
   420+                          	line	231
   421+                          ;main.c: 231: while (mode == 3) {
   422+ 00236E  EFB9  F011         	goto	l887
   423+                          	line	233
   424+                          	
   425+ 002372                     l887:		; BSR set to: ?
   426                           
   427                           	line	231
   428  002372  5003               	movf	((c:3)),c,w
   429  002374  0A03               	xorlw	3
   430                           
   431  002376  B4D8               	btfsc	status,2
   432  002378  EFC0  F011         	goto	u10251
   433  00237C  EFC2  F011         	goto	u10250
   434  002380                     u10251:
   435  002380  EFB9  F011         	goto	l887
   436  002384                     u10250:
   437                           	
   438  002384                     l889:		; BSR set to: ?
   439                           
   440                           	line	234
   441                           ;main.c: 233: }
   442                           ;main.c: 234: }
   443  002384  EFCA  F011         	goto	l868
   444                           	line	236
   445                           	
   446  002388                     l886:		; BSR set to: ?
   447                           
   448                           	line	237
   449                           ;main.c: 236: else {
   450                           ;main.c: 237: mode = 0;
   451  002388  0101               	movlb	1	; () banked
   452  00238A  6F04               	movwf	(??_main+0+0)&0ffh
   453  00238C  0E00               	movlw	low(0)
   454  00238E  6E03               	movwf	((c:3)),c
   455  002390  0101               	movlb	1	; () banked
   456  002392  5104               	movf	(??_main+0+0)&0ffh,w
   457                           	line	238
   458                           	
   459  002394                     l890:		; BSR set to: ?
   460                           
   461                           	
   462  002394                     l885:		; BSR set to: ?
   463                           
   464                           	
   465  002394                     l880:		; BSR set to: ?
   466                           
   467                           	
   468  002394                     l875:		; BSR set to: ?
   469                           
   470                           	line	239
   471                           	
   472  002394                     l868:		; BSR set to: ?
   473                           
   474                           	line	166
   475  002394  EF46  F011         	goto	l869
   476                           	global	start
   477  002398  EF0C  F000         	goto	start
   478                           	opt stack 0
   479                           GLOBAL __end_of_main
   480  00239C                     	__end_of_main:
   481                           	FNSIZE	_main,1,4
   482                           ; =============== function _main ends ==========
                                 ==
   483                           
   484                                   psect   text1,class=CODE,space=0,reloc=2
   485                           	line	255
   486                           
   487                           	opt lm
   488                           	signat	_main,8314
   489                           	global	_my_isr
   490                           	global	??_my_isr
   491                           	global	?_my_isr
   492                           
   493                           ; *************** function _my_isr *************
                                 ****
   494                           ; Defined at:
   495                           ;		line 264 in file "../code/main.c"
   496                           ; Parameters:
   497                           ;		None
   498                           ; Auto variables:
   499                           ;		None
   500                           ; Return value:
   501                           ;		type: void 
   502                           ;		size: 0
   503                           ; Registers used:
   504                           ;		wreg, status,2, status,0, cstack
   505                           ; Tracked objects:
   506                           ;		On entry : 0/0
   507                           ;		On exit  : 0/0
   508                           ;		Unchanged: 0/0
   509                           ; Data sizes:
   510                           ;		Autos:    0
   511                           ;		Params:   0
   512                           ;		Temp:    14
   513                           ;		Total:   14
   514                           ; This function calls:
   515                           ;		_adc_conversion
   516                           ;		_ToggleLeds
   517                           ; This function is called by:
   518                           ;		Interrupt level 2
   519                           ; This function uses a non-reentrant model
   520                           ; 
   521                           	file	"../code/main.c"
   522                           	line	264
   523  000000                     	__size_of_my_isr	equ	__end_of_my_isr-_my_isr
   524                           ;main.c: 264: void interrupt my_isr(void) {
   525                           	
   526  001FD0                     _my_isr:		; BSR set to: ?
   527                           
   528                           	opt stack 31
   529                                   psect   intcode,class=CODE,space=0,reloc
                                 =2
   530                           	global	int_func
   531  000008                     int_func:
   532                                   psect   intcode
   533  000008  CFFA F105          	movff	pclat+0,??_my_isr+0
   534  00000C  CFFB F106          	movff	pclat+1,??_my_isr+1
   535  000010  CFE9 F107          	movff	fsr0l+0,??_my_isr+2
   536  000014  EFE8  F00F         	goto	_my_isr
   537                                   psect   text1
   538  001FD0  CFEA F108          	movff	fsr0h+0,??_my_isr+3
   539  001FD4  CFE1 F109          	movff	fsr1l+0,??_my_isr+4
   540  001FD8  CFE2 F10A          	movff	fsr1h+0,??_my_isr+5
   541  001FDC  CFD9 F10B          	movff	fsr2l+0,??_my_isr+6
   542  001FE0  CFDA F10C          	movff	fsr2h+0,??_my_isr+7
   543  001FE4  CFF3 F10D          	movff	prodl+0,??_my_isr+8
   544  001FE8  CFF4 F10E          	movff	prodh+0,??_my_isr+9
   545  001FEC  CFF6 F10F          	movff	tblptrl+0,??_my_isr+10
   546  001FF0  CFF7 F110          	movff	tblptrh+0,??_my_isr+11
   547  001FF4  CFF8 F111          	movff	tblptru+0,??_my_isr+12
   548  001FF8  CFF5 F112          	movff	tablat+0,??_my_isr+13
   549                           	line	266
   550                           ;main.c: 266: INTCON &= 0b01111111;
   551  001FFC  9EF2               	bcf	(0+(7/8)+(c:4082)),c,(7)&7	;volatile
   552                           	line	268
   553                           ;main.c: 268: if (TMR0IE && TMR0IF && TMR0IP) {
   554  001FFE  AAF2               	btfss	c:(32661/8),(32661)&7	;volatile
   555  002000  EF04  F010         	goto	i2u7101
   556  002004  EF06  F010         	goto	i2u7100
   557  002008                     i2u7101:
   558  002008  EF1E  F011         	goto	i2l896
   559  00200C                     i2u7100:
   560  00200C  A4F2               	btfss	c:(32658/8),(32658)&7	;volatile
   561  00200E  EF0B  F010         	goto	i2u7111
   562  002012  EF0D  F010         	goto	i2u7110
   563  002016                     i2u7111:
   564  002016  EF1E  F011         	goto	i2l896
   565  00201A                     i2u7110:
   566  00201A  A4F1               	btfss	c:(32650/8),(32650)&7	;volatile
   567  00201C  EF12  F010         	goto	i2u7121
   568  002020  EF14  F010         	goto	i2u7120
   569  002024                     i2u7121:
   570  002024  EF1E  F011         	goto	i2l896
   571  002028                     i2u7120:
   572                           	line	269
   573                           ;main.c: 269: adc_conversion ();
   574  002028  ECCE  F011         	call	_adc_conversion	;wreg free
   575                           	line	271
   576                           ;main.c: 271: if (conv_result.adc_channel == 0) 
                                 {
   577  00202C  6602               	tstfsz	(0+((c:1)+01h)),c
   578  00202E  EF1B  F010         	goto	i2u7131
   579  002032  EF1D  F010         	goto	i2u7130
   580  002036                     i2u7131:
   581  002036  EF3A  F010         	goto	i2l897
   582  00203A                     i2u7130:
   583                           	line	272
   584                           ;main.c: 272: if ((chanA[0] & conv_result.result
                                 ) == conv_result.result) {
   585  00203A  5010               	movf	((c:16)),c,w
   586  00203C  1401               	andwf	((c:1)),c,w
   587  00203E  1801               	xorwf	((c:1)),c,w
   588  002040  A4D8               	btfss	status,2
   589  002042  EF25  F010         	goto	i2u7141
   590  002046  EF27  F010         	goto	i2u7140
   591  00204A                     i2u7141:
   592  00204A  EF36  F010         	goto	i2l902
   593  00204E                     i2u7140:
   594                           	line	273
   595                           ;main.c: 273: TXREG = conv_result.result;
   596  00204E  C001 FFAD          	movff	(c:1),(c:4013)	;volatile
   597                           	line	274
   598                           ;main.c: 274: while((PIR1 & 0b00010000) == 0);
   599  002052  EF2B  F010         	goto	i2l899
   600                           	
   601  002056                     i2l899:		; BSR set to: ?
   602                           
   603                           	
   604  002056  A89E               	btfss	((c:3998)),c,(4)&7	;volatile
   605  002058  EF30  F010         	goto	i2u7151
   606  00205C  EF32  F010         	goto	i2u7150
   607  002060                     i2u7151:
   608  002060  EF2B  F010         	goto	i2l899
   609  002064                     i2u7150:
   610                           	
   611  002064                     i2l901:		; BSR set to: ?
   612                           
   613                           	line	275
   614                           ;main.c: 275: ToggleLeds();
   615  002064  ECCC  F009         	call	_ToggleLeds	;wreg free
   616                           	line	276
   617                           ;main.c: 276: } else {
   618  002068  EF36  F010         	goto	i2l902
   619                           	line	278
   620                           	
   621  00206C                     i2l902:		; BSR set to: ?
   622                           
   623                           	line	279
   624                           ;main.c: 278: }
   625                           ;main.c: 279: chanA[0] = conv_result.result;
   626  00206C  C001 F010          	movff	(c:1),(c:16)
   627                           	line	280
   628                           ;main.c: 280: } else if (conv_result.adc_channel
                                  == 1) {
   629  002070  EF1B  F011         	goto	i2l903
   630                           	
   631  002074                     i2l897:		; BSR set to: ?
   632                           
   633  002074  0402               	decf	(0+((c:1)+01h)),c,w
   634                           
   635  002076  A4D8               	btfss	status,2
   636  002078  EF40  F010         	goto	i2u7161
   637  00207C  EF42  F010         	goto	i2u7160
   638  002080                     i2u7161:
   639  002080  EF5F  F010         	goto	i2l904
   640  002084                     i2u7160:
   641                           	line	281
   642                           ;main.c: 281: if ((chanB[0] & conv_result.result
                                 ) == conv_result.result) {
   643  002084  5013               	movf	((c:19)),c,w
   644  002086  1401               	andwf	((c:1)),c,w
   645  002088  1801               	xorwf	((c:1)),c,w
   646  00208A  A4D8               	btfss	status,2
   647  00208C  EF4A  F010         	goto	i2u7171
   648  002090  EF4C  F010         	goto	i2u7170
   649  002094                     i2u7171:
   650  002094  EF5B  F010         	goto	i2l909
   651  002098                     i2u7170:
   652                           	line	282
   653                           ;main.c: 282: TXREG = conv_result.result;
   654  002098  C001 FFAD          	movff	(c:1),(c:4013)	;volatile
   655                           	line	283
   656                           ;main.c: 283: while((PIR1 & 0b00010000) == 0);
   657  00209C  EF50  F010         	goto	i2l906
   658                           	
   659  0020A0                     i2l906:		; BSR set to: ?
   660                           
   661                           	
   662  0020A0  A89E               	btfss	((c:3998)),c,(4)&7	;volatile
   663  0020A2  EF55  F010         	goto	i2u7181
   664  0020A6  EF57  F010         	goto	i2u7180
   665  0020AA                     i2u7181:
   666  0020AA  EF50  F010         	goto	i2l906
   667  0020AE                     i2u7180:
   668                           	
   669  0020AE                     i2l908:		; BSR set to: ?
   670                           
   671                           	line	284
   672                           ;main.c: 284: ToggleLeds();
   673  0020AE  ECCC  F009         	call	_ToggleLeds	;wreg free
   674                           	line	285
   675                           ;main.c: 285: } else {
   676  0020B2  EF5B  F010         	goto	i2l909
   677                           	line	287
   678                           	
   679  0020B6                     i2l909:		; BSR set to: ?
   680                           
   681                           	line	288
   682                           ;main.c: 287: }
   683                           ;main.c: 288: chanB[0] = conv_result.result;
   684  0020B6  C001 F013          	movff	(c:1),(c:19)
   685                           	line	289
   686                           ;main.c: 289: } else if (conv_result.adc_channel
                                  == 2) {
   687  0020BA  EF1B  F011         	goto	i2l903
   688                           	
   689  0020BE                     i2l904:		; BSR set to: ?
   690                           
   691  0020BE  5002               	movf	(0+((c:1)+01h)),c,w
   692  0020C0  0A02               	xorlw	2
   693                           
   694  0020C2  A4D8               	btfss	status,2
   695  0020C4  EF66  F010         	goto	i2u7191
   696  0020C8  EF68  F010         	goto	i2u7190
   697  0020CC                     i2u7191:
   698  0020CC  EF85  F010         	goto	i2l911
   699  0020D0                     i2u7190:
   700                           	line	290
   701                           ;main.c: 290: if ((chanC[0] & conv_result.result
                                 ) == conv_result.result) {
   702  0020D0  5016               	movf	((c:22)),c,w
   703  0020D2  1401               	andwf	((c:1)),c,w
   704  0020D4  1801               	xorwf	((c:1)),c,w
   705  0020D6  A4D8               	btfss	status,2
   706  0020D8  EF70  F010         	goto	i2u7201
   707  0020DC  EF72  F010         	goto	i2u7200
   708  0020E0                     i2u7201:
   709  0020E0  EF81  F010         	goto	i2l916
   710  0020E4                     i2u7200:
   711                           	line	291
   712                           ;main.c: 291: TXREG = conv_result.result;
   713  0020E4  C001 FFAD          	movff	(c:1),(c:4013)	;volatile
   714                           	line	292
   715                           ;main.c: 292: while((PIR1 & 0b00010000) == 0);
   716  0020E8  EF76  F010         	goto	i2l913
   717                           	
   718  0020EC                     i2l913:		; BSR set to: ?
   719                           
   720                           	
   721  0020EC  A89E               	btfss	((c:3998)),c,(4)&7	;volatile
   722  0020EE  EF7B  F010         	goto	i2u7211
   723  0020F2  EF7D  F010         	goto	i2u7210
   724  0020F6                     i2u7211:
   725  0020F6  EF76  F010         	goto	i2l913
   726  0020FA                     i2u7210:
   727                           	
   728  0020FA                     i2l915:		; BSR set to: ?
   729                           
   730                           	line	293
   731                           ;main.c: 293: ToggleLeds();
   732  0020FA  ECCC  F009         	call	_ToggleLeds	;wreg free
   733                           	line	294
   734                           ;main.c: 294: } else {
   735  0020FE  EF81  F010         	goto	i2l916
   736                           	line	296
   737                           	
   738  002102                     i2l916:		; BSR set to: ?
   739                           
   740                           	line	297
   741                           ;main.c: 296: }
   742                           ;main.c: 297: chanC[0] = conv_result.result;
   743  002102  C001 F016          	movff	(c:1),(c:22)
   744                           	line	298
   745                           ;main.c: 298: } else if (conv_result.adc_channel
                                  == 3) {
   746  002106  EF1B  F011         	goto	i2l903
   747                           	
   748  00210A                     i2l911:		; BSR set to: ?
   749                           
   750  00210A  5002               	movf	(0+((c:1)+01h)),c,w
   751  00210C  0A03               	xorlw	3
   752                           
   753  00210E  A4D8               	btfss	status,2
   754  002110  EF8C  F010         	goto	i2u7221
   755  002114  EF8E  F010         	goto	i2u7220
   756  002118                     i2u7221:
   757  002118  EFAB  F010         	goto	i2l918
   758  00211C                     i2u7220:
   759                           	line	299
   760                           ;main.c: 299: if ((chanD[0] & conv_result.result
                                 ) == conv_result.result) {
   761  00211C  5007               	movf	((c:7)),c,w
   762  00211E  1401               	andwf	((c:1)),c,w
   763  002120  1801               	xorwf	((c:1)),c,w
   764  002122  A4D8               	btfss	status,2
   765  002124  EF96  F010         	goto	i2u7231
   766  002128  EF98  F010         	goto	i2u7230
   767  00212C                     i2u7231:
   768  00212C  EFA7  F010         	goto	i2l923
   769  002130                     i2u7230:
   770                           	line	300
   771                           ;main.c: 300: TXREG = conv_result.result;
   772  002130  C001 FFAD          	movff	(c:1),(c:4013)	;volatile
   773                           	line	301
   774                           ;main.c: 301: while((PIR1 & 0b00010000) == 0);
   775  002134  EF9C  F010         	goto	i2l920
   776                           	
   777  002138                     i2l920:		; BSR set to: ?
   778                           
   779                           	
   780  002138  A89E               	btfss	((c:3998)),c,(4)&7	;volatile
   781  00213A  EFA1  F010         	goto	i2u7241
   782  00213E  EFA3  F010         	goto	i2u7240
   783  002142                     i2u7241:
   784  002142  EF9C  F010         	goto	i2l920
   785  002146                     i2u7240:
   786                           	
   787  002146                     i2l922:		; BSR set to: ?
   788                           
   789                           	line	302
   790                           ;main.c: 302: ToggleLeds();
   791  002146  ECCC  F009         	call	_ToggleLeds	;wreg free
   792                           	line	303
   793                           ;main.c: 303: } else {
   794  00214A  EFA7  F010         	goto	i2l923
   795                           	line	305
   796                           	
   797  00214E                     i2l923:		; BSR set to: ?
   798                           
   799                           	line	306
   800                           ;main.c: 305: }
   801                           ;main.c: 306: chanD[0] = conv_result.result;
   802  00214E  C001 F007          	movff	(c:1),(c:7)
   803                           	line	307
   804                           ;main.c: 307: } else if (conv_result.adc_channel
                                  == 4) {
   805  002152  EF1B  F011         	goto	i2l903
   806                           	
   807  002156                     i2l918:		; BSR set to: ?
   808                           
   809  002156  5002               	movf	(0+((c:1)+01h)),c,w
   810  002158  0A04               	xorlw	4
   811                           
   812  00215A  A4D8               	btfss	status,2
   813  00215C  EFB2  F010         	goto	i2u7251
   814  002160  EFB4  F010         	goto	i2u7250
   815  002164                     i2u7251:
   816  002164  EFD1  F010         	goto	i2l925
   817  002168                     i2u7250:
   818                           	line	308
   819                           ;main.c: 308: if ((chanE[0] & conv_result.result
                                 ) == conv_result.result) {
   820  002168  5004               	movf	((c:4)),c,w
   821  00216A  1401               	andwf	((c:1)),c,w
   822  00216C  1801               	xorwf	((c:1)),c,w
   823  00216E  A4D8               	btfss	status,2
   824  002170  EFBC  F010         	goto	i2u7261
   825  002174  EFBE  F010         	goto	i2u7260
   826  002178                     i2u7261:
   827  002178  EFCD  F010         	goto	i2l930
   828  00217C                     i2u7260:
   829                           	line	309
   830                           ;main.c: 309: TXREG = conv_result.result;
   831  00217C  C001 FFAD          	movff	(c:1),(c:4013)	;volatile
   832                           	line	310
   833                           ;main.c: 310: while((PIR1 & 0b00010000) == 0);
   834  002180  EFC2  F010         	goto	i2l927
   835                           	
   836  002184                     i2l927:		; BSR set to: ?
   837                           
   838                           	
   839  002184  A89E               	btfss	((c:3998)),c,(4)&7	;volatile
   840  002186  EFC7  F010         	goto	i2u7271
   841  00218A  EFC9  F010         	goto	i2u7270
   842  00218E                     i2u7271:
   843  00218E  EFC2  F010         	goto	i2l927
   844  002192                     i2u7270:
   845                           	
   846  002192                     i2l929:		; BSR set to: ?
   847                           
   848                           	line	311
   849                           ;main.c: 311: ToggleLeds();
   850  002192  ECCC  F009         	call	_ToggleLeds	;wreg free
   851                           	line	312
   852                           ;main.c: 312: } else {
   853  002196  EFCD  F010         	goto	i2l930
   854                           	line	314
   855                           	
   856  00219A                     i2l930:		; BSR set to: ?
   857                           
   858                           	line	315
   859                           ;main.c: 314: }
   860                           ;main.c: 315: chanE[0] = conv_result.result;
   861  00219A  C001 F004          	movff	(c:1),(c:4)
   862                           	line	316
   863                           ;main.c: 316: } else if (conv_result.adc_channel
                                  == 5) {
   864  00219E  EF1B  F011         	goto	i2l903
   865                           	
   866  0021A2                     i2l925:		; BSR set to: ?
   867                           
   868  0021A2  5002               	movf	(0+((c:1)+01h)),c,w
   869  0021A4  0A05               	xorlw	5
   870                           
   871  0021A6  A4D8               	btfss	status,2
   872  0021A8  EFD8  F010         	goto	i2u7281
   873  0021AC  EFDA  F010         	goto	i2u7280
   874  0021B0                     i2u7281:
   875  0021B0  EFF7  F010         	goto	i2l932
   876  0021B4                     i2u7280:
   877                           	line	317
   878                           ;main.c: 317: if ((chanF[0] & conv_result.result
                                 ) == conv_result.result) {
   879  0021B4  500D               	movf	((c:13)),c,w
   880  0021B6  1401               	andwf	((c:1)),c,w
   881  0021B8  1801               	xorwf	((c:1)),c,w
   882  0021BA  A4D8               	btfss	status,2
   883  0021BC  EFE2  F010         	goto	i2u7291
   884  0021C0  EFE4  F010         	goto	i2u7290
   885  0021C4                     i2u7291:
   886  0021C4  EFF3  F010         	goto	i2l937
   887  0021C8                     i2u7290:
   888                           	line	318
   889                           ;main.c: 318: TXREG = conv_result.result;
   890  0021C8  C001 FFAD          	movff	(c:1),(c:4013)	;volatile
   891                           	line	319
   892                           ;main.c: 319: while((PIR1 & 0b00010000) == 0);
   893  0021CC  EFE8  F010         	goto	i2l934
   894                           	
   895  0021D0                     i2l934:		; BSR set to: ?
   896                           
   897                           	
   898  0021D0  A89E               	btfss	((c:3998)),c,(4)&7	;volatile
   899  0021D2  EFED  F010         	goto	i2u7301
   900  0021D6  EFEF  F010         	goto	i2u7300
   901  0021DA                     i2u7301:
   902  0021DA  EFE8  F010         	goto	i2l934
   903  0021DE                     i2u7300:
   904                           	
   905  0021DE                     i2l936:		; BSR set to: ?
   906                           
   907                           	line	320
   908                           ;main.c: 320: ToggleLeds();
   909  0021DE  ECCC  F009         	call	_ToggleLeds	;wreg free
   910                           	line	321
   911                           ;main.c: 321: } else {
   912  0021E2  EFF3  F010         	goto	i2l937
   913                           	line	322
   914                           	
   915  0021E6                     i2l937:		; BSR set to: ?
   916                           
   917                           	line	323
   918                           ;main.c: 322: }
   919                           ;main.c: 323: chanF[0] = conv_result.result;
   920  0021E6  C001 F00D          	movff	(c:1),(c:13)
   921                           	line	324
   922                           ;main.c: 324: } else if (conv_result.adc_channel
                                  == 6) {
   923  0021EA  EF1B  F011         	goto	i2l903
   924                           	
   925  0021EE                     i2l932:		; BSR set to: ?
   926                           
   927  0021EE  5002               	movf	(0+((c:1)+01h)),c,w
   928  0021F0  0A06               	xorlw	6
   929                           
   930  0021F2  A4D8               	btfss	status,2
   931  0021F4  EFFE  F010         	goto	i2u7311
   932  0021F8  EF00  F011         	goto	i2u7310
   933  0021FC                     i2u7311:
   934  0021FC  EF1B  F011         	goto	i2l903
   935  002200                     i2u7310:
   936                           	line	325
   937                           ;main.c: 325: if ((chanG[0] & conv_result.result
                                 ) == conv_result.result) {
   938  002200  500A               	movf	((c:10)),c,w
   939  002202  1401               	andwf	((c:1)),c,w
   940  002204  1801               	xorwf	((c:1)),c,w
   941  002206  A4D8               	btfss	status,2
   942  002208  EF08  F011         	goto	i2u7321
   943  00220C  EF0A  F011         	goto	i2u7320
   944  002210                     i2u7321:
   945  002210  EF19  F011         	goto	i2l944
   946  002214                     i2u7320:
   947                           	line	326
   948                           ;main.c: 326: TXREG = conv_result.result;
   949  002214  C001 FFAD          	movff	(c:1),(c:4013)	;volatile
   950                           	line	327
   951                           ;main.c: 327: while((PIR1 & 0b00010000) == 0);
   952  002218  EF0E  F011         	goto	i2l941
   953                           	
   954  00221C                     i2l941:		; BSR set to: ?
   955                           
   956                           	
   957  00221C  A89E               	btfss	((c:3998)),c,(4)&7	;volatile
   958  00221E  EF13  F011         	goto	i2u7331
   959  002222  EF15  F011         	goto	i2u7330
   960  002226                     i2u7331:
   961  002226  EF0E  F011         	goto	i2l941
   962  00222A                     i2u7330:
   963                           	
   964  00222A                     i2l943:		; BSR set to: ?
   965                           
   966                           	line	328
   967                           ;main.c: 328: ToggleLeds();
   968  00222A  ECCC  F009         	call	_ToggleLeds	;wreg free
   969                           	line	329
   970                           ;main.c: 329: } else {
   971  00222E  EF19  F011         	goto	i2l944
   972                           	line	331
   973                           	
   974  002232                     i2l944:		; BSR set to: ?
   975                           
   976                           	line	332
   977                           ;main.c: 331: }
   978                           ;main.c: 332: chanG[0] = conv_result.result;
   979  002232  C001 F00A          	movff	(c:1),(c:10)
   980                           	line	333
   981                           	
   982  002236                     i2l939:		; BSR set to: ?
   983                           
   984                           	line	335
   985                           	
   986  002236                     i2l938:		; BSR set to: ?
   987                           
   988                           	
   989  002236                     i2l931:		; BSR set to: ?
   990                           
   991                           	
   992  002236                     i2l924:		; BSR set to: ?
   993                           
   994                           	
   995  002236                     i2l917:		; BSR set to: ?
   996                           
   997                           	
   998  002236                     i2l910:		; BSR set to: ?
   999                           
  1000                           	
  1001  002236                     i2l903:		; BSR set to: ?
  1002                           
  1003                           ;main.c: 333: }
  1004                           ;main.c: 335: TMR0IF = 0;
  1005  002236  94F2               	bcf	c:(32658/8),(32658)&7	;volatile
  1006                           	line	336
  1007                           ;main.c: 336: }
  1008  002238  EF28  F011         	goto	i2l945
  1009                           	line	338
  1010                           	
  1011  00223C                     i2l896:		; BSR set to: ?
  1012                           
  1013                           ;main.c: 338: else if (RCIF) {
  1014  00223C  AA9E               	btfss	c:(31989/8),(31989)&7	;volatile
  1015  00223E  EF23  F011         	goto	i2u7341
  1016  002242  EF25  F011         	goto	i2u7340
  1017  002246                     i2u7341:
  1018  002246  EF28  F011         	goto	i2l945
  1019  00224A                     i2u7340:
  1020                           	line	339
  1021                           ;main.c: 339: mode = RCREG;
  1022  00224A  CFAE F003          	movff	(c:4014),(c:3)	;volatile
  1023                           	line	340
  1024                           ;main.c: 340: RCIF = 0;
  1025  00224E  9A9E               	bcf	c:(31989/8),(31989)&7	;volatile
  1026                           	line	341
  1027                           	
  1028  002250                     i2l946:		; BSR set to: ?
  1029                           
  1030                           	line	344
  1031                           	
  1032  002250                     i2l945:		; BSR set to: ?
  1033                           
  1034                           ;main.c: 341: }
  1035                           ;main.c: 344: INTCON |= 0b10000000;
  1036  002250  8EF2               	bsf	(0+(7/8)+(c:4082)),c,(7)&7	;volatile
  1037                           	line	346
  1038                           ;main.c: 346: }
  1039  002252                     i2l895:
  1040                           			; BSR set to: ?
  1041                           
  1042  002252  C112  FFF5         	movff	??_my_isr+13,tablat+0
  1043  002256  C111  FFF8         	movff	??_my_isr+12,tblptru+0
  1044  00225A  C110  FFF7         	movff	??_my_isr+11,tblptrh+0
  1045  00225E  C10F  FFF6         	movff	??_my_isr+10,tblptrl+0
  1046  002262  C10E  FFF4         	movff	??_my_isr+9,prodh+0
  1047  002266  C10D  FFF3         	movff	??_my_isr+8,prodl+0
  1048  00226A  C10C  FFDA         	movff	??_my_isr+7,fsr2h+0
  1049  00226E  C10B  FFD9         	movff	??_my_isr+6,fsr2l+0
  1050  002272  C10A  FFE2         	movff	??_my_isr+5,fsr1h+0
  1051  002276  C109  FFE1         	movff	??_my_isr+4,fsr1l+0
  1052  00227A  C108  FFEA         	movff	??_my_isr+3,fsr0h+0
  1053  00227E  C107  FFE9         	movff	??_my_isr+2,fsr0l+0
  1054  002282  C106  FFFB         	movff	??_my_isr+1,pclat+1
  1055  002286  C105  FFFA         	movff	??_my_isr+0,pclat+0
  1056  00228A  0011               	retfie f
  1057                           	opt stack 0
  1058                           GLOBAL __end_of_my_isr
  1059  00228C                     	__end_of_my_isr:
  1060                           	FNSIZE	_my_isr,14,0
  1061                           ; =============== function _my_isr ends ========
                                 ====
  1062                           
  1063                           	signat	_my_isr,88
  1064                                   psect   text2,class=CODE,space=0,reloc=2
  1065                           	global	intlevel2
  1066                           
  1067                           	opt lm
  1068                           	FNBREAK _ToggleLeds,intlevel2
  1069                           	global	_ToggleLeds
  1070                           	global	??_ToggleLeds
  1071                           	global	?_ToggleLeds
  1072                           
  1073                           ; *************** function _ToggleLeds *********
                                 ********
  1074                           ; Defined at:
  1075                           ;		line 356 in file "../code/main.c"
  1076                           ; Parameters:
  1077                           ;		None
  1078                           ; Auto variables:
  1079                           ;		None
  1080                           ; Return value:
  1081                           ;		type: void 
  1082                           ;		size: 0
  1083                           ; Registers used:
  1084                           ;		wreg, status,2, status,0
  1085                           ; Tracked objects:
  1086                           ;		On entry : 0/0
  1087                           ;		On exit  : 0/0
  1088                           ;		Unchanged: 0/0
  1089                           ; Data sizes:
  1090                           ;		Autos:    0
  1091                           ;		Params:   0
  1092                           ;		Temp:     0
  1093                           ;		Total:    0
  1094                           ; This function calls:
  1095                           ;		Nothing
  1096                           ; This function is called by:
  1097                           ;		_my_isr
  1098                           ; This function uses a non-reentrant model
  1099                           ; 
  1100                           	file	"../code/main.c"
  1101                           	line	356
  1102  000000                     	__size_of_ToggleLeds	equ	__end_of_ToggleLeds-_T
                                 oggleLeds
  1103                           ;main.c: 356: void ToggleLeds () {
  1104                           	
  1105  001398                     _ToggleLeds:		; BSR set to: ?
  1106                           
  1107                           	opt stack 30
  1108                           	line	361
  1109                           ;main.c: 361: if (conv_result.adc_channel == 2 &
                                 & conv_result.result == 0x03) {
  1110  001398  5002               	movf	(0+((c:1)+01h)),c,w
  1111  00139A  0A02               	xorlw	2
  1112                           
  1113  00139C  A4D8               	btfss	status,2
  1114  00139E  EFD3  F009         	goto	i2u8921
  1115  0013A2  EFD5  F009         	goto	i2u8920
  1116  0013A6                     i2u8921:
  1117  0013A6  EFE6  F009         	goto	i2l948
  1118  0013AA                     i2u8920:
  1119  0013AA  5001               	movf	((c:1)),c,w
  1120  0013AC  0A03               	xorlw	3
  1121                           
  1122  0013AE  A4D8               	btfss	status,2
  1123  0013B0  EFDC  F009         	goto	i2u8931
  1124  0013B4  EFDE  F009         	goto	i2u8930
  1125  0013B8                     i2u8931:
  1126  0013B8  EFE6  F009         	goto	i2l948
  1127  0013BC                     i2u8930:
  1128                           	line	364
  1129                           ;main.c: 364: LATA = 0b11101111;
  1130  0013BC  0EEF               	movlw	low(0EFh)
  1131  0013BE  6E89               	movwf	((c:3977)),c	;volatile
  1132                           	line	366
  1133                           ;main.c: 366: LATB = 0b11100000;
  1134  0013C0  0EE0               	movlw	low(0E0h)
  1135  0013C2  6E8A               	movwf	((c:3978)),c	;volatile
  1136                           	line	368
  1137                           ;main.c: 368: LATC = 0b00001111;
  1138  0013C4  0E0F               	movlw	low(0Fh)
  1139  0013C6  6E8B               	movwf	((c:3979)),c	;volatile
  1140                           	line	369
  1141                           ;main.c: 369: } else if (conv_result.adc_channel
                                  == 3 && conv_result.result == 0x04) {
  1142  0013C8  EFE7  F00F         	goto	i2l949
  1143                           	
  1144  0013CC                     i2l948:		; BSR set to: ?
  1145                           
  1146  0013CC  5002               	movf	(0+((c:1)+01h)),c,w
  1147  0013CE  0A03               	xorlw	3
  1148                           
  1149  0013D0  A4D8               	btfss	status,2
  1150  0013D2  EFED  F009         	goto	i2u8941
  1151  0013D6  EFEF  F009         	goto	i2u8940
  1152  0013DA                     i2u8941:
  1153  0013DA  EF00  F00A         	goto	i2l950
  1154  0013DE                     i2u8940:
  1155  0013DE  5001               	movf	((c:1)),c,w
  1156  0013E0  0A04               	xorlw	4
  1157                           
  1158  0013E2  A4D8               	btfss	status,2
  1159  0013E4  EFF6  F009         	goto	i2u8951
  1160  0013E8  EFF8  F009         	goto	i2u8950
  1161  0013EC                     i2u8951:
  1162  0013EC  EF00  F00A         	goto	i2l950
  1163  0013F0                     i2u8950:
  1164                           	line	372
  1165                           ;main.c: 372: LATA = 0b10111111;
  1166  0013F0  0EBF               	movlw	low(0BFh)
  1167  0013F2  6E89               	movwf	((c:3977)),c	;volatile
  1168                           	line	374
  1169                           ;main.c: 374: LATB = 0b11100000;
  1170  0013F4  0EE0               	movlw	low(0E0h)
  1171  0013F6  6E8A               	movwf	((c:3978)),c	;volatile
  1172                           	line	376
  1173                           ;main.c: 376: LATC = 0b00001111;
  1174  0013F8  0E0F               	movlw	low(0Fh)
  1175  0013FA  6E8B               	movwf	((c:3979)),c	;volatile
  1176                           	line	377
  1177                           ;main.c: 377: } else if (conv_result.adc_channel
                                  == 4 && conv_result.result == 0x05) {
  1178  0013FC  EFE7  F00F         	goto	i2l949
  1179                           	
  1180  001400                     i2l950:		; BSR set to: ?
  1181                           
  1182  001400  5002               	movf	(0+((c:1)+01h)),c,w
  1183  001402  0A04               	xorlw	4
  1184                           
  1185  001404  A4D8               	btfss	status,2
  1186  001406  EF07  F00A         	goto	i2u8961
  1187  00140A  EF09  F00A         	goto	i2u8960
  1188  00140E                     i2u8961:
  1189  00140E  EF19  F00A         	goto	i2l952
  1190  001412                     i2u8960:
  1191  001412  5001               	movf	((c:1)),c,w
  1192  001414  0A05               	xorlw	5
  1193                           
  1194  001416  A4D8               	btfss	status,2
  1195  001418  EF10  F00A         	goto	i2u8971
  1196  00141C  EF12  F00A         	goto	i2u8970
  1197  001420                     i2u8971:
  1198  001420  EF19  F00A         	goto	i2l952
  1199  001424                     i2u8970:
  1200                           	line	380
  1201                           ;main.c: 380: LATA = 0b11111111;
  1202  001424  6889               	setf	((c:3977)),c	;volatile
  1203                           	line	382
  1204                           ;main.c: 382: LATB = 0b11100000;
  1205  001426  0EE0               	movlw	low(0E0h)
  1206  001428  6E8A               	movwf	((c:3978)),c	;volatile
  1207                           	line	384
  1208                           ;main.c: 384: LATC = 0b00001110;
  1209  00142A  0E0E               	movlw	low(0Eh)
  1210  00142C  6E8B               	movwf	((c:3979)),c	;volatile
  1211                           	line	385
  1212                           ;main.c: 385: } else if (conv_result.adc_channel
                                  == 5 && conv_result.result == 0x06) {
  1213  00142E  EFE7  F00F         	goto	i2l949
  1214                           	
  1215  001432                     i2l952:		; BSR set to: ?
  1216                           
  1217  001432  5002               	movf	(0+((c:1)+01h)),c,w
  1218  001434  0A05               	xorlw	5
  1219                           
  1220  001436  A4D8               	btfss	status,2
  1221  001438  EF20  F00A         	goto	i2u8981
  1222  00143C  EF22  F00A         	goto	i2u8980
  1223  001440                     i2u8981:
  1224  001440  EF32  F00A         	goto	i2l954
  1225  001444                     i2u8980:
  1226  001444  5001               	movf	((c:1)),c,w
  1227  001446  0A06               	xorlw	6
  1228                           
  1229  001448  A4D8               	btfss	status,2
  1230  00144A  EF29  F00A         	goto	i2u8991
  1231  00144E  EF2B  F00A         	goto	i2u8990
  1232  001452                     i2u8991:
  1233  001452  EF32  F00A         	goto	i2l954
  1234  001456                     i2u8990:
  1235                           	line	388
  1236                           ;main.c: 388: LATA = 0b11111111;
  1237  001456  6889               	setf	((c:3977)),c	;volatile
  1238                           	line	390
  1239                           ;main.c: 390: LATB = 0b11100000;
  1240  001458  0EE0               	movlw	low(0E0h)
  1241  00145A  6E8A               	movwf	((c:3978)),c	;volatile
  1242                           	line	392
  1243                           ;main.c: 392: LATC = 0b00001101;
  1244  00145C  0E0D               	movlw	low(0Dh)
  1245  00145E  6E8B               	movwf	((c:3979)),c	;volatile
  1246                           	line	393
  1247                           ;main.c: 393: } else if (conv_result.adc_channel
                                  == 6 && conv_result.result == 0x07) {
  1248  001460  EFE7  F00F         	goto	i2l949
  1249                           	
  1250  001464                     i2l954:		; BSR set to: ?
  1251                           
  1252  001464  5002               	movf	(0+((c:1)+01h)),c,w
  1253  001466  0A06               	xorlw	6
  1254                           
  1255  001468  A4D8               	btfss	status,2
  1256  00146A  EF39  F00A         	goto	i2u9001
  1257  00146E  EF3B  F00A         	goto	i2u9000
  1258  001472                     i2u9001:
  1259  001472  EF4B  F00A         	goto	i2l956
  1260  001476                     i2u9000:
  1261  001476  5001               	movf	((c:1)),c,w
  1262  001478  0A07               	xorlw	7
  1263                           
  1264  00147A  A4D8               	btfss	status,2
  1265  00147C  EF42  F00A         	goto	i2u9011
  1266  001480  EF44  F00A         	goto	i2u9010
  1267  001484                     i2u9011:
  1268  001484  EF4B  F00A         	goto	i2l956
  1269  001488                     i2u9010:
  1270                           	line	396
  1271                           ;main.c: 396: LATA = 0b11111111;
  1272  001488  6889               	setf	((c:3977)),c	;volatile
  1273                           	line	398
  1274                           ;main.c: 398: LATB = 0b01100000;
  1275  00148A  0E60               	movlw	low(060h)
  1276  00148C  6E8A               	movwf	((c:3978)),c	;volatile
  1277                           	line	400
  1278                           ;main.c: 400: LATC = 0b00001111;
  1279  00148E  0E0F               	movlw	low(0Fh)
  1280  001490  6E8B               	movwf	((c:3979)),c	;volatile
  1281                           	line	401
  1282                           ;main.c: 401: } else if (conv_result.adc_channel
                                  == 0 && conv_result.result == 0x01) {
  1283  001492  EFE7  F00F         	goto	i2l949
  1284                           	
  1285  001496                     i2l956:		; BSR set to: ?
  1286                           
  1287  001496  6602               	tstfsz	(0+((c:1)+01h)),c
  1288  001498  EF50  F00A         	goto	i2u9021
  1289  00149C  EF52  F00A         	goto	i2u9020
  1290  0014A0                     i2u9021:
  1291  0014A0  EF61  F00A         	goto	i2l958
  1292  0014A4                     i2u9020:
  1293  0014A4  0401               	decf	((c:1)),c,w
  1294                           
  1295  0014A6  A4D8               	btfss	status,2
  1296  0014A8  EF58  F00A         	goto	i2u9031
  1297  0014AC  EF5A  F00A         	goto	i2u9030
  1298  0014B0                     i2u9031:
  1299  0014B0  EF61  F00A         	goto	i2l958
  1300  0014B4                     i2u9030:
  1301                           	line	404
  1302                           ;main.c: 404: LATA = 0b11111111;
  1303  0014B4  6889               	setf	((c:3977)),c	;volatile
  1304                           	line	406
  1305                           ;main.c: 406: LATB = 0b11100000;
  1306  0014B6  0EE0               	movlw	low(0E0h)
  1307  0014B8  6E8A               	movwf	((c:3978)),c	;volatile
  1308                           	line	408
  1309                           ;main.c: 408: LATC = 0b00001011;
  1310  0014BA  0E0B               	movlw	low(0Bh)
  1311  0014BC  6E8B               	movwf	((c:3979)),c	;volatile
  1312                           	line	409
  1313                           ;main.c: 409: } else if (conv_result.adc_channel
                                  == 1 && conv_result.result == 0x02) {
  1314  0014BE  EFE7  F00F         	goto	i2l949
  1315                           	
  1316  0014C2                     i2l958:		; BSR set to: ?
  1317                           
  1318  0014C2  0402               	decf	(0+((c:1)+01h)),c,w
  1319                           
  1320  0014C4  A4D8               	btfss	status,2
  1321  0014C6  EF67  F00A         	goto	i2u9041
  1322  0014CA  EF69  F00A         	goto	i2u9040
  1323  0014CE                     i2u9041:
  1324  0014CE  EF79  F00A         	goto	i2l960
  1325  0014D2                     i2u9040:
  1326  0014D2  5001               	movf	((c:1)),c,w
  1327  0014D4  0A02               	xorlw	2
  1328                           
  1329  0014D6  A4D8               	btfss	status,2
  1330  0014D8  EF70  F00A         	goto	i2u9051
  1331  0014DC  EF72  F00A         	goto	i2u9050
  1332  0014E0                     i2u9051:
  1333  0014E0  EF79  F00A         	goto	i2l960
  1334  0014E4                     i2u9050:
  1335                           	line	412
  1336                           ;main.c: 412: LATA = 0b11111111;
  1337  0014E4  6889               	setf	((c:3977)),c	;volatile
  1338                           	line	414
  1339                           ;main.c: 414: LATB = 0b11100000;
  1340  0014E6  0EE0               	movlw	low(0E0h)
  1341  0014E8  6E8A               	movwf	((c:3978)),c	;volatile
  1342                           	line	416
  1343                           ;main.c: 416: LATC = 0b00000111;
  1344  0014EA  0E07               	movlw	low(07h)
  1345  0014EC  6E8B               	movwf	((c:3979)),c	;volatile
  1346                           	line	418
  1347                           ;main.c: 418: } else if (conv_result.adc_channel
                                  == 2 && conv_result.result == 0x0b) {
  1348  0014EE  EFE7  F00F         	goto	i2l949
  1349                           	
  1350  0014F2                     i2l960:		; BSR set to: ?
  1351                           
  1352  0014F2  5002               	movf	(0+((c:1)+01h)),c,w
  1353  0014F4  0A02               	xorlw	2
  1354                           
  1355  0014F6  A4D8               	btfss	status,2
  1356  0014F8  EF80  F00A         	goto	i2u9061
  1357  0014FC  EF82  F00A         	goto	i2u9060
  1358  001500                     i2u9061:
  1359  001500  EF93  F00A         	goto	i2l962
  1360  001504                     i2u9060:
  1361  001504  5001               	movf	((c:1)),c,w
  1362  001506  0A0B               	xorlw	11
  1363                           
  1364  001508  A4D8               	btfss	status,2
  1365  00150A  EF89  F00A         	goto	i2u9071
  1366  00150E  EF8B  F00A         	goto	i2u9070
  1367  001512                     i2u9071:
  1368  001512  EF93  F00A         	goto	i2l962
  1369  001516                     i2u9070:
  1370                           	line	421
  1371                           ;main.c: 421: LATA = 0b11101111;
  1372  001516  0EEF               	movlw	low(0EFh)
  1373  001518  6E89               	movwf	((c:3977)),c	;volatile
  1374                           	line	423
  1375                           ;main.c: 423: LATB = 0b11000000;
  1376  00151A  0EC0               	movlw	low(0C0h)
  1377  00151C  6E8A               	movwf	((c:3978)),c	;volatile
  1378                           	line	425
  1379                           ;main.c: 425: LATC = 0b00001111;
  1380  00151E  0E0F               	movlw	low(0Fh)
  1381  001520  6E8B               	movwf	((c:3979)),c	;volatile
  1382                           	line	426
  1383                           ;main.c: 426: } else if (conv_result.adc_channel
                                  == 3 && conv_result.result == 0x0c) {
  1384  001522  EFE7  F00F         	goto	i2l949
  1385                           	
  1386  001526                     i2l962:		; BSR set to: ?
  1387                           
  1388  001526  5002               	movf	(0+((c:1)+01h)),c,w
  1389  001528  0A03               	xorlw	3
  1390                           
  1391  00152A  A4D8               	btfss	status,2
  1392  00152C  EF9A  F00A         	goto	i2u9081
  1393  001530  EF9C  F00A         	goto	i2u9080
  1394  001534                     i2u9081:
  1395  001534  EFAD  F00A         	goto	i2l964
  1396  001538                     i2u9080:
  1397  001538  5001               	movf	((c:1)),c,w
  1398  00153A  0A0C               	xorlw	12
  1399                           
  1400  00153C  A4D8               	btfss	status,2
  1401  00153E  EFA3  F00A         	goto	i2u9091
  1402  001542  EFA5  F00A         	goto	i2u9090
  1403  001546                     i2u9091:
  1404  001546  EFAD  F00A         	goto	i2l964
  1405  00154A                     i2u9090:
  1406                           	line	429
  1407                           ;main.c: 429: LATA = 0b10111111;
  1408  00154A  0EBF               	movlw	low(0BFh)
  1409  00154C  6E89               	movwf	((c:3977)),c	;volatile
  1410                           	line	431
  1411                           ;main.c: 431: LATB = 0b11000000;
  1412  00154E  0EC0               	movlw	low(0C0h)
  1413  001550  6E8A               	movwf	((c:3978)),c	;volatile
  1414                           	line	433
  1415                           ;main.c: 433: LATC = 0b00001111;
  1416  001552  0E0F               	movlw	low(0Fh)
  1417  001554  6E8B               	movwf	((c:3979)),c	;volatile
  1418                           	line	434
  1419                           ;main.c: 434: } else if (conv_result.adc_channel
                                  == 4 && conv_result.result == 0x0d) {
  1420  001556  EFE7  F00F         	goto	i2l949
  1421                           	
  1422  00155A                     i2l964:		; BSR set to: ?
  1423                           
  1424  00155A  5002               	movf	(0+((c:1)+01h)),c,w
  1425  00155C  0A04               	xorlw	4
  1426                           
  1427  00155E  A4D8               	btfss	status,2
  1428  001560  EFB4  F00A         	goto	i2u9101
  1429  001564  EFB6  F00A         	goto	i2u9100
  1430  001568                     i2u9101:
  1431  001568  EFC6  F00A         	goto	i2l966
  1432  00156C                     i2u9100:
  1433  00156C  5001               	movf	((c:1)),c,w
  1434  00156E  0A0D               	xorlw	13
  1435                           
  1436  001570  A4D8               	btfss	status,2
  1437  001572  EFBD  F00A         	goto	i2u9111
  1438  001576  EFBF  F00A         	goto	i2u9110
  1439  00157A                     i2u9111:
  1440  00157A  EFC6  F00A         	goto	i2l966
  1441  00157E                     i2u9110:
  1442                           	line	437
  1443                           ;main.c: 437: LATA = 0b11111111;
  1444  00157E  6889               	setf	((c:3977)),c	;volatile
  1445                           	line	439
  1446                           ;main.c: 439: LATB = 0b11000000;
  1447  001580  0EC0               	movlw	low(0C0h)
  1448  001582  6E8A               	movwf	((c:3978)),c	;volatile
  1449                           	line	441
  1450                           ;main.c: 441: LATC = 0b00001110;
  1451  001584  0E0E               	movlw	low(0Eh)
  1452  001586  6E8B               	movwf	((c:3979)),c	;volatile
  1453                           	line	442
  1454                           ;main.c: 442: } else if (conv_result.adc_channel
                                  == 5 && conv_result.result == 0x16) {
  1455  001588  EFE7  F00F         	goto	i2l949
  1456                           	
  1457  00158C                     i2l966:		; BSR set to: ?
  1458                           
  1459  00158C  5002               	movf	(0+((c:1)+01h)),c,w
  1460  00158E  0A05               	xorlw	5
  1461                           
  1462  001590  A4D8               	btfss	status,2
  1463  001592  EFCD  F00A         	goto	i2u9121
  1464  001596  EFCF  F00A         	goto	i2u9120
  1465  00159A                     i2u9121:
  1466  00159A  EFDF  F00A         	goto	i2l968
  1467  00159E                     i2u9120:
  1468  00159E  5001               	movf	((c:1)),c,w
  1469  0015A0  0A16               	xorlw	22
  1470                           
  1471  0015A2  A4D8               	btfss	status,2
  1472  0015A4  EFD6  F00A         	goto	i2u9131
  1473  0015A8  EFD8  F00A         	goto	i2u9130
  1474  0015AC                     i2u9131:
  1475  0015AC  EFDF  F00A         	goto	i2l968
  1476  0015B0                     i2u9130:
  1477                           	line	445
  1478                           ;main.c: 445: LATA = 0b11111111;
  1479  0015B0  6889               	setf	((c:3977)),c	;volatile
  1480                           	line	447
  1481                           ;main.c: 447: LATB = 0b11000000;
  1482  0015B2  0EC0               	movlw	low(0C0h)
  1483  0015B4  6E8A               	movwf	((c:3978)),c	;volatile
  1484                           	line	449
  1485                           ;main.c: 449: LATC = 0b00001101;
  1486  0015B6  0E0D               	movlw	low(0Dh)
  1487  0015B8  6E8B               	movwf	((c:3979)),c	;volatile
  1488                           	line	451
  1489                           ;main.c: 451: } else if (conv_result.adc_channel
                                  == 6 && conv_result.result == 0x17) {
  1490  0015BA  EFE7  F00F         	goto	i2l949
  1491                           	
  1492  0015BE                     i2l968:		; BSR set to: ?
  1493                           
  1494  0015BE  5002               	movf	(0+((c:1)+01h)),c,w
  1495  0015C0  0A06               	xorlw	6
  1496                           
  1497  0015C2  A4D8               	btfss	status,2
  1498  0015C4  EFE6  F00A         	goto	i2u9141
  1499  0015C8  EFE8  F00A         	goto	i2u9140
  1500  0015CC                     i2u9141:
  1501  0015CC  EFF8  F00A         	goto	i2l970
  1502  0015D0                     i2u9140:
  1503  0015D0  5001               	movf	((c:1)),c,w
  1504  0015D2  0A17               	xorlw	23
  1505                           
  1506  0015D4  A4D8               	btfss	status,2
  1507  0015D6  EFEF  F00A         	goto	i2u9151
  1508  0015DA  EFF1  F00A         	goto	i2u9150
  1509  0015DE                     i2u9151:
  1510  0015DE  EFF8  F00A         	goto	i2l970
  1511  0015E2                     i2u9150:
  1512                           	line	454
  1513                           ;main.c: 454: LATA = 0b11111111;
  1514  0015E2  6889               	setf	((c:3977)),c	;volatile
  1515                           	line	456
  1516                           ;main.c: 456: LATB = 0b01000000;
  1517  0015E4  0E40               	movlw	low(040h)
  1518  0015E6  6E8A               	movwf	((c:3978)),c	;volatile
  1519                           	line	458
  1520                           ;main.c: 458: LATC = 0b00001111;
  1521  0015E8  0E0F               	movlw	low(0Fh)
  1522  0015EA  6E8B               	movwf	((c:3979)),c	;volatile
  1523                           	line	460
  1524                           ;main.c: 460: } else if (conv_result.adc_channel
                                  == 0 && conv_result.result == 0x09) {
  1525  0015EC  EFE7  F00F         	goto	i2l949
  1526                           	
  1527  0015F0                     i2l970:		; BSR set to: ?
  1528                           
  1529  0015F0  6602               	tstfsz	(0+((c:1)+01h)),c
  1530  0015F2  EFFD  F00A         	goto	i2u9161
  1531  0015F6  EFFF  F00A         	goto	i2u9160
  1532  0015FA                     i2u9161:
  1533  0015FA  EF0F  F00B         	goto	i2l972
  1534  0015FE                     i2u9160:
  1535  0015FE  5001               	movf	((c:1)),c,w
  1536  001600  0A09               	xorlw	9
  1537                           
  1538  001602  A4D8               	btfss	status,2
  1539  001604  EF06  F00B         	goto	i2u9171
  1540  001608  EF08  F00B         	goto	i2u9170
  1541  00160C                     i2u9171:
  1542  00160C  EF0F  F00B         	goto	i2l972
  1543  001610                     i2u9170:
  1544                           	line	463
  1545                           ;main.c: 463: LATA = 0b11111111;
  1546  001610  6889               	setf	((c:3977)),c	;volatile
  1547                           	line	465
  1548                           ;main.c: 465: LATB = 0b11000000;
  1549  001612  0EC0               	movlw	low(0C0h)
  1550  001614  6E8A               	movwf	((c:3978)),c	;volatile
  1551                           	line	467
  1552                           ;main.c: 467: LATC = 0b00001011;
  1553  001616  0E0B               	movlw	low(0Bh)
  1554  001618  6E8B               	movwf	((c:3979)),c	;volatile
  1555                           	line	469
  1556                           ;main.c: 469: } else if (conv_result.adc_channel
                                  == 1 && conv_result.result == 0x0a) {
  1557  00161A  EFE7  F00F         	goto	i2l949
  1558                           	
  1559  00161E                     i2l972:		; BSR set to: ?
  1560                           
  1561  00161E  0402               	decf	(0+((c:1)+01h)),c,w
  1562                           
  1563  001620  A4D8               	btfss	status,2
  1564  001622  EF15  F00B         	goto	i2u9181
  1565  001626  EF17  F00B         	goto	i2u9180
  1566  00162A                     i2u9181:
  1567  00162A  EF27  F00B         	goto	i2l974
  1568  00162E                     i2u9180:
  1569  00162E  5001               	movf	((c:1)),c,w
  1570  001630  0A0A               	xorlw	10
  1571                           
  1572  001632  A4D8               	btfss	status,2
  1573  001634  EF1E  F00B         	goto	i2u9191
  1574  001638  EF20  F00B         	goto	i2u9190
  1575  00163C                     i2u9191:
  1576  00163C  EF27  F00B         	goto	i2l974
  1577  001640                     i2u9190:
  1578                           	line	472
  1579                           ;main.c: 472: LATA = 0b11111111;
  1580  001640  6889               	setf	((c:3977)),c	;volatile
  1581                           	line	474
  1582                           ;main.c: 474: LATB = 0b11000000;
  1583  001642  0EC0               	movlw	low(0C0h)
  1584  001644  6E8A               	movwf	((c:3978)),c	;volatile
  1585                           	line	476
  1586                           ;main.c: 476: LATC = 0b00000111;
  1587  001646  0E07               	movlw	low(07h)
  1588  001648  6E8B               	movwf	((c:3979)),c	;volatile
  1589                           	line	478
  1590                           ;main.c: 478: } else if (conv_result.adc_channel
                                  == 2 && conv_result.result == 0x13) {
  1591  00164A  EFE7  F00F         	goto	i2l949
  1592                           	
  1593  00164E                     i2l974:		; BSR set to: ?
  1594                           
  1595  00164E  5002               	movf	(0+((c:1)+01h)),c,w
  1596  001650  0A02               	xorlw	2
  1597                           
  1598  001652  A4D8               	btfss	status,2
  1599  001654  EF2E  F00B         	goto	i2u9201
  1600  001658  EF30  F00B         	goto	i2u9200
  1601  00165C                     i2u9201:
  1602  00165C  EF41  F00B         	goto	i2l976
  1603  001660                     i2u9200:
  1604  001660  5001               	movf	((c:1)),c,w
  1605  001662  0A13               	xorlw	19
  1606                           
  1607  001664  A4D8               	btfss	status,2
  1608  001666  EF37  F00B         	goto	i2u9211
  1609  00166A  EF39  F00B         	goto	i2u9210
  1610  00166E                     i2u9211:
  1611  00166E  EF41  F00B         	goto	i2l976
  1612  001672                     i2u9210:
  1613                           	line	481
  1614                           ;main.c: 481: LATA = 0b11101111;
  1615  001672  0EEF               	movlw	low(0EFh)
  1616  001674  6E89               	movwf	((c:3977)),c	;volatile
  1617                           	line	483
  1618                           ;main.c: 483: LATB = 0b10100000;
  1619  001676  0EA0               	movlw	low(0A0h)
  1620  001678  6E8A               	movwf	((c:3978)),c	;volatile
  1621                           	line	485
  1622                           ;main.c: 485: LATC = 0b00001111;
  1623  00167A  0E0F               	movlw	low(0Fh)
  1624  00167C  6E8B               	movwf	((c:3979)),c	;volatile
  1625                           	line	487
  1626                           ;main.c: 487: } else if (conv_result.adc_channel
                                  == 3 && conv_result.result == 0x14) {
  1627  00167E  EFE7  F00F         	goto	i2l949
  1628                           	
  1629  001682                     i2l976:		; BSR set to: ?
  1630                           
  1631  001682  5002               	movf	(0+((c:1)+01h)),c,w
  1632  001684  0A03               	xorlw	3
  1633                           
  1634  001686  A4D8               	btfss	status,2
  1635  001688  EF48  F00B         	goto	i2u9221
  1636  00168C  EF4A  F00B         	goto	i2u9220
  1637  001690                     i2u9221:
  1638  001690  EF5B  F00B         	goto	i2l978
  1639  001694                     i2u9220:
  1640  001694  5001               	movf	((c:1)),c,w
  1641  001696  0A14               	xorlw	20
  1642                           
  1643  001698  A4D8               	btfss	status,2
  1644  00169A  EF51  F00B         	goto	i2u9231
  1645  00169E  EF53  F00B         	goto	i2u9230
  1646  0016A2                     i2u9231:
  1647  0016A2  EF5B  F00B         	goto	i2l978
  1648  0016A6                     i2u9230:
  1649                           	line	490
  1650                           ;main.c: 490: LATA = 0b10111111;
  1651  0016A6  0EBF               	movlw	low(0BFh)
  1652  0016A8  6E89               	movwf	((c:3977)),c	;volatile
  1653                           	line	492
  1654                           ;main.c: 492: LATB = 0b10100000;
  1655  0016AA  0EA0               	movlw	low(0A0h)
  1656  0016AC  6E8A               	movwf	((c:3978)),c	;volatile
  1657                           	line	494
  1658                           ;main.c: 494: LATC = 0b00001111;
  1659  0016AE  0E0F               	movlw	low(0Fh)
  1660  0016B0  6E8B               	movwf	((c:3979)),c	;volatile
  1661                           	line	496
  1662                           ;main.c: 496: } else if (conv_result.adc_channel
                                  == 4 && conv_result.result == 0x15) {
  1663  0016B2  EFE7  F00F         	goto	i2l949
  1664                           	
  1665  0016B6                     i2l978:		; BSR set to: ?
  1666                           
  1667  0016B6  5002               	movf	(0+((c:1)+01h)),c,w
  1668  0016B8  0A04               	xorlw	4
  1669                           
  1670  0016BA  A4D8               	btfss	status,2
  1671  0016BC  EF62  F00B         	goto	i2u9241
  1672  0016C0  EF64  F00B         	goto	i2u9240
  1673  0016C4                     i2u9241:
  1674  0016C4  EF74  F00B         	goto	i2l980
  1675  0016C8                     i2u9240:
  1676  0016C8  5001               	movf	((c:1)),c,w
  1677  0016CA  0A15               	xorlw	21
  1678                           
  1679  0016CC  A4D8               	btfss	status,2
  1680  0016CE  EF6B  F00B         	goto	i2u9251
  1681  0016D2  EF6D  F00B         	goto	i2u9250
  1682  0016D6                     i2u9251:
  1683  0016D6  EF74  F00B         	goto	i2l980
  1684  0016DA                     i2u9250:
  1685                           	line	499
  1686                           ;main.c: 499: LATA = 0b11111111;
  1687  0016DA  6889               	setf	((c:3977)),c	;volatile
  1688                           	line	501
  1689                           ;main.c: 501: LATB = 0b10100000;
  1690  0016DC  0EA0               	movlw	low(0A0h)
  1691  0016DE  6E8A               	movwf	((c:3978)),c	;volatile
  1692                           	line	503
  1693                           ;main.c: 503: LATC = 0b00001110;
  1694  0016E0  0E0E               	movlw	low(0Eh)
  1695  0016E2  6E8B               	movwf	((c:3979)),c	;volatile
  1696                           	line	505
  1697                           ;main.c: 505: } else if (conv_result.adc_channel
                                  == 5 && conv_result.result == 0x0e) {
  1698  0016E4  EFE7  F00F         	goto	i2l949
  1699                           	
  1700  0016E8                     i2l980:		; BSR set to: ?
  1701                           
  1702  0016E8  5002               	movf	(0+((c:1)+01h)),c,w
  1703  0016EA  0A05               	xorlw	5
  1704                           
  1705  0016EC  A4D8               	btfss	status,2
  1706  0016EE  EF7B  F00B         	goto	i2u9261
  1707  0016F2  EF7D  F00B         	goto	i2u9260
  1708  0016F6                     i2u9261:
  1709  0016F6  EF8D  F00B         	goto	i2l982
  1710  0016FA                     i2u9260:
  1711  0016FA  5001               	movf	((c:1)),c,w
  1712  0016FC  0A0E               	xorlw	14
  1713                           
  1714  0016FE  A4D8               	btfss	status,2
  1715  001700  EF84  F00B         	goto	i2u9271
  1716  001704  EF86  F00B         	goto	i2u9270
  1717  001708                     i2u9271:
  1718  001708  EF8D  F00B         	goto	i2l982
  1719  00170C                     i2u9270:
  1720                           	line	508
  1721                           ;main.c: 508: LATA = 0b11111111;
  1722  00170C  6889               	setf	((c:3977)),c	;volatile
  1723                           	line	510
  1724                           ;main.c: 510: LATB = 0b10100000;
  1725  00170E  0EA0               	movlw	low(0A0h)
  1726  001710  6E8A               	movwf	((c:3978)),c	;volatile
  1727                           	line	512
  1728                           ;main.c: 512: LATC = 0b00001101;
  1729  001712  0E0D               	movlw	low(0Dh)
  1730  001714  6E8B               	movwf	((c:3979)),c	;volatile
  1731                           	line	514
  1732                           ;main.c: 514: } else if (conv_result.adc_channel
                                  == 6 && conv_result.result == 0x0f) {
  1733  001716  EFE7  F00F         	goto	i2l949
  1734                           	
  1735  00171A                     i2l982:		; BSR set to: ?
  1736                           
  1737  00171A  5002               	movf	(0+((c:1)+01h)),c,w
  1738  00171C  0A06               	xorlw	6
  1739                           
  1740  00171E  A4D8               	btfss	status,2
  1741  001720  EF94  F00B         	goto	i2u9281
  1742  001724  EF96  F00B         	goto	i2u9280
  1743  001728                     i2u9281:
  1744  001728  EFA6  F00B         	goto	i2l984
  1745  00172C                     i2u9280:
  1746  00172C  5001               	movf	((c:1)),c,w
  1747  00172E  0A0F               	xorlw	15
  1748                           
  1749  001730  A4D8               	btfss	status,2
  1750  001732  EF9D  F00B         	goto	i2u9291
  1751  001736  EF9F  F00B         	goto	i2u9290
  1752  00173A                     i2u9291:
  1753  00173A  EFA6  F00B         	goto	i2l984
  1754  00173E                     i2u9290:
  1755                           	line	517
  1756                           ;main.c: 517: LATA = 0b11111111;
  1757  00173E  6889               	setf	((c:3977)),c	;volatile
  1758                           	line	519
  1759                           ;main.c: 519: LATB = 0b00100000;
  1760  001740  0E20               	movlw	low(020h)
  1761  001742  6E8A               	movwf	((c:3978)),c	;volatile
  1762                           	line	521
  1763                           ;main.c: 521: LATC = 0b00001111;
  1764  001744  0E0F               	movlw	low(0Fh)
  1765  001746  6E8B               	movwf	((c:3979)),c	;volatile
  1766                           	line	523
  1767                           ;main.c: 523: } else if (conv_result.adc_channel
                                  == 0 && conv_result.result == 0x11) {
  1768  001748  EFE7  F00F         	goto	i2l949
  1769                           	
  1770  00174C                     i2l984:		; BSR set to: ?
  1771                           
  1772  00174C  6602               	tstfsz	(0+((c:1)+01h)),c
  1773  00174E  EFAB  F00B         	goto	i2u9301
  1774  001752  EFAD  F00B         	goto	i2u9300
  1775  001756                     i2u9301:
  1776  001756  EFBD  F00B         	goto	i2l986
  1777  00175A                     i2u9300:
  1778  00175A  5001               	movf	((c:1)),c,w
  1779  00175C  0A11               	xorlw	17
  1780                           
  1781  00175E  A4D8               	btfss	status,2
  1782  001760  EFB4  F00B         	goto	i2u9311
  1783  001764  EFB6  F00B         	goto	i2u9310
  1784  001768                     i2u9311:
  1785  001768  EFBD  F00B         	goto	i2l986
  1786  00176C                     i2u9310:
  1787                           	line	526
  1788                           ;main.c: 526: LATA = 0b11111111;
  1789  00176C  6889               	setf	((c:3977)),c	;volatile
  1790                           	line	528
  1791                           ;main.c: 528: LATB = 0b10100000;
  1792  00176E  0EA0               	movlw	low(0A0h)
  1793  001770  6E8A               	movwf	((c:3978)),c	;volatile
  1794                           	line	530
  1795                           ;main.c: 530: LATC = 0b00001011;
  1796  001772  0E0B               	movlw	low(0Bh)
  1797  001774  6E8B               	movwf	((c:3979)),c	;volatile
  1798                           	line	532
  1799                           ;main.c: 532: } else if (conv_result.adc_channel
                                  == 1 && conv_result.result == 0x12) {
  1800  001776  EFE7  F00F         	goto	i2l949
  1801                           	
  1802  00177A                     i2l986:		; BSR set to: ?
  1803                           
  1804  00177A  0402               	decf	(0+((c:1)+01h)),c,w
  1805                           
  1806  00177C  A4D8               	btfss	status,2
  1807  00177E  EFC3  F00B         	goto	i2u9321
  1808  001782  EFC5  F00B         	goto	i2u9320
  1809  001786                     i2u9321:
  1810  001786  EFD5  F00B         	goto	i2l988
  1811  00178A                     i2u9320:
  1812  00178A  5001               	movf	((c:1)),c,w
  1813  00178C  0A12               	xorlw	18
  1814                           
  1815  00178E  A4D8               	btfss	status,2
  1816  001790  EFCC  F00B         	goto	i2u9331
  1817  001794  EFCE  F00B         	goto	i2u9330
  1818  001798                     i2u9331:
  1819  001798  EFD5  F00B         	goto	i2l988
  1820  00179C                     i2u9330:
  1821                           	line	535
  1822                           ;main.c: 535: LATA = 0b11111111;
  1823  00179C  6889               	setf	((c:3977)),c	;volatile
  1824                           	line	537
  1825                           ;main.c: 537: LATB = 0b10100000;
  1826  00179E  0EA0               	movlw	low(0A0h)
  1827  0017A0  6E8A               	movwf	((c:3978)),c	;volatile
  1828                           	line	539
  1829                           ;main.c: 539: LATC = 0b00000111;
  1830  0017A2  0E07               	movlw	low(07h)
  1831  0017A4  6E8B               	movwf	((c:3979)),c	;volatile
  1832                           	line	540
  1833                           ;main.c: 540: }
  1834  0017A6  EFE7  F00F         	goto	i2l949
  1835                           	line	543
  1836                           	
  1837  0017AA                     i2l988:		; BSR set to: ?
  1838                           
  1839                           ;main.c: 543: else if (conv_result.adc_channel =
                                 = 2 && conv_result.result == 0x23) {
  1840  0017AA  5002               	movf	(0+((c:1)+01h)),c,w
  1841  0017AC  0A02               	xorlw	2
  1842                           
  1843  0017AE  A4D8               	btfss	status,2
  1844  0017B0  EFDC  F00B         	goto	i2u9341
  1845  0017B4  EFDE  F00B         	goto	i2u9340
  1846  0017B8                     i2u9341:
  1847  0017B8  EFEF  F00B         	goto	i2l990
  1848  0017BC                     i2u9340:
  1849  0017BC  5001               	movf	((c:1)),c,w
  1850  0017BE  0A23               	xorlw	35
  1851                           
  1852  0017C0  A4D8               	btfss	status,2
  1853  0017C2  EFE5  F00B         	goto	i2u9351
  1854  0017C6  EFE7  F00B         	goto	i2u9350
  1855  0017CA                     i2u9351:
  1856  0017CA  EFEF  F00B         	goto	i2l990
  1857  0017CE                     i2u9350:
  1858                           	line	546
  1859                           ;main.c: 546: LATA = 0b11101111;
  1860  0017CE  0EEF               	movlw	low(0EFh)
  1861  0017D0  6E89               	movwf	((c:3977)),c	;volatile
  1862                           	line	548
  1863                           ;main.c: 548: LATB = 0b10001100;
  1864  0017D2  0E8C               	movlw	low(08Ch)
  1865  0017D4  6E8A               	movwf	((c:3978)),c	;volatile
  1866                           	line	550
  1867                           ;main.c: 550: LATC = 0b00001111;
  1868  0017D6  0E0F               	movlw	low(0Fh)
  1869  0017D8  6E8B               	movwf	((c:3979)),c	;volatile
  1870                           	line	552
  1871                           ;main.c: 552: } else if (conv_result.adc_channel
                                  == 3 && conv_result.result == 0x24) {
  1872  0017DA  EFE7  F00F         	goto	i2l949
  1873                           	
  1874  0017DE                     i2l990:		; BSR set to: ?
  1875                           
  1876  0017DE  5002               	movf	(0+((c:1)+01h)),c,w
  1877  0017E0  0A03               	xorlw	3
  1878                           
  1879  0017E2  A4D8               	btfss	status,2
  1880  0017E4  EFF6  F00B         	goto	i2u9361
  1881  0017E8  EFF8  F00B         	goto	i2u9360
  1882  0017EC                     i2u9361:
  1883  0017EC  EF09  F00C         	goto	i2l992
  1884  0017F0                     i2u9360:
  1885  0017F0  5001               	movf	((c:1)),c,w
  1886  0017F2  0A24               	xorlw	36
  1887                           
  1888  0017F4  A4D8               	btfss	status,2
  1889  0017F6  EFFF  F00B         	goto	i2u9371
  1890  0017FA  EF01  F00C         	goto	i2u9370
  1891  0017FE                     i2u9371:
  1892  0017FE  EF09  F00C         	goto	i2l992
  1893  001802                     i2u9370:
  1894                           	line	555
  1895                           ;main.c: 555: LATA = 0b10111111;
  1896  001802  0EBF               	movlw	low(0BFh)
  1897  001804  6E89               	movwf	((c:3977)),c	;volatile
  1898                           	line	557
  1899                           ;main.c: 557: LATB = 0b10001100;
  1900  001806  0E8C               	movlw	low(08Ch)
  1901  001808  6E8A               	movwf	((c:3978)),c	;volatile
  1902                           	line	559
  1903                           ;main.c: 559: LATC = 0b00001111;
  1904  00180A  0E0F               	movlw	low(0Fh)
  1905  00180C  6E8B               	movwf	((c:3979)),c	;volatile
  1906                           	line	561
  1907                           ;main.c: 561: } else if (conv_result.adc_channel
                                  == 4 && conv_result.result == 0x25) {
  1908  00180E  EFE7  F00F         	goto	i2l949
  1909                           	
  1910  001812                     i2l992:		; BSR set to: ?
  1911                           
  1912  001812  5002               	movf	(0+((c:1)+01h)),c,w
  1913  001814  0A04               	xorlw	4
  1914                           
  1915  001816  A4D8               	btfss	status,2
  1916  001818  EF10  F00C         	goto	i2u9381
  1917  00181C  EF12  F00C         	goto	i2u9380
  1918  001820                     i2u9381:
  1919  001820  EF22  F00C         	goto	i2l994
  1920  001824                     i2u9380:
  1921  001824  5001               	movf	((c:1)),c,w
  1922  001826  0A25               	xorlw	37
  1923                           
  1924  001828  A4D8               	btfss	status,2
  1925  00182A  EF19  F00C         	goto	i2u9391
  1926  00182E  EF1B  F00C         	goto	i2u9390
  1927  001832                     i2u9391:
  1928  001832  EF22  F00C         	goto	i2l994
  1929  001836                     i2u9390:
  1930                           	line	564
  1931                           ;main.c: 564: LATA = 0b11111111;
  1932  001836  6889               	setf	((c:3977)),c	;volatile
  1933                           	line	566
  1934                           ;main.c: 566: LATB = 0b10001100;
  1935  001838  0E8C               	movlw	low(08Ch)
  1936  00183A  6E8A               	movwf	((c:3978)),c	;volatile
  1937                           	line	568
  1938                           ;main.c: 568: LATC = 0b00001110;
  1939  00183C  0E0E               	movlw	low(0Eh)
  1940  00183E  6E8B               	movwf	((c:3979)),c	;volatile
  1941                           	line	570
  1942                           ;main.c: 570: } else if (conv_result.adc_channel
                                  == 5 && conv_result.result == 0x26) {
  1943  001840  EFE7  F00F         	goto	i2l949
  1944                           	
  1945  001844                     i2l994:		; BSR set to: ?
  1946                           
  1947  001844  5002               	movf	(0+((c:1)+01h)),c,w
  1948  001846  0A05               	xorlw	5
  1949                           
  1950  001848  A4D8               	btfss	status,2
  1951  00184A  EF29  F00C         	goto	i2u9401
  1952  00184E  EF2B  F00C         	goto	i2u9400
  1953  001852                     i2u9401:
  1954  001852  EF3B  F00C         	goto	i2l996
  1955  001856                     i2u9400:
  1956  001856  5001               	movf	((c:1)),c,w
  1957  001858  0A26               	xorlw	38
  1958                           
  1959  00185A  A4D8               	btfss	status,2
  1960  00185C  EF32  F00C         	goto	i2u9411
  1961  001860  EF34  F00C         	goto	i2u9410
  1962  001864                     i2u9411:
  1963  001864  EF3B  F00C         	goto	i2l996
  1964  001868                     i2u9410:
  1965                           	line	573
  1966                           ;main.c: 573: LATA = 0b11111111;
  1967  001868  6889               	setf	((c:3977)),c	;volatile
  1968                           	line	575
  1969                           ;main.c: 575: LATB = 0b10001100;
  1970  00186A  0E8C               	movlw	low(08Ch)
  1971  00186C  6E8A               	movwf	((c:3978)),c	;volatile
  1972                           	line	577
  1973                           ;main.c: 577: LATC = 0b00001101;
  1974  00186E  0E0D               	movlw	low(0Dh)
  1975  001870  6E8B               	movwf	((c:3979)),c	;volatile
  1976                           	line	578
  1977                           ;main.c: 578: } else if (conv_result.adc_channel
                                  == 6 && conv_result.result == 0x27) {
  1978  001872  EFE7  F00F         	goto	i2l949
  1979                           	
  1980  001876                     i2l996:		; BSR set to: ?
  1981                           
  1982  001876  5002               	movf	(0+((c:1)+01h)),c,w
  1983  001878  0A06               	xorlw	6
  1984                           
  1985  00187A  A4D8               	btfss	status,2
  1986  00187C  EF42  F00C         	goto	i2u9421
  1987  001880  EF44  F00C         	goto	i2u9420
  1988  001884                     i2u9421:
  1989  001884  EF54  F00C         	goto	i2l998
  1990  001888                     i2u9420:
  1991  001888  5001               	movf	((c:1)),c,w
  1992  00188A  0A27               	xorlw	39
  1993                           
  1994  00188C  A4D8               	btfss	status,2
  1995  00188E  EF4B  F00C         	goto	i2u9431
  1996  001892  EF4D  F00C         	goto	i2u9430
  1997  001896                     i2u9431:
  1998  001896  EF54  F00C         	goto	i2l998
  1999  00189A                     i2u9430:
  2000                           	line	581
  2001                           ;main.c: 581: LATA = 0b11111111;
  2002  00189A  6889               	setf	((c:3977)),c	;volatile
  2003                           	line	583
  2004                           ;main.c: 583: LATB = 0b00001100;
  2005  00189C  0E0C               	movlw	low(0Ch)
  2006  00189E  6E8A               	movwf	((c:3978)),c	;volatile
  2007                           	line	585
  2008                           ;main.c: 585: LATC = 0b00001111;
  2009  0018A0  0E0F               	movlw	low(0Fh)
  2010  0018A2  6E8B               	movwf	((c:3979)),c	;volatile
  2011                           	line	586
  2012                           ;main.c: 586: } else if (conv_result.adc_channel
                                  == 0 && conv_result.result == 0x21) {
  2013  0018A4  EFE7  F00F         	goto	i2l949
  2014                           	
  2015  0018A8                     i2l998:		; BSR set to: ?
  2016                           
  2017  0018A8  6602               	tstfsz	(0+((c:1)+01h)),c
  2018  0018AA  EF59  F00C         	goto	i2u9441
  2019  0018AE  EF5B  F00C         	goto	i2u9440
  2020  0018B2                     i2u9441:
  2021  0018B2  EF6B  F00C         	goto	i2l1000
  2022  0018B6                     i2u9440:
  2023  0018B6  5001               	movf	((c:1)),c,w
  2024  0018B8  0A21               	xorlw	33
  2025                           
  2026  0018BA  A4D8               	btfss	status,2
  2027  0018BC  EF62  F00C         	goto	i2u9451
  2028  0018C0  EF64  F00C         	goto	i2u9450
  2029  0018C4                     i2u9451:
  2030  0018C4  EF6B  F00C         	goto	i2l1000
  2031  0018C8                     i2u9450:
  2032                           	line	589
  2033                           ;main.c: 589: LATA = 0b11111111;
  2034  0018C8  6889               	setf	((c:3977)),c	;volatile
  2035                           	line	591
  2036                           ;main.c: 591: LATB = 0b10001100;
  2037  0018CA  0E8C               	movlw	low(08Ch)
  2038  0018CC  6E8A               	movwf	((c:3978)),c	;volatile
  2039                           	line	593
  2040                           ;main.c: 593: LATC = 0b00001011;
  2041  0018CE  0E0B               	movlw	low(0Bh)
  2042  0018D0  6E8B               	movwf	((c:3979)),c	;volatile
  2043                           	line	594
  2044                           ;main.c: 594: } else if (conv_result.adc_channel
                                  == 1 && conv_result.result == 0x22) {
  2045  0018D2  EFE7  F00F         	goto	i2l949
  2046                           	
  2047  0018D6                     i2l1000:		; BSR set to: ?
  2048                           
  2049  0018D6  0402               	decf	(0+((c:1)+01h)),c,w
  2050                           
  2051  0018D8  A4D8               	btfss	status,2
  2052  0018DA  EF71  F00C         	goto	i2u9461
  2053  0018DE  EF73  F00C         	goto	i2u9460
  2054  0018E2                     i2u9461:
  2055  0018E2  EF83  F00C         	goto	i2l1002
  2056  0018E6                     i2u9460:
  2057  0018E6  5001               	movf	((c:1)),c,w
  2058  0018E8  0A22               	xorlw	34
  2059                           
  2060  0018EA  A4D8               	btfss	status,2
  2061  0018EC  EF7A  F00C         	goto	i2u9471
  2062  0018F0  EF7C  F00C         	goto	i2u9470
  2063  0018F4                     i2u9471:
  2064  0018F4  EF83  F00C         	goto	i2l1002
  2065  0018F8                     i2u9470:
  2066                           	line	597
  2067                           ;main.c: 597: LATA = 0b11111111;
  2068  0018F8  6889               	setf	((c:3977)),c	;volatile
  2069                           	line	599
  2070                           ;main.c: 599: LATB = 0b10001100;
  2071  0018FA  0E8C               	movlw	low(08Ch)
  2072  0018FC  6E8A               	movwf	((c:3978)),c	;volatile
  2073                           	line	601
  2074                           ;main.c: 601: LATC = 0b00000111;
  2075  0018FE  0E07               	movlw	low(07h)
  2076  001900  6E8B               	movwf	((c:3979)),c	;volatile
  2077                           	line	602
  2078                           ;main.c: 602: } else if (conv_result.adc_channel
                                  == 2 && conv_result.result == 0x2b) {
  2079  001902  EFE7  F00F         	goto	i2l949
  2080                           	
  2081  001906                     i2l1002:		; BSR set to: ?
  2082                           
  2083  001906  5002               	movf	(0+((c:1)+01h)),c,w
  2084  001908  0A02               	xorlw	2
  2085                           
  2086  00190A  A4D8               	btfss	status,2
  2087  00190C  EF8A  F00C         	goto	i2u9481
  2088  001910  EF8C  F00C         	goto	i2u9480
  2089  001914                     i2u9481:
  2090  001914  EF9D  F00C         	goto	i2l1004
  2091  001918                     i2u9480:
  2092  001918  5001               	movf	((c:1)),c,w
  2093  00191A  0A2B               	xorlw	43
  2094                           
  2095  00191C  A4D8               	btfss	status,2
  2096  00191E  EF93  F00C         	goto	i2u9491
  2097  001922  EF95  F00C         	goto	i2u9490
  2098  001926                     i2u9491:
  2099  001926  EF9D  F00C         	goto	i2l1004
  2100  00192A                     i2u9490:
  2101                           	line	605
  2102                           ;main.c: 605: LATA = 0b11101111;
  2103  00192A  0EEF               	movlw	low(0EFh)
  2104  00192C  6E89               	movwf	((c:3977)),c	;volatile
  2105                           	line	607
  2106                           ;main.c: 607: LATB = 0b10000100;
  2107  00192E  0E84               	movlw	low(084h)
  2108  001930  6E8A               	movwf	((c:3978)),c	;volatile
  2109                           	line	609
  2110                           ;main.c: 609: LATC = 0b00001111;
  2111  001932  0E0F               	movlw	low(0Fh)
  2112  001934  6E8B               	movwf	((c:3979)),c	;volatile
  2113                           	line	611
  2114                           ;main.c: 611: } else if (conv_result.adc_channel
                                  == 3 && conv_result.result == 0x2c) {
  2115  001936  EFE7  F00F         	goto	i2l949
  2116                           	
  2117  00193A                     i2l1004:		; BSR set to: ?
  2118                           
  2119  00193A  5002               	movf	(0+((c:1)+01h)),c,w
  2120  00193C  0A03               	xorlw	3
  2121                           
  2122  00193E  A4D8               	btfss	status,2
  2123  001940  EFA4  F00C         	goto	i2u9501
  2124  001944  EFA6  F00C         	goto	i2u9500
  2125  001948                     i2u9501:
  2126  001948  EFB7  F00C         	goto	i2l1006
  2127  00194C                     i2u9500:
  2128  00194C  5001               	movf	((c:1)),c,w
  2129  00194E  0A2C               	xorlw	44
  2130                           
  2131  001950  A4D8               	btfss	status,2
  2132  001952  EFAD  F00C         	goto	i2u9511
  2133  001956  EFAF  F00C         	goto	i2u9510
  2134  00195A                     i2u9511:
  2135  00195A  EFB7  F00C         	goto	i2l1006
  2136  00195E                     i2u9510:
  2137                           	line	614
  2138                           ;main.c: 614: LATA = 0b10111111;
  2139  00195E  0EBF               	movlw	low(0BFh)
  2140  001960  6E89               	movwf	((c:3977)),c	;volatile
  2141                           	line	616
  2142                           ;main.c: 616: LATB = 0b10000100;
  2143  001962  0E84               	movlw	low(084h)
  2144  001964  6E8A               	movwf	((c:3978)),c	;volatile
  2145                           	line	618
  2146                           ;main.c: 618: LATC = 0b00001111;
  2147  001966  0E0F               	movlw	low(0Fh)
  2148  001968  6E8B               	movwf	((c:3979)),c	;volatile
  2149                           	line	620
  2150                           ;main.c: 620: } else if (conv_result.adc_channel
                                  == 4 && conv_result.result == 0x2d) {
  2151  00196A  EFE7  F00F         	goto	i2l949
  2152                           	
  2153  00196E                     i2l1006:		; BSR set to: ?
  2154                           
  2155  00196E  5002               	movf	(0+((c:1)+01h)),c,w
  2156  001970  0A04               	xorlw	4
  2157                           
  2158  001972  A4D8               	btfss	status,2
  2159  001974  EFBE  F00C         	goto	i2u9521
  2160  001978  EFC0  F00C         	goto	i2u9520
  2161  00197C                     i2u9521:
  2162  00197C  EFD0  F00C         	goto	i2l1008
  2163  001980                     i2u9520:
  2164  001980  5001               	movf	((c:1)),c,w
  2165  001982  0A2D               	xorlw	45
  2166                           
  2167  001984  A4D8               	btfss	status,2
  2168  001986  EFC7  F00C         	goto	i2u9531
  2169  00198A  EFC9  F00C         	goto	i2u9530
  2170  00198E                     i2u9531:
  2171  00198E  EFD0  F00C         	goto	i2l1008
  2172  001992                     i2u9530:
  2173                           	line	623
  2174                           ;main.c: 623: LATA = 0b11111111;
  2175  001992  6889               	setf	((c:3977)),c	;volatile
  2176                           	line	625
  2177                           ;main.c: 625: LATB = 0b10000100;
  2178  001994  0E84               	movlw	low(084h)
  2179  001996  6E8A               	movwf	((c:3978)),c	;volatile
  2180                           	line	627
  2181                           ;main.c: 627: LATC = 0b00001110;
  2182  001998  0E0E               	movlw	low(0Eh)
  2183  00199A  6E8B               	movwf	((c:3979)),c	;volatile
  2184                           	line	629
  2185                           ;main.c: 629: } else if (conv_result.adc_channel
                                  == 5 && conv_result.result == 0x2e) {
  2186  00199C  EFE7  F00F         	goto	i2l949
  2187                           	
  2188  0019A0                     i2l1008:		; BSR set to: ?
  2189                           
  2190  0019A0  5002               	movf	(0+((c:1)+01h)),c,w
  2191  0019A2  0A05               	xorlw	5
  2192                           
  2193  0019A4  A4D8               	btfss	status,2
  2194  0019A6  EFD7  F00C         	goto	i2u9541
  2195  0019AA  EFD9  F00C         	goto	i2u9540
  2196  0019AE                     i2u9541:
  2197  0019AE  EFE9  F00C         	goto	i2l1010
  2198  0019B2                     i2u9540:
  2199  0019B2  5001               	movf	((c:1)),c,w
  2200  0019B4  0A2E               	xorlw	46
  2201                           
  2202  0019B6  A4D8               	btfss	status,2
  2203  0019B8  EFE0  F00C         	goto	i2u9551
  2204  0019BC  EFE2  F00C         	goto	i2u9550
  2205  0019C0                     i2u9551:
  2206  0019C0  EFE9  F00C         	goto	i2l1010
  2207  0019C4                     i2u9550:
  2208                           	line	632
  2209                           ;main.c: 632: LATA = 0b11111111;
  2210  0019C4  6889               	setf	((c:3977)),c	;volatile
  2211                           	line	634
  2212                           ;main.c: 634: LATB = 0b10000100;
  2213  0019C6  0E84               	movlw	low(084h)
  2214  0019C8  6E8A               	movwf	((c:3978)),c	;volatile
  2215                           	line	636
  2216                           ;main.c: 636: LATC = 0b00001101;
  2217  0019CA  0E0D               	movlw	low(0Dh)
  2218  0019CC  6E8B               	movwf	((c:3979)),c	;volatile
  2219                           	line	638
  2220                           ;main.c: 638: } else if (conv_result.adc_channel
                                  == 6 && conv_result.result == 0x2f) {
  2221  0019CE  EFE7  F00F         	goto	i2l949
  2222                           	
  2223  0019D2                     i2l1010:		; BSR set to: ?
  2224                           
  2225  0019D2  5002               	movf	(0+((c:1)+01h)),c,w
  2226  0019D4  0A06               	xorlw	6
  2227                           
  2228  0019D6  A4D8               	btfss	status,2
  2229  0019D8  EFF0  F00C         	goto	i2u9561
  2230  0019DC  EFF2  F00C         	goto	i2u9560
  2231  0019E0                     i2u9561:
  2232  0019E0  EF02  F00D         	goto	i2l1012
  2233  0019E4                     i2u9560:
  2234  0019E4  5001               	movf	((c:1)),c,w
  2235  0019E6  0A2F               	xorlw	47
  2236                           
  2237  0019E8  A4D8               	btfss	status,2
  2238  0019EA  EFF9  F00C         	goto	i2u9571
  2239  0019EE  EFFB  F00C         	goto	i2u9570
  2240  0019F2                     i2u9571:
  2241  0019F2  EF02  F00D         	goto	i2l1012
  2242  0019F6                     i2u9570:
  2243                           	line	641
  2244                           ;main.c: 641: LATA = 0b11111111;
  2245  0019F6  6889               	setf	((c:3977)),c	;volatile
  2246                           	line	643
  2247                           ;main.c: 643: LATB = 0b00000100;
  2248  0019F8  0E04               	movlw	low(04h)
  2249  0019FA  6E8A               	movwf	((c:3978)),c	;volatile
  2250                           	line	645
  2251                           ;main.c: 645: LATC = 0b00001111;
  2252  0019FC  0E0F               	movlw	low(0Fh)
  2253  0019FE  6E8B               	movwf	((c:3979)),c	;volatile
  2254                           	line	647
  2255                           ;main.c: 647: } else if (conv_result.adc_channel
                                  == 0 && conv_result.result == 0x29) {
  2256  001A00  EFE7  F00F         	goto	i2l949
  2257                           	
  2258  001A04                     i2l1012:		; BSR set to: ?
  2259                           
  2260  001A04  6602               	tstfsz	(0+((c:1)+01h)),c
  2261  001A06  EF07  F00D         	goto	i2u9581
  2262  001A0A  EF09  F00D         	goto	i2u9580
  2263  001A0E                     i2u9581:
  2264  001A0E  EF19  F00D         	goto	i2l1014
  2265  001A12                     i2u9580:
  2266  001A12  5001               	movf	((c:1)),c,w
  2267  001A14  0A29               	xorlw	41
  2268                           
  2269  001A16  A4D8               	btfss	status,2
  2270  001A18  EF10  F00D         	goto	i2u9591
  2271  001A1C  EF12  F00D         	goto	i2u9590
  2272  001A20                     i2u9591:
  2273  001A20  EF19  F00D         	goto	i2l1014
  2274  001A24                     i2u9590:
  2275                           	line	650
  2276                           ;main.c: 650: LATA = 0b11111111;
  2277  001A24  6889               	setf	((c:3977)),c	;volatile
  2278                           	line	652
  2279                           ;main.c: 652: LATB = 0b10000100;
  2280  001A26  0E84               	movlw	low(084h)
  2281  001A28  6E8A               	movwf	((c:3978)),c	;volatile
  2282                           	line	654
  2283                           ;main.c: 654: LATC = 0b00001011;
  2284  001A2A  0E0B               	movlw	low(0Bh)
  2285  001A2C  6E8B               	movwf	((c:3979)),c	;volatile
  2286                           	line	656
  2287                           ;main.c: 656: } else if (conv_result.adc_channel
                                  == 1 && conv_result.result == 0x2a) {
  2288  001A2E  EFE7  F00F         	goto	i2l949
  2289                           	
  2290  001A32                     i2l1014:		; BSR set to: ?
  2291                           
  2292  001A32  0402               	decf	(0+((c:1)+01h)),c,w
  2293                           
  2294  001A34  A4D8               	btfss	status,2
  2295  001A36  EF1F  F00D         	goto	i2u9601
  2296  001A3A  EF21  F00D         	goto	i2u9600
  2297  001A3E                     i2u9601:
  2298  001A3E  EF31  F00D         	goto	i2l1016
  2299  001A42                     i2u9600:
  2300  001A42  5001               	movf	((c:1)),c,w
  2301  001A44  0A2A               	xorlw	42
  2302                           
  2303  001A46  A4D8               	btfss	status,2
  2304  001A48  EF28  F00D         	goto	i2u9611
  2305  001A4C  EF2A  F00D         	goto	i2u9610
  2306  001A50                     i2u9611:
  2307  001A50  EF31  F00D         	goto	i2l1016
  2308  001A54                     i2u9610:
  2309                           	line	659
  2310                           ;main.c: 659: LATA = 0b11111111;
  2311  001A54  6889               	setf	((c:3977)),c	;volatile
  2312                           	line	661
  2313                           ;main.c: 661: LATB = 0b10000100;
  2314  001A56  0E84               	movlw	low(084h)
  2315  001A58  6E8A               	movwf	((c:3978)),c	;volatile
  2316                           	line	663
  2317                           ;main.c: 663: LATC = 0b00000111;
  2318  001A5A  0E07               	movlw	low(07h)
  2319  001A5C  6E8B               	movwf	((c:3979)),c	;volatile
  2320                           	line	665
  2321                           ;main.c: 665: } else if (conv_result.adc_channel
                                  == 2 && conv_result.result == 0x33) {
  2322  001A5E  EFE7  F00F         	goto	i2l949
  2323                           	
  2324  001A62                     i2l1016:		; BSR set to: ?
  2325                           
  2326  001A62  5002               	movf	(0+((c:1)+01h)),c,w
  2327  001A64  0A02               	xorlw	2
  2328                           
  2329  001A66  A4D8               	btfss	status,2
  2330  001A68  EF38  F00D         	goto	i2u9621
  2331  001A6C  EF3A  F00D         	goto	i2u9620
  2332  001A70                     i2u9621:
  2333  001A70  EF4B  F00D         	goto	i2l1018
  2334  001A74                     i2u9620:
  2335  001A74  5001               	movf	((c:1)),c,w
  2336  001A76  0A33               	xorlw	51
  2337                           
  2338  001A78  A4D8               	btfss	status,2
  2339  001A7A  EF41  F00D         	goto	i2u9631
  2340  001A7E  EF43  F00D         	goto	i2u9630
  2341  001A82                     i2u9631:
  2342  001A82  EF4B  F00D         	goto	i2l1018
  2343  001A86                     i2u9630:
  2344                           	line	668
  2345                           ;main.c: 668: LATA = 0b11101111;
  2346  001A86  0EEF               	movlw	low(0EFh)
  2347  001A88  6E89               	movwf	((c:3977)),c	;volatile
  2348                           	line	670
  2349                           ;main.c: 670: LATB = 0b10001000;
  2350  001A8A  0E88               	movlw	low(088h)
  2351  001A8C  6E8A               	movwf	((c:3978)),c	;volatile
  2352                           	line	672
  2353                           ;main.c: 672: LATC = 0b00001111;
  2354  001A8E  0E0F               	movlw	low(0Fh)
  2355  001A90  6E8B               	movwf	((c:3979)),c	;volatile
  2356                           	line	674
  2357                           ;main.c: 674: } else if (conv_result.adc_channel
                                  == 3 && conv_result.result == 0x34) {
  2358  001A92  EFE7  F00F         	goto	i2l949
  2359                           	
  2360  001A96                     i2l1018:		; BSR set to: ?
  2361                           
  2362  001A96  5002               	movf	(0+((c:1)+01h)),c,w
  2363  001A98  0A03               	xorlw	3
  2364                           
  2365  001A9A  A4D8               	btfss	status,2
  2366  001A9C  EF52  F00D         	goto	i2u9641
  2367  001AA0  EF54  F00D         	goto	i2u9640
  2368  001AA4                     i2u9641:
  2369  001AA4  EF65  F00D         	goto	i2l1020
  2370  001AA8                     i2u9640:
  2371  001AA8  5001               	movf	((c:1)),c,w
  2372  001AAA  0A34               	xorlw	52
  2373                           
  2374  001AAC  A4D8               	btfss	status,2
  2375  001AAE  EF5B  F00D         	goto	i2u9651
  2376  001AB2  EF5D  F00D         	goto	i2u9650
  2377  001AB6                     i2u9651:
  2378  001AB6  EF65  F00D         	goto	i2l1020
  2379  001ABA                     i2u9650:
  2380                           	line	677
  2381                           ;main.c: 677: LATA = 0b10111111;
  2382  001ABA  0EBF               	movlw	low(0BFh)
  2383  001ABC  6E89               	movwf	((c:3977)),c	;volatile
  2384                           	line	679
  2385                           ;main.c: 679: LATB = 0b10001000;
  2386  001ABE  0E88               	movlw	low(088h)
  2387  001AC0  6E8A               	movwf	((c:3978)),c	;volatile
  2388                           	line	681
  2389                           ;main.c: 681: LATC = 0b00001111;
  2390  001AC2  0E0F               	movlw	low(0Fh)
  2391  001AC4  6E8B               	movwf	((c:3979)),c	;volatile
  2392                           	line	683
  2393                           ;main.c: 683: } else if (conv_result.adc_channel
                                  == 4 && conv_result.result == 0x35) {
  2394  001AC6  EFE7  F00F         	goto	i2l949
  2395                           	
  2396  001ACA                     i2l1020:		; BSR set to: ?
  2397                           
  2398  001ACA  5002               	movf	(0+((c:1)+01h)),c,w
  2399  001ACC  0A04               	xorlw	4
  2400                           
  2401  001ACE  A4D8               	btfss	status,2
  2402  001AD0  EF6C  F00D         	goto	i2u9661
  2403  001AD4  EF6E  F00D         	goto	i2u9660
  2404  001AD8                     i2u9661:
  2405  001AD8  EF7E  F00D         	goto	i2l1022
  2406  001ADC                     i2u9660:
  2407  001ADC  5001               	movf	((c:1)),c,w
  2408  001ADE  0A35               	xorlw	53
  2409                           
  2410  001AE0  A4D8               	btfss	status,2
  2411  001AE2  EF75  F00D         	goto	i2u9671
  2412  001AE6  EF77  F00D         	goto	i2u9670
  2413  001AEA                     i2u9671:
  2414  001AEA  EF7E  F00D         	goto	i2l1022
  2415  001AEE                     i2u9670:
  2416                           	line	686
  2417                           ;main.c: 686: LATA = 0b11111111;
  2418  001AEE  6889               	setf	((c:3977)),c	;volatile
  2419                           	line	688
  2420                           ;main.c: 688: LATB = 0b10001000;
  2421  001AF0  0E88               	movlw	low(088h)
  2422  001AF2  6E8A               	movwf	((c:3978)),c	;volatile
  2423                           	line	690
  2424                           ;main.c: 690: LATC = 0b00001110;
  2425  001AF4  0E0E               	movlw	low(0Eh)
  2426  001AF6  6E8B               	movwf	((c:3979)),c	;volatile
  2427                           	line	692
  2428                           ;main.c: 692: } else if (conv_result.adc_channel
                                  == 5 && conv_result.result == 0x36) {
  2429  001AF8  EFE7  F00F         	goto	i2l949
  2430                           	
  2431  001AFC                     i2l1022:		; BSR set to: ?
  2432                           
  2433  001AFC  5002               	movf	(0+((c:1)+01h)),c,w
  2434  001AFE  0A05               	xorlw	5
  2435                           
  2436  001B00  A4D8               	btfss	status,2
  2437  001B02  EF85  F00D         	goto	i2u9681
  2438  001B06  EF87  F00D         	goto	i2u9680
  2439  001B0A                     i2u9681:
  2440  001B0A  EF97  F00D         	goto	i2l1024
  2441  001B0E                     i2u9680:
  2442  001B0E  5001               	movf	((c:1)),c,w
  2443  001B10  0A36               	xorlw	54
  2444                           
  2445  001B12  A4D8               	btfss	status,2
  2446  001B14  EF8E  F00D         	goto	i2u9691
  2447  001B18  EF90  F00D         	goto	i2u9690
  2448  001B1C                     i2u9691:
  2449  001B1C  EF97  F00D         	goto	i2l1024
  2450  001B20                     i2u9690:
  2451                           	line	695
  2452                           ;main.c: 695: LATA = 0b11111111;
  2453  001B20  6889               	setf	((c:3977)),c	;volatile
  2454                           	line	697
  2455                           ;main.c: 697: LATB = 0b10001000;
  2456  001B22  0E88               	movlw	low(088h)
  2457  001B24  6E8A               	movwf	((c:3978)),c	;volatile
  2458                           	line	699
  2459                           ;main.c: 699: LATC = 0b00001101;
  2460  001B26  0E0D               	movlw	low(0Dh)
  2461  001B28  6E8B               	movwf	((c:3979)),c	;volatile
  2462                           	line	701
  2463                           ;main.c: 701: } else if (conv_result.adc_channel
                                  == 6 && conv_result.result == 0x37) {
  2464  001B2A  EFE7  F00F         	goto	i2l949
  2465                           	
  2466  001B2E                     i2l1024:		; BSR set to: ?
  2467                           
  2468  001B2E  5002               	movf	(0+((c:1)+01h)),c,w
  2469  001B30  0A06               	xorlw	6
  2470                           
  2471  001B32  A4D8               	btfss	status,2
  2472  001B34  EF9E  F00D         	goto	i2u9701
  2473  001B38  EFA0  F00D         	goto	i2u9700
  2474  001B3C                     i2u9701:
  2475  001B3C  EFB0  F00D         	goto	i2l1026
  2476  001B40                     i2u9700:
  2477  001B40  5001               	movf	((c:1)),c,w
  2478  001B42  0A37               	xorlw	55
  2479                           
  2480  001B44  A4D8               	btfss	status,2
  2481  001B46  EFA7  F00D         	goto	i2u9711
  2482  001B4A  EFA9  F00D         	goto	i2u9710
  2483  001B4E                     i2u9711:
  2484  001B4E  EFB0  F00D         	goto	i2l1026
  2485  001B52                     i2u9710:
  2486                           	line	704
  2487                           ;main.c: 704: LATA = 0b11111111;
  2488  001B52  6889               	setf	((c:3977)),c	;volatile
  2489                           	line	706
  2490                           ;main.c: 706: LATB = 0b00001000;
  2491  001B54  0E08               	movlw	low(08h)
  2492  001B56  6E8A               	movwf	((c:3978)),c	;volatile
  2493                           	line	708
  2494                           ;main.c: 708: LATC = 0b00001111;
  2495  001B58  0E0F               	movlw	low(0Fh)
  2496  001B5A  6E8B               	movwf	((c:3979)),c	;volatile
  2497                           	line	710
  2498                           ;main.c: 710: } else if (conv_result.adc_channel
                                  == 0 && conv_result.result == 0x31) {
  2499  001B5C  EFE7  F00F         	goto	i2l949
  2500                           	
  2501  001B60                     i2l1026:		; BSR set to: ?
  2502                           
  2503  001B60  6602               	tstfsz	(0+((c:1)+01h)),c
  2504  001B62  EFB5  F00D         	goto	i2u9721
  2505  001B66  EFB7  F00D         	goto	i2u9720
  2506  001B6A                     i2u9721:
  2507  001B6A  EFC7  F00D         	goto	i2l1028
  2508  001B6E                     i2u9720:
  2509  001B6E  5001               	movf	((c:1)),c,w
  2510  001B70  0A31               	xorlw	49
  2511                           
  2512  001B72  A4D8               	btfss	status,2
  2513  001B74  EFBE  F00D         	goto	i2u9731
  2514  001B78  EFC0  F00D         	goto	i2u9730
  2515  001B7C                     i2u9731:
  2516  001B7C  EFC7  F00D         	goto	i2l1028
  2517  001B80                     i2u9730:
  2518                           	line	713
  2519                           ;main.c: 713: LATA = 0b11111111;
  2520  001B80  6889               	setf	((c:3977)),c	;volatile
  2521                           	line	715
  2522                           ;main.c: 715: LATB = 0b10001000;
  2523  001B82  0E88               	movlw	low(088h)
  2524  001B84  6E8A               	movwf	((c:3978)),c	;volatile
  2525                           	line	717
  2526                           ;main.c: 717: LATC = 0b00001011;
  2527  001B86  0E0B               	movlw	low(0Bh)
  2528  001B88  6E8B               	movwf	((c:3979)),c	;volatile
  2529                           	line	719
  2530                           ;main.c: 719: } else if (conv_result.adc_channel
                                  == 1 && conv_result.result == 0x32) {
  2531  001B8A  EFE7  F00F         	goto	i2l949
  2532                           	
  2533  001B8E                     i2l1028:		; BSR set to: ?
  2534                           
  2535  001B8E  0402               	decf	(0+((c:1)+01h)),c,w
  2536                           
  2537  001B90  A4D8               	btfss	status,2
  2538  001B92  EFCD  F00D         	goto	i2u9741
  2539  001B96  EFCF  F00D         	goto	i2u9740
  2540  001B9A                     i2u9741:
  2541  001B9A  EFDF  F00D         	goto	i2l1030
  2542  001B9E                     i2u9740:
  2543  001B9E  5001               	movf	((c:1)),c,w
  2544  001BA0  0A32               	xorlw	50
  2545                           
  2546  001BA2  A4D8               	btfss	status,2
  2547  001BA4  EFD6  F00D         	goto	i2u9751
  2548  001BA8  EFD8  F00D         	goto	i2u9750
  2549  001BAC                     i2u9751:
  2550  001BAC  EFDF  F00D         	goto	i2l1030
  2551  001BB0                     i2u9750:
  2552                           	line	722
  2553                           ;main.c: 722: LATA = 0b11111111;
  2554  001BB0  6889               	setf	((c:3977)),c	;volatile
  2555                           	line	724
  2556                           ;main.c: 724: LATB = 0b10001000;
  2557  001BB2  0E88               	movlw	low(088h)
  2558  001BB4  6E8A               	movwf	((c:3978)),c	;volatile
  2559                           	line	726
  2560                           ;main.c: 726: LATC = 0b00000111;
  2561  001BB6  0E07               	movlw	low(07h)
  2562  001BB8  6E8B               	movwf	((c:3979)),c	;volatile
  2563                           	line	727
  2564                           ;main.c: 727: }
  2565  001BBA  EFE7  F00F         	goto	i2l949
  2566                           	line	730
  2567                           	
  2568  001BBE                     i2l1030:		; BSR set to: ?
  2569                           
  2570                           ;main.c: 730: else if (conv_result.adc_channel =
                                 = 2 && conv_result.result == 0x43) {
  2571  001BBE  5002               	movf	(0+((c:1)+01h)),c,w
  2572  001BC0  0A02               	xorlw	2
  2573                           
  2574  001BC2  A4D8               	btfss	status,2
  2575  001BC4  EFE6  F00D         	goto	i2u9761
  2576  001BC8  EFE8  F00D         	goto	i2u9760
  2577  001BCC                     i2u9761:
  2578  001BCC  EFF9  F00D         	goto	i2l1032
  2579  001BD0                     i2u9760:
  2580  001BD0  5001               	movf	((c:1)),c,w
  2581  001BD2  0A43               	xorlw	67
  2582                           
  2583  001BD4  A4D8               	btfss	status,2
  2584  001BD6  EFEF  F00D         	goto	i2u9771
  2585  001BDA  EFF1  F00D         	goto	i2u9770
  2586  001BDE                     i2u9771:
  2587  001BDE  EFF9  F00D         	goto	i2l1032
  2588  001BE2                     i2u9770:
  2589                           	line	733
  2590                           ;main.c: 733: LATA = 0b11101111;
  2591  001BE2  0EEF               	movlw	low(0EFh)
  2592  001BE4  6E89               	movwf	((c:3977)),c	;volatile
  2593                           	line	735
  2594                           ;main.c: 735: LATB = 0b10000000;
  2595  001BE6  0E80               	movlw	low(080h)
  2596  001BE8  6E8A               	movwf	((c:3978)),c	;volatile
  2597                           	line	737
  2598                           ;main.c: 737: LATC = 0b00111111;
  2599  001BEA  0E3F               	movlw	low(03Fh)
  2600  001BEC  6E8B               	movwf	((c:3979)),c	;volatile
  2601                           	line	739
  2602                           ;main.c: 739: } else if (conv_result.adc_channel
                                  == 3 && conv_result.result == 0x44) {
  2603  001BEE  EFE7  F00F         	goto	i2l949
  2604                           	
  2605  001BF2                     i2l1032:		; BSR set to: ?
  2606                           
  2607  001BF2  5002               	movf	(0+((c:1)+01h)),c,w
  2608  001BF4  0A03               	xorlw	3
  2609                           
  2610  001BF6  A4D8               	btfss	status,2
  2611  001BF8  EF00  F00E         	goto	i2u9781
  2612  001BFC  EF02  F00E         	goto	i2u9780
  2613  001C00                     i2u9781:
  2614  001C00  EF13  F00E         	goto	i2l1034
  2615  001C04                     i2u9780:
  2616  001C04  5001               	movf	((c:1)),c,w
  2617  001C06  0A44               	xorlw	68
  2618                           
  2619  001C08  A4D8               	btfss	status,2
  2620  001C0A  EF09  F00E         	goto	i2u9791
  2621  001C0E  EF0B  F00E         	goto	i2u9790
  2622  001C12                     i2u9791:
  2623  001C12  EF13  F00E         	goto	i2l1034
  2624  001C16                     i2u9790:
  2625                           	line	742
  2626                           ;main.c: 742: LATA = 0b10111111;
  2627  001C16  0EBF               	movlw	low(0BFh)
  2628  001C18  6E89               	movwf	((c:3977)),c	;volatile
  2629                           	line	744
  2630                           ;main.c: 744: LATB = 0b10000000;
  2631  001C1A  0E80               	movlw	low(080h)
  2632  001C1C  6E8A               	movwf	((c:3978)),c	;volatile
  2633                           	line	746
  2634                           ;main.c: 746: LATC = 0b00111111;
  2635  001C1E  0E3F               	movlw	low(03Fh)
  2636  001C20  6E8B               	movwf	((c:3979)),c	;volatile
  2637                           	line	748
  2638                           ;main.c: 748: } else if (conv_result.adc_channel
                                  == 4 && conv_result.result == 0x45) {
  2639  001C22  EFE7  F00F         	goto	i2l949
  2640                           	
  2641  001C26                     i2l1034:		; BSR set to: ?
  2642                           
  2643  001C26  5002               	movf	(0+((c:1)+01h)),c,w
  2644  001C28  0A04               	xorlw	4
  2645                           
  2646  001C2A  A4D8               	btfss	status,2
  2647  001C2C  EF1A  F00E         	goto	i2u9801
  2648  001C30  EF1C  F00E         	goto	i2u9800
  2649  001C34                     i2u9801:
  2650  001C34  EF2C  F00E         	goto	i2l1036
  2651  001C38                     i2u9800:
  2652  001C38  5001               	movf	((c:1)),c,w
  2653  001C3A  0A45               	xorlw	69
  2654                           
  2655  001C3C  A4D8               	btfss	status,2
  2656  001C3E  EF23  F00E         	goto	i2u9811
  2657  001C42  EF25  F00E         	goto	i2u9810
  2658  001C46                     i2u9811:
  2659  001C46  EF2C  F00E         	goto	i2l1036
  2660  001C4A                     i2u9810:
  2661                           	line	751
  2662                           ;main.c: 751: LATA = 0b11111111;
  2663  001C4A  6889               	setf	((c:3977)),c	;volatile
  2664                           	line	753
  2665                           ;main.c: 753: LATB = 0b10000000;
  2666  001C4C  0E80               	movlw	low(080h)
  2667  001C4E  6E8A               	movwf	((c:3978)),c	;volatile
  2668                           	line	755
  2669                           ;main.c: 755: LATC = 0b00111110;
  2670  001C50  0E3E               	movlw	low(03Eh)
  2671  001C52  6E8B               	movwf	((c:3979)),c	;volatile
  2672                           	line	757
  2673                           ;main.c: 757: } else if (conv_result.adc_channel
                                  == 5 && conv_result.result == 0x46) {
  2674  001C54  EFE7  F00F         	goto	i2l949
  2675                           	
  2676  001C58                     i2l1036:		; BSR set to: ?
  2677                           
  2678  001C58  5002               	movf	(0+((c:1)+01h)),c,w
  2679  001C5A  0A05               	xorlw	5
  2680                           
  2681  001C5C  A4D8               	btfss	status,2
  2682  001C5E  EF33  F00E         	goto	i2u9821
  2683  001C62  EF35  F00E         	goto	i2u9820
  2684  001C66                     i2u9821:
  2685  001C66  EF45  F00E         	goto	i2l1038
  2686  001C6A                     i2u9820:
  2687  001C6A  5001               	movf	((c:1)),c,w
  2688  001C6C  0A46               	xorlw	70
  2689                           
  2690  001C6E  A4D8               	btfss	status,2
  2691  001C70  EF3C  F00E         	goto	i2u9831
  2692  001C74  EF3E  F00E         	goto	i2u9830
  2693  001C78                     i2u9831:
  2694  001C78  EF45  F00E         	goto	i2l1038
  2695  001C7C                     i2u9830:
  2696                           	line	760
  2697                           ;main.c: 760: LATA = 0b11111111;
  2698  001C7C  6889               	setf	((c:3977)),c	;volatile
  2699                           	line	762
  2700                           ;main.c: 762: LATB = 0b10000000;
  2701  001C7E  0E80               	movlw	low(080h)
  2702  001C80  6E8A               	movwf	((c:3978)),c	;volatile
  2703                           	line	764
  2704                           ;main.c: 764: LATC = 0b00111101;
  2705  001C82  0E3D               	movlw	low(03Dh)
  2706  001C84  6E8B               	movwf	((c:3979)),c	;volatile
  2707                           	line	765
  2708                           ;main.c: 765: } else if (conv_result.adc_channel
                                  == 6 && conv_result.result == 0x47) {
  2709  001C86  EFE7  F00F         	goto	i2l949
  2710                           	
  2711  001C8A                     i2l1038:		; BSR set to: ?
  2712                           
  2713  001C8A  5002               	movf	(0+((c:1)+01h)),c,w
  2714  001C8C  0A06               	xorlw	6
  2715                           
  2716  001C8E  A4D8               	btfss	status,2
  2717  001C90  EF4C  F00E         	goto	i2u9841
  2718  001C94  EF4E  F00E         	goto	i2u9840
  2719  001C98                     i2u9841:
  2720  001C98  EF5E  F00E         	goto	i2l1040
  2721  001C9C                     i2u9840:
  2722  001C9C  5001               	movf	((c:1)),c,w
  2723  001C9E  0A47               	xorlw	71
  2724                           
  2725  001CA0  A4D8               	btfss	status,2
  2726  001CA2  EF55  F00E         	goto	i2u9851
  2727  001CA6  EF57  F00E         	goto	i2u9850
  2728  001CAA                     i2u9851:
  2729  001CAA  EF5E  F00E         	goto	i2l1040
  2730  001CAE                     i2u9850:
  2731                           	line	768
  2732                           ;main.c: 768: LATA = 0b11111111;
  2733  001CAE  6889               	setf	((c:3977)),c	;volatile
  2734                           	line	770
  2735                           ;main.c: 770: LATB = 0b00000000;
  2736  001CB0  0E00               	movlw	low(0)
  2737  001CB2  6E8A               	movwf	((c:3978)),c	;volatile
  2738                           	line	772
  2739                           ;main.c: 772: LATC = 0b00111111;
  2740  001CB4  0E3F               	movlw	low(03Fh)
  2741  001CB6  6E8B               	movwf	((c:3979)),c	;volatile
  2742                           	line	773
  2743                           ;main.c: 773: } else if (conv_result.adc_channel
                                  == 0 && conv_result.result == 0x41) {
  2744  001CB8  EFE7  F00F         	goto	i2l949
  2745                           	
  2746  001CBC                     i2l1040:		; BSR set to: ?
  2747                           
  2748  001CBC  6602               	tstfsz	(0+((c:1)+01h)),c
  2749  001CBE  EF63  F00E         	goto	i2u9861
  2750  001CC2  EF65  F00E         	goto	i2u9860
  2751  001CC6                     i2u9861:
  2752  001CC6  EF75  F00E         	goto	i2l1042
  2753  001CCA                     i2u9860:
  2754  001CCA  5001               	movf	((c:1)),c,w
  2755  001CCC  0A41               	xorlw	65
  2756                           
  2757  001CCE  A4D8               	btfss	status,2
  2758  001CD0  EF6C  F00E         	goto	i2u9871
  2759  001CD4  EF6E  F00E         	goto	i2u9870
  2760  001CD8                     i2u9871:
  2761  001CD8  EF75  F00E         	goto	i2l1042
  2762  001CDC                     i2u9870:
  2763                           	line	776
  2764                           ;main.c: 776: LATA = 0b11111111;
  2765  001CDC  6889               	setf	((c:3977)),c	;volatile
  2766                           	line	778
  2767                           ;main.c: 778: LATB = 0b10000000;
  2768  001CDE  0E80               	movlw	low(080h)
  2769  001CE0  6E8A               	movwf	((c:3978)),c	;volatile
  2770                           	line	780
  2771                           ;main.c: 780: LATC = 0b00111011;
  2772  001CE2  0E3B               	movlw	low(03Bh)
  2773  001CE4  6E8B               	movwf	((c:3979)),c	;volatile
  2774                           	line	781
  2775                           ;main.c: 781: } else if (conv_result.adc_channel
                                  == 1 && conv_result.result == 0x42) {
  2776  001CE6  EFE7  F00F         	goto	i2l949
  2777                           	
  2778  001CEA                     i2l1042:		; BSR set to: ?
  2779                           
  2780  001CEA  0402               	decf	(0+((c:1)+01h)),c,w
  2781                           
  2782  001CEC  A4D8               	btfss	status,2
  2783  001CEE  EF7B  F00E         	goto	i2u9881
  2784  001CF2  EF7D  F00E         	goto	i2u9880
  2785  001CF6                     i2u9881:
  2786  001CF6  EF8D  F00E         	goto	i2l1044
  2787  001CFA                     i2u9880:
  2788  001CFA  5001               	movf	((c:1)),c,w
  2789  001CFC  0A42               	xorlw	66
  2790                           
  2791  001CFE  A4D8               	btfss	status,2
  2792  001D00  EF84  F00E         	goto	i2u9891
  2793  001D04  EF86  F00E         	goto	i2u9890
  2794  001D08                     i2u9891:
  2795  001D08  EF8D  F00E         	goto	i2l1044
  2796  001D0C                     i2u9890:
  2797                           	line	784
  2798                           ;main.c: 784: LATA = 0b11111111;
  2799  001D0C  6889               	setf	((c:3977)),c	;volatile
  2800                           	line	786
  2801                           ;main.c: 786: LATB = 0b10000000;
  2802  001D0E  0E80               	movlw	low(080h)
  2803  001D10  6E8A               	movwf	((c:3978)),c	;volatile
  2804                           	line	788
  2805                           ;main.c: 788: LATC = 0b00110111;
  2806  001D12  0E37               	movlw	low(037h)
  2807  001D14  6E8B               	movwf	((c:3979)),c	;volatile
  2808                           	line	790
  2809                           ;main.c: 790: } else if (conv_result.adc_channel
                                  == 2 && conv_result.result == 0x4b) {
  2810  001D16  EFE7  F00F         	goto	i2l949
  2811                           	
  2812  001D1A                     i2l1044:		; BSR set to: ?
  2813                           
  2814  001D1A  5002               	movf	(0+((c:1)+01h)),c,w
  2815  001D1C  0A02               	xorlw	2
  2816                           
  2817  001D1E  A4D8               	btfss	status,2
  2818  001D20  EF94  F00E         	goto	i2u9901
  2819  001D24  EF96  F00E         	goto	i2u9900
  2820  001D28                     i2u9901:
  2821  001D28  EFA7  F00E         	goto	i2l1046
  2822  001D2C                     i2u9900:
  2823  001D2C  5001               	movf	((c:1)),c,w
  2824  001D2E  0A4B               	xorlw	75
  2825                           
  2826  001D30  A4D8               	btfss	status,2
  2827  001D32  EF9D  F00E         	goto	i2u9911
  2828  001D36  EF9F  F00E         	goto	i2u9910
  2829  001D3A                     i2u9911:
  2830  001D3A  EFA7  F00E         	goto	i2l1046
  2831  001D3E                     i2u9910:
  2832                           	line	793
  2833                           ;main.c: 793: LATA = 0b11101111;
  2834  001D3E  0EEF               	movlw	low(0EFh)
  2835  001D40  6E89               	movwf	((c:3977)),c	;volatile
  2836                           	line	795
  2837                           ;main.c: 795: LATB = 0b10000000;
  2838  001D42  0E80               	movlw	low(080h)
  2839  001D44  6E8A               	movwf	((c:3978)),c	;volatile
  2840                           	line	797
  2841                           ;main.c: 797: LATC = 0b00011111;
  2842  001D46  0E1F               	movlw	low(01Fh)
  2843  001D48  6E8B               	movwf	((c:3979)),c	;volatile
  2844                           	line	799
  2845                           ;main.c: 799: } else if (conv_result.adc_channel
                                  == 3 && conv_result.result == 0x4c) {
  2846  001D4A  EFE7  F00F         	goto	i2l949
  2847                           	
  2848  001D4E                     i2l1046:		; BSR set to: ?
  2849                           
  2850  001D4E  5002               	movf	(0+((c:1)+01h)),c,w
  2851  001D50  0A03               	xorlw	3
  2852                           
  2853  001D52  A4D8               	btfss	status,2
  2854  001D54  EFAE  F00E         	goto	i2u9921
  2855  001D58  EFB0  F00E         	goto	i2u9920
  2856  001D5C                     i2u9921:
  2857  001D5C  EFC1  F00E         	goto	i2l1048
  2858  001D60                     i2u9920:
  2859  001D60  5001               	movf	((c:1)),c,w
  2860  001D62  0A4C               	xorlw	76
  2861                           
  2862  001D64  A4D8               	btfss	status,2
  2863  001D66  EFB7  F00E         	goto	i2u9931
  2864  001D6A  EFB9  F00E         	goto	i2u9930
  2865  001D6E                     i2u9931:
  2866  001D6E  EFC1  F00E         	goto	i2l1048
  2867  001D72                     i2u9930:
  2868                           	line	802
  2869                           ;main.c: 802: LATA = 0b10111111;
  2870  001D72  0EBF               	movlw	low(0BFh)
  2871  001D74  6E89               	movwf	((c:3977)),c	;volatile
  2872                           	line	804
  2873                           ;main.c: 804: LATB = 0b10000000;
  2874  001D76  0E80               	movlw	low(080h)
  2875  001D78  6E8A               	movwf	((c:3978)),c	;volatile
  2876                           	line	806
  2877                           ;main.c: 806: LATC = 0b00011111;
  2878  001D7A  0E1F               	movlw	low(01Fh)
  2879  001D7C  6E8B               	movwf	((c:3979)),c	;volatile
  2880                           	line	808
  2881                           ;main.c: 808: } else if (conv_result.adc_channel
                                  == 4 && conv_result.result == 0x4d) {
  2882  001D7E  EFE7  F00F         	goto	i2l949
  2883                           	
  2884  001D82                     i2l1048:		; BSR set to: ?
  2885                           
  2886  001D82  5002               	movf	(0+((c:1)+01h)),c,w
  2887  001D84  0A04               	xorlw	4
  2888                           
  2889  001D86  A4D8               	btfss	status,2
  2890  001D88  EFC8  F00E         	goto	i2u9941
  2891  001D8C  EFCA  F00E         	goto	i2u9940
  2892  001D90                     i2u9941:
  2893  001D90  EFDA  F00E         	goto	i2l1050
  2894  001D94                     i2u9940:
  2895  001D94  5001               	movf	((c:1)),c,w
  2896  001D96  0A4D               	xorlw	77
  2897                           
  2898  001D98  A4D8               	btfss	status,2
  2899  001D9A  EFD1  F00E         	goto	i2u9951
  2900  001D9E  EFD3  F00E         	goto	i2u9950
  2901  001DA2                     i2u9951:
  2902  001DA2  EFDA  F00E         	goto	i2l1050
  2903  001DA6                     i2u9950:
  2904                           	line	811
  2905                           ;main.c: 811: LATA = 0b11111111;
  2906  001DA6  6889               	setf	((c:3977)),c	;volatile
  2907                           	line	813
  2908                           ;main.c: 813: LATB = 0b10000000;
  2909  001DA8  0E80               	movlw	low(080h)
  2910  001DAA  6E8A               	movwf	((c:3978)),c	;volatile
  2911                           	line	815
  2912                           ;main.c: 815: LATC = 0b00011110;
  2913  001DAC  0E1E               	movlw	low(01Eh)
  2914  001DAE  6E8B               	movwf	((c:3979)),c	;volatile
  2915                           	line	817
  2916                           ;main.c: 817: } else if (conv_result.adc_channel
                                  == 5 && conv_result.result == 0x4e) {
  2917  001DB0  EFE7  F00F         	goto	i2l949
  2918                           	
  2919  001DB4                     i2l1050:		; BSR set to: ?
  2920                           
  2921  001DB4  5002               	movf	(0+((c:1)+01h)),c,w
  2922  001DB6  0A05               	xorlw	5
  2923                           
  2924  001DB8  A4D8               	btfss	status,2
  2925  001DBA  EFE1  F00E         	goto	i2u9961
  2926  001DBE  EFE3  F00E         	goto	i2u9960
  2927  001DC2                     i2u9961:
  2928  001DC2  EFF3  F00E         	goto	i2l1052
  2929  001DC6                     i2u9960:
  2930  001DC6  5001               	movf	((c:1)),c,w
  2931  001DC8  0A4E               	xorlw	78
  2932                           
  2933  001DCA  A4D8               	btfss	status,2
  2934  001DCC  EFEA  F00E         	goto	i2u9971
  2935  001DD0  EFEC  F00E         	goto	i2u9970
  2936  001DD4                     i2u9971:
  2937  001DD4  EFF3  F00E         	goto	i2l1052
  2938  001DD8                     i2u9970:
  2939                           	line	820
  2940                           ;main.c: 820: LATA = 0b11111111;
  2941  001DD8  6889               	setf	((c:3977)),c	;volatile
  2942                           	line	822
  2943                           ;main.c: 822: LATB = 0b10000000;
  2944  001DDA  0E80               	movlw	low(080h)
  2945  001DDC  6E8A               	movwf	((c:3978)),c	;volatile
  2946                           	line	824
  2947                           ;main.c: 824: LATC = 0b00011101;
  2948  001DDE  0E1D               	movlw	low(01Dh)
  2949  001DE0  6E8B               	movwf	((c:3979)),c	;volatile
  2950                           	line	826
  2951                           ;main.c: 826: } else if (conv_result.adc_channel
                                  == 6 && conv_result.result == 0x4f) {
  2952  001DE2  EFE7  F00F         	goto	i2l949
  2953                           	
  2954  001DE6                     i2l1052:		; BSR set to: ?
  2955                           
  2956  001DE6  5002               	movf	(0+((c:1)+01h)),c,w
  2957  001DE8  0A06               	xorlw	6
  2958                           
  2959  001DEA  A4D8               	btfss	status,2
  2960  001DEC  EFFA  F00E         	goto	i2u9981
  2961  001DF0  EFFC  F00E         	goto	i2u9980
  2962  001DF4                     i2u9981:
  2963  001DF4  EF0C  F00F         	goto	i2l1054
  2964  001DF8                     i2u9980:
  2965  001DF8  5001               	movf	((c:1)),c,w
  2966  001DFA  0A4F               	xorlw	79
  2967                           
  2968  001DFC  A4D8               	btfss	status,2
  2969  001DFE  EF03  F00F         	goto	i2u9991
  2970  001E02  EF05  F00F         	goto	i2u9990
  2971  001E06                     i2u9991:
  2972  001E06  EF0C  F00F         	goto	i2l1054
  2973  001E0A                     i2u9990:
  2974                           	line	829
  2975                           ;main.c: 829: LATA = 0b11111111;
  2976  001E0A  6889               	setf	((c:3977)),c	;volatile
  2977                           	line	831
  2978                           ;main.c: 831: LATB = 0b00000000;
  2979  001E0C  0E00               	movlw	low(0)
  2980  001E0E  6E8A               	movwf	((c:3978)),c	;volatile
  2981                           	line	833
  2982                           ;main.c: 833: LATC = 0b00011111;
  2983  001E10  0E1F               	movlw	low(01Fh)
  2984  001E12  6E8B               	movwf	((c:3979)),c	;volatile
  2985                           	line	835
  2986                           ;main.c: 835: } else if (conv_result.adc_channel
                                  == 0 && conv_result.result == 0x49) {
  2987  001E14  EFE7  F00F         	goto	i2l949
  2988                           	
  2989  001E18                     i2l1054:		; BSR set to: ?
  2990                           
  2991  001E18  6602               	tstfsz	(0+((c:1)+01h)),c
  2992  001E1A  EF11  F00F         	goto	i2u10001
  2993  001E1E  EF13  F00F         	goto	i2u10000
  2994  001E22                     i2u10001:
  2995  001E22  EF23  F00F         	goto	i2l1056
  2996  001E26                     i2u10000:
  2997  001E26  5001               	movf	((c:1)),c,w
  2998  001E28  0A49               	xorlw	73
  2999                           
  3000  001E2A  A4D8               	btfss	status,2
  3001  001E2C  EF1A  F00F         	goto	i2u10011
  3002  001E30  EF1C  F00F         	goto	i2u10010
  3003  001E34                     i2u10011:
  3004  001E34  EF23  F00F         	goto	i2l1056
  3005  001E38                     i2u10010:
  3006                           	line	838
  3007                           ;main.c: 838: LATA = 0b11111111;
  3008  001E38  6889               	setf	((c:3977)),c	;volatile
  3009                           	line	840
  3010                           ;main.c: 840: LATB = 0b10000000;
  3011  001E3A  0E80               	movlw	low(080h)
  3012  001E3C  6E8A               	movwf	((c:3978)),c	;volatile
  3013                           	line	842
  3014                           ;main.c: 842: LATC = 0b00011011;
  3015  001E3E  0E1B               	movlw	low(01Bh)
  3016  001E40  6E8B               	movwf	((c:3979)),c	;volatile
  3017                           	line	844
  3018                           ;main.c: 844: } else if (conv_result.adc_channel
                                  == 1 && conv_result.result == 0x4a) {
  3019  001E42  EFE7  F00F         	goto	i2l949
  3020                           	
  3021  001E46                     i2l1056:		; BSR set to: ?
  3022                           
  3023  001E46  0402               	decf	(0+((c:1)+01h)),c,w
  3024                           
  3025  001E48  A4D8               	btfss	status,2
  3026  001E4A  EF29  F00F         	goto	i2u10021
  3027  001E4E  EF2B  F00F         	goto	i2u10020
  3028  001E52                     i2u10021:
  3029  001E52  EF3B  F00F         	goto	i2l1058
  3030  001E56                     i2u10020:
  3031  001E56  5001               	movf	((c:1)),c,w
  3032  001E58  0A4A               	xorlw	74
  3033                           
  3034  001E5A  A4D8               	btfss	status,2
  3035  001E5C  EF32  F00F         	goto	i2u10031
  3036  001E60  EF34  F00F         	goto	i2u10030
  3037  001E64                     i2u10031:
  3038  001E64  EF3B  F00F         	goto	i2l1058
  3039  001E68                     i2u10030:
  3040                           	line	847
  3041                           ;main.c: 847: LATA = 0b11111111;
  3042  001E68  6889               	setf	((c:3977)),c	;volatile
  3043                           	line	849
  3044                           ;main.c: 849: LATB = 0b10000000;
  3045  001E6A  0E80               	movlw	low(080h)
  3046  001E6C  6E8A               	movwf	((c:3978)),c	;volatile
  3047                           	line	851
  3048                           ;main.c: 851: LATC = 0b00010111;
  3049  001E6E  0E17               	movlw	low(017h)
  3050  001E70  6E8B               	movwf	((c:3979)),c	;volatile
  3051                           	line	853
  3052                           ;main.c: 853: } else if (conv_result.adc_channel
                                  == 2 && conv_result.result == 0x53) {
  3053  001E72  EFE7  F00F         	goto	i2l949
  3054                           	
  3055  001E76                     i2l1058:		; BSR set to: ?
  3056                           
  3057  001E76  5002               	movf	(0+((c:1)+01h)),c,w
  3058  001E78  0A02               	xorlw	2
  3059                           
  3060  001E7A  A4D8               	btfss	status,2
  3061  001E7C  EF42  F00F         	goto	i2u10041
  3062  001E80  EF44  F00F         	goto	i2u10040
  3063  001E84                     i2u10041:
  3064  001E84  EF55  F00F         	goto	i2l1060
  3065  001E88                     i2u10040:
  3066  001E88  5001               	movf	((c:1)),c,w
  3067  001E8A  0A53               	xorlw	83
  3068                           
  3069  001E8C  A4D8               	btfss	status,2
  3070  001E8E  EF4B  F00F         	goto	i2u10051
  3071  001E92  EF4D  F00F         	goto	i2u10050
  3072  001E96                     i2u10051:
  3073  001E96  EF55  F00F         	goto	i2l1060
  3074  001E9A                     i2u10050:
  3075                           	line	856
  3076                           ;main.c: 856: LATA = 0b11101111;
  3077  001E9A  0EEF               	movlw	low(0EFh)
  3078  001E9C  6E89               	movwf	((c:3977)),c	;volatile
  3079                           	line	858
  3080                           ;main.c: 858: LATB = 0b10000000;
  3081  001E9E  0E80               	movlw	low(080h)
  3082  001EA0  6E8A               	movwf	((c:3978)),c	;volatile
  3083                           	line	860
  3084                           ;main.c: 860: LATC = 0b00101111;
  3085  001EA2  0E2F               	movlw	low(02Fh)
  3086  001EA4  6E8B               	movwf	((c:3979)),c	;volatile
  3087                           	line	862
  3088                           ;main.c: 862: } else if (conv_result.adc_channel
                                  == 3 && conv_result.result == 0x54) {
  3089  001EA6  EFE7  F00F         	goto	i2l949
  3090                           	
  3091  001EAA                     i2l1060:		; BSR set to: ?
  3092                           
  3093  001EAA  5002               	movf	(0+((c:1)+01h)),c,w
  3094  001EAC  0A03               	xorlw	3
  3095                           
  3096  001EAE  A4D8               	btfss	status,2
  3097  001EB0  EF5C  F00F         	goto	i2u10061
  3098  001EB4  EF5E  F00F         	goto	i2u10060
  3099  001EB8                     i2u10061:
  3100  001EB8  EF6F  F00F         	goto	i2l1062
  3101  001EBC                     i2u10060:
  3102  001EBC  5001               	movf	((c:1)),c,w
  3103  001EBE  0A54               	xorlw	84
  3104                           
  3105  001EC0  A4D8               	btfss	status,2
  3106  001EC2  EF65  F00F         	goto	i2u10071
  3107  001EC6  EF67  F00F         	goto	i2u10070
  3108  001ECA                     i2u10071:
  3109  001ECA  EF6F  F00F         	goto	i2l1062
  3110  001ECE                     i2u10070:
  3111                           	line	865
  3112                           ;main.c: 865: LATA = 0b10111111;
  3113  001ECE  0EBF               	movlw	low(0BFh)
  3114  001ED0  6E89               	movwf	((c:3977)),c	;volatile
  3115                           	line	867
  3116                           ;main.c: 867: LATB = 0b10000000;
  3117  001ED2  0E80               	movlw	low(080h)
  3118  001ED4  6E8A               	movwf	((c:3978)),c	;volatile
  3119                           	line	869
  3120                           ;main.c: 869: LATC = 0b00101111;
  3121  001ED6  0E2F               	movlw	low(02Fh)
  3122  001ED8  6E8B               	movwf	((c:3979)),c	;volatile
  3123                           	line	871
  3124                           ;main.c: 871: } else if (conv_result.adc_channel
                                  == 4 && conv_result.result == 0x55) {
  3125  001EDA  EFE7  F00F         	goto	i2l949
  3126                           	
  3127  001EDE                     i2l1062:		; BSR set to: ?
  3128                           
  3129  001EDE  5002               	movf	(0+((c:1)+01h)),c,w
  3130  001EE0  0A04               	xorlw	4
  3131                           
  3132  001EE2  A4D8               	btfss	status,2
  3133  001EE4  EF76  F00F         	goto	i2u10081
  3134  001EE8  EF78  F00F         	goto	i2u10080
  3135  001EEC                     i2u10081:
  3136  001EEC  EF88  F00F         	goto	i2l1064
  3137  001EF0                     i2u10080:
  3138  001EF0  5001               	movf	((c:1)),c,w
  3139  001EF2  0A55               	xorlw	85
  3140                           
  3141  001EF4  A4D8               	btfss	status,2
  3142  001EF6  EF7F  F00F         	goto	i2u10091
  3143  001EFA  EF81  F00F         	goto	i2u10090
  3144  001EFE                     i2u10091:
  3145  001EFE  EF88  F00F         	goto	i2l1064
  3146  001F02                     i2u10090:
  3147                           	line	874
  3148                           ;main.c: 874: LATA = 0b11111111;
  3149  001F02  6889               	setf	((c:3977)),c	;volatile
  3150                           	line	876
  3151                           ;main.c: 876: LATB = 0b10000000;
  3152  001F04  0E80               	movlw	low(080h)
  3153  001F06  6E8A               	movwf	((c:3978)),c	;volatile
  3154                           	line	878
  3155                           ;main.c: 878: LATC = 0b00101110;
  3156  001F08  0E2E               	movlw	low(02Eh)
  3157  001F0A  6E8B               	movwf	((c:3979)),c	;volatile
  3158                           	line	880
  3159                           ;main.c: 880: } else if (conv_result.adc_channel
                                  == 5 && conv_result.result == 0x56) {
  3160  001F0C  EFE7  F00F         	goto	i2l949
  3161                           	
  3162  001F10                     i2l1064:		; BSR set to: ?
  3163                           
  3164  001F10  5002               	movf	(0+((c:1)+01h)),c,w
  3165  001F12  0A05               	xorlw	5
  3166                           
  3167  001F14  A4D8               	btfss	status,2
  3168  001F16  EF8F  F00F         	goto	i2u10101
  3169  001F1A  EF91  F00F         	goto	i2u10100
  3170  001F1E                     i2u10101:
  3171  001F1E  EFA1  F00F         	goto	i2l1066
  3172  001F22                     i2u10100:
  3173  001F22  5001               	movf	((c:1)),c,w
  3174  001F24  0A56               	xorlw	86
  3175                           
  3176  001F26  A4D8               	btfss	status,2
  3177  001F28  EF98  F00F         	goto	i2u10111
  3178  001F2C  EF9A  F00F         	goto	i2u10110
  3179  001F30                     i2u10111:
  3180  001F30  EFA1  F00F         	goto	i2l1066
  3181  001F34                     i2u10110:
  3182                           	line	883
  3183                           ;main.c: 883: LATA = 0b11111111;
  3184  001F34  6889               	setf	((c:3977)),c	;volatile
  3185                           	line	885
  3186                           ;main.c: 885: LATB = 0b10000000;
  3187  001F36  0E80               	movlw	low(080h)
  3188  001F38  6E8A               	movwf	((c:3978)),c	;volatile
  3189                           	line	887
  3190                           ;main.c: 887: LATC = 0b00101101;
  3191  001F3A  0E2D               	movlw	low(02Dh)
  3192  001F3C  6E8B               	movwf	((c:3979)),c	;volatile
  3193                           	line	889
  3194                           ;main.c: 889: } else if (conv_result.adc_channel
                                  == 6 && conv_result.result == 0x57) {
  3195  001F3E  EFE7  F00F         	goto	i2l949
  3196                           	
  3197  001F42                     i2l1066:		; BSR set to: ?
  3198                           
  3199  001F42  5002               	movf	(0+((c:1)+01h)),c,w
  3200  001F44  0A06               	xorlw	6
  3201                           
  3202  001F46  A4D8               	btfss	status,2
  3203  001F48  EFA8  F00F         	goto	i2u10121
  3204  001F4C  EFAA  F00F         	goto	i2u10120
  3205  001F50                     i2u10121:
  3206  001F50  EFBA  F00F         	goto	i2l1068
  3207  001F54                     i2u10120:
  3208  001F54  5001               	movf	((c:1)),c,w
  3209  001F56  0A57               	xorlw	87
  3210                           
  3211  001F58  A4D8               	btfss	status,2
  3212  001F5A  EFB1  F00F         	goto	i2u10131
  3213  001F5E  EFB3  F00F         	goto	i2u10130
  3214  001F62                     i2u10131:
  3215  001F62  EFBA  F00F         	goto	i2l1068
  3216  001F66                     i2u10130:
  3217                           	line	892
  3218                           ;main.c: 892: LATA = 0b11111111;
  3219  001F66  6889               	setf	((c:3977)),c	;volatile
  3220                           	line	894
  3221                           ;main.c: 894: LATB = 0b00000000;
  3222  001F68  0E00               	movlw	low(0)
  3223  001F6A  6E8A               	movwf	((c:3978)),c	;volatile
  3224                           	line	896
  3225                           ;main.c: 896: LATC = 0b00101111;
  3226  001F6C  0E2F               	movlw	low(02Fh)
  3227  001F6E  6E8B               	movwf	((c:3979)),c	;volatile
  3228                           	line	898
  3229                           ;main.c: 898: } else if (conv_result.adc_channel
                                  == 0 && conv_result.result == 0x51) {
  3230  001F70  EFE7  F00F         	goto	i2l949
  3231                           	
  3232  001F74                     i2l1068:		; BSR set to: ?
  3233                           
  3234  001F74  6602               	tstfsz	(0+((c:1)+01h)),c
  3235  001F76  EFBF  F00F         	goto	i2u10141
  3236  001F7A  EFC1  F00F         	goto	i2u10140
  3237  001F7E                     i2u10141:
  3238  001F7E  EFD1  F00F         	goto	i2l1070
  3239  001F82                     i2u10140:
  3240  001F82  5001               	movf	((c:1)),c,w
  3241  001F84  0A51               	xorlw	81
  3242                           
  3243  001F86  A4D8               	btfss	status,2
  3244  001F88  EFC8  F00F         	goto	i2u10151
  3245  001F8C  EFCA  F00F         	goto	i2u10150
  3246  001F90                     i2u10151:
  3247  001F90  EFD1  F00F         	goto	i2l1070
  3248  001F94                     i2u10150:
  3249                           	line	901
  3250                           ;main.c: 901: LATA = 0b11111111;
  3251  001F94  6889               	setf	((c:3977)),c	;volatile
  3252                           	line	903
  3253                           ;main.c: 903: LATB = 0b10000000;
  3254  001F96  0E80               	movlw	low(080h)
  3255  001F98  6E8A               	movwf	((c:3978)),c	;volatile
  3256                           	line	905
  3257                           ;main.c: 905: LATC = 0b00101011;
  3258  001F9A  0E2B               	movlw	low(02Bh)
  3259  001F9C  6E8B               	movwf	((c:3979)),c	;volatile
  3260                           	line	907
  3261                           ;main.c: 907: } else if (conv_result.adc_channel
                                  == 1 && conv_result.result == 0x52) {
  3262  001F9E  EFE7  F00F         	goto	i2l949
  3263                           	
  3264  001FA2                     i2l1070:		; BSR set to: ?
  3265                           
  3266  001FA2  0402               	decf	(0+((c:1)+01h)),c,w
  3267                           
  3268  001FA4  A4D8               	btfss	status,2
  3269  001FA6  EFD7  F00F         	goto	i2u10161
  3270  001FAA  EFD9  F00F         	goto	i2u10160
  3271  001FAE                     i2u10161:
  3272  001FAE  EFE7  F00F         	goto	i2l949
  3273  001FB2                     i2u10160:
  3274  001FB2  5001               	movf	((c:1)),c,w
  3275  001FB4  0A52               	xorlw	82
  3276                           
  3277  001FB6  A4D8               	btfss	status,2
  3278  001FB8  EFE0  F00F         	goto	i2u10171
  3279  001FBC  EFE2  F00F         	goto	i2u10170
  3280  001FC0                     i2u10171:
  3281  001FC0  EFE7  F00F         	goto	i2l949
  3282  001FC4                     i2u10170:
  3283                           	line	910
  3284                           ;main.c: 910: LATA = 0b11111111;
  3285  001FC4  6889               	setf	((c:3977)),c	;volatile
  3286                           	line	912
  3287                           ;main.c: 912: LATB = 0b10000000;
  3288  001FC6  0E80               	movlw	low(080h)
  3289  001FC8  6E8A               	movwf	((c:3978)),c	;volatile
  3290                           	line	914
  3291                           ;main.c: 914: LATC = 0b00100111;
  3292  001FCA  0E27               	movlw	low(027h)
  3293  001FCC  6E8B               	movwf	((c:3979)),c	;volatile
  3294                           	line	915
  3295                           	
  3296  001FCE                     i2l1072:		; BSR set to: ?
  3297                           
  3298                           	line	916
  3299                           	
  3300  001FCE                     i2l1071:		; BSR set to: ?
  3301                           
  3302                           	
  3303  001FCE                     i2l1069:		; BSR set to: ?
  3304                           
  3305                           	
  3306  001FCE                     i2l1067:		; BSR set to: ?
  3307                           
  3308                           	
  3309  001FCE                     i2l1065:		; BSR set to: ?
  3310                           
  3311                           	
  3312  001FCE                     i2l1063:		; BSR set to: ?
  3313                           
  3314                           	
  3315  001FCE                     i2l1061:		; BSR set to: ?
  3316                           
  3317                           	
  3318  001FCE                     i2l1059:		; BSR set to: ?
  3319                           
  3320                           	
  3321  001FCE                     i2l1057:		; BSR set to: ?
  3322                           
  3323                           	
  3324  001FCE                     i2l1055:		; BSR set to: ?
  3325                           
  3326                           	
  3327  001FCE                     i2l1053:		; BSR set to: ?
  3328                           
  3329                           	
  3330  001FCE                     i2l1051:		; BSR set to: ?
  3331                           
  3332                           	
  3333  001FCE                     i2l1049:		; BSR set to: ?
  3334                           
  3335                           	
  3336  001FCE                     i2l1047:		; BSR set to: ?
  3337                           
  3338                           	
  3339  001FCE                     i2l1045:		; BSR set to: ?
  3340                           
  3341                           	
  3342  001FCE                     i2l1043:		; BSR set to: ?
  3343                           
  3344                           	
  3345  001FCE                     i2l1041:		; BSR set to: ?
  3346                           
  3347                           	
  3348  001FCE                     i2l1039:		; BSR set to: ?
  3349                           
  3350                           	
  3351  001FCE                     i2l1037:		; BSR set to: ?
  3352                           
  3353                           	
  3354  001FCE                     i2l1035:		; BSR set to: ?
  3355                           
  3356                           	
  3357  001FCE                     i2l1033:		; BSR set to: ?
  3358                           
  3359                           	
  3360  001FCE                     i2l1031:		; BSR set to: ?
  3361                           
  3362                           	
  3363  001FCE                     i2l1029:		; BSR set to: ?
  3364                           
  3365                           	
  3366  001FCE                     i2l1027:		; BSR set to: ?
  3367                           
  3368                           	
  3369  001FCE                     i2l1025:		; BSR set to: ?
  3370                           
  3371                           	
  3372  001FCE                     i2l1023:		; BSR set to: ?
  3373                           
  3374                           	
  3375  001FCE                     i2l1021:		; BSR set to: ?
  3376                           
  3377                           	
  3378  001FCE                     i2l1019:		; BSR set to: ?
  3379                           
  3380                           	
  3381  001FCE                     i2l1017:		; BSR set to: ?
  3382                           
  3383                           	
  3384  001FCE                     i2l1015:		; BSR set to: ?
  3385                           
  3386                           	
  3387  001FCE                     i2l1013:		; BSR set to: ?
  3388                           
  3389                           	
  3390  001FCE                     i2l1011:		; BSR set to: ?
  3391                           
  3392                           	
  3393  001FCE                     i2l1009:		; BSR set to: ?
  3394                           
  3395                           	
  3396  001FCE                     i2l1007:		; BSR set to: ?
  3397                           
  3398                           	
  3399  001FCE                     i2l1005:		; BSR set to: ?
  3400                           
  3401                           	
  3402  001FCE                     i2l1003:		; BSR set to: ?
  3403                           
  3404                           	
  3405  001FCE                     i2l1001:		; BSR set to: ?
  3406                           
  3407                           	
  3408  001FCE                     i2l999:		; BSR set to: ?
  3409                           
  3410                           	
  3411  001FCE                     i2l997:		; BSR set to: ?
  3412                           
  3413                           	
  3414  001FCE                     i2l995:		; BSR set to: ?
  3415                           
  3416                           	
  3417  001FCE                     i2l993:		; BSR set to: ?
  3418                           
  3419                           	
  3420  001FCE                     i2l991:		; BSR set to: ?
  3421                           
  3422                           	
  3423  001FCE                     i2l989:		; BSR set to: ?
  3424                           
  3425                           	
  3426  001FCE                     i2l987:		; BSR set to: ?
  3427                           
  3428                           	
  3429  001FCE                     i2l985:		; BSR set to: ?
  3430                           
  3431                           	
  3432  001FCE                     i2l983:		; BSR set to: ?
  3433                           
  3434                           	
  3435  001FCE                     i2l981:		; BSR set to: ?
  3436                           
  3437                           	
  3438  001FCE                     i2l979:		; BSR set to: ?
  3439                           
  3440                           	
  3441  001FCE                     i2l977:		; BSR set to: ?
  3442                           
  3443                           	
  3444  001FCE                     i2l975:		; BSR set to: ?
  3445                           
  3446                           	
  3447  001FCE                     i2l973:		; BSR set to: ?
  3448                           
  3449                           	
  3450  001FCE                     i2l971:		; BSR set to: ?
  3451                           
  3452                           	
  3453  001FCE                     i2l969:		; BSR set to: ?
  3454                           
  3455                           	
  3456  001FCE                     i2l967:		; BSR set to: ?
  3457                           
  3458                           	
  3459  001FCE                     i2l965:		; BSR set to: ?
  3460                           
  3461                           	
  3462  001FCE                     i2l963:		; BSR set to: ?
  3463                           
  3464                           	
  3465  001FCE                     i2l961:		; BSR set to: ?
  3466                           
  3467                           	
  3468  001FCE                     i2l959:		; BSR set to: ?
  3469                           
  3470                           	
  3471  001FCE                     i2l957:		; BSR set to: ?
  3472                           
  3473                           	
  3474  001FCE                     i2l955:		; BSR set to: ?
  3475                           
  3476                           	
  3477  001FCE                     i2l953:		; BSR set to: ?
  3478                           
  3479                           	
  3480  001FCE                     i2l951:		; BSR set to: ?
  3481                           
  3482                           	
  3483  001FCE                     i2l949:		; BSR set to: ?
  3484                           
  3485                           ;main.c: 915: }
  3486                           ;main.c: 916: }
  3487  001FCE                     i2l947:
  3488                           			; BSR set to: ?
  3489                           
  3490  001FCE  0012               	return
  3491                           	opt stack 0
  3492                           GLOBAL __end_of_ToggleLeds
  3493  001FD0                     	__end_of_ToggleLeds:
  3494                           	FNSIZE	_ToggleLeds,0,0
  3495                           ; =============== function _ToggleLeds ends ====
                                 ========
  3496                           
  3497                           	signat	_ToggleLeds,88
  3498                                   psect   text3,class=CODE,space=0,reloc=2
  3499                           	global	intlevel2
  3500                           
  3501                           	opt lm
  3502                           	FNBREAK _adc_conversion,intlevel2
  3503                           	global	_adc_conversion
  3504                           	global	??_adc_conversion
  3505                           	global	?_adc_conversion
  3506                           
  3507                           ; *************** function _adc_conversion *****
                                 ************
  3508                           ; Defined at:
  3509                           ;		line 1023 in file "../code/main.c"
  3510                           ; Parameters:
  3511                           ;		None
  3512                           ; Auto variables:
  3513                           ;		hResult     	       	type: unsigned char 
  3514                           ;		lResult     	       	type: unsigned char 
  3515                           ;		note        	       	type: unsigned char 
  3516                           ; Return value:
  3517                           ;		type: void 
  3518                           ;		size: 0
  3519                           ; Registers used:
  3520                           ;		wreg, status,2, status,0, cstack
  3521                           ; Tracked objects:
  3522                           ;		On entry : 0/0
  3523                           ;		On exit  : 0/0
  3524                           ;		Unchanged: 0/0
  3525                           ; Data sizes:
  3526                           ;		Autos:    3
  3527                           ;		Params:   0
  3528                           ;		Temp:     0
  3529                           ;		Total:    3
  3530                           ; This function calls:
  3531                           ;		_getNote
  3532                           ; This function is called by:
  3533                           ;		_my_isr
  3534                           ; This function uses a non-reentrant model
  3535                           ; 
  3536                           	file	"../code/main.c"
  3537                           	line	1023
  3538  000000                     	__size_of_adc_conversion	equ	__end_of_adc_conve
                                 rsion-_adc_conversion
  3539                           ;main.c: 1023: void adc_conversion() {
  3540                           	
  3541  00239C                     _adc_conversion:		; BSR set to: ?
  3542                           
  3543                           	opt stack 30
  3544                           	line	1025
  3545                           ;main.c: 1025: ADON = 0;
  3546  00239C  90C2               	bcf	c:(32272/8),(32272)&7	;volatile
  3547                           	line	1027
  3548                           ;main.c: 1027: ADRESH = 0;
  3549  00239E  0E00               	movlw	low(0)
  3550  0023A0  6EC4               	movwf	((c:4036)),c	;volatile
  3551                           	line	1028
  3552                           ;main.c: 1028: ADRESL = 0;
  3553  0023A2  0E00               	movlw	low(0)
  3554  0023A4  6EC3               	movwf	((c:4035)),c	;volatile
  3555                           	line	1031
  3556                           ;main.c: 1031: switch (adc_num) {
  3557  0023A6  EFF1  F011         	goto	i2l1130
  3558                           	line	1032
  3559                           ;main.c: 1032: case 0 :
  3560                           	
  3561  0023AA                     i2l1131:		; BSR set to: ?
  3562                           
  3563                           	line	1033
  3564                           ;main.c: 1033: ADCON0 = 0b00100000;
  3565  0023AA  0E20               	movlw	low(020h)
  3566  0023AC  6EC2               	movwf	((c:4034)),c	;volatile
  3567                           	line	1034
  3568                           ;main.c: 1034: break;
  3569  0023AE  EF02  F012         	goto	i2l1129
  3570                           	line	1035
  3571                           ;main.c: 1035: case 1 :
  3572                           	
  3573  0023B2                     i2l1132:		; BSR set to: ?
  3574                           
  3575                           	line	1036
  3576                           ;main.c: 1036: ADCON0 = 0b00100100;
  3577  0023B2  0E24               	movlw	low(024h)
  3578  0023B4  6EC2               	movwf	((c:4034)),c	;volatile
  3579                           	line	1037
  3580                           ;main.c: 1037: break;
  3581  0023B6  EF02  F012         	goto	i2l1129
  3582                           	line	1038
  3583                           ;main.c: 1038: case 2 :
  3584                           	
  3585  0023BA                     i2l1133:		; BSR set to: ?
  3586                           
  3587                           	line	1039
  3588                           ;main.c: 1039: ADCON0 = 0b00000000;
  3589  0023BA  0E00               	movlw	low(0)
  3590  0023BC  6EC2               	movwf	((c:4034)),c	;volatile
  3591                           	line	1040
  3592                           ;main.c: 1040: break;
  3593  0023BE  EF02  F012         	goto	i2l1129
  3594                           	line	1041
  3595                           ;main.c: 1041: case 3 :
  3596                           	
  3597  0023C2                     i2l1134:		; BSR set to: ?
  3598                           
  3599                           	line	1042
  3600                           ;main.c: 1042: ADCON0 = 0b00000100;
  3601  0023C2  0E04               	movlw	low(04h)
  3602  0023C4  6EC2               	movwf	((c:4034)),c	;volatile
  3603                           	line	1043
  3604                           ;main.c: 1043: break;
  3605  0023C6  EF02  F012         	goto	i2l1129
  3606                           	line	1044
  3607                           ;main.c: 1044: case 4 :
  3608                           	
  3609  0023CA                     i2l1135:		; BSR set to: ?
  3610                           
  3611                           	line	1045
  3612                           ;main.c: 1045: ADCON0 = 0b00001000;
  3613  0023CA  0E08               	movlw	low(08h)
  3614  0023CC  6EC2               	movwf	((c:4034)),c	;volatile
  3615                           	line	1046
  3616                           ;main.c: 1046: break;
  3617  0023CE  EF02  F012         	goto	i2l1129
  3618                           	line	1047
  3619                           ;main.c: 1047: case 5 :
  3620                           	
  3621  0023D2                     i2l1136:		; BSR set to: ?
  3622                           
  3623                           	line	1048
  3624                           ;main.c: 1048: ADCON0 = 0b00001100;
  3625  0023D2  0E0C               	movlw	low(0Ch)
  3626  0023D4  6EC2               	movwf	((c:4034)),c	;volatile
  3627                           	line	1049
  3628                           ;main.c: 1049: break;
  3629  0023D6  EF02  F012         	goto	i2l1129
  3630                           	line	1050
  3631                           ;main.c: 1050: case 6 :
  3632                           	
  3633  0023DA                     i2l1137:		; BSR set to: ?
  3634                           
  3635                           	line	1051
  3636                           ;main.c: 1051: ADCON0 = 0b00010000;
  3637  0023DA  0E10               	movlw	low(010h)
  3638  0023DC  6EC2               	movwf	((c:4034)),c	;volatile
  3639                           	line	1052
  3640                           ;main.c: 1052: break;
  3641  0023DE  EF02  F012         	goto	i2l1129
  3642                           	line	1031
  3643                           	
  3644  0023E2                     i2l1130:		; BSR set to: ?
  3645                           
  3646  0023E2  5000               	movf	((c:0)),c,w	;volatile
  3647  0023E4  0A00               	xorlw	0 ^ 0
  3648  0023E6  E0E1               	bz	i2l1131
  3649  0023E8  0A01               	xorlw	1 ^ 0
  3650  0023EA  E0E3               	bz	i2l1132
  3651  0023EC  0A03               	xorlw	2 ^ 1
  3652  0023EE  E0E5               	bz	i2l1133
  3653  0023F0  0A01               	xorlw	3 ^ 2
  3654  0023F2  E0E7               	bz	i2l1134
  3655  0023F4  0A07               	xorlw	4 ^ 3
  3656  0023F6  E0E9               	bz	i2l1135
  3657  0023F8  0A01               	xorlw	5 ^ 4
  3658  0023FA  E0EB               	bz	i2l1136
  3659  0023FC  0A03               	xorlw	6 ^ 5
  3660  0023FE  E0ED               	bz	i2l1137
  3661  002400  EF02  F012         	goto	i2l1129
  3662                           
  3663                           	line	1053
  3664                           	
  3665  002404                     i2l1129:		; BSR set to: ?
  3666                           
  3667                           	line	1057
  3668                           ;main.c: 1057: ADON = 1;
  3669  002404  80C2               	bsf	c:(32272/8),(32272)&7	;volatile
  3670                           	line	1058
  3671                           ;main.c: 1058: GODONE = 1;
  3672  002406  82C2               	bsf	c:(32273/8),(32273)&7	;volatile
  3673                           	line	1061
  3674                           ;main.c: 1061: while (GODONE);
  3675  002408  EF06  F012         	goto	i2l1138
  3676                           	
  3677  00240C                     i2l1138:		; BSR set to: ?
  3678                           
  3679  00240C  B2C2               	btfsc	c:(32273/8),(32273)&7	;volatile
  3680  00240E  EF0B  F012         	goto	i2u7081
  3681  002412  EF0D  F012         	goto	i2u7080
  3682  002416                     i2u7081:
  3683  002416  EF06  F012         	goto	i2l1138
  3684  00241A                     i2u7080:
  3685                           	
  3686  00241A                     i2l1140:		; BSR set to: ?
  3687                           
  3688                           	line	1062
  3689                           ;main.c: 1062: unsigned char hResult = ADRESH;
  3690  00241A  CFC4 F113          	movff	(c:4036),(adc_conversion@hResult)	;volati
                                 le
  3691                           	line	1063
  3692                           ;main.c: 1063: unsigned char lResult = ADRESL;
  3693  00241E  CFC3 F114          	movff	(c:4035),(adc_conversion@lResult)	;volati
                                 le
  3694                           	line	1064
  3695                           ;main.c: 1064: unsigned char note = getNote(hRes
                                 ult, lResult);
  3696  002422  C114  F117         	movff	(adc_conversion@lResult),0+(?_getNote+01h
                                 )
  3697  002426  C113  F116         	movff	(adc_conversion@hResult),(?_getNote)
  3698  00242A  EC1B  F000         	call	_getNote	;wreg free
  3699  00242E  0101               	movlb	1	; () banked
  3700  002430  0101               	movlb	1	; () banked
  3701  002432  6F15               	movwf	((adc_conversion@note))&0ffh
  3702                           	line	1067
  3703                           ;main.c: 1067: conv_result.result = note;
  3704  002434  C115  F001         	movff	(adc_conversion@note),(c:1)
  3705                           	line	1068
  3706                           ;main.c: 1068: conv_result.adc_channel = adc_num
                                 ;
  3707  002438  C000 F002          	movff	(c:0),0+((c:1)+01h)	;volatile
  3708                           	line	1071
  3709                           ;main.c: 1071: adc_num++;
  3710  00243C  2A00               	incf	((c:0)),c	;volatile
  3711                           	line	1072
  3712                           ;main.c: 1072: if (adc_num >= 7) {
  3713  00243E  0E06               	movlw	(07h-1)
  3714  002440  6400               	cpfsgt	((c:0)),c	;volatile
  3715  002442  EF25  F012         	goto	i2u7091
  3716  002446  EF27  F012         	goto	i2u7090
  3717  00244A                     i2u7091:
  3718  00244A  EF29  F012         	goto	i2l1141
  3719  00244E                     i2u7090:
  3720                           	line	1073
  3721                           ;main.c: 1073: adc_num = 0;
  3722  00244E  0E00               	movlw	low(0)
  3723  002450  6E00               	movwf	((c:0)),c	;volatile
  3724                           	line	1074
  3725                           	
  3726  002452                     i2l1141:		; BSR set to: ?
  3727                           
  3728                           	line	1075
  3729                           ;main.c: 1074: }
  3730                           ;main.c: 1075: }
  3731  002452                     i2l1128:
  3732                           			; BSR set to: ?
  3733                           
  3734  002452  0012               	return
  3735                           	opt stack 0
  3736                           GLOBAL __end_of_adc_conversion
  3737  002454                     	__end_of_adc_conversion:
  3738                           	FNSIZE	_adc_conversion,3,0
  3739                           ; =============== function _adc_conversion ends 
                                 ============
  3740                           
  3741                           	signat	_adc_conversion,88
  3742                                   psect   text4,class=CODE,space=0,reloc=2
  3743                           	global	intlevel2
  3744                           
  3745                           	opt lm
  3746                           	FNBREAK _getNote,intlevel2
  3747                           	global	_getNote
  3748                           	global	??_getNote
  3749                           	global	?_getNote
  3750                           
  3751                           ; *************** function _getNote ************
                                 *****
  3752                           ; Defined at:
  3753                           ;		line 1083 in file "../code/main.c"
  3754                           ; Parameters:
  3755                           ;		hResult        size:   1offs:   0	type: unsig
                                 ned char 
  3756                           ;		lResult        size:   1offs:   1	type: unsig
                                 ned char 
  3757                           ; Auto variables:
  3758                           ;		new_note    	       	type: unsigned char 
  3759                           ; Return value:
  3760                           ;		type: unsigned char 
  3761                           ;		size: 1
  3762                           ; Registers used:
  3763                           ;		wreg, status,2, status,0
  3764                           ; Tracked objects:
  3765                           ;		On entry : 0/0
  3766                           ;		On exit  : 0/0
  3767                           ;		Unchanged: 0/0
  3768                           ; Data sizes:
  3769                           ;		Autos:    1
  3770                           ;		Params:   2
  3771                           ;		Temp:     1
  3772                           ;		Total:    4
  3773                           ; This function calls:
  3774                           ;		Nothing
  3775                           ; This function is called by:
  3776                           ;		_adc_conversion
  3777                           ; This function uses a non-reentrant model
  3778                           ; 
  3779                           	file	"../code/main.c"
  3780                           	line	1083
  3781  000000                     	__size_of_getNote	equ	__end_of_getNote-_getNote
  3782                           ;main.c: 1083: unsigned char getNote (unsigned c
                                 har hResult, unsigned char lResult) {
  3783                           	
  3784  000036                     _getNote:		; BSR set to: ?
  3785                           
  3786                           	opt stack 29
  3787                           	line	1086
  3788                           ;main.c: 1084: unsigned char new_note;
  3789                           ;main.c: 1086: if (adc_num == 0) {
  3790  000036  6600               	tstfsz	((c:0)),c	;volatile
  3791  000038  EF20  F000         	goto	i2u7351
  3792  00003C  EF22  F000         	goto	i2u7350
  3793  000040                     i2u7351:
  3794  000040  EF81  F001         	goto	i2l1143
  3795  000044                     i2u7350:
  3796                           	line	1087
  3797                           ;main.c: 1087: if (hResult == 0x00) {
  3798  000044  0101               	movlb	1	; () banked
  3799  000046  0101               	movlb	1	; () banked
  3800  000048  6716               	tstfsz	((getNote@hResult))&0ffh
  3801  00004A  EF29  F000         	goto	i2u7361
  3802  00004E  EF2B  F000         	goto	i2u7360
  3803  000052                     i2u7361:
  3804  000052  EF35  F000         	goto	i2l1144
  3805  000056                     i2u7360:
  3806                           	line	1089
  3807                           ;main.c: 1089: new_note = 0x00;
  3808  000056  0101               	movlb	1	; () banked
  3809  000058  6F19               	movwf	(??_getNote+1+0)&0ffh
  3810  00005A  0E00               	movlw	low(0)
  3811  00005C  0101               	movlb	1	; () banked
  3812  00005E  0101               	movlb	1	; () banked
  3813  000060  6F18               	movwf	((getNote@new_note))&0ffh
  3814  000062  0101               	movlb	1	; () banked
  3815  000064  5119               	movf	(??_getNote+1+0)&0ffh,w
  3816                           	line	1091
  3817                           ;main.c: 1091: } else if (hResult == 0x01) {
  3818  000066  EF7F  F001         	goto	i2l1145
  3819                           	
  3820  00006A                     i2l1144:		; BSR set to: ?
  3821                           
  3822  00006A  0101               	movlb	1	; () banked
  3823  00006C  0101               	movlb	1	; () banked
  3824  00006E  0516               	decf	((getNote@hResult))&0ffh,w
  3825                           
  3826  000070  A4D8               	btfss	status,2
  3827  000072  EF3D  F000         	goto	i2u7371
  3828  000076  EF3F  F000         	goto	i2u7370
  3829  00007A                     i2u7371:
  3830  00007A  EFA3  F000         	goto	i2l1146
  3831  00007E                     i2u7370:
  3832                           	line	1092
  3833                           ;main.c: 1092: if (lResult >= 190 && lResult <= 
                                 210) {
  3834  00007E  0EBD               	movlw	(0BEh-1)
  3835  000080  0101               	movlb	1	; () banked
  3836  000082  0101               	movlb	1	; () banked
  3837  000084  6517               	cpfsgt	((getNote@lResult))&0ffh
  3838  000086  EF47  F000         	goto	i2u7381
  3839  00008A  EF49  F000         	goto	i2u7380
  3840  00008E                     i2u7381:
  3841  00008E  EF5D  F000         	goto	i2l1147
  3842  000092                     i2u7380:
  3843  000092  0ED3               	movlw	(0D3h)&0ffh
  3844  000094  0101               	movlb	1	; () banked
  3845  000096  0101               	movlb	1	; () banked
  3846  000098  6117               	cpfslt	((getNote@lResult))&0ffh
  3847  00009A  EF51  F000         	goto	i2u7391
  3848  00009E  EF53  F000         	goto	i2u7390
  3849+ 0000A2                     i2u7391:
  3850+ 0000A2  EF5D  F000         	goto	i2l1147
  3851+ 0000A6                     i2u7390:
  3852+                          	line	1094
  3853+                          ;main.c: 1094: new_note = 0x51;
  3854+ 0000A6  0101               	movlb	1	; () banked
  3855+ 0000A8  6F19               	movwf	(??_getNote+1+0)&0ffh
  3856+ 0000AA  0E51               	movlw	low(051h)
  3857+ 0000AC  0101               	movlb	1	; () banked
  3858+ 0000AE  0101               	movlb	1	; () banked
  3859+ 0000B0  6F18               	movwf	((getNote@new_note))&0ffh
  3860+ 0000B2  0101               	movlb	1	; () banked
  3861+ 0000B4  5119               	movf	(??_getNote+1+0)&0ffh,w
  3862+                          	line	1095
  3863+                          ;main.c: 1095: } else if (lResult >= 195 && lRes
      +                          ult <= 216) {
  3864+ 0000B6  EFA1  F000         	goto	i2l1148
  3865+                          	
  3866+ 0000BA                     i2l1147:		; BSR set to: ?
  3867+                          
  3868+ 0000BA  0EC2               	movlw	(0C3h-1)
  3869+ 0000BC  0101               	movlb	1	; () banked
  3870+ 0000BE  0101               	movlb	1	; () banked
  3871+ 0000C0  6517               	cpfsgt	((getNote@lResult))&0ffh
  3872+ 0000C2  EF65  F000         	goto	i2u7401
  3873+ 0000C6  EF67  F000         	goto	i2u7400
  3874+ 0000CA                     i2u7401:
  3875+ 0000CA  EF7B  F000         	goto	i2l1149
  3876+ 0000CE                     i2u7400:
  3877+ 0000CE  0ED9               	movlw	(0D9h)&0ffh
  3878+ 0000D0  0101               	movlb	1	; () banked
  3879+ 0000D2  0101               	movlb	1	; () banked
  3880+ 0000D4  6117               	cpfslt	((getNote@lResult))&0ffh
  3881+ 0000D6  EF6F  F000         	goto	i2u7411
  3882+ 0000DA  EF71  F000         	goto	i2u7410
  3883+ 0000DE                     i2u7411:
  3884+ 0000DE  EF7B  F000         	goto	i2l1149
  3885+ 0000E2                     i2u7410:
  3886+                          	line	1097
  3887+                          ;main.c: 1097: new_note = 0x41;
  3888+ 0000E2  0101               	movlb	1	; () banked
  3889+ 0000E4  6F19               	movwf	(??_getNote+1+0)&0ffh
  3890+ 0000E6  0E41               	movlw	low(041h)
  3891+ 0000E8  0101               	movlb	1	; () banked
  3892+ 0000EA  0101               	movlb	1	; () banked
  3893+ 0000EC  6F18               	movwf	((getNote@new_note))&0ffh
  3894+ 0000EE  0101               	movlb	1	; () banked
  3895+ 0000F0  5119               	movf	(??_getNote+1+0)&0ffh,w
  3896+                          	line	1098
  3897+                          ;main.c: 1098: } else if (lResult >= 128 && lRes
      +                          ult <= 154) {
  3898+ 0000F2  EFA1  F000         	goto	i2l1148
  3899+                          	
  3900+ 0000F6                     i2l1149:		; BSR set to: ?
  3901+                          
  3902+ 0000F6  0E7F               	movlw	(080h-1)
  3903+ 0000F8  0101               	movlb	1	; () banked
  3904+ 0000FA  0101               	movlb	1	; () banked
  3905+ 0000FC  6517               	cpfsgt	((getNote@lResult))&0ffh
  3906+ 0000FE  EF83  F000         	goto	i2u7421
  3907+ 000102  EF85  F000         	goto	i2u7420
  3908+ 000106                     i2u7421:
  3909+ 000106  EF99  F000         	goto	i2l1151
  3910+ 00010A                     i2u7420:
  3911+ 00010A  0E9B               	movlw	(09Bh)&0ffh
  3912+ 00010C  0101               	movlb	1	; () banked
  3913+ 00010E  0101               	movlb	1	; () banked
  3914+ 000110  6117               	cpfslt	((getNote@lResult))&0ffh
  3915+ 000112  EF8D  F000         	goto	i2u7431
  3916+ 000116  EF8F  F000         	goto	i2u7430
  3917+ 00011A                     i2u7431:
  3918+ 00011A  EF99  F000         	goto	i2l1151
  3919+ 00011E                     i2u7430:
  3920+                          	line	1100
  3921+                          ;main.c: 1100: new_note = 0x49;
  3922+ 00011E  0101               	movlb	1	; () banked
  3923+ 000120  6F19               	movwf	(??_getNote+1+0)&0ffh
  3924+ 000122  0E49               	movlw	low(049h)
  3925+ 000124  0101               	movlb	1	; () banked
  3926+ 000126  0101               	movlb	1	; () banked
  3927+ 000128  6F18               	movwf	((getNote@new_note))&0ffh
  3928+ 00012A  0101               	movlb	1	; () banked
  3929+ 00012C  5119               	movf	(??_getNote+1+0)&0ffh,w
  3930+                          	line	1101
  3931+                          ;main.c: 1101: } else {
  3932+ 00012E  EFA1  F000         	goto	i2l1148
  3933+                          	
  3934+ 000132                     i2l1151:		; BSR set to: ?
  3935+                          
  3936+                          	line	1103
  3937+                          ;main.c: 1103: new_note = 0x00;
  3938+ 000132  0101               	movlb	1	; () banked
  3939+ 000134  6F19               	movwf	(??_getNote+1+0)&0ffh
  3940+ 000136  0E00               	movlw	low(0)
  3941+ 000138  0101               	movlb	1	; () banked
  3942+ 00013A  0101               	movlb	1	; () banked
  3943+ 00013C  6F18               	movwf	((getNote@new_note))&0ffh
  3944+ 00013E  0101               	movlb	1	; () banked
  3945+ 000140  5119               	movf	(??_getNote+1+0)&0ffh,w
  3946+                          	line	1104
  3947+                          	
  3948+ 000142                     i2l1152:		; BSR set to: ?
  3949+                          
  3950+                          	
  3951+ 000142                     i2l1150:		; BSR set to: ?
  3952+                          
  3953+                          	
  3954+ 000142                     i2l1148:		; BSR set to: ?
  3955+                          
  3956+                          	line	1106
  3957+                          ;main.c: 1104: }
  3958+                          ;main.c: 1106: } else if (hResult == 0x02) {
  3959+ 000142  EF7F  F001         	goto	i2l1145
  3960+                          	
  3961+ 000146                     i2l1146:		; BSR set to: ?
  3962+                          
  3963+ 000146  0101               	movlb	1	; () banked
  3964+ 000148  0101               	movlb	1	; () banked
  3965+ 00014A  5116               	movf	((getNote@hResult))&0ffh,w
  3966+ 00014C  0A02               	xorlw	2
  3967+                          
  3968+ 00014E  A4D8               	btfss	status,2
  3969+ 000150  EFAC  F000         	goto	i2u7441
  3970+ 000154  EFAE  F000         	goto	i2u7440
  3971+ 000158                     i2u7441:
  3972+ 000158  EF12  F001         	goto	i2l1154
  3973+ 00015C                     i2u7440:
  3974+                          	line	1107
  3975+                          ;main.c: 1107: if (lResult >= 222 && lResult <= 
      +                          252) {
  3976+ 00015C  0EDD               	movlw	(0DEh-1)
  3977+ 00015E  0101               	movlb	1	; () banked
  3978+ 000160  0101               	movlb	1	; () banked
  3979+ 000162  6517               	cpfsgt	((getNote@lResult))&0ffh
  3980+ 000164  EFB6  F000         	goto	i2u7451
  3981+ 000168  EFB8  F000         	goto	i2u7450
  3982+ 00016C                     i2u7451:
  3983+ 00016C  EFCC  F000         	goto	i2l1155
  3984+ 000170                     i2u7450:
  3985+ 000170  0EFD               	movlw	(0FDh)&0ffh
  3986+ 000172  0101               	movlb	1	; () banked
  3987+ 000174  0101               	movlb	1	; () banked
  3988+ 000176  6117               	cpfslt	((getNote@lResult))&0ffh
  3989+ 000178  EFC0  F000         	goto	i2u7461
  3990+ 00017C  EFC2  F000         	goto	i2u7460
  3991+ 000180                     i2u7461:
  3992+ 000180  EFCC  F000         	goto	i2l1155
  3993+ 000184                     i2u7460:
  3994+                          	line	1109
  3995+                          ;main.c: 1109: new_note = 0x31;
  3996+ 000184  0101               	movlb	1	; () banked
  3997+ 000186  6F19               	movwf	(??_getNote+1+0)&0ffh
  3998+ 000188  0E31               	movlw	low(031h)
  3999+ 00018A  0101               	movlb	1	; () banked
  4000+ 00018C  0101               	movlb	1	; () banked
  4001+ 00018E  6F18               	movwf	((getNote@new_note))&0ffh
  4002+ 000190  0101               	movlb	1	; () banked
  4003+ 000192  5119               	movf	(??_getNote+1+0)&0ffh,w
  4004+                          	line	1110
  4005+                          ;main.c: 1110: } else if (lResult >= 105 && lRes
      +                          ult <= 175) {
  4006+ 000194  EF10  F001         	goto	i2l1156
  4007+                          	
  4008+ 000198                     i2l1155:		; BSR set to: ?
  4009+                          
  4010+ 000198  0E68               	movlw	(069h-1)
  4011+ 00019A  0101               	movlb	1	; () banked
  4012+ 00019C  0101               	movlb	1	; () banked
  4013+ 00019E  6517               	cpfsgt	((getNote@lResult))&0ffh
  4014+ 0001A0  EFD4  F000         	goto	i2u7471
  4015+ 0001A4  EFD6  F000         	goto	i2u7470
  4016+ 0001A8                     i2u7471:
  4017+ 0001A8  EFEA  F000         	goto	i2l1157
  4018+ 0001AC                     i2u7470:
  4019+ 0001AC  0EB0               	movlw	(0B0h)&0ffh
  4020+ 0001AE  0101               	movlb	1	; () banked
  4021+ 0001B0  0101               	movlb	1	; () banked
  4022+ 0001B2  6117               	cpfslt	((getNote@lResult))&0ffh
  4023+ 0001B4  EFDE  F000         	goto	i2u7481
  4024+ 0001B8  EFE0  F000         	goto	i2u7480
  4025+ 0001BC                     i2u7481:
  4026+ 0001BC  EFEA  F000         	goto	i2l1157
  4027+ 0001C0                     i2u7480:
  4028+                          	line	1112
  4029+                          ;main.c: 1112: new_note = 0x21;
  4030+ 0001C0  0101               	movlb	1	; () banked
  4031+ 0001C2  6F19               	movwf	(??_getNote+1+0)&0ffh
  4032+ 0001C4  0E21               	movlw	low(021h)
  4033+ 0001C6  0101               	movlb	1	; () banked
  4034+ 0001C8  0101               	movlb	1	; () banked
  4035+ 0001CA  6F18               	movwf	((getNote@new_note))&0ffh
  4036+ 0001CC  0101               	movlb	1	; () banked
  4037+ 0001CE  5119               	movf	(??_getNote+1+0)&0ffh,w
  4038+                          	line	1113
  4039+                          ;main.c: 1113: } else if (lResult >= 105 && lRes
      +                          ult <= 148) {
  4040+ 0001D0  EF10  F001         	goto	i2l1156
  4041+                          	
  4042+ 0001D4                     i2l1157:		; BSR set to: ?
  4043+                          
  4044+ 0001D4  0E68               	movlw	(069h-1)
  4045+ 0001D6  0101               	movlb	1	; () banked
  4046+ 0001D8  0101               	movlb	1	; () banked
  4047+ 0001DA  6517               	cpfsgt	((getNote@lResult))&0ffh
  4048+ 0001DC  EFF2  F000         	goto	i2u7491
  4049+ 0001E0  EFF4  F000         	goto	i2u7490
  4050+ 0001E4                     i2u7491:
  4051+ 0001E4  EF08  F001         	goto	i2l1159
  4052+ 0001E8                     i2u7490:
  4053+ 0001E8  0E95               	movlw	(095h)&0ffh
  4054+ 0001EA  0101               	movlb	1	; () banked
  4055+ 0001EC  0101               	movlb	1	; () banked
  4056+ 0001EE  6117               	cpfslt	((getNote@lResult))&0ffh
  4057+ 0001F0  EFFC  F000         	goto	i2u7501
  4058+ 0001F4  EFFE  F000         	goto	i2u7500
  4059+ 0001F8                     i2u7501:
  4060+ 0001F8  EF08  F001         	goto	i2l1159
  4061+ 0001FC                     i2u7500:
  4062+                          	line	1115
  4063+                          ;main.c: 1115: new_note = 0x29;
  4064+ 0001FC  0101               	movlb	1	; () banked
  4065+ 0001FE  6F19               	movwf	(??_getNote+1+0)&0ffh
  4066+ 000200  0E29               	movlw	low(029h)
  4067+ 000202  0101               	movlb	1	; () banked
  4068+ 000204  0101               	movlb	1	; () banked
  4069+ 000206  6F18               	movwf	((getNote@new_note))&0ffh
  4070+ 000208  0101               	movlb	1	; () banked
  4071+ 00020A  5119               	movf	(??_getNote+1+0)&0ffh,w
  4072+                          	line	1116
  4073+                          ;main.c: 1116: } else {
  4074+ 00020C  EF10  F001         	goto	i2l1156
  4075+                          	
  4076+ 000210                     i2l1159:		; BSR set to: ?
  4077+                          
  4078+                          	line	1118
  4079+                          ;main.c: 1118: new_note = 0x00;
  4080+ 000210  0101               	movlb	1	; () banked
  4081+ 000212  6F19               	movwf	(??_getNote+1+0)&0ffh
  4082+ 000214  0E00               	movlw	low(0)
  4083+ 000216  0101               	movlb	1	; () banked
  4084+ 000218  0101               	movlb	1	; () banked
  4085+ 00021A  6F18               	movwf	((getNote@new_note))&0ffh
  4086+ 00021C  0101               	movlb	1	; () banked
  4087+ 00021E  5119               	movf	(??_getNote+1+0)&0ffh,w
  4088+                          	line	1119
  4089+                          	
  4090+ 000220                     i2l1160:		; BSR set to: ?
  4091+                          
  4092+                          	
  4093+ 000220                     i2l1158:		; BSR set to: ?
  4094+                          
  4095+                          	
  4096+ 000220                     i2l1156:		; BSR set to: ?
  4097+                          
  4098+                          	line	1121
  4099+                          ;main.c: 1119: }
  4100+                          ;main.c: 1121: } else if (hResult == 0x03) {
  4101+ 000220  EF7F  F001         	goto	i2l1145
  4102+                          	
  4103+ 000224                     i2l1154:		; BSR set to: ?
  4104+                          
  4105+ 000224  0101               	movlb	1	; () banked
  4106+ 000226  0101               	movlb	1	; () banked
  4107+ 000228  5116               	movf	((getNote@hResult))&0ffh,w
  4108+ 00022A  0A03               	xorlw	3
  4109+                          
  4110+ 00022C  A4D8               	btfss	status,2
  4111+ 00022E  EF1B  F001         	goto	i2u7511
  4112+ 000232  EF1D  F001         	goto	i2u7510
  4113+ 000236                     i2u7511:
  4114+ 000236  EF7F  F001         	goto	i2l1145
  4115+ 00023A                     i2u7510:
  4116+                          	line	1122
  4117+                          ;main.c: 1122: if (lResult >= 15 && lResult <= 1
      +                          08) {
  4118+ 00023A  0E0E               	movlw	(0Fh-1)
  4119+ 00023C  0101               	movlb	1	; () banked
  4120+ 00023E  0101               	movlb	1	; () banked
  4121+ 000240  6517               	cpfsgt	((getNote@lResult))&0ffh
  4122+ 000242  EF25  F001         	goto	i2u7521
  4123+ 000246  EF27  F001         	goto	i2u7520
  4124+ 00024A                     i2u7521:
  4125+ 00024A  EF3B  F001         	goto	i2l1163
  4126+ 00024E                     i2u7520:
  4127+ 00024E  0E6D               	movlw	(06Dh)&0ffh
  4128+ 000250  0101               	movlb	1	; () banked
  4129+ 000252  0101               	movlb	1	; () banked
  4130+ 000254  6117               	cpfslt	((getNote@lResult))&0ffh
  4131+ 000256  EF2F  F001         	goto	i2u7531
  4132+ 00025A  EF31  F001         	goto	i2u7530
  4133+ 00025E                     i2u7531:
  4134+ 00025E  EF3B  F001         	goto	i2l1163
  4135+ 000262                     i2u7530:
  4136+                          	line	1124
  4137+                          ;main.c: 1124: new_note = 0x11;
  4138+ 000262  0101               	movlb	1	; () banked
  4139+ 000264  6F19               	movwf	(??_getNote+1+0)&0ffh
  4140+ 000266  0E11               	movlw	low(011h)
  4141+ 000268  0101               	movlb	1	; () banked
  4142+ 00026A  0101               	movlb	1	; () banked
  4143+ 00026C  6F18               	movwf	((getNote@new_note))&0ffh
  4144+ 00026E  0101               	movlb	1	; () banked
  4145+ 000270  5119               	movf	(??_getNote+1+0)&0ffh,w
  4146+                          	line	1125
  4147+                          ;main.c: 1125: } else if (lResult >= 116 && lRes
      +                          ult <= 183) {
  4148+ 000272  EF7F  F001         	goto	i2l1145
  4149+                          	
  4150+ 000276                     i2l1163:		; BSR set to: ?
  4151+                          
  4152+ 000276  0E73               	movlw	(074h-1)
  4153+ 000278  0101               	movlb	1	; () banked
  4154+ 00027A  0101               	movlb	1	; () banked
  4155+ 00027C  6517               	cpfsgt	((getNote@lResult))&0ffh
  4156+ 00027E  EF43  F001         	goto	i2u7541
  4157+ 000282  EF45  F001         	goto	i2u7540
  4158+ 000286                     i2u7541:
  4159+ 000286  EF59  F001         	goto	i2l1165
  4160+ 00028A                     i2u7540:
  4161+ 00028A  0EB8               	movlw	(0B8h)&0ffh
  4162+ 00028C  0101               	movlb	1	; () banked
  4163+ 00028E  0101               	movlb	1	; () banked
  4164+ 000290  6117               	cpfslt	((getNote@lResult))&0ffh
  4165+ 000292  EF4D  F001         	goto	i2u7551
  4166+ 000296  EF4F  F001         	goto	i2u7550
  4167+ 00029A                     i2u7551:
  4168+ 00029A  EF59  F001         	goto	i2l1165
  4169+ 00029E                     i2u7550:
  4170+                          	line	1127
  4171+                          ;main.c: 1127: new_note = 0x01;
  4172+ 00029E  0101               	movlb	1	; () banked
  4173+ 0002A0  6F19               	movwf	(??_getNote+1+0)&0ffh
  4174+ 0002A2  0E01               	movlw	low(01h)
  4175+ 0002A4  0101               	movlb	1	; () banked
  4176+ 0002A6  0101               	movlb	1	; () banked
  4177+ 0002A8  6F18               	movwf	((getNote@new_note))&0ffh
  4178+ 0002AA  0101               	movlb	1	; () banked
  4179+ 0002AC  5119               	movf	(??_getNote+1+0)&0ffh,w
  4180+                          	line	1128
  4181+                          ;main.c: 1128: } else if (lResult >= 192 && lRes
      +                          ult <= 227) {
  4182+ 0002AE  EF7F  F001         	goto	i2l1145
  4183+                          	
  4184+ 0002B2                     i2l1165:		; BSR set to: ?
  4185+                          
  4186+ 0002B2  0EBF               	movlw	(0C0h-1)
  4187+ 0002B4  0101               	movlb	1	; () banked
  4188+ 0002B6  0101               	movlb	1	; () banked
  4189+ 0002B8  6517               	cpfsgt	((getNote@lResult))&0ffh
  4190+ 0002BA  EF61  F001         	goto	i2u7561
  4191+ 0002BE  EF63  F001         	goto	i2u7560
  4192+ 0002C2                     i2u7561:
  4193+ 0002C2  EF77  F001         	goto	i2l1167
  4194+ 0002C6                     i2u7560:
  4195+ 0002C6  0EE4               	movlw	(0E4h)&0ffh
  4196+ 0002C8  0101               	movlb	1	; () banked
  4197+ 0002CA  0101               	movlb	1	; () banked
  4198+ 0002CC  6117               	cpfslt	((getNote@lResult))&0ffh
  4199+ 0002CE  EF6B  F001         	goto	i2u7571
  4200+ 0002D2  EF6D  F001         	goto	i2u7570
  4201+ 0002D6                     i2u7571:
  4202+ 0002D6  EF77  F001         	goto	i2l1167
  4203+ 0002DA                     i2u7570:
  4204+                          	line	1130
  4205+                          ;main.c: 1130: new_note = 0x09;
  4206+ 0002DA  0101               	movlb	1	; () banked
  4207+ 0002DC  6F19               	movwf	(??_getNote+1+0)&0ffh
  4208+ 0002DE  0E09               	movlw	low(09h)
  4209+ 0002E0  0101               	movlb	1	; () banked
  4210+ 0002E2  0101               	movlb	1	; () banked
  4211+ 0002E4  6F18               	movwf	((getNote@new_note))&0ffh
  4212+ 0002E6  0101               	movlb	1	; () banked
  4213+ 0002E8  5119               	movf	(??_getNote+1+0)&0ffh,w
  4214+                          	line	1131
  4215+                          ;main.c: 1131: } else {
  4216+ 0002EA  EF7F  F001         	goto	i2l1145
  4217+                          	
  4218+ 0002EE                     i2l1167:		; BSR set to: ?
  4219+                          
  4220+                          	line	1133
  4221+                          ;main.c: 1133: new_note = 0x00;
  4222+ 0002EE  0101               	movlb	1	; () banked
  4223+ 0002F0  6F19               	movwf	(??_getNote+1+0)&0ffh
  4224+ 0002F2  0E00               	movlw	low(0)
  4225+ 0002F4  0101               	movlb	1	; () banked
  4226+ 0002F6  0101               	movlb	1	; () banked
  4227+ 0002F8  6F18               	movwf	((getNote@new_note))&0ffh
  4228+ 0002FA  0101               	movlb	1	; () banked
  4229+ 0002FC  5119               	movf	(??_getNote+1+0)&0ffh,w
  4230+                          	line	1134
  4231+                          	
  4232+ 0002FE                     i2l1168:		; BSR set to: ?
  4233+                          
  4234+                          	
  4235+ 0002FE                     i2l1166:		; BSR set to: ?
  4236+                          
  4237+                          	
  4238+ 0002FE                     i2l1164:		; BSR set to: ?
  4239+                          
  4240+                          	line	1135
  4241+                          	
  4242+ 0002FE                     i2l1162:		; BSR set to: ?
  4243+                          
  4244+                          	line	1137
  4245+                          	
  4246+ 0002FE                     i2l1161:		; BSR set to: ?
  4247+                          
  4248+                          	
  4249+ 0002FE                     i2l1153:		; BSR set to: ?
  4250+                          
  4251+                          	
  4252+ 0002FE                     i2l1145:		; BSR set to: ?
  4253+                          
  4254+                          ;main.c: 1134: }
  4255+                          ;main.c: 1135: }
  4256+                          ;main.c: 1137: } else if (adc_num == 1) {
  4257+ 0002FE  EFC6  F009         	goto	i2l1169
  4258+                          	
  4259+ 000302                     i2l1143:		; BSR set to: ?
  4260+                          
  4261+ 000302  0400               	decf	((c:0)),c,w	;volatile
  4262+                          
  4263+ 000304  A4D8               	btfss	status,2
  4264+ 000306  EF87  F001         	goto	i2u7581
  4265+ 00030A  EF89  F001         	goto	i2u7580
  4266+ 00030E                     i2u7581:
  4267+ 00030E  EFDE  F002         	goto	i2l1170
  4268+ 000312                     i2u7580:
  4269+                          	line	1138
  4270+                          ;main.c: 1138: if (hResult == 0x00) {
  4271+ 000312  0101               	movlb	1	; () banked
  4272+ 000314  0101               	movlb	1	; () banked
  4273+ 000316  6716               	tstfsz	((getNote@hResult))&0ffh
  4274+ 000318  EF90  F001         	goto	i2u7591
  4275+ 00031C  EF92  F001         	goto	i2u7590
  4276+ 000320                     i2u7591:
  4277+ 000320  EF9C  F001         	goto	i2l1171
  4278+ 000324                     i2u7590:
  4279+                          	line	1140
  4280+                          ;main.c: 1140: new_note = 0x00;
  4281+ 000324  0101               	movlb	1	; () banked
  4282+ 000326  6F19               	movwf	(??_getNote+1+0)&0ffh
  4283+ 000328  0E00               	movlw	low(0)
  4284+ 00032A  0101               	movlb	1	; () banked
  4285+ 00032C  0101               	movlb	1	; () banked
  4286+ 00032E  6F18               	movwf	((getNote@new_note))&0ffh
  4287+ 000330  0101               	movlb	1	; () banked
  4288+ 000332  5119               	movf	(??_getNote+1+0)&0ffh,w
  4289+                          	line	1141
  4290+                          ;main.c: 1141: } else if (hResult == 0x01) {
  4291+ 000334  EFDC  F002         	goto	i2l1172
  4292+                          	
  4293+ 000338                     i2l1171:		; BSR set to: ?
  4294+                          
  4295+ 000338  0101               	movlb	1	; () banked
  4296+ 00033A  0101               	movlb	1	; () banked
  4297+ 00033C  0516               	decf	((getNote@hResult))&0ffh,w
  4298+                          
  4299+ 00033E  A4D8               	btfss	status,2
  4300+ 000340  EFA4  F001         	goto	i2u7601
  4301+ 000344  EFA6  F001         	goto	i2u7600
  4302+ 000348                     i2u7601:
  4303+ 000348  EF0A  F002         	goto	i2l1173
  4304+ 00034C                     i2u7600:
  4305+                          	line	1142
  4306+                          ;main.c: 1142: if (lResult >= 187 && lResult <= 
      +                          213) {
  4307+ 00034C  0EBA               	movlw	(0BBh-1)
  4308+ 00034E  0101               	movlb	1	; () banked
  4309+ 000350  0101               	movlb	1	; () banked
  4310+ 000352  6517               	cpfsgt	((getNote@lResult))&0ffh
  4311+ 000354  EFAE  F001         	goto	i2u7611
  4312+ 000358  EFB0  F001         	goto	i2u7610
  4313+ 00035C                     i2u7611:
  4314+ 00035C  EFC4  F001         	goto	i2l1174
  4315+ 000360                     i2u7610:
  4316+ 000360  0ED6               	movlw	(0D6h)&0ffh
  4317+ 000362  0101               	movlb	1	; () banked
  4318+ 000364  0101               	movlb	1	; () banked
  4319+ 000366  6117               	cpfslt	((getNote@lResult))&0ffh
  4320+ 000368  EFB8  F001         	goto	i2u7621
  4321+ 00036C  EFBA  F001         	goto	i2u7620
  4322+ 000370                     i2u7621:
  4323+ 000370  EFC4  F001         	goto	i2l1174
  4324+ 000374                     i2u7620:
  4325+                          	line	1144
  4326+                          ;main.c: 1144: new_note = 0x52;
  4327+ 000374  0101               	movlb	1	; () banked
  4328+ 000376  6F19               	movwf	(??_getNote+1+0)&0ffh
  4329+ 000378  0E52               	movlw	low(052h)
  4330+ 00037A  0101               	movlb	1	; () banked
  4331+ 00037C  0101               	movlb	1	; () banked
  4332+ 00037E  6F18               	movwf	((getNote@new_note))&0ffh
  4333+ 000380  0101               	movlb	1	; () banked
  4334+ 000382  5119               	movf	(??_getNote+1+0)&0ffh,w
  4335+                          	line	1145
  4336+                          ;main.c: 1145: } else if (lResult >= 161 && lRes
      +                          ult <= 182) {
  4337+ 000384  EF08  F002         	goto	i2l1175
  4338+                          	
  4339+ 000388                     i2l1174:		; BSR set to: ?
  4340+                          
  4341+ 000388  0EA0               	movlw	(0A1h-1)
  4342+ 00038A  0101               	movlb	1	; () banked
  4343+ 00038C  0101               	movlb	1	; () banked
  4344+ 00038E  6517               	cpfsgt	((getNote@lResult))&0ffh
  4345+ 000390  EFCC  F001         	goto	i2u7631
  4346+ 000394  EFCE  F001         	goto	i2u7630
  4347+ 000398                     i2u7631:
  4348+ 000398  EFE2  F001         	goto	i2l1176
  4349+ 00039C                     i2u7630:
  4350+ 00039C  0EB7               	movlw	(0B7h)&0ffh
  4351+ 00039E  0101               	movlb	1	; () banked
  4352+ 0003A0  0101               	movlb	1	; () banked
  4353+ 0003A2  6117               	cpfslt	((getNote@lResult))&0ffh
  4354+ 0003A4  EFD6  F001         	goto	i2u7641
  4355+ 0003A8  EFD8  F001         	goto	i2u7640
  4356+ 0003AC                     i2u7641:
  4357+ 0003AC  EFE2  F001         	goto	i2l1176
  4358+ 0003B0                     i2u7640:
  4359+                          	line	1147
  4360+                          ;main.c: 1147: new_note = 0x42;
  4361+ 0003B0  0101               	movlb	1	; () banked
  4362+ 0003B2  6F19               	movwf	(??_getNote+1+0)&0ffh
  4363+ 0003B4  0E42               	movlw	low(042h)
  4364+ 0003B6  0101               	movlb	1	; () banked
  4365+ 0003B8  0101               	movlb	1	; () banked
  4366+ 0003BA  6F18               	movwf	((getNote@new_note))&0ffh
  4367+ 0003BC  0101               	movlb	1	; () banked
  4368+ 0003BE  5119               	movf	(??_getNote+1+0)&0ffh,w
  4369+                          	line	1148
  4370+                          ;main.c: 1148: } else if (lResult >= 120 && lRes
      +                          ult <= 150) {
  4371+ 0003C0  EF08  F002         	goto	i2l1175
  4372+                          	
  4373+ 0003C4                     i2l1176:		; BSR set to: ?
  4374+                          
  4375+ 0003C4  0E77               	movlw	(078h-1)
  4376+ 0003C6  0101               	movlb	1	; () banked
  4377+ 0003C8  0101               	movlb	1	; () banked
  4378+ 0003CA  6517               	cpfsgt	((getNote@lResult))&0ffh
  4379+ 0003CC  EFEA  F001         	goto	i2u7651
  4380+ 0003D0  EFEC  F001         	goto	i2u7650
  4381+ 0003D4                     i2u7651:
  4382+ 0003D4  EF00  F002         	goto	i2l1178
  4383+ 0003D8                     i2u7650:
  4384+ 0003D8  0E97               	movlw	(097h)&0ffh
  4385+ 0003DA  0101               	movlb	1	; () banked
  4386+ 0003DC  0101               	movlb	1	; () banked
  4387+ 0003DE  6117               	cpfslt	((getNote@lResult))&0ffh
  4388+ 0003E0  EFF4  F001         	goto	i2u7661
  4389+ 0003E4  EFF6  F001         	goto	i2u7660
  4390+ 0003E8                     i2u7661:
  4391+ 0003E8  EF00  F002         	goto	i2l1178
  4392+ 0003EC                     i2u7660:
  4393+                          	line	1150
  4394+                          ;main.c: 1150: new_note = 0x4a;
  4395+ 0003EC  0101               	movlb	1	; () banked
  4396+ 0003EE  6F19               	movwf	(??_getNote+1+0)&0ffh
  4397+ 0003F0  0E4A               	movlw	low(04Ah)
  4398+ 0003F2  0101               	movlb	1	; () banked
  4399+ 0003F4  0101               	movlb	1	; () banked
  4400+ 0003F6  6F18               	movwf	((getNote@new_note))&0ffh
  4401+ 0003F8  0101               	movlb	1	; () banked
  4402+ 0003FA  5119               	movf	(??_getNote+1+0)&0ffh,w
  4403+                          	line	1151
  4404+                          ;main.c: 1151: } else {
  4405+ 0003FC  EF08  F002         	goto	i2l1175
  4406+                          	
  4407+ 000400                     i2l1178:		; BSR set to: ?
  4408+                          
  4409+                          	line	1153
  4410+                          ;main.c: 1153: new_note = 0x00;
  4411+ 000400  0101               	movlb	1	; () banked
  4412+ 000402  6F19               	movwf	(??_getNote+1+0)&0ffh
  4413+ 000404  0E00               	movlw	low(0)
  4414+ 000406  0101               	movlb	1	; () banked
  4415+ 000408  0101               	movlb	1	; () banked
  4416+ 00040A  6F18               	movwf	((getNote@new_note))&0ffh
  4417+ 00040C  0101               	movlb	1	; () banked
  4418+ 00040E  5119               	movf	(??_getNote+1+0)&0ffh,w
  4419+                          	line	1154
  4420+                          	
  4421+ 000410                     i2l1179:		; BSR set to: ?
  4422+                          
  4423+                          	
  4424+ 000410                     i2l1177:		; BSR set to: ?
  4425+                          
  4426+                          	
  4427+ 000410                     i2l1175:		; BSR set to: ?
  4428+                          
  4429+                          	line	1156
  4430+                          ;main.c: 1154: }
  4431+                          ;main.c: 1156: } else if (hResult == 0x02) {
  4432+ 000410  EFDC  F002         	goto	i2l1172
  4433+                          	
  4434+ 000414                     i2l1173:		; BSR set to: ?
  4435+                          
  4436+ 000414  0101               	movlb	1	; () banked
  4437+ 000416  0101               	movlb	1	; () banked
  4438+ 000418  5116               	movf	((getNote@hResult))&0ffh,w
  4439+ 00041A  0A02               	xorlw	2
  4440+                          
  4441+ 00041C  A4D8               	btfss	status,2
  4442+ 00041E  EF13  F002         	goto	i2u7671
  4443+ 000422  EF15  F002         	goto	i2u7670
  4444+ 000426                     i2u7671:
  4445+ 000426  EF79  F002         	goto	i2l1181
  4446+ 00042A                     i2u7670:
  4447+                          	line	1157
  4448+                          ;main.c: 1157: if (lResult >= 206 && lResult <= 
      +                          232) {
  4449+ 00042A  0ECD               	movlw	(0CEh-1)
  4450+ 00042C  0101               	movlb	1	; () banked
  4451+ 00042E  0101               	movlb	1	; () banked
  4452+ 000430  6517               	cpfsgt	((getNote@lResult))&0ffh
  4453+ 000432  EF1D  F002         	goto	i2u7681
  4454+ 000436  EF1F  F002         	goto	i2u7680
  4455+ 00043A                     i2u7681:
  4456+ 00043A  EF33  F002         	goto	i2l1182
  4457+ 00043E                     i2u7680:
  4458+ 00043E  0EE9               	movlw	(0E9h)&0ffh
  4459+ 000440  0101               	movlb	1	; () banked
  4460+ 000442  0101               	movlb	1	; () banked
  4461+ 000444  6117               	cpfslt	((getNote@lResult))&0ffh
  4462+ 000446  EF27  F002         	goto	i2u7691
  4463+ 00044A  EF29  F002         	goto	i2u7690
  4464+ 00044E                     i2u7691:
  4465+ 00044E  EF33  F002         	goto	i2l1182
  4466+ 000452                     i2u7690:
  4467+                          	line	1159
  4468+                          ;main.c: 1159: new_note = 0x32;
  4469+ 000452  0101               	movlb	1	; () banked
  4470+ 000454  6F19               	movwf	(??_getNote+1+0)&0ffh
  4471+ 000456  0E32               	movlw	low(032h)
  4472+ 000458  0101               	movlb	1	; () banked
  4473+ 00045A  0101               	movlb	1	; () banked
  4474+ 00045C  6F18               	movwf	((getNote@new_note))&0ffh
  4475+ 00045E  0101               	movlb	1	; () banked
  4476+ 000460  5119               	movf	(??_getNote+1+0)&0ffh,w
  4477+                          	line	1160
  4478+                          ;main.c: 1160: } else if (lResult >= 165 && lRes
      +                          ult <= 238) {
  4479+ 000462  EF77  F002         	goto	i2l1183
  4480+                          	
  4481+ 000466                     i2l1182:		; BSR set to: ?
  4482+                          
  4483+ 000466  0EA4               	movlw	(0A5h-1)
  4484+ 000468  0101               	movlb	1	; () banked
  4485+ 00046A  0101               	movlb	1	; () banked
  4486+ 00046C  6517               	cpfsgt	((getNote@lResult))&0ffh
  4487+ 00046E  EF3B  F002         	goto	i2u7701
  4488+ 000472  EF3D  F002         	goto	i2u7700
  4489+ 000476                     i2u7701:
  4490+ 000476  EF51  F002         	goto	i2l1184
  4491+ 00047A                     i2u7700:
  4492+ 00047A  0EEF               	movlw	(0EFh)&0ffh
  4493+ 00047C  0101               	movlb	1	; () banked
  4494+ 00047E  0101               	movlb	1	; () banked
  4495+ 000480  6117               	cpfslt	((getNote@lResult))&0ffh
  4496+ 000482  EF45  F002         	goto	i2u7711
  4497+ 000486  EF47  F002         	goto	i2u7710
  4498+ 00048A                     i2u7711:
  4499+ 00048A  EF51  F002         	goto	i2l1184
  4500+ 00048E                     i2u7710:
  4501+                          	line	1162
  4502+                          ;main.c: 1162: new_note = 0x22;
  4503+ 00048E  0101               	movlb	1	; () banked
  4504+ 000490  6F19               	movwf	(??_getNote+1+0)&0ffh
  4505+ 000492  0E22               	movlw	low(022h)
  4506+ 000494  0101               	movlb	1	; () banked
  4507+ 000496  0101               	movlb	1	; () banked
  4508+ 000498  6F18               	movwf	((getNote@new_note))&0ffh
  4509+ 00049A  0101               	movlb	1	; () banked
  4510+ 00049C  5119               	movf	(??_getNote+1+0)&0ffh,w
  4511+                          	line	1163
  4512+                          ;main.c: 1163: } else if (lResult >= 109 && lRes
      +                          ult <= 140) {
  4513+ 00049E  EF77  F002         	goto	i2l1183
  4514+                          	
  4515+ 0004A2                     i2l1184:		; BSR set to: ?
  4516+                          
  4517+ 0004A2  0E6C               	movlw	(06Dh-1)
  4518+ 0004A4  0101               	movlb	1	; () banked
  4519+ 0004A6  0101               	movlb	1	; () banked
  4520+ 0004A8  6517               	cpfsgt	((getNote@lResult))&0ffh
  4521+ 0004AA  EF59  F002         	goto	i2u7721
  4522+ 0004AE  EF5B  F002         	goto	i2u7720
  4523+ 0004B2                     i2u7721:
  4524+ 0004B2  EF6F  F002         	goto	i2l1186
  4525+ 0004B6                     i2u7720:
  4526+ 0004B6  0E8D               	movlw	(08Dh)&0ffh
  4527+ 0004B8  0101               	movlb	1	; () banked
  4528+ 0004BA  0101               	movlb	1	; () banked
  4529+ 0004BC  6117               	cpfslt	((getNote@lResult))&0ffh
  4530+ 0004BE  EF63  F002         	goto	i2u7731
  4531+ 0004C2  EF65  F002         	goto	i2u7730
  4532+ 0004C6                     i2u7731:
  4533+ 0004C6  EF6F  F002         	goto	i2l1186
  4534+ 0004CA                     i2u7730:
  4535+                          	line	1165
  4536+                          ;main.c: 1165: new_note = 0x2a;
  4537+ 0004CA  0101               	movlb	1	; () banked
  4538+ 0004CC  6F19               	movwf	(??_getNote+1+0)&0ffh
  4539+ 0004CE  0E2A               	movlw	low(02Ah)
  4540+ 0004D0  0101               	movlb	1	; () banked
  4541+ 0004D2  0101               	movlb	1	; () banked
  4542+ 0004D4  6F18               	movwf	((getNote@new_note))&0ffh
  4543+ 0004D6  0101               	movlb	1	; () banked
  4544+ 0004D8  5119               	movf	(??_getNote+1+0)&0ffh,w
  4545+                          	line	1166
  4546+                          ;main.c: 1166: } else {
  4547+ 0004DA  EF77  F002         	goto	i2l1183
  4548+                          	
  4549+ 0004DE                     i2l1186:		; BSR set to: ?
  4550+                          
  4551+                          	line	1168
  4552+                          ;main.c: 1168: new_note = 0x00;
  4553+ 0004DE  0101               	movlb	1	; () banked
  4554+ 0004E0  6F19               	movwf	(??_getNote+1+0)&0ffh
  4555+ 0004E2  0E00               	movlw	low(0)
  4556+ 0004E4  0101               	movlb	1	; () banked
  4557+ 0004E6  0101               	movlb	1	; () banked
  4558+ 0004E8  6F18               	movwf	((getNote@new_note))&0ffh
  4559+ 0004EA  0101               	movlb	1	; () banked
  4560+ 0004EC  5119               	movf	(??_getNote+1+0)&0ffh,w
  4561+                          	line	1169
  4562+                          	
  4563+ 0004EE                     i2l1187:		; BSR set to: ?
  4564+                          
  4565+                          	
  4566+ 0004EE                     i2l1185:		; BSR set to: ?
  4567+                          
  4568+                          	
  4569+ 0004EE                     i2l1183:		; BSR set to: ?
  4570+                          
  4571+                          	line	1171
  4572+                          ;main.c: 1169: }
  4573+                          ;main.c: 1171: } else if (hResult == 0x03) {
  4574+ 0004EE  EFDC  F002         	goto	i2l1172
  4575+                          	
  4576+ 0004F2                     i2l1181:		; BSR set to: ?
  4577+                          
  4578+ 0004F2  0101               	movlb	1	; () banked
  4579+ 0004F4  0101               	movlb	1	; () banked
  4580+ 0004F6  5116               	movf	((getNote@hResult))&0ffh,w
  4581+ 0004F8  0A03               	xorlw	3
  4582+                          
  4583+ 0004FA  A4D8               	btfss	status,2
  4584+ 0004FC  EF82  F002         	goto	i2u7741
  4585+ 000500  EF84  F002         	goto	i2u7740
  4586+ 000504                     i2u7741:
  4587+ 000504  EFDC  F002         	goto	i2l1172
  4588+ 000508                     i2u7740:
  4589+                          	line	1172
  4590+                          ;main.c: 1172: if (lResult >= 0 && lResult <= 17
      +                          4) {
  4591+ 000508  0EAF               	movlw	(0AFh)&0ffh
  4592+ 00050A  0101               	movlb	1	; () banked
  4593+ 00050C  0101               	movlb	1	; () banked
  4594+ 00050E  6117               	cpfslt	((getNote@lResult))&0ffh
  4595+ 000510  EF8C  F002         	goto	i2u7751
  4596+ 000514  EF8E  F002         	goto	i2u7750
  4597+ 000518                     i2u7751:
  4598+ 000518  EF98  F002         	goto	i2l1190
  4599+ 00051C                     i2u7750:
  4600+                          	line	1174
  4601+                          ;main.c: 1174: new_note = 0x12;
  4602+ 00051C  0101               	movlb	1	; () banked
  4603+ 00051E  6F19               	movwf	(??_getNote+1+0)&0ffh
  4604+ 000520  0E12               	movlw	low(012h)
  4605+ 000522  0101               	movlb	1	; () banked
  4606+ 000524  0101               	movlb	1	; () banked
  4607+ 000526  6F18               	movwf	((getNote@new_note))&0ffh
  4608+ 000528  0101               	movlb	1	; () banked
  4609+ 00052A  5119               	movf	(??_getNote+1+0)&0ffh,w
  4610+                          	line	1175
  4611+                          ;main.c: 1175: } else if (lResult >= 193 && lRes
      +                          ult <= 210) {
  4612+ 00052C  EFDC  F002         	goto	i2l1172
  4613+                          	
  4614+ 000530                     i2l1190:		; BSR set to: ?
  4615+                          
  4616+ 000530  0EC0               	movlw	(0C1h-1)
  4617+ 000532  0101               	movlb	1	; () banked
  4618+ 000534  0101               	movlb	1	; () banked
  4619+ 000536  6517               	cpfsgt	((getNote@lResult))&0ffh
  4620+ 000538  EFA0  F002         	goto	i2u7761
  4621+ 00053C  EFA2  F002         	goto	i2u7760
  4622+ 000540                     i2u7761:
  4623+ 000540  EFB6  F002         	goto	i2l1192
  4624+ 000544                     i2u7760:
  4625+ 000544  0ED3               	movlw	(0D3h)&0ffh
  4626+ 000546  0101               	movlb	1	; () banked
  4627+ 000548  0101               	movlb	1	; () banked
  4628+ 00054A  6117               	cpfslt	((getNote@lResult))&0ffh
  4629+ 00054C  EFAA  F002         	goto	i2u7771
  4630+ 000550  EFAC  F002         	goto	i2u7770
  4631+ 000554                     i2u7771:
  4632+ 000554  EFB6  F002         	goto	i2l1192
  4633+ 000558                     i2u7770:
  4634+                          	line	1177
  4635+                          ;main.c: 1177: new_note = 0x02;
  4636+ 000558  0101               	movlb	1	; () banked
  4637+ 00055A  6F19               	movwf	(??_getNote+1+0)&0ffh
  4638+ 00055C  0E02               	movlw	low(02h)
  4639+ 00055E  0101               	movlb	1	; () banked
  4640+ 000560  0101               	movlb	1	; () banked
  4641+ 000562  6F18               	movwf	((getNote@new_note))&0ffh
  4642+ 000564  0101               	movlb	1	; () banked
  4643+ 000566  5119               	movf	(??_getNote+1+0)&0ffh,w
  4644+                          	line	1178
  4645+                          ;main.c: 1178: } else if (lResult >= 221 && lRes
      +                          ult <= 229) {
  4646+ 000568  EFDC  F002         	goto	i2l1172
  4647+                          	
  4648+ 00056C                     i2l1192:		; BSR set to: ?
  4649+                          
  4650+ 00056C  0EDC               	movlw	(0DDh-1)
  4651+ 00056E  0101               	movlb	1	; () banked
  4652+ 000570  0101               	movlb	1	; () banked
  4653+ 000572  6517               	cpfsgt	((getNote@lResult))&0ffh
  4654+ 000574  EFBE  F002         	goto	i2u7781
  4655+ 000578  EFC0  F002         	goto	i2u7780
  4656+ 00057C                     i2u7781:
  4657+ 00057C  EFD4  F002         	goto	i2l1194
  4658+ 000580                     i2u7780:
  4659+ 000580  0EE6               	movlw	(0E6h)&0ffh
  4660+ 000582  0101               	movlb	1	; () banked
  4661+ 000584  0101               	movlb	1	; () banked
  4662+ 000586  6117               	cpfslt	((getNote@lResult))&0ffh
  4663+ 000588  EFC8  F002         	goto	i2u7791
  4664+ 00058C  EFCA  F002         	goto	i2u7790
  4665+ 000590                     i2u7791:
  4666+ 000590  EFD4  F002         	goto	i2l1194
  4667+ 000594                     i2u7790:
  4668+                          	line	1180
  4669+                          ;main.c: 1180: new_note = 0x0a;
  4670+ 000594  0101               	movlb	1	; () banked
  4671+ 000596  6F19               	movwf	(??_getNote+1+0)&0ffh
  4672+ 000598  0E0A               	movlw	low(0Ah)
  4673+ 00059A  0101               	movlb	1	; () banked
  4674+ 00059C  0101               	movlb	1	; () banked
  4675+ 00059E  6F18               	movwf	((getNote@new_note))&0ffh
  4676+ 0005A0  0101               	movlb	1	; () banked
  4677+ 0005A2  5119               	movf	(??_getNote+1+0)&0ffh,w
  4678+                          	line	1181
  4679+                          ;main.c: 1181: } else {
  4680+ 0005A4  EFDC  F002         	goto	i2l1172
  4681+                          	
  4682+ 0005A8                     i2l1194:		; BSR set to: ?
  4683+                          
  4684+                          	line	1183
  4685+                          ;main.c: 1183: new_note = 0x00;
  4686+ 0005A8  0101               	movlb	1	; () banked
  4687+ 0005AA  6F19               	movwf	(??_getNote+1+0)&0ffh
  4688+ 0005AC  0E00               	movlw	low(0)
  4689+ 0005AE  0101               	movlb	1	; () banked
  4690+ 0005B0  0101               	movlb	1	; () banked
  4691+ 0005B2  6F18               	movwf	((getNote@new_note))&0ffh
  4692+ 0005B4  0101               	movlb	1	; () banked
  4693+ 0005B6  5119               	movf	(??_getNote+1+0)&0ffh,w
  4694+                          	line	1184
  4695+                          	
  4696+ 0005B8                     i2l1195:		; BSR set to: ?
  4697+                          
  4698+                          	
  4699+ 0005B8                     i2l1193:		; BSR set to: ?
  4700+                          
  4701+                          	
  4702+ 0005B8                     i2l1191:		; BSR set to: ?
  4703+                          
  4704+                          	line	1185
  4705+                          	
  4706+ 0005B8                     i2l1189:		; BSR set to: ?
  4707+                          
  4708+                          	line	1187
  4709+                          	
  4710+ 0005B8                     i2l1188:		; BSR set to: ?
  4711+                          
  4712+                          	
  4713+ 0005B8                     i2l1180:		; BSR set to: ?
  4714+                          
  4715+                          	
  4716+ 0005B8                     i2l1172:		; BSR set to: ?
  4717+                          
  4718+                          ;main.c: 1184: }
  4719+                          ;main.c: 1185: }
  4720+                          ;main.c: 1187: } else if (adc_num == 2) {
  4721+ 0005B8  EFC6  F009         	goto	i2l1169
  4722+                          	
  4723+ 0005BC                     i2l1170:		; BSR set to: ?
  4724+                          
  4725+ 0005BC  5000               	movf	((c:0)),c,w	;volatile
  4726+ 0005BE  0A02               	xorlw	2
  4727+                          
  4728+ 0005C0  A4D8               	btfss	status,2
  4729+ 0005C2  EFE5  F002         	goto	i2u7801
  4730+ 0005C6  EFE7  F002         	goto	i2u7800
  4731+ 0005CA                     i2u7801:
  4732+ 0005CA  EF46  F004         	goto	i2l1197
  4733+ 0005CE                     i2u7800:
  4734+                          	line	1188
  4735+                          ;main.c: 1188: if (hResult == 0x00) {
  4736+ 0005CE  0101               	movlb	1	; () banked
  4737+ 0005D0  0101               	movlb	1	; () banked
  4738+ 0005D2  6716               	tstfsz	((getNote@hResult))&0ffh
  4739+ 0005D4  EFEE  F002         	goto	i2u7811
  4740+ 0005D8  EFF0  F002         	goto	i2u7810
  4741+ 0005DC                     i2u7811:
  4742+ 0005DC  EFFA  F002         	goto	i2l1198
  4743+ 0005E0                     i2u7810:
  4744+                          	line	1190
  4745+                          ;main.c: 1190: new_note = 0x00;
  4746+ 0005E0  0101               	movlb	1	; () banked
  4747+ 0005E2  6F19               	movwf	(??_getNote+1+0)&0ffh
  4748+ 0005E4  0E00               	movlw	low(0)
  4749+ 0005E6  0101               	movlb	1	; () banked
  4750+ 0005E8  0101               	movlb	1	; () banked
  4751+ 0005EA  6F18               	movwf	((getNote@new_note))&0ffh
  4752+ 0005EC  0101               	movlb	1	; () banked
  4753+ 0005EE  5119               	movf	(??_getNote+1+0)&0ffh,w
  4754+                          	line	1191
  4755+                          ;main.c: 1191: } else if (hResult == 0x01) {
  4756+ 0005F0  EF44  F004         	goto	i2l1199
  4757+                          	
  4758+ 0005F4                     i2l1198:		; BSR set to: ?
  4759+                          
  4760+ 0005F4  0101               	movlb	1	; () banked
  4761+ 0005F6  0101               	movlb	1	; () banked
  4762+ 0005F8  0516               	decf	((getNote@hResult))&0ffh,w
  4763+                          
  4764+ 0005FA  A4D8               	btfss	status,2
  4765+ 0005FC  EF02  F003         	goto	i2u7821
  4766+ 000600  EF04  F003         	goto	i2u7820
  4767+ 000604                     i2u7821:
  4768+ 000604  EF68  F003         	goto	i2l1200
  4769+ 000608                     i2u7820:
  4770+                          	line	1192
  4771+                          ;main.c: 1192: if (lResult >= 218 && lResult <= 
      +                          242) {
  4772+ 000608  0ED9               	movlw	(0DAh-1)
  4773+ 00060A  0101               	movlb	1	; () banked
  4774+ 00060C  0101               	movlb	1	; () banked
  4775+ 00060E  6517               	cpfsgt	((getNote@lResult))&0ffh
  4776+ 000610  EF0C  F003         	goto	i2u7831
  4777+ 000614  EF0E  F003         	goto	i2u7830
  4778+ 000618                     i2u7831:
  4779+ 000618  EF22  F003         	goto	i2l1201
  4780+ 00061C                     i2u7830:
  4781+ 00061C  0EF3               	movlw	(0F3h)&0ffh
  4782+ 00061E  0101               	movlb	1	; () banked
  4783+ 000620  0101               	movlb	1	; () banked
  4784+ 000622  6117               	cpfslt	((getNote@lResult))&0ffh
  4785+ 000624  EF16  F003         	goto	i2u7841
  4786+ 000628  EF18  F003         	goto	i2u7840
  4787+ 00062C                     i2u7841:
  4788+ 00062C  EF22  F003         	goto	i2l1201
  4789+ 000630                     i2u7840:
  4790+                          	line	1194
  4791+                          ;main.c: 1194: new_note = 0x53;
  4792+ 000630  0101               	movlb	1	; () banked
  4793+ 000632  6F19               	movwf	(??_getNote+1+0)&0ffh
  4794+ 000634  0E53               	movlw	low(053h)
  4795+ 000636  0101               	movlb	1	; () banked
  4796+ 000638  0101               	movlb	1	; () banked
  4797+ 00063A  6F18               	movwf	((getNote@new_note))&0ffh
  4798+ 00063C  0101               	movlb	1	; () banked
  4799  00063E  5119               	movf	(??_getNote+1+0)&0ffh,w
  4800                           	line	1195
  4801                           ;main.c: 1195: } else if (lResult >= 167 && lRes
                                 ult <= 200) {
  4802  000640  EF66  F003         	goto	i2l1202
  4803                           	
  4804  000644                     i2l1201:		; BSR set to: ?
  4805                           
  4806  000644  0EA6               	movlw	(0A7h-1)
  4807  000646  0101               	movlb	1	; () banked
  4808  000648  0101               	movlb	1	; () banked
  4809  00064A  6517               	cpfsgt	((getNote@lResult))&0ffh
  4810  00064C  EF2A  F003         	goto	i2u7851
  4811  000650  EF2C  F003         	goto	i2u7850
  4812  000654                     i2u7851:
  4813  000654  EF40  F003         	goto	i2l1203
  4814  000658                     i2u7850:
  4815  000658  0EC9               	movlw	(0C9h)&0ffh
  4816  00065A  0101               	movlb	1	; () banked
  4817  00065C  0101               	movlb	1	; () banked
  4818  00065E  6117               	cpfslt	((getNote@lResult))&0ffh
  4819  000660  EF34  F003         	goto	i2u7861
  4820  000664  EF36  F003         	goto	i2u7860
  4821  000668                     i2u7861:
  4822  000668  EF40  F003         	goto	i2l1203
  4823  00066C                     i2u7860:
  4824                           	line	1197
  4825                           ;main.c: 1197: new_note = 0x43;
  4826  00066C  0101               	movlb	1	; () banked
  4827  00066E  6F19               	movwf	(??_getNote+1+0)&0ffh
  4828  000670  0E43               	movlw	low(043h)
  4829  000672  0101               	movlb	1	; () banked
  4830  000674  0101               	movlb	1	; () banked
  4831  000676  6F18               	movwf	((getNote@new_note))&0ffh
  4832  000678  0101               	movlb	1	; () banked
  4833  00067A  5119               	movf	(??_getNote+1+0)&0ffh,w
  4834                           	line	1198
  4835                           ;main.c: 1198: } else if (lResult >= 38 && lResu
                                 lt <= 160) {
  4836  00067C  EF66  F003         	goto	i2l1202
  4837                           	
  4838  000680                     i2l1203:		; BSR set to: ?
  4839                           
  4840  000680  0E25               	movlw	(026h-1)
  4841  000682  0101               	movlb	1	; () banked
  4842  000684  0101               	movlb	1	; () banked
  4843  000686  6517               	cpfsgt	((getNote@lResult))&0ffh
  4844  000688  EF48  F003         	goto	i2u7871
  4845  00068C  EF4A  F003         	goto	i2u7870
  4846  000690                     i2u7871:
  4847  000690  EF5E  F003         	goto	i2l1205
  4848  000694                     i2u7870:
  4849  000694  0EA1               	movlw	(0A1h)&0ffh
  4850  000696  0101               	movlb	1	; () banked
  4851  000698  0101               	movlb	1	; () banked
  4852  00069A  6117               	cpfslt	((getNote@lResult))&0ffh
  4853  00069C  EF52  F003         	goto	i2u7881
  4854  0006A0  EF54  F003         	goto	i2u7880
  4855  0006A4                     i2u7881:
  4856  0006A4  EF5E  F003         	goto	i2l1205
  4857  0006A8                     i2u7880:
  4858                           	line	1200
  4859                           ;main.c: 1200: new_note = 0x4b;
  4860  0006A8  0101               	movlb	1	; () banked
  4861  0006AA  6F19               	movwf	(??_getNote+1+0)&0ffh
  4862  0006AC  0E4B               	movlw	low(04Bh)
  4863  0006AE  0101               	movlb	1	; () banked
  4864  0006B0  0101               	movlb	1	; () banked
  4865  0006B2  6F18               	movwf	((getNote@new_note))&0ffh
  4866  0006B4  0101               	movlb	1	; () banked
  4867  0006B6  5119               	movf	(??_getNote+1+0)&0ffh,w
  4868                           	line	1201
  4869                           ;main.c: 1201: } else {
  4870  0006B8  EF66  F003         	goto	i2l1202
  4871                           	
  4872  0006BC                     i2l1205:		; BSR set to: ?
  4873                           
  4874                           	line	1203
  4875                           ;main.c: 1203: new_note = 0x00;
  4876  0006BC  0101               	movlb	1	; () banked
  4877  0006BE  6F19               	movwf	(??_getNote+1+0)&0ffh
  4878  0006C0  0E00               	movlw	low(0)
  4879  0006C2  0101               	movlb	1	; () banked
  4880  0006C4  0101               	movlb	1	; () banked
  4881  0006C6  6F18               	movwf	((getNote@new_note))&0ffh
  4882  0006C8  0101               	movlb	1	; () banked
  4883  0006CA  5119               	movf	(??_getNote+1+0)&0ffh,w
  4884                           	line	1204
  4885                           	
  4886  0006CC                     i2l1206:		; BSR set to: ?
  4887                           
  4888                           	
  4889  0006CC                     i2l1204:		; BSR set to: ?
  4890                           
  4891                           	
  4892  0006CC                     i2l1202:		; BSR set to: ?
  4893                           
  4894                           	line	1206
  4895                           ;main.c: 1204: }
  4896                           ;main.c: 1206: } else if (hResult == 0x02) {
  4897  0006CC  EF44  F004         	goto	i2l1199
  4898                           	
  4899  0006D0                     i2l1200:		; BSR set to: ?
  4900                           
  4901  0006D0  0101               	movlb	1	; () banked
  4902  0006D2  0101               	movlb	1	; () banked
  4903  0006D4  5116               	movf	((getNote@hResult))&0ffh,w
  4904  0006D6  0A02               	xorlw	2
  4905                           
  4906  0006D8  A4D8               	btfss	status,2
  4907  0006DA  EF71  F003         	goto	i2u7891
  4908  0006DE  EF73  F003         	goto	i2u7890
  4909  0006E2                     i2u7891:
  4910  0006E2  EFD7  F003         	goto	i2l1208
  4911  0006E6                     i2u7890:
  4912                           	line	1207
  4913                           ;main.c: 1207: if (lResult >= 201 && lResult <= 
                                 235) {
  4914  0006E6  0EC8               	movlw	(0C9h-1)
  4915  0006E8  0101               	movlb	1	; () banked
  4916  0006EA  0101               	movlb	1	; () banked
  4917  0006EC  6517               	cpfsgt	((getNote@lResult))&0ffh
  4918  0006EE  EF7B  F003         	goto	i2u7901
  4919  0006F2  EF7D  F003         	goto	i2u7900
  4920  0006F6                     i2u7901:
  4921  0006F6  EF91  F003         	goto	i2l1209
  4922  0006FA                     i2u7900:
  4923  0006FA  0EEC               	movlw	(0ECh)&0ffh
  4924  0006FC  0101               	movlb	1	; () banked
  4925  0006FE  0101               	movlb	1	; () banked
  4926  000700  6117               	cpfslt	((getNote@lResult))&0ffh
  4927  000702  EF85  F003         	goto	i2u7911
  4928  000706  EF87  F003         	goto	i2u7910
  4929  00070A                     i2u7911:
  4930  00070A  EF91  F003         	goto	i2l1209
  4931  00070E                     i2u7910:
  4932                           	line	1209
  4933                           ;main.c: 1209: new_note = 0x33;
  4934  00070E  0101               	movlb	1	; () banked
  4935  000710  6F19               	movwf	(??_getNote+1+0)&0ffh
  4936  000712  0E33               	movlw	low(033h)
  4937  000714  0101               	movlb	1	; () banked
  4938  000716  0101               	movlb	1	; () banked
  4939  000718  6F18               	movwf	((getNote@new_note))&0ffh
  4940  00071A  0101               	movlb	1	; () banked
  4941  00071C  5119               	movf	(??_getNote+1+0)&0ffh,w
  4942                           	line	1210
  4943                           ;main.c: 1210: } else if (lResult >= 124 && lRes
                                 ult <= 183) {
  4944  00071E  EFD5  F003         	goto	i2l1210
  4945                           	
  4946  000722                     i2l1209:		; BSR set to: ?
  4947                           
  4948  000722  0E7B               	movlw	(07Ch-1)
  4949  000724  0101               	movlb	1	; () banked
  4950  000726  0101               	movlb	1	; () banked
  4951  000728  6517               	cpfsgt	((getNote@lResult))&0ffh
  4952  00072A  EF99  F003         	goto	i2u7921
  4953  00072E  EF9B  F003         	goto	i2u7920
  4954  000732                     i2u7921:
  4955  000732  EFAF  F003         	goto	i2l1211
  4956  000736                     i2u7920:
  4957  000736  0EB8               	movlw	(0B8h)&0ffh
  4958  000738  0101               	movlb	1	; () banked
  4959  00073A  0101               	movlb	1	; () banked
  4960  00073C  6117               	cpfslt	((getNote@lResult))&0ffh
  4961  00073E  EFA3  F003         	goto	i2u7931
  4962  000742  EFA5  F003         	goto	i2u7930
  4963  000746                     i2u7931:
  4964  000746  EFAF  F003         	goto	i2l1211
  4965  00074A                     i2u7930:
  4966                           	line	1212
  4967                           ;main.c: 1212: new_note = 0x23;
  4968  00074A  0101               	movlb	1	; () banked
  4969  00074C  6F19               	movwf	(??_getNote+1+0)&0ffh
  4970  00074E  0E23               	movlw	low(023h)
  4971  000750  0101               	movlb	1	; () banked
  4972  000752  0101               	movlb	1	; () banked
  4973  000754  6F18               	movwf	((getNote@new_note))&0ffh
  4974  000756  0101               	movlb	1	; () banked
  4975  000758  5119               	movf	(??_getNote+1+0)&0ffh,w
  4976                           	line	1213
  4977                           ;main.c: 1213: } else if (lResult >= 70 && lResu
                                 lt <= 110) {
  4978  00075A  EFD5  F003         	goto	i2l1210
  4979                           	
  4980  00075E                     i2l1211:		; BSR set to: ?
  4981                           
  4982  00075E  0E45               	movlw	(046h-1)
  4983  000760  0101               	movlb	1	; () banked
  4984  000762  0101               	movlb	1	; () banked
  4985  000764  6517               	cpfsgt	((getNote@lResult))&0ffh
  4986  000766  EFB7  F003         	goto	i2u7941
  4987  00076A  EFB9  F003         	goto	i2u7940
  4988  00076E                     i2u7941:
  4989  00076E  EFCD  F003         	goto	i2l1213
  4990  000772                     i2u7940:
  4991  000772  0E6F               	movlw	(06Fh)&0ffh
  4992  000774  0101               	movlb	1	; () banked
  4993  000776  0101               	movlb	1	; () banked
  4994  000778  6117               	cpfslt	((getNote@lResult))&0ffh
  4995  00077A  EFC1  F003         	goto	i2u7951
  4996  00077E  EFC3  F003         	goto	i2u7950
  4997  000782                     i2u7951:
  4998  000782  EFCD  F003         	goto	i2l1213
  4999  000786                     i2u7950:
  5000                           	line	1215
  5001                           ;main.c: 1215: new_note = 0x2b;
  5002  000786  0101               	movlb	1	; () banked
  5003  000788  6F19               	movwf	(??_getNote+1+0)&0ffh
  5004  00078A  0E2B               	movlw	low(02Bh)
  5005  00078C  0101               	movlb	1	; () banked
  5006  00078E  0101               	movlb	1	; () banked
  5007  000790  6F18               	movwf	((getNote@new_note))&0ffh
  5008  000792  0101               	movlb	1	; () banked
  5009  000794  5119               	movf	(??_getNote+1+0)&0ffh,w
  5010                           	line	1216
  5011                           ;main.c: 1216: } else {
  5012  000796  EFD5  F003         	goto	i2l1210
  5013                           	
  5014  00079A                     i2l1213:		; BSR set to: ?
  5015                           
  5016                           	line	1218
  5017                           ;main.c: 1218: new_note = 0x00;
  5018  00079A  0101               	movlb	1	; () banked
  5019  00079C  6F19               	movwf	(??_getNote+1+0)&0ffh
  5020  00079E  0E00               	movlw	low(0)
  5021  0007A0  0101               	movlb	1	; () banked
  5022  0007A2  0101               	movlb	1	; () banked
  5023  0007A4  6F18               	movwf	((getNote@new_note))&0ffh
  5024  0007A6  0101               	movlb	1	; () banked
  5025  0007A8  5119               	movf	(??_getNote+1+0)&0ffh,w
  5026                           	line	1219
  5027                           	
  5028  0007AA                     i2l1214:		; BSR set to: ?
  5029                           
  5030                           	
  5031  0007AA                     i2l1212:		; BSR set to: ?
  5032                           
  5033                           	
  5034  0007AA                     i2l1210:		; BSR set to: ?
  5035                           
  5036                           	line	1221
  5037                           ;main.c: 1219: }
  5038                           ;main.c: 1221: } else if (hResult == 0x03) {
  5039  0007AA  EF44  F004         	goto	i2l1199
  5040                           	
  5041  0007AE                     i2l1208:		; BSR set to: ?
  5042                           
  5043  0007AE  0101               	movlb	1	; () banked
  5044  0007B0  0101               	movlb	1	; () banked
  5045  0007B2  5116               	movf	((getNote@hResult))&0ffh,w
  5046  0007B4  0A03               	xorlw	3
  5047                           
  5048  0007B6  A4D8               	btfss	status,2
  5049  0007B8  EFE0  F003         	goto	i2u7961
  5050  0007BC  EFE2  F003         	goto	i2u7960
  5051  0007C0                     i2u7961:
  5052  0007C0  EF44  F004         	goto	i2l1199
  5053  0007C4                     i2u7960:
  5054                           	line	1222
  5055                           ;main.c: 1222: if (lResult >= 60 && lResult <= 8
                                 7) {
  5056  0007C4  0E3B               	movlw	(03Ch-1)
  5057  0007C6  0101               	movlb	1	; () banked
  5058  0007C8  0101               	movlb	1	; () banked
  5059  0007CA  6517               	cpfsgt	((getNote@lResult))&0ffh
  5060  0007CC  EFEA  F003         	goto	i2u7971
  5061  0007D0  EFEC  F003         	goto	i2u7970
  5062  0007D4                     i2u7971:
  5063  0007D4  EF00  F004         	goto	i2l1217
  5064  0007D8                     i2u7970:
  5065  0007D8  0E58               	movlw	(058h)&0ffh
  5066  0007DA  0101               	movlb	1	; () banked
  5067  0007DC  0101               	movlb	1	; () banked
  5068  0007DE  6117               	cpfslt	((getNote@lResult))&0ffh
  5069  0007E0  EFF4  F003         	goto	i2u7981
  5070  0007E4  EFF6  F003         	goto	i2u7980
  5071  0007E8                     i2u7981:
  5072  0007E8  EF00  F004         	goto	i2l1217
  5073  0007EC                     i2u7980:
  5074                           	line	1224
  5075                           ;main.c: 1224: new_note = 0x13;
  5076  0007EC  0101               	movlb	1	; () banked
  5077  0007EE  6F19               	movwf	(??_getNote+1+0)&0ffh
  5078  0007F0  0E13               	movlw	low(013h)
  5079  0007F2  0101               	movlb	1	; () banked
  5080  0007F4  0101               	movlb	1	; () banked
  5081  0007F6  6F18               	movwf	((getNote@new_note))&0ffh
  5082  0007F8  0101               	movlb	1	; () banked
  5083  0007FA  5119               	movf	(??_getNote+1+0)&0ffh,w
  5084                           	line	1225
  5085                           ;main.c: 1225: } else if (lResult >= 138 && lRes
                                 ult <= 200) {
  5086  0007FC  EF44  F004         	goto	i2l1199
  5087                           	
  5088  000800                     i2l1217:		; BSR set to: ?
  5089                           
  5090  000800  0E89               	movlw	(08Ah-1)
  5091  000802  0101               	movlb	1	; () banked
  5092  000804  0101               	movlb	1	; () banked
  5093  000806  6517               	cpfsgt	((getNote@lResult))&0ffh
  5094  000808  EF08  F004         	goto	i2u7991
  5095  00080C  EF0A  F004         	goto	i2u7990
  5096  000810                     i2u7991:
  5097  000810  EF1E  F004         	goto	i2l1219
  5098  000814                     i2u7990:
  5099  000814  0EC9               	movlw	(0C9h)&0ffh
  5100  000816  0101               	movlb	1	; () banked
  5101  000818  0101               	movlb	1	; () banked
  5102  00081A  6117               	cpfslt	((getNote@lResult))&0ffh
  5103  00081C  EF12  F004         	goto	i2u8001
  5104  000820  EF14  F004         	goto	i2u8000
  5105  000824                     i2u8001:
  5106  000824  EF1E  F004         	goto	i2l1219
  5107  000828                     i2u8000:
  5108                           	line	1227
  5109                           ;main.c: 1227: new_note = 0x03;
  5110  000828  0101               	movlb	1	; () banked
  5111  00082A  6F19               	movwf	(??_getNote+1+0)&0ffh
  5112  00082C  0E03               	movlw	low(03h)
  5113  00082E  0101               	movlb	1	; () banked
  5114  000830  0101               	movlb	1	; () banked
  5115  000832  6F18               	movwf	((getNote@new_note))&0ffh
  5116  000834  0101               	movlb	1	; () banked
  5117  000836  5119               	movf	(??_getNote+1+0)&0ffh,w
  5118                           	line	1228
  5119                           ;main.c: 1228: } else if (lResult >= 212 && lRes
                                 ult <= 232) {
  5120  000838  EF44  F004         	goto	i2l1199
  5121                           	
  5122  00083C                     i2l1219:		; BSR set to: ?
  5123                           
  5124  00083C  0ED3               	movlw	(0D4h-1)
  5125  00083E  0101               	movlb	1	; () banked
  5126  000840  0101               	movlb	1	; () banked
  5127  000842  6517               	cpfsgt	((getNote@lResult))&0ffh
  5128  000844  EF26  F004         	goto	i2u8011
  5129  000848  EF28  F004         	goto	i2u8010
  5130  00084C                     i2u8011:
  5131  00084C  EF3C  F004         	goto	i2l1221
  5132  000850                     i2u8010:
  5133  000850  0EE9               	movlw	(0E9h)&0ffh
  5134  000852  0101               	movlb	1	; () banked
  5135  000854  0101               	movlb	1	; () banked
  5136  000856  6117               	cpfslt	((getNote@lResult))&0ffh
  5137  000858  EF30  F004         	goto	i2u8021
  5138  00085C  EF32  F004         	goto	i2u8020
  5139  000860                     i2u8021:
  5140  000860  EF3C  F004         	goto	i2l1221
  5141  000864                     i2u8020:
  5142                           	line	1230
  5143                           ;main.c: 1230: new_note = 0x0b;
  5144  000864  0101               	movlb	1	; () banked
  5145  000866  6F19               	movwf	(??_getNote+1+0)&0ffh
  5146  000868  0E0B               	movlw	low(0Bh)
  5147  00086A  0101               	movlb	1	; () banked
  5148  00086C  0101               	movlb	1	; () banked
  5149  00086E  6F18               	movwf	((getNote@new_note))&0ffh
  5150  000870  0101               	movlb	1	; () banked
  5151  000872  5119               	movf	(??_getNote+1+0)&0ffh,w
  5152                           	line	1231
  5153                           ;main.c: 1231: } else {
  5154  000874  EF44  F004         	goto	i2l1199
  5155                           	
  5156  000878                     i2l1221:		; BSR set to: ?
  5157                           
  5158                           	line	1233
  5159                           ;main.c: 1233: new_note = 0x00;
  5160  000878  0101               	movlb	1	; () banked
  5161  00087A  6F19               	movwf	(??_getNote+1+0)&0ffh
  5162  00087C  0E00               	movlw	low(0)
  5163  00087E  0101               	movlb	1	; () banked
  5164  000880  0101               	movlb	1	; () banked
  5165  000882  6F18               	movwf	((getNote@new_note))&0ffh
  5166  000884  0101               	movlb	1	; () banked
  5167  000886  5119               	movf	(??_getNote+1+0)&0ffh,w
  5168                           	line	1234
  5169                           	
  5170  000888                     i2l1222:		; BSR set to: ?
  5171                           
  5172                           	
  5173  000888                     i2l1220:		; BSR set to: ?
  5174                           
  5175                           	
  5176  000888                     i2l1218:		; BSR set to: ?
  5177                           
  5178                           	line	1235
  5179                           	
  5180  000888                     i2l1216:		; BSR set to: ?
  5181                           
  5182                           	line	1237
  5183                           	
  5184  000888                     i2l1215:		; BSR set to: ?
  5185                           
  5186                           	
  5187  000888                     i2l1207:		; BSR set to: ?
  5188                           
  5189                           	
  5190  000888                     i2l1199:		; BSR set to: ?
  5191                           
  5192                           ;main.c: 1234: }
  5193                           ;main.c: 1235: }
  5194                           ;main.c: 1237: } else if (adc_num == 3) {
  5195  000888  EFC6  F009         	goto	i2l1169
  5196                           	
  5197  00088C                     i2l1197:		; BSR set to: ?
  5198                           
  5199  00088C  5000               	movf	((c:0)),c,w	;volatile
  5200  00088E  0A03               	xorlw	3
  5201                           
  5202  000890  A4D8               	btfss	status,2
  5203  000892  EF4D  F004         	goto	i2u8031
  5204  000896  EF4F  F004         	goto	i2u8030
  5205  00089A                     i2u8031:
  5206  00089A  EFA4  F005         	goto	i2l1224
  5207  00089E                     i2u8030:
  5208                           	line	1238
  5209                           ;main.c: 1238: if (hResult == 0x00) {
  5210  00089E  0101               	movlb	1	; () banked
  5211  0008A0  0101               	movlb	1	; () banked
  5212+ 0008A2  6716               	tstfsz	((getNote@hResult))&0ffh
  5213+ 0008A4  EF56  F004         	goto	i2u8041
  5214+ 0008A8  EF58  F004         	goto	i2u8040
  5215+ 0008AC                     i2u8041:
  5216+ 0008AC  EF62  F004         	goto	i2l1225
  5217+ 0008B0                     i2u8040:
  5218+                          	line	1240
  5219+                          ;main.c: 1240: new_note = 0x00;
  5220+ 0008B0  0101               	movlb	1	; () banked
  5221+ 0008B2  6F19               	movwf	(??_getNote+1+0)&0ffh
  5222+ 0008B4  0E00               	movlw	low(0)
  5223+ 0008B6  0101               	movlb	1	; () banked
  5224+ 0008B8  0101               	movlb	1	; () banked
  5225+ 0008BA  6F18               	movwf	((getNote@new_note))&0ffh
  5226+ 0008BC  0101               	movlb	1	; () banked
  5227+ 0008BE  5119               	movf	(??_getNote+1+0)&0ffh,w
  5228+                          	line	1242
  5229+                          ;main.c: 1242: } else if (hResult == 0x01) {
  5230+ 0008C0  EFA2  F005         	goto	i2l1226
  5231+                          	
  5232+ 0008C4                     i2l1225:		; BSR set to: ?
  5233+                          
  5234+ 0008C4  0101               	movlb	1	; () banked
  5235+ 0008C6  0101               	movlb	1	; () banked
  5236+ 0008C8  0516               	decf	((getNote@hResult))&0ffh,w
  5237+                          
  5238+ 0008CA  A4D8               	btfss	status,2
  5239+ 0008CC  EF6A  F004         	goto	i2u8051
  5240+ 0008D0  EF6C  F004         	goto	i2u8050
  5241+ 0008D4                     i2u8051:
  5242+ 0008D4  EFD0  F004         	goto	i2l1227
  5243+ 0008D8                     i2u8050:
  5244+                          	line	1243
  5245+                          ;main.c: 1243: if (lResult >= 200 && lResult <= 
      +                          230) {
  5246+ 0008D8  0EC7               	movlw	(0C8h-1)
  5247+ 0008DA  0101               	movlb	1	; () banked
  5248+ 0008DC  0101               	movlb	1	; () banked
  5249+ 0008DE  6517               	cpfsgt	((getNote@lResult))&0ffh
  5250+ 0008E0  EF74  F004         	goto	i2u8061
  5251+ 0008E4  EF76  F004         	goto	i2u8060
  5252+ 0008E8                     i2u8061:
  5253+ 0008E8  EF8A  F004         	goto	i2l1228
  5254+ 0008EC                     i2u8060:
  5255+ 0008EC  0EE7               	movlw	(0E7h)&0ffh
  5256+ 0008EE  0101               	movlb	1	; () banked
  5257+ 0008F0  0101               	movlb	1	; () banked
  5258+ 0008F2  6117               	cpfslt	((getNote@lResult))&0ffh
  5259+ 0008F4  EF7E  F004         	goto	i2u8071
  5260+ 0008F8  EF80  F004         	goto	i2u8070
  5261+ 0008FC                     i2u8071:
  5262+ 0008FC  EF8A  F004         	goto	i2l1228
  5263+ 000900                     i2u8070:
  5264+                          	line	1245
  5265+                          ;main.c: 1245: new_note = 0x54;
  5266+ 000900  0101               	movlb	1	; () banked
  5267+ 000902  6F19               	movwf	(??_getNote+1+0)&0ffh
  5268+ 000904  0E54               	movlw	low(054h)
  5269+ 000906  0101               	movlb	1	; () banked
  5270+ 000908  0101               	movlb	1	; () banked
  5271+ 00090A  6F18               	movwf	((getNote@new_note))&0ffh
  5272+ 00090C  0101               	movlb	1	; () banked
  5273+ 00090E  5119               	movf	(??_getNote+1+0)&0ffh,w
  5274+                          	line	1246
  5275+                          ;main.c: 1246: } else if (lResult >= 130 && lRes
      +                          ult <= 180) {
  5276+ 000910  EFCE  F004         	goto	i2l1229
  5277+                          	
  5278+ 000914                     i2l1228:		; BSR set to: ?
  5279+                          
  5280+ 000914  0E81               	movlw	(082h-1)
  5281+ 000916  0101               	movlb	1	; () banked
  5282+ 000918  0101               	movlb	1	; () banked
  5283+ 00091A  6517               	cpfsgt	((getNote@lResult))&0ffh
  5284+ 00091C  EF92  F004         	goto	i2u8081
  5285+ 000920  EF94  F004         	goto	i2u8080
  5286+ 000924                     i2u8081:
  5287+ 000924  EFA8  F004         	goto	i2l1230
  5288+ 000928                     i2u8080:
  5289+ 000928  0EB5               	movlw	(0B5h)&0ffh
  5290+ 00092A  0101               	movlb	1	; () banked
  5291+ 00092C  0101               	movlb	1	; () banked
  5292+ 00092E  6117               	cpfslt	((getNote@lResult))&0ffh
  5293+ 000930  EF9C  F004         	goto	i2u8091
  5294+ 000934  EF9E  F004         	goto	i2u8090
  5295+ 000938                     i2u8091:
  5296+ 000938  EFA8  F004         	goto	i2l1230
  5297+ 00093C                     i2u8090:
  5298+                          	line	1248
  5299+                          ;main.c: 1248: new_note = 0x44;
  5300+ 00093C  0101               	movlb	1	; () banked
  5301+ 00093E  6F19               	movwf	(??_getNote+1+0)&0ffh
  5302+ 000940  0E44               	movlw	low(044h)
  5303+ 000942  0101               	movlb	1	; () banked
  5304+ 000944  0101               	movlb	1	; () banked
  5305+ 000946  6F18               	movwf	((getNote@new_note))&0ffh
  5306+ 000948  0101               	movlb	1	; () banked
  5307+ 00094A  5119               	movf	(??_getNote+1+0)&0ffh,w
  5308+                          	line	1249
  5309+                          ;main.c: 1249: } else if (lResult >= 90 && lResu
      +                          lt <= 120) {
  5310+ 00094C  EFCE  F004         	goto	i2l1229
  5311+                          	
  5312+ 000950                     i2l1230:		; BSR set to: ?
  5313+                          
  5314+ 000950  0E59               	movlw	(05Ah-1)
  5315+ 000952  0101               	movlb	1	; () banked
  5316+ 000954  0101               	movlb	1	; () banked
  5317+ 000956  6517               	cpfsgt	((getNote@lResult))&0ffh
  5318+ 000958  EFB0  F004         	goto	i2u8101
  5319+ 00095C  EFB2  F004         	goto	i2u8100
  5320+ 000960                     i2u8101:
  5321+ 000960  EFC6  F004         	goto	i2l1232
  5322+ 000964                     i2u8100:
  5323+ 000964  0E79               	movlw	(079h)&0ffh
  5324+ 000966  0101               	movlb	1	; () banked
  5325+ 000968  0101               	movlb	1	; () banked
  5326+ 00096A  6117               	cpfslt	((getNote@lResult))&0ffh
  5327+ 00096C  EFBA  F004         	goto	i2u8111
  5328+ 000970  EFBC  F004         	goto	i2u8110
  5329+ 000974                     i2u8111:
  5330+ 000974  EFC6  F004         	goto	i2l1232
  5331+ 000978                     i2u8110:
  5332+                          	line	1251
  5333+                          ;main.c: 1251: new_note = 0x4c;
  5334+ 000978  0101               	movlb	1	; () banked
  5335+ 00097A  6F19               	movwf	(??_getNote+1+0)&0ffh
  5336+ 00097C  0E4C               	movlw	low(04Ch)
  5337+ 00097E  0101               	movlb	1	; () banked
  5338+ 000980  0101               	movlb	1	; () banked
  5339+ 000982  6F18               	movwf	((getNote@new_note))&0ffh
  5340+ 000984  0101               	movlb	1	; () banked
  5341+ 000986  5119               	movf	(??_getNote+1+0)&0ffh,w
  5342+                          	line	1252
  5343+                          ;main.c: 1252: } else {
  5344+ 000988  EFCE  F004         	goto	i2l1229
  5345+                          	
  5346+ 00098C                     i2l1232:		; BSR set to: ?
  5347+                          
  5348+                          	line	1254
  5349+                          ;main.c: 1254: new_note = 0x00;
  5350+ 00098C  0101               	movlb	1	; () banked
  5351+ 00098E  6F19               	movwf	(??_getNote+1+0)&0ffh
  5352+ 000990  0E00               	movlw	low(0)
  5353+ 000992  0101               	movlb	1	; () banked
  5354+ 000994  0101               	movlb	1	; () banked
  5355+ 000996  6F18               	movwf	((getNote@new_note))&0ffh
  5356+ 000998  0101               	movlb	1	; () banked
  5357+ 00099A  5119               	movf	(??_getNote+1+0)&0ffh,w
  5358+                          	line	1255
  5359+                          	
  5360+ 00099C                     i2l1233:		; BSR set to: ?
  5361+                          
  5362+                          	
  5363+ 00099C                     i2l1231:		; BSR set to: ?
  5364+                          
  5365+                          	
  5366+ 00099C                     i2l1229:		; BSR set to: ?
  5367+                          
  5368+                          	line	1257
  5369+                          ;main.c: 1255: }
  5370+                          ;main.c: 1257: } else if (hResult == 0x02) {
  5371+ 00099C  EFA2  F005         	goto	i2l1226
  5372+                          	
  5373+ 0009A0                     i2l1227:		; BSR set to: ?
  5374+                          
  5375+ 0009A0  0101               	movlb	1	; () banked
  5376+ 0009A2  0101               	movlb	1	; () banked
  5377+ 0009A4  5116               	movf	((getNote@hResult))&0ffh,w
  5378+ 0009A6  0A02               	xorlw	2
  5379+                          
  5380+ 0009A8  A4D8               	btfss	status,2
  5381+ 0009AA  EFD9  F004         	goto	i2u8121
  5382+ 0009AE  EFDB  F004         	goto	i2u8120
  5383+ 0009B2                     i2u8121:
  5384+ 0009B2  EF35  F005         	goto	i2l1235
  5385+ 0009B6                     i2u8120:
  5386+                          	line	1258
  5387+                          ;main.c: 1258: if (lResult >= 203 && lResult <= 
      +                          255) {
  5388+ 0009B6  0ECA               	movlw	(0CBh-1)
  5389+ 0009B8  0101               	movlb	1	; () banked
  5390+ 0009BA  0101               	movlb	1	; () banked
  5391+ 0009BC  6517               	cpfsgt	((getNote@lResult))&0ffh
  5392+ 0009BE  EFE3  F004         	goto	i2u8131
  5393+ 0009C2  EFE5  F004         	goto	i2u8130
  5394+ 0009C6                     i2u8131:
  5395+ 0009C6  EFEF  F004         	goto	i2l1236
  5396+ 0009CA                     i2u8130:
  5397+                          	line	1260
  5398+                          ;main.c: 1260: new_note = 0x34;
  5399+ 0009CA  0101               	movlb	1	; () banked
  5400+ 0009CC  6F19               	movwf	(??_getNote+1+0)&0ffh
  5401+ 0009CE  0E34               	movlw	low(034h)
  5402+ 0009D0  0101               	movlb	1	; () banked
  5403+ 0009D2  0101               	movlb	1	; () banked
  5404+ 0009D4  6F18               	movwf	((getNote@new_note))&0ffh
  5405+ 0009D6  0101               	movlb	1	; () banked
  5406+ 0009D8  5119               	movf	(??_getNote+1+0)&0ffh,w
  5407+                          	line	1261
  5408+                          ;main.c: 1261: } else if (lResult >= 130 && lRes
      +                          ult <= 167) {
  5409+ 0009DA  EF33  F005         	goto	i2l1237
  5410+                          	
  5411+ 0009DE                     i2l1236:		; BSR set to: ?
  5412+                          
  5413+ 0009DE  0E81               	movlw	(082h-1)
  5414+ 0009E0  0101               	movlb	1	; () banked
  5415+ 0009E2  0101               	movlb	1	; () banked
  5416+ 0009E4  6517               	cpfsgt	((getNote@lResult))&0ffh
  5417+ 0009E6  EFF7  F004         	goto	i2u8141
  5418+ 0009EA  EFF9  F004         	goto	i2u8140
  5419+ 0009EE                     i2u8141:
  5420+ 0009EE  EF0D  F005         	goto	i2l1238
  5421+ 0009F2                     i2u8140:
  5422+ 0009F2  0EA8               	movlw	(0A8h)&0ffh
  5423+ 0009F4  0101               	movlb	1	; () banked
  5424+ 0009F6  0101               	movlb	1	; () banked
  5425+ 0009F8  6117               	cpfslt	((getNote@lResult))&0ffh
  5426+ 0009FA  EF01  F005         	goto	i2u8151
  5427+ 0009FE  EF03  F005         	goto	i2u8150
  5428+ 000A02                     i2u8151:
  5429+ 000A02  EF0D  F005         	goto	i2l1238
  5430+ 000A06                     i2u8150:
  5431+                          	line	1263
  5432+                          ;main.c: 1263: new_note = 0x24;
  5433+ 000A06  0101               	movlb	1	; () banked
  5434+ 000A08  6F19               	movwf	(??_getNote+1+0)&0ffh
  5435+ 000A0A  0E24               	movlw	low(024h)
  5436+ 000A0C  0101               	movlb	1	; () banked
  5437+ 000A0E  0101               	movlb	1	; () banked
  5438+ 000A10  6F18               	movwf	((getNote@new_note))&0ffh
  5439+ 000A12  0101               	movlb	1	; () banked
  5440+ 000A14  5119               	movf	(??_getNote+1+0)&0ffh,w
  5441+                          	line	1264
  5442+                          ;main.c: 1264: } else if (lResult >= 87 && lResu
      +                          lt <= 124) {
  5443+ 000A16  EF33  F005         	goto	i2l1237
  5444+                          	
  5445+ 000A1A                     i2l1238:		; BSR set to: ?
  5446+                          
  5447+ 000A1A  0E56               	movlw	(057h-1)
  5448+ 000A1C  0101               	movlb	1	; () banked
  5449+ 000A1E  0101               	movlb	1	; () banked
  5450+ 000A20  6517               	cpfsgt	((getNote@lResult))&0ffh
  5451+ 000A22  EF15  F005         	goto	i2u8161
  5452+ 000A26  EF17  F005         	goto	i2u8160
  5453+ 000A2A                     i2u8161:
  5454+ 000A2A  EF2B  F005         	goto	i2l1240
  5455+ 000A2E                     i2u8160:
  5456+ 000A2E  0E7D               	movlw	(07Dh)&0ffh
  5457+ 000A30  0101               	movlb	1	; () banked
  5458+ 000A32  0101               	movlb	1	; () banked
  5459+ 000A34  6117               	cpfslt	((getNote@lResult))&0ffh
  5460+ 000A36  EF1F  F005         	goto	i2u8171
  5461+ 000A3A  EF21  F005         	goto	i2u8170
  5462+ 000A3E                     i2u8171:
  5463+ 000A3E  EF2B  F005         	goto	i2l1240
  5464+ 000A42                     i2u8170:
  5465+                          	line	1266
  5466+                          ;main.c: 1266: new_note = 0x2c;
  5467+ 000A42  0101               	movlb	1	; () banked
  5468+ 000A44  6F19               	movwf	(??_getNote+1+0)&0ffh
  5469+ 000A46  0E2C               	movlw	low(02Ch)
  5470+ 000A48  0101               	movlb	1	; () banked
  5471+ 000A4A  0101               	movlb	1	; () banked
  5472+ 000A4C  6F18               	movwf	((getNote@new_note))&0ffh
  5473+ 000A4E  0101               	movlb	1	; () banked
  5474+ 000A50  5119               	movf	(??_getNote+1+0)&0ffh,w
  5475+                          	line	1267
  5476+                          ;main.c: 1267: } else {
  5477+ 000A52  EF33  F005         	goto	i2l1237
  5478+                          	
  5479+ 000A56                     i2l1240:		; BSR set to: ?
  5480+                          
  5481+                          	line	1269
  5482+                          ;main.c: 1269: new_note = 0x00;
  5483+ 000A56  0101               	movlb	1	; () banked
  5484+ 000A58  6F19               	movwf	(??_getNote+1+0)&0ffh
  5485+ 000A5A  0E00               	movlw	low(0)
  5486+ 000A5C  0101               	movlb	1	; () banked
  5487+ 000A5E  0101               	movlb	1	; () banked
  5488+ 000A60  6F18               	movwf	((getNote@new_note))&0ffh
  5489+ 000A62  0101               	movlb	1	; () banked
  5490+ 000A64  5119               	movf	(??_getNote+1+0)&0ffh,w
  5491+                          	line	1270
  5492+                          	
  5493+ 000A66                     i2l1241:		; BSR set to: ?
  5494+                          
  5495+                          	
  5496+ 000A66                     i2l1239:		; BSR set to: ?
  5497+                          
  5498+                          	
  5499+ 000A66                     i2l1237:		; BSR set to: ?
  5500+                          
  5501+                          	line	1272
  5502+                          ;main.c: 1270: }
  5503+                          ;main.c: 1272: } else if (hResult == 0x03) {
  5504+ 000A66  EFA2  F005         	goto	i2l1226
  5505+                          	
  5506+ 000A6A                     i2l1235:		; BSR set to: ?
  5507+                          
  5508+ 000A6A  0101               	movlb	1	; () banked
  5509+ 000A6C  0101               	movlb	1	; () banked
  5510+ 000A6E  5116               	movf	((getNote@hResult))&0ffh,w
  5511+ 000A70  0A03               	xorlw	3
  5512+                          
  5513+ 000A72  A4D8               	btfss	status,2
  5514+ 000A74  EF3E  F005         	goto	i2u8181
  5515+ 000A78  EF40  F005         	goto	i2u8180
  5516+ 000A7C                     i2u8181:
  5517+ 000A7C  EFA2  F005         	goto	i2l1226
  5518+ 000A80                     i2u8180:
  5519+                          	line	1273
  5520+                          ;main.c: 1273: if (lResult >= 60 && lResult <= 1
      +                          60) {
  5521+ 000A80  0E3B               	movlw	(03Ch-1)
  5522+ 000A82  0101               	movlb	1	; () banked
  5523+ 000A84  0101               	movlb	1	; () banked
  5524+ 000A86  6517               	cpfsgt	((getNote@lResult))&0ffh
  5525+ 000A88  EF48  F005         	goto	i2u8191
  5526+ 000A8C  EF4A  F005         	goto	i2u8190
  5527+ 000A90                     i2u8191:
  5528+ 000A90  EF5E  F005         	goto	i2l1244
  5529+ 000A94                     i2u8190:
  5530+ 000A94  0EA1               	movlw	(0A1h)&0ffh
  5531+ 000A96  0101               	movlb	1	; () banked
  5532+ 000A98  0101               	movlb	1	; () banked
  5533+ 000A9A  6117               	cpfslt	((getNote@lResult))&0ffh
  5534+ 000A9C  EF52  F005         	goto	i2u8201
  5535+ 000AA0  EF54  F005         	goto	i2u8200
  5536+ 000AA4                     i2u8201:
  5537+ 000AA4  EF5E  F005         	goto	i2l1244
  5538+ 000AA8                     i2u8200:
  5539+                          	line	1275
  5540+                          ;main.c: 1275: new_note = 0x14;
  5541+ 000AA8  0101               	movlb	1	; () banked
  5542+ 000AAA  6F19               	movwf	(??_getNote+1+0)&0ffh
  5543+ 000AAC  0E14               	movlw	low(014h)
  5544+ 000AAE  0101               	movlb	1	; () banked
  5545+ 000AB0  0101               	movlb	1	; () banked
  5546+ 000AB2  6F18               	movwf	((getNote@new_note))&0ffh
  5547+ 000AB4  0101               	movlb	1	; () banked
  5548+ 000AB6  5119               	movf	(??_getNote+1+0)&0ffh,w
  5549+                          	line	1276
  5550+                          ;main.c: 1276: } else if (lResult >= 145 && lRes
      +                          ult <= 205) {
  5551+ 000AB8  EFA2  F005         	goto	i2l1226
  5552+                          	
  5553+ 000ABC                     i2l1244:		; BSR set to: ?
  5554+                          
  5555+ 000ABC  0E90               	movlw	(091h-1)
  5556+ 000ABE  0101               	movlb	1	; () banked
  5557+ 000AC0  0101               	movlb	1	; () banked
  5558+ 000AC2  6517               	cpfsgt	((getNote@lResult))&0ffh
  5559+ 000AC4  EF66  F005         	goto	i2u8211
  5560+ 000AC8  EF68  F005         	goto	i2u8210
  5561+ 000ACC                     i2u8211:
  5562+ 000ACC  EF7C  F005         	goto	i2l1246
  5563+ 000AD0                     i2u8210:
  5564+ 000AD0  0ECE               	movlw	(0CEh)&0ffh
  5565+ 000AD2  0101               	movlb	1	; () banked
  5566+ 000AD4  0101               	movlb	1	; () banked
  5567+ 000AD6  6117               	cpfslt	((getNote@lResult))&0ffh
  5568+ 000AD8  EF70  F005         	goto	i2u8221
  5569+ 000ADC  EF72  F005         	goto	i2u8220
  5570+ 000AE0                     i2u8221:
  5571+ 000AE0  EF7C  F005         	goto	i2l1246
  5572+ 000AE4                     i2u8220:
  5573+                          	line	1278
  5574+                          ;main.c: 1278: new_note = 0x04;
  5575+ 000AE4  0101               	movlb	1	; () banked
  5576+ 000AE6  6F19               	movwf	(??_getNote+1+0)&0ffh
  5577+ 000AE8  0E04               	movlw	low(04h)
  5578+ 000AEA  0101               	movlb	1	; () banked
  5579+ 000AEC  0101               	movlb	1	; () banked
  5580+ 000AEE  6F18               	movwf	((getNote@new_note))&0ffh
  5581+ 000AF0  0101               	movlb	1	; () banked
  5582+ 000AF2  5119               	movf	(??_getNote+1+0)&0ffh,w
  5583+                          	line	1279
  5584+                          ;main.c: 1279: } else if (lResult >= 227 && lRes
      +                          ult <= 239) {
  5585+ 000AF4  EFA2  F005         	goto	i2l1226
  5586+                          	
  5587+ 000AF8                     i2l1246:		; BSR set to: ?
  5588+                          
  5589+ 000AF8  0EE2               	movlw	(0E3h-1)
  5590+ 000AFA  0101               	movlb	1	; () banked
  5591+ 000AFC  0101               	movlb	1	; () banked
  5592+ 000AFE  6517               	cpfsgt	((getNote@lResult))&0ffh
  5593+ 000B00  EF84  F005         	goto	i2u8231
  5594+ 000B04  EF86  F005         	goto	i2u8230
  5595+ 000B08                     i2u8231:
  5596+ 000B08  EF9A  F005         	goto	i2l1248
  5597+ 000B0C                     i2u8230:
  5598+ 000B0C  0EF0               	movlw	(0F0h)&0ffh
  5599+ 000B0E  0101               	movlb	1	; () banked
  5600+ 000B10  0101               	movlb	1	; () banked
  5601+ 000B12  6117               	cpfslt	((getNote@lResult))&0ffh
  5602+ 000B14  EF8E  F005         	goto	i2u8241
  5603+ 000B18  EF90  F005         	goto	i2u8240
  5604+ 000B1C                     i2u8241:
  5605+ 000B1C  EF9A  F005         	goto	i2l1248
  5606+ 000B20                     i2u8240:
  5607+                          	line	1281
  5608+                          ;main.c: 1281: new_note = 0x0c;
  5609+ 000B20  0101               	movlb	1	; () banked
  5610+ 000B22  6F19               	movwf	(??_getNote+1+0)&0ffh
  5611+ 000B24  0E0C               	movlw	low(0Ch)
  5612+ 000B26  0101               	movlb	1	; () banked
  5613+ 000B28  0101               	movlb	1	; () banked
  5614+ 000B2A  6F18               	movwf	((getNote@new_note))&0ffh
  5615+ 000B2C  0101               	movlb	1	; () banked
  5616+ 000B2E  5119               	movf	(??_getNote+1+0)&0ffh,w
  5617+                          	line	1282
  5618+                          ;main.c: 1282: } else {
  5619+ 000B30  EFA2  F005         	goto	i2l1226
  5620+                          	
  5621+ 000B34                     i2l1248:		; BSR set to: ?
  5622+                          
  5623+                          	line	1284
  5624+                          ;main.c: 1284: new_note = 0x00;
  5625+ 000B34  0101               	movlb	1	; () banked
  5626+ 000B36  6F19               	movwf	(??_getNote+1+0)&0ffh
  5627+ 000B38  0E00               	movlw	low(0)
  5628+ 000B3A  0101               	movlb	1	; () banked
  5629+ 000B3C  0101               	movlb	1	; () banked
  5630+ 000B3E  6F18               	movwf	((getNote@new_note))&0ffh
  5631+ 000B40  0101               	movlb	1	; () banked
  5632+ 000B42  5119               	movf	(??_getNote+1+0)&0ffh,w
  5633+                          	line	1285
  5634+                          	
  5635+ 000B44                     i2l1249:		; BSR set to: ?
  5636+                          
  5637+                          	
  5638+ 000B44                     i2l1247:		; BSR set to: ?
  5639+                          
  5640+                          	
  5641+ 000B44                     i2l1245:		; BSR set to: ?
  5642+                          
  5643+                          	line	1287
  5644+                          	
  5645+ 000B44                     i2l1243:		; BSR set to: ?
  5646+                          
  5647+                          	line	1289
  5648+                          	
  5649+ 000B44                     i2l1242:		; BSR set to: ?
  5650+                          
  5651+                          	
  5652+ 000B44                     i2l1234:		; BSR set to: ?
  5653+                          
  5654+                          	
  5655+ 000B44                     i2l1226:		; BSR set to: ?
  5656+                          
  5657+                          ;main.c: 1285: }
  5658+                          ;main.c: 1287: }
  5659+                          ;main.c: 1289: } else if (adc_num == 4) {
  5660+ 000B44  EFC6  F009         	goto	i2l1169
  5661+                          	
  5662+ 000B48                     i2l1224:		; BSR set to: ?
  5663+                          
  5664+ 000B48  5000               	movf	((c:0)),c,w	;volatile
  5665+ 000B4A  0A04               	xorlw	4
  5666+                          
  5667+ 000B4C  A4D8               	btfss	status,2
  5668+ 000B4E  EFAB  F005         	goto	i2u8251
  5669+ 000B52  EFAD  F005         	goto	i2u8250
  5670+ 000B56                     i2u8251:
  5671+ 000B56  EF02  F007         	goto	i2l1251
  5672+ 000B5A                     i2u8250:
  5673+                          	line	1290
  5674+                          ;main.c: 1290: if (hResult == 0x00) {
  5675+ 000B5A  0101               	movlb	1	; () banked
  5676+ 000B5C  0101               	movlb	1	; () banked
  5677+ 000B5E  6716               	tstfsz	((getNote@hResult))&0ffh
  5678+ 000B60  EFB4  F005         	goto	i2u8261
  5679+ 000B64  EFB6  F005         	goto	i2u8260
  5680+ 000B68                     i2u8261:
  5681+ 000B68  EFC0  F005         	goto	i2l1252
  5682+ 000B6C                     i2u8260:
  5683+                          	line	1292
  5684+                          ;main.c: 1292: new_note = 0x00;
  5685+ 000B6C  0101               	movlb	1	; () banked
  5686+ 000B6E  6F19               	movwf	(??_getNote+1+0)&0ffh
  5687+ 000B70  0E00               	movlw	low(0)
  5688+ 000B72  0101               	movlb	1	; () banked
  5689+ 000B74  0101               	movlb	1	; () banked
  5690+ 000B76  6F18               	movwf	((getNote@new_note))&0ffh
  5691+ 000B78  0101               	movlb	1	; () banked
  5692+ 000B7A  5119               	movf	(??_getNote+1+0)&0ffh,w
  5693+                          	line	1294
  5694+                          ;main.c: 1294: } else if (hResult == 0x01) {
  5695+ 000B7C  EF00  F007         	goto	i2l1253
  5696+                          	
  5697+ 000B80                     i2l1252:		; BSR set to: ?
  5698+                          
  5699+ 000B80  0101               	movlb	1	; () banked
  5700+ 000B82  0101               	movlb	1	; () banked
  5701+ 000B84  0516               	decf	((getNote@hResult))&0ffh,w
  5702+                          
  5703+ 000B86  A4D8               	btfss	status,2
  5704+ 000B88  EFC8  F005         	goto	i2u8271
  5705+ 000B8C  EFCA  F005         	goto	i2u8270
  5706+ 000B90                     i2u8271:
  5707+ 000B90  EF2E  F006         	goto	i2l1254
  5708+ 000B94                     i2u8270:
  5709+                          	line	1295
  5710+                          ;main.c: 1295: if (lResult >= 8 && lResult <= 69
      +                          ) {
  5711+ 000B94  0E07               	movlw	(08h-1)
  5712+ 000B96  0101               	movlb	1	; () banked
  5713+ 000B98  0101               	movlb	1	; () banked
  5714+ 000B9A  6517               	cpfsgt	((getNote@lResult))&0ffh
  5715+ 000B9C  EFD2  F005         	goto	i2u8281
  5716+ 000BA0  EFD4  F005         	goto	i2u8280
  5717+ 000BA4                     i2u8281:
  5718+ 000BA4  EFE8  F005         	goto	i2l1255
  5719+ 000BA8                     i2u8280:
  5720+ 000BA8  0E46               	movlw	(046h)&0ffh
  5721+ 000BAA  0101               	movlb	1	; () banked
  5722+ 000BAC  0101               	movlb	1	; () banked
  5723+ 000BAE  6117               	cpfslt	((getNote@lResult))&0ffh
  5724+ 000BB0  EFDC  F005         	goto	i2u8291
  5725+ 000BB4  EFDE  F005         	goto	i2u8290
  5726+ 000BB8                     i2u8291:
  5727+ 000BB8  EFE8  F005         	goto	i2l1255
  5728+ 000BBC                     i2u8290:
  5729+                          	line	1297
  5730+                          ;main.c: 1297: new_note = 0x55;
  5731+ 000BBC  0101               	movlb	1	; () banked
  5732+ 000BBE  6F19               	movwf	(??_getNote+1+0)&0ffh
  5733+ 000BC0  0E55               	movlw	low(055h)
  5734+ 000BC2  0101               	movlb	1	; () banked
  5735+ 000BC4  0101               	movlb	1	; () banked
  5736+ 000BC6  6F18               	movwf	((getNote@new_note))&0ffh
  5737+ 000BC8  0101               	movlb	1	; () banked
  5738+ 000BCA  5119               	movf	(??_getNote+1+0)&0ffh,w
  5739+                          	line	1298
  5740+                          ;main.c: 1298: } else if (lResult >= 96 && lResu
      +                          lt <= 210) {
  5741+ 000BCC  EF2C  F006         	goto	i2l1256
  5742+                          	
  5743+ 000BD0                     i2l1255:		; BSR set to: ?
  5744+                          
  5745+ 000BD0  0E5F               	movlw	(060h-1)
  5746+ 000BD2  0101               	movlb	1	; () banked
  5747+ 000BD4  0101               	movlb	1	; () banked
  5748+ 000BD6  6517               	cpfsgt	((getNote@lResult))&0ffh
  5749+ 000BD8  EFF0  F005         	goto	i2u8301
  5750+ 000BDC  EFF2  F005         	goto	i2u8300
  5751+ 000BE0                     i2u8301:
  5752+ 000BE0  EF06  F006         	goto	i2l1257
  5753+ 000BE4                     i2u8300:
  5754+ 000BE4  0ED3               	movlw	(0D3h)&0ffh
  5755+ 000BE6  0101               	movlb	1	; () banked
  5756+ 000BE8  0101               	movlb	1	; () banked
  5757+ 000BEA  6117               	cpfslt	((getNote@lResult))&0ffh
  5758+ 000BEC  EFFA  F005         	goto	i2u8311
  5759+ 000BF0  EFFC  F005         	goto	i2u8310
  5760+ 000BF4                     i2u8311:
  5761+ 000BF4  EF06  F006         	goto	i2l1257
  5762+ 000BF8                     i2u8310:
  5763+                          	line	1300
  5764+                          ;main.c: 1300: new_note = 0x45;
  5765+ 000BF8  0101               	movlb	1	; () banked
  5766+ 000BFA  6F19               	movwf	(??_getNote+1+0)&0ffh
  5767+ 000BFC  0E45               	movlw	low(045h)
  5768+ 000BFE  0101               	movlb	1	; () banked
  5769+ 000C00  0101               	movlb	1	; () banked
  5770+ 000C02  6F18               	movwf	((getNote@new_note))&0ffh
  5771+ 000C04  0101               	movlb	1	; () banked
  5772+ 000C06  5119               	movf	(??_getNote+1+0)&0ffh,w
  5773+                          	line	1301
  5774+                          ;main.c: 1301: } else if (lResult >= 214 && lRes
      +                          ult <= 227) {
  5775+ 000C08  EF2C  F006         	goto	i2l1256
  5776+                          	
  5777+ 000C0C                     i2l1257:		; BSR set to: ?
  5778+                          
  5779+ 000C0C  0ED5               	movlw	(0D6h-1)
  5780+ 000C0E  0101               	movlb	1	; () banked
  5781+ 000C10  0101               	movlb	1	; () banked
  5782+ 000C12  6517               	cpfsgt	((getNote@lResult))&0ffh
  5783+ 000C14  EF0E  F006         	goto	i2u8321
  5784+ 000C18  EF10  F006         	goto	i2u8320
  5785+ 000C1C                     i2u8321:
  5786+ 000C1C  EF24  F006         	goto	i2l1259
  5787+ 000C20                     i2u8320:
  5788+ 000C20  0EE4               	movlw	(0E4h)&0ffh
  5789+ 000C22  0101               	movlb	1	; () banked
  5790+ 000C24  0101               	movlb	1	; () banked
  5791+ 000C26  6117               	cpfslt	((getNote@lResult))&0ffh
  5792+ 000C28  EF18  F006         	goto	i2u8331
  5793+ 000C2C  EF1A  F006         	goto	i2u8330
  5794+ 000C30                     i2u8331:
  5795+ 000C30  EF24  F006         	goto	i2l1259
  5796+ 000C34                     i2u8330:
  5797+                          	line	1303
  5798+                          ;main.c: 1303: new_note = 0x4d;
  5799+ 000C34  0101               	movlb	1	; () banked
  5800+ 000C36  6F19               	movwf	(??_getNote+1+0)&0ffh
  5801+ 000C38  0E4D               	movlw	low(04Dh)
  5802+ 000C3A  0101               	movlb	1	; () banked
  5803+ 000C3C  0101               	movlb	1	; () banked
  5804+ 000C3E  6F18               	movwf	((getNote@new_note))&0ffh
  5805+ 000C40  0101               	movlb	1	; () banked
  5806+ 000C42  5119               	movf	(??_getNote+1+0)&0ffh,w
  5807+                          	line	1304
  5808+                          ;main.c: 1304: } else {
  5809+ 000C44  EF2C  F006         	goto	i2l1256
  5810+                          	
  5811+ 000C48                     i2l1259:		; BSR set to: ?
  5812+                          
  5813+                          	line	1306
  5814+                          ;main.c: 1306: new_note = 0x00;
  5815+ 000C48  0101               	movlb	1	; () banked
  5816+ 000C4A  6F19               	movwf	(??_getNote+1+0)&0ffh
  5817+ 000C4C  0E00               	movlw	low(0)
  5818+ 000C4E  0101               	movlb	1	; () banked
  5819+ 000C50  0101               	movlb	1	; () banked
  5820+ 000C52  6F18               	movwf	((getNote@new_note))&0ffh
  5821+ 000C54  0101               	movlb	1	; () banked
  5822+ 000C56  5119               	movf	(??_getNote+1+0)&0ffh,w
  5823+                          	line	1307
  5824+                          	
  5825+ 000C58                     i2l1260:		; BSR set to: ?
  5826+                          
  5827+                          	
  5828+ 000C58                     i2l1258:		; BSR set to: ?
  5829+                          
  5830+                          	
  5831+ 000C58                     i2l1256:		; BSR set to: ?
  5832+                          
  5833+                          	line	1309
  5834+                          ;main.c: 1307: }
  5835+                          ;main.c: 1309: } else if (hResult == 0x02) {
  5836+ 000C58  EF00  F007         	goto	i2l1253
  5837+                          	
  5838+ 000C5C                     i2l1254:		; BSR set to: ?
  5839+                          
  5840+ 000C5C  0101               	movlb	1	; () banked
  5841+ 000C5E  0101               	movlb	1	; () banked
  5842+ 000C60  5116               	movf	((getNote@hResult))&0ffh,w
  5843+ 000C62  0A02               	xorlw	2
  5844+                          
  5845+ 000C64  A4D8               	btfss	status,2
  5846+ 000C66  EF37  F006         	goto	i2u8341
  5847+ 000C6A  EF39  F006         	goto	i2u8340
  5848+ 000C6E                     i2u8341:
  5849+ 000C6E  EF93  F006         	goto	i2l1262
  5850+ 000C72                     i2u8340:
  5851+                          	line	1310
  5852+                          ;main.c: 1310: if (lResult >= 217 && lResult <= 
      +                          255) {
  5853+ 000C72  0ED8               	movlw	(0D9h-1)
  5854+ 000C74  0101               	movlb	1	; () banked
  5855+ 000C76  0101               	movlb	1	; () banked
  5856+ 000C78  6517               	cpfsgt	((getNote@lResult))&0ffh
  5857+ 000C7A  EF41  F006         	goto	i2u8351
  5858+ 000C7E  EF43  F006         	goto	i2u8350
  5859+ 000C82                     i2u8351:
  5860+ 000C82  EF4D  F006         	goto	i2l1263
  5861+ 000C86                     i2u8350:
  5862+                          	line	1312
  5863+                          ;main.c: 1312: new_note = 0x35;
  5864+ 000C86  0101               	movlb	1	; () banked
  5865+ 000C88  6F19               	movwf	(??_getNote+1+0)&0ffh
  5866+ 000C8A  0E35               	movlw	low(035h)
  5867+ 000C8C  0101               	movlb	1	; () banked
  5868+ 000C8E  0101               	movlb	1	; () banked
  5869+ 000C90  6F18               	movwf	((getNote@new_note))&0ffh
  5870+ 000C92  0101               	movlb	1	; () banked
  5871+ 000C94  5119               	movf	(??_getNote+1+0)&0ffh,w
  5872+                          	line	1313
  5873+                          ;main.c: 1313: } else if (lResult >= 154 && lRes
      +                          ult <= 202) {
  5874+ 000C96  EF91  F006         	goto	i2l1264
  5875+                          	
  5876+ 000C9A                     i2l1263:		; BSR set to: ?
  5877+                          
  5878+ 000C9A  0E99               	movlw	(09Ah-1)
  5879+ 000C9C  0101               	movlb	1	; () banked
  5880+ 000C9E  0101               	movlb	1	; () banked
  5881+ 000CA0  6517               	cpfsgt	((getNote@lResult))&0ffh
  5882+ 000CA2  EF55  F006         	goto	i2u8361
  5883+ 000CA6  EF57  F006         	goto	i2u8360
  5884+ 000CAA                     i2u8361:
  5885+ 000CAA  EF6B  F006         	goto	i2l1265
  5886+ 000CAE                     i2u8360:
  5887+ 000CAE  0ECB               	movlw	(0CBh)&0ffh
  5888+ 000CB0  0101               	movlb	1	; () banked
  5889+ 000CB2  0101               	movlb	1	; () banked
  5890+ 000CB4  6117               	cpfslt	((getNote@lResult))&0ffh
  5891+ 000CB6  EF5F  F006         	goto	i2u8371
  5892+ 000CBA  EF61  F006         	goto	i2u8370
  5893+ 000CBE                     i2u8371:
  5894+ 000CBE  EF6B  F006         	goto	i2l1265
  5895+ 000CC2                     i2u8370:
  5896+                          	line	1315
  5897+                          ;main.c: 1315: new_note = 0x25;
  5898+ 000CC2  0101               	movlb	1	; () banked
  5899+ 000CC4  6F19               	movwf	(??_getNote+1+0)&0ffh
  5900+ 000CC6  0E25               	movlw	low(025h)
  5901+ 000CC8  0101               	movlb	1	; () banked
  5902+ 000CCA  0101               	movlb	1	; () banked
  5903+ 000CCC  6F18               	movwf	((getNote@new_note))&0ffh
  5904+ 000CCE  0101               	movlb	1	; () banked
  5905+ 000CD0  5119               	movf	(??_getNote+1+0)&0ffh,w
  5906+                          	line	1316
  5907+                          ;main.c: 1316: } else if (lResult >= 115 && lRes
      +                          ult <= 145) {
  5908+ 000CD2  EF91  F006         	goto	i2l1264
  5909+                          	
  5910+ 000CD6                     i2l1265:		; BSR set to: ?
  5911+                          
  5912+ 000CD6  0E72               	movlw	(073h-1)
  5913+ 000CD8  0101               	movlb	1	; () banked
  5914+ 000CDA  0101               	movlb	1	; () banked
  5915+ 000CDC  6517               	cpfsgt	((getNote@lResult))&0ffh
  5916+ 000CDE  EF73  F006         	goto	i2u8381
  5917+ 000CE2  EF75  F006         	goto	i2u8380
  5918+ 000CE6                     i2u8381:
  5919+ 000CE6  EF89  F006         	goto	i2l1267
  5920+ 000CEA                     i2u8380:
  5921+ 000CEA  0E92               	movlw	(092h)&0ffh
  5922+ 000CEC  0101               	movlb	1	; () banked
  5923+ 000CEE  0101               	movlb	1	; () banked
  5924+ 000CF0  6117               	cpfslt	((getNote@lResult))&0ffh
  5925+ 000CF2  EF7D  F006         	goto	i2u8391
  5926+ 000CF6  EF7F  F006         	goto	i2u8390
  5927+ 000CFA                     i2u8391:
  5928+ 000CFA  EF89  F006         	goto	i2l1267
  5929+ 000CFE                     i2u8390:
  5930+                          	line	1318
  5931+                          ;main.c: 1318: new_note = 0x2d;
  5932+ 000CFE  0101               	movlb	1	; () banked
  5933+ 000D00  6F19               	movwf	(??_getNote+1+0)&0ffh
  5934+ 000D02  0E2D               	movlw	low(02Dh)
  5935+ 000D04  0101               	movlb	1	; () banked
  5936+ 000D06  0101               	movlb	1	; () banked
  5937+ 000D08  6F18               	movwf	((getNote@new_note))&0ffh
  5938+ 000D0A  0101               	movlb	1	; () banked
  5939+ 000D0C  5119               	movf	(??_getNote+1+0)&0ffh,w
  5940+                          	line	1319
  5941+                          ;main.c: 1319: } else {
  5942+ 000D0E  EF91  F006         	goto	i2l1264
  5943+                          	
  5944+ 000D12                     i2l1267:		; BSR set to: ?
  5945+                          
  5946+                          	line	1321
  5947+                          ;main.c: 1321: new_note = 0x00;
  5948+ 000D12  0101               	movlb	1	; () banked
  5949+ 000D14  6F19               	movwf	(??_getNote+1+0)&0ffh
  5950+ 000D16  0E00               	movlw	low(0)
  5951+ 000D18  0101               	movlb	1	; () banked
  5952+ 000D1A  0101               	movlb	1	; () banked
  5953+ 000D1C  6F18               	movwf	((getNote@new_note))&0ffh
  5954+ 000D1E  0101               	movlb	1	; () banked
  5955+ 000D20  5119               	movf	(??_getNote+1+0)&0ffh,w
  5956+                          	line	1322
  5957+                          	
  5958+ 000D22                     i2l1268:		; BSR set to: ?
  5959+                          
  5960+                          	
  5961+ 000D22                     i2l1266:		; BSR set to: ?
  5962+                          
  5963+                          	
  5964+ 000D22                     i2l1264:		; BSR set to: ?
  5965+                          
  5966+                          	line	1324
  5967+                          ;main.c: 1322: }
  5968+                          ;main.c: 1324: } else if (hResult == 0x03) {
  5969+ 000D22  EF00  F007         	goto	i2l1253
  5970+                          	
  5971+ 000D26                     i2l1262:		; BSR set to: ?
  5972+                          
  5973+ 000D26  0101               	movlb	1	; () banked
  5974+ 000D28  0101               	movlb	1	; () banked
  5975+ 000D2A  5116               	movf	((getNote@hResult))&0ffh,w
  5976+ 000D2C  0A03               	xorlw	3
  5977+                          
  5978+ 000D2E  A4D8               	btfss	status,2
  5979+ 000D30  EF9C  F006         	goto	i2u8401
  5980+ 000D34  EF9E  F006         	goto	i2u8400
  5981+ 000D38                     i2u8401:
  5982+ 000D38  EF00  F007         	goto	i2l1253
  5983+ 000D3C                     i2u8400:
  5984+                          	line	1325
  5985+                          ;main.c: 1325: if (lResult >= 227 && lResult <= 
      +                          240) {
  5986+ 000D3C  0EE2               	movlw	(0E3h-1)
  5987+ 000D3E  0101               	movlb	1	; () banked
  5988+ 000D40  0101               	movlb	1	; () banked
  5989+ 000D42  6517               	cpfsgt	((getNote@lResult))&0ffh
  5990+ 000D44  EFA6  F006         	goto	i2u8411
  5991+ 000D48  EFA8  F006         	goto	i2u8410
  5992+ 000D4C                     i2u8411:
  5993+ 000D4C  EFBC  F006         	goto	i2l1271
  5994+ 000D50                     i2u8410:
  5995+ 000D50  0EF1               	movlw	(0F1h)&0ffh
  5996+ 000D52  0101               	movlb	1	; () banked
  5997+ 000D54  0101               	movlb	1	; () banked
  5998+ 000D56  6117               	cpfslt	((getNote@lResult))&0ffh
  5999+ 000D58  EFB0  F006         	goto	i2u8421
  6000+ 000D5C  EFB2  F006         	goto	i2u8420
  6001+ 000D60                     i2u8421:
  6002+ 000D60  EFBC  F006         	goto	i2l1271
  6003+ 000D64                     i2u8420:
  6004+                          	line	1327
  6005+                          ;main.c: 1327: new_note = 0x15;
  6006+ 000D64  0101               	movlb	1	; () banked
  6007+ 000D66  6F19               	movwf	(??_getNote+1+0)&0ffh
  6008+ 000D68  0E15               	movlw	low(015h)
  6009+ 000D6A  0101               	movlb	1	; () banked
  6010+ 000D6C  0101               	movlb	1	; () banked
  6011+ 000D6E  6F18               	movwf	((getNote@new_note))&0ffh
  6012+ 000D70  0101               	movlb	1	; () banked
  6013+ 000D72  5119               	movf	(??_getNote+1+0)&0ffh,w
  6014+                          	line	1328
  6015+                          ;main.c: 1328: } else if (lResult >= 180 && lRes
      +                          ult <= 210) {
  6016+ 000D74  EF00  F007         	goto	i2l1253
  6017+                          	
  6018+ 000D78                     i2l1271:		; BSR set to: ?
  6019+                          
  6020+ 000D78  0EB3               	movlw	(0B4h-1)
  6021+ 000D7A  0101               	movlb	1	; () banked
  6022+ 000D7C  0101               	movlb	1	; () banked
  6023+ 000D7E  6517               	cpfsgt	((getNote@lResult))&0ffh
  6024+ 000D80  EFC4  F006         	goto	i2u8431
  6025+ 000D84  EFC6  F006         	goto	i2u8430
  6026+ 000D88                     i2u8431:
  6027+ 000D88  EFDA  F006         	goto	i2l1273
  6028+ 000D8C                     i2u8430:
  6029+ 000D8C  0ED3               	movlw	(0D3h)&0ffh
  6030+ 000D8E  0101               	movlb	1	; () banked
  6031+ 000D90  0101               	movlb	1	; () banked
  6032+ 000D92  6117               	cpfslt	((getNote@lResult))&0ffh
  6033+ 000D94  EFCE  F006         	goto	i2u8441
  6034+ 000D98  EFD0  F006         	goto	i2u8440
  6035+ 000D9C                     i2u8441:
  6036+ 000D9C  EFDA  F006         	goto	i2l1273
  6037+ 000DA0                     i2u8440:
  6038+                          	line	1330
  6039+                          ;main.c: 1330: new_note = 0x05;
  6040+ 000DA0  0101               	movlb	1	; () banked
  6041+ 000DA2  6F19               	movwf	(??_getNote+1+0)&0ffh
  6042+ 000DA4  0E05               	movlw	low(05h)
  6043+ 000DA6  0101               	movlb	1	; () banked
  6044+ 000DA8  0101               	movlb	1	; () banked
  6045+ 000DAA  6F18               	movwf	((getNote@new_note))&0ffh
  6046+ 000DAC  0101               	movlb	1	; () banked
  6047+ 000DAE  5119               	movf	(??_getNote+1+0)&0ffh,w
  6048+                          	line	1331
  6049+                          ;main.c: 1331: } else if (lResult >= 90 && lResu
      +                          lt <= 165) {
  6050+ 000DB0  EF00  F007         	goto	i2l1253
  6051+                          	
  6052+ 000DB4                     i2l1273:		; BSR set to: ?
  6053+                          
  6054+ 000DB4  0E59               	movlw	(05Ah-1)
  6055+ 000DB6  0101               	movlb	1	; () banked
  6056+ 000DB8  0101               	movlb	1	; () banked
  6057+ 000DBA  6517               	cpfsgt	((getNote@lResult))&0ffh
  6058+ 000DBC  EFE2  F006         	goto	i2u8451
  6059+ 000DC0  EFE4  F006         	goto	i2u8450
  6060+ 000DC4                     i2u8451:
  6061+ 000DC4  EFF8  F006         	goto	i2l1275
  6062+ 000DC8                     i2u8450:
  6063+ 000DC8  0EA6               	movlw	(0A6h)&0ffh
  6064+ 000DCA  0101               	movlb	1	; () banked
  6065+ 000DCC  0101               	movlb	1	; () banked
  6066+ 000DCE  6117               	cpfslt	((getNote@lResult))&0ffh
  6067+ 000DD0  EFEC  F006         	goto	i2u8461
  6068+ 000DD4  EFEE  F006         	goto	i2u8460
  6069+ 000DD8                     i2u8461:
  6070+ 000DD8  EFF8  F006         	goto	i2l1275
  6071+ 000DDC                     i2u8460:
  6072+                          	line	1333
  6073+                          ;main.c: 1333: new_note = 0x0d;
  6074+ 000DDC  0101               	movlb	1	; () banked
  6075+ 000DDE  6F19               	movwf	(??_getNote+1+0)&0ffh
  6076+ 000DE0  0E0D               	movlw	low(0Dh)
  6077+ 000DE2  0101               	movlb	1	; () banked
  6078+ 000DE4  0101               	movlb	1	; () banked
  6079+ 000DE6  6F18               	movwf	((getNote@new_note))&0ffh
  6080+ 000DE8  0101               	movlb	1	; () banked
  6081+ 000DEA  5119               	movf	(??_getNote+1+0)&0ffh,w
  6082+                          	line	1334
  6083+                          ;main.c: 1334: } else {
  6084+ 000DEC  EF00  F007         	goto	i2l1253
  6085+                          	
  6086+ 000DF0                     i2l1275:		; BSR set to: ?
  6087+                          
  6088+                          	line	1336
  6089+                          ;main.c: 1336: new_note = 0x00;
  6090+ 000DF0  0101               	movlb	1	; () banked
  6091+ 000DF2  6F19               	movwf	(??_getNote+1+0)&0ffh
  6092+ 000DF4  0E00               	movlw	low(0)
  6093+ 000DF6  0101               	movlb	1	; () banked
  6094+ 000DF8  0101               	movlb	1	; () banked
  6095+ 000DFA  6F18               	movwf	((getNote@new_note))&0ffh
  6096+ 000DFC  0101               	movlb	1	; () banked
  6097+ 000DFE  5119               	movf	(??_getNote+1+0)&0ffh,w
  6098+                          	line	1337
  6099+                          	
  6100+ 000E00                     i2l1276:		; BSR set to: ?
  6101+                          
  6102+                          	
  6103+ 000E00                     i2l1274:		; BSR set to: ?
  6104+                          
  6105+                          	
  6106+ 000E00                     i2l1272:		; BSR set to: ?
  6107+                          
  6108+                          	line	1339
  6109+                          	
  6110+ 000E00                     i2l1270:		; BSR set to: ?
  6111+                          
  6112+                          	line	1341
  6113+                          	
  6114+ 000E00                     i2l1269:		; BSR set to: ?
  6115+                          
  6116+                          	
  6117+ 000E00                     i2l1261:		; BSR set to: ?
  6118+                          
  6119+                          	
  6120+ 000E00                     i2l1253:		; BSR set to: ?
  6121+                          
  6122+                          ;main.c: 1337: }
  6123+                          ;main.c: 1339: }
  6124+                          ;main.c: 1341: } else if (adc_num == 5) {
  6125+ 000E00  EFC6  F009         	goto	i2l1169
  6126+                          	
  6127+ 000E04                     i2l1251:		; BSR set to: ?
  6128+                          
  6129+ 000E04  5000               	movf	((c:0)),c,w	;volatile
  6130+ 000E06  0A05               	xorlw	5
  6131+                          
  6132+ 000E08  A4D8               	btfss	status,2
  6133+ 000E0A  EF09  F007         	goto	i2u8471
  6134+ 000E0E  EF0B  F007         	goto	i2u8470
  6135+ 000E12                     i2u8471:
  6136+ 000E12  EF60  F008         	goto	i2l1278
  6137+ 000E16                     i2u8470:
  6138+                          	line	1342
  6139+                          ;main.c: 1342: if (hResult == 0x00) {
  6140+ 000E16  0101               	movlb	1	; () banked
  6141+ 000E18  0101               	movlb	1	; () banked
  6142+ 000E1A  6716               	tstfsz	((getNote@hResult))&0ffh
  6143+ 000E1C  EF12  F007         	goto	i2u8481
  6144+ 000E20  EF14  F007         	goto	i2u8480
  6145+ 000E24                     i2u8481:
  6146+ 000E24  EF1E  F007         	goto	i2l1279
  6147+ 000E28                     i2u8480:
  6148+                          	line	1344
  6149+                          ;main.c: 1344: new_note = 0x00;
  6150+ 000E28  0101               	movlb	1	; () banked
  6151+ 000E2A  6F19               	movwf	(??_getNote+1+0)&0ffh
  6152+ 000E2C  0E00               	movlw	low(0)
  6153+ 000E2E  0101               	movlb	1	; () banked
  6154+ 000E30  0101               	movlb	1	; () banked
  6155+ 000E32  6F18               	movwf	((getNote@new_note))&0ffh
  6156+ 000E34  0101               	movlb	1	; () banked
  6157+ 000E36  5119               	movf	(??_getNote+1+0)&0ffh,w
  6158+                          	line	1346
  6159+                          ;main.c: 1346: } else if (hResult == 0x01) {
  6160+ 000E38  EF5E  F008         	goto	i2l1280
  6161+                          	
  6162+ 000E3C                     i2l1279:		; BSR set to: ?
  6163+                          
  6164+ 000E3C  0101               	movlb	1	; () banked
  6165+ 000E3E  0101               	movlb	1	; () banked
  6166+ 000E40  0516               	decf	((getNote@hResult))&0ffh,w
  6167+                          
  6168+ 000E42  A4D8               	btfss	status,2
  6169+ 000E44  EF26  F007         	goto	i2u8491
  6170+ 000E48  EF28  F007         	goto	i2u8490
  6171+ 000E4C                     i2u8491:
  6172+ 000E4C  EF8C  F007         	goto	i2l1281
  6173+ 000E50                     i2u8490:
  6174+                          	line	1347
  6175+                          ;main.c: 1347: if (lResult >= 148 && lResult <= 
      +                          174) {
  6176+ 000E50  0E93               	movlw	(094h-1)
  6177+ 000E52  0101               	movlb	1	; () banked
  6178+ 000E54  0101               	movlb	1	; () banked
  6179+ 000E56  6517               	cpfsgt	((getNote@lResult))&0ffh
  6180+ 000E58  EF30  F007         	goto	i2u8501
  6181+ 000E5C  EF32  F007         	goto	i2u8500
  6182+ 000E60                     i2u8501:
  6183+ 000E60  EF46  F007         	goto	i2l1282
  6184+ 000E64                     i2u8500:
  6185+ 000E64  0EAF               	movlw	(0AFh)&0ffh
  6186+ 000E66  0101               	movlb	1	; () banked
  6187+ 000E68  0101               	movlb	1	; () banked
  6188+ 000E6A  6117               	cpfslt	((getNote@lResult))&0ffh
  6189+ 000E6C  EF3A  F007         	goto	i2u8511
  6190+ 000E70  EF3C  F007         	goto	i2u8510
  6191+ 000E74                     i2u8511:
  6192+ 000E74  EF46  F007         	goto	i2l1282
  6193+ 000E78                     i2u8510:
  6194+                          	line	1349
  6195+                          ;main.c: 1349: new_note = 0x56;
  6196+ 000E78  0101               	movlb	1	; () banked
  6197+ 000E7A  6F19               	movwf	(??_getNote+1+0)&0ffh
  6198+ 000E7C  0E56               	movlw	low(056h)
  6199+ 000E7E  0101               	movlb	1	; () banked
  6200+ 000E80  0101               	movlb	1	; () banked
  6201+ 000E82  6F18               	movwf	((getNote@new_note))&0ffh
  6202+ 000E84  0101               	movlb	1	; () banked
  6203+ 000E86  5119               	movf	(??_getNote+1+0)&0ffh,w
  6204+                          	line	1350
  6205+                          ;main.c: 1350: } else if (lResult >= 89 && lResu
      +                          lt <= 120) {
  6206+ 000E88  EF8A  F007         	goto	i2l1283
  6207+                          	
  6208+ 000E8C                     i2l1282:		; BSR set to: ?
  6209+                          
  6210+ 000E8C  0E58               	movlw	(059h-1)
  6211+ 000E8E  0101               	movlb	1	; () banked
  6212+ 000E90  0101               	movlb	1	; () banked
  6213+ 000E92  6517               	cpfsgt	((getNote@lResult))&0ffh
  6214+ 000E94  EF4E  F007         	goto	i2u8521
  6215+ 000E98  EF50  F007         	goto	i2u8520
  6216+ 000E9C                     i2u8521:
  6217+ 000E9C  EF64  F007         	goto	i2l1284
  6218+ 000EA0                     i2u8520:
  6219+ 000EA0  0E79               	movlw	(079h)&0ffh
  6220+ 000EA2  0101               	movlb	1	; () banked
  6221+ 000EA4  0101               	movlb	1	; () banked
  6222+ 000EA6  6117               	cpfslt	((getNote@lResult))&0ffh
  6223+ 000EA8  EF58  F007         	goto	i2u8531
  6224+ 000EAC  EF5A  F007         	goto	i2u8530
  6225+ 000EB0                     i2u8531:
  6226+ 000EB0  EF64  F007         	goto	i2l1284
  6227+ 000EB4                     i2u8530:
  6228+                          	line	1352
  6229+                          ;main.c: 1352: new_note = 0x46;
  6230+ 000EB4  0101               	movlb	1	; () banked
  6231+ 000EB6  6F19               	movwf	(??_getNote+1+0)&0ffh
  6232+ 000EB8  0E46               	movlw	low(046h)
  6233+ 000EBA  0101               	movlb	1	; () banked
  6234+ 000EBC  0101               	movlb	1	; () banked
  6235+ 000EBE  6F18               	movwf	((getNote@new_note))&0ffh
  6236+ 000EC0  0101               	movlb	1	; () banked
  6237+ 000EC2  5119               	movf	(??_getNote+1+0)&0ffh,w
  6238+                          	line	1353
  6239+                          ;main.c: 1353: } else if (lResult >= 20 && lResu
      +                          lt <= 72) {
  6240+ 000EC4  EF8A  F007         	goto	i2l1283
  6241+                          	
  6242+ 000EC8                     i2l1284:		; BSR set to: ?
  6243+                          
  6244+ 000EC8  0E13               	movlw	(014h-1)
  6245+ 000ECA  0101               	movlb	1	; () banked
  6246+ 000ECC  0101               	movlb	1	; () banked
  6247+ 000ECE  6517               	cpfsgt	((getNote@lResult))&0ffh
  6248+ 000ED0  EF6C  F007         	goto	i2u8541
  6249+ 000ED4  EF6E  F007         	goto	i2u8540
  6250+ 000ED8                     i2u8541:
  6251+ 000ED8  EF82  F007         	goto	i2l1286
  6252+ 000EDC                     i2u8540:
  6253+ 000EDC  0E49               	movlw	(049h)&0ffh
  6254+ 000EDE  0101               	movlb	1	; () banked
  6255+ 000EE0  0101               	movlb	1	; () banked
  6256+ 000EE2  6117               	cpfslt	((getNote@lResult))&0ffh
  6257+ 000EE4  EF76  F007         	goto	i2u8551
  6258+ 000EE8  EF78  F007         	goto	i2u8550
  6259+ 000EEC                     i2u8551:
  6260+ 000EEC  EF82  F007         	goto	i2l1286
  6261+ 000EF0                     i2u8550:
  6262+                          	line	1355
  6263+                          ;main.c: 1355: new_note = 0x4e;
  6264+ 000EF0  0101               	movlb	1	; () banked
  6265+ 000EF2  6F19               	movwf	(??_getNote+1+0)&0ffh
  6266+ 000EF4  0E4E               	movlw	low(04Eh)
  6267+ 000EF6  0101               	movlb	1	; () banked
  6268+ 000EF8  0101               	movlb	1	; () banked
  6269+ 000EFA  6F18               	movwf	((getNote@new_note))&0ffh
  6270+ 000EFC  0101               	movlb	1	; () banked
  6271+ 000EFE  5119               	movf	(??_getNote+1+0)&0ffh,w
  6272+                          	line	1356
  6273+                          ;main.c: 1356: } else {
  6274+ 000F00  EF8A  F007         	goto	i2l1283
  6275+                          	
  6276+ 000F04                     i2l1286:		; BSR set to: ?
  6277+                          
  6278+                          	line	1358
  6279+                          ;main.c: 1358: new_note = 0x00;
  6280+ 000F04  0101               	movlb	1	; () banked
  6281+ 000F06  6F19               	movwf	(??_getNote+1+0)&0ffh
  6282+ 000F08  0E00               	movlw	low(0)
  6283+ 000F0A  0101               	movlb	1	; () banked
  6284+ 000F0C  0101               	movlb	1	; () banked
  6285+ 000F0E  6F18               	movwf	((getNote@new_note))&0ffh
  6286+ 000F10  0101               	movlb	1	; () banked
  6287+ 000F12  5119               	movf	(??_getNote+1+0)&0ffh,w
  6288+                          	line	1359
  6289+                          	
  6290+ 000F14                     i2l1287:		; BSR set to: ?
  6291+                          
  6292+                          	
  6293+ 000F14                     i2l1285:		; BSR set to: ?
  6294+                          
  6295+                          	
  6296+ 000F14                     i2l1283:		; BSR set to: ?
  6297+                          
  6298+                          	line	1361
  6299+                          ;main.c: 1359: }
  6300+                          ;main.c: 1361: } else if (hResult == 0x02) {
  6301+ 000F14  EF5E  F008         	goto	i2l1280
  6302+                          	
  6303+ 000F18                     i2l1281:		; BSR set to: ?
  6304+                          
  6305+ 000F18  0101               	movlb	1	; () banked
  6306+ 000F1A  0101               	movlb	1	; () banked
  6307+ 000F1C  5116               	movf	((getNote@hResult))&0ffh,w
  6308+ 000F1E  0A02               	xorlw	2
  6309+                          
  6310+ 000F20  A4D8               	btfss	status,2
  6311+ 000F22  EF95  F007         	goto	i2u8561
  6312+ 000F26  EF97  F007         	goto	i2u8560
  6313+ 000F2A                     i2u8561:
  6314+ 000F2A  EFF1  F007         	goto	i2l1289
  6315+ 000F2E                     i2u8560:
  6316+                          	line	1362
  6317+                          ;main.c: 1362: if (lResult >= 223 && lResult <= 
      +                          256) {
  6318+ 000F2E  0EDE               	movlw	(0DFh-1)
  6319+ 000F30  0101               	movlb	1	; () banked
  6320+ 000F32  0101               	movlb	1	; () banked
  6321+ 000F34  6517               	cpfsgt	((getNote@lResult))&0ffh
  6322+ 000F36  EF9F  F007         	goto	i2u8571
  6323+ 000F3A  EFA1  F007         	goto	i2u8570
  6324+ 000F3E                     i2u8571:
  6325+ 000F3E  EFAB  F007         	goto	i2l1290
  6326+ 000F42                     i2u8570:
  6327+                          	line	1364
  6328+                          ;main.c: 1364: new_note = 0x36;
  6329+ 000F42  0101               	movlb	1	; () banked
  6330+ 000F44  6F19               	movwf	(??_getNote+1+0)&0ffh
  6331+ 000F46  0E36               	movlw	low(036h)
  6332+ 000F48  0101               	movlb	1	; () banked
  6333+ 000F4A  0101               	movlb	1	; () banked
  6334+ 000F4C  6F18               	movwf	((getNote@new_note))&0ffh
  6335+ 000F4E  0101               	movlb	1	; () banked
  6336+ 000F50  5119               	movf	(??_getNote+1+0)&0ffh,w
  6337+                          	line	1365
  6338+                          ;main.c: 1365: } else if (lResult >= 165 && lRes
      +                          ult <= 207) {
  6339+ 000F52  EFEF  F007         	goto	i2l1291
  6340+                          	
  6341+ 000F56                     i2l1290:		; BSR set to: ?
  6342+                          
  6343+ 000F56  0EA4               	movlw	(0A5h-1)
  6344+ 000F58  0101               	movlb	1	; () banked
  6345+ 000F5A  0101               	movlb	1	; () banked
  6346+ 000F5C  6517               	cpfsgt	((getNote@lResult))&0ffh
  6347+ 000F5E  EFB3  F007         	goto	i2u8581
  6348+ 000F62  EFB5  F007         	goto	i2u8580
  6349+ 000F66                     i2u8581:
  6350+ 000F66  EFC9  F007         	goto	i2l1292
  6351+ 000F6A                     i2u8580:
  6352+ 000F6A  0ED0               	movlw	(0D0h)&0ffh
  6353+ 000F6C  0101               	movlb	1	; () banked
  6354+ 000F6E  0101               	movlb	1	; () banked
  6355+ 000F70  6117               	cpfslt	((getNote@lResult))&0ffh
  6356+ 000F72  EFBD  F007         	goto	i2u8591
  6357+ 000F76  EFBF  F007         	goto	i2u8590
  6358+ 000F7A                     i2u8591:
  6359+ 000F7A  EFC9  F007         	goto	i2l1292
  6360+ 000F7E                     i2u8590:
  6361+                          	line	1367
  6362+                          ;main.c: 1367: new_note = 0x26;
  6363+ 000F7E  0101               	movlb	1	; () banked
  6364+ 000F80  6F19               	movwf	(??_getNote+1+0)&0ffh
  6365+ 000F82  0E26               	movlw	low(026h)
  6366+ 000F84  0101               	movlb	1	; () banked
  6367+ 000F86  0101               	movlb	1	; () banked
  6368+ 000F88  6F18               	movwf	((getNote@new_note))&0ffh
  6369+ 000F8A  0101               	movlb	1	; () banked
  6370+ 000F8C  5119               	movf	(??_getNote+1+0)&0ffh,w
  6371+                          	line	1368
  6372+                          ;main.c: 1368: } else if (lResult >= 132 && lRes
      +                          ult <= 160) {
  6373+ 000F8E  EFEF  F007         	goto	i2l1291
  6374+                          	
  6375+ 000F92                     i2l1292:		; BSR set to: ?
  6376+                          
  6377+ 000F92  0E83               	movlw	(084h-1)
  6378+ 000F94  0101               	movlb	1	; () banked
  6379+ 000F96  0101               	movlb	1	; () banked
  6380+ 000F98  6517               	cpfsgt	((getNote@lResult))&0ffh
  6381+ 000F9A  EFD1  F007         	goto	i2u8601
  6382+ 000F9E  EFD3  F007         	goto	i2u8600
  6383+ 000FA2                     i2u8601:
  6384+ 000FA2  EFE7  F007         	goto	i2l1294
  6385+ 000FA6                     i2u8600:
  6386+ 000FA6  0EA1               	movlw	(0A1h)&0ffh
  6387+ 000FA8  0101               	movlb	1	; () banked
  6388+ 000FAA  0101               	movlb	1	; () banked
  6389+ 000FAC  6117               	cpfslt	((getNote@lResult))&0ffh
  6390+ 000FAE  EFDB  F007         	goto	i2u8611
  6391+ 000FB2  EFDD  F007         	goto	i2u8610
  6392+ 000FB6                     i2u8611:
  6393+ 000FB6  EFE7  F007         	goto	i2l1294
  6394+ 000FBA                     i2u8610:
  6395+                          	line	1370
  6396+                          ;main.c: 1370: new_note = 0x2e;
  6397+ 000FBA  0101               	movlb	1	; () banked
  6398+ 000FBC  6F19               	movwf	(??_getNote+1+0)&0ffh
  6399+ 000FBE  0E2E               	movlw	low(02Eh)
  6400+ 000FC0  0101               	movlb	1	; () banked
  6401+ 000FC2  0101               	movlb	1	; () banked
  6402+ 000FC4  6F18               	movwf	((getNote@new_note))&0ffh
  6403+ 000FC6  0101               	movlb	1	; () banked
  6404+ 000FC8  5119               	movf	(??_getNote+1+0)&0ffh,w
  6405+                          	line	1371
  6406+                          ;main.c: 1371: } else {
  6407+ 000FCA  EFEF  F007         	goto	i2l1291
  6408+                          	
  6409+ 000FCE                     i2l1294:		; BSR set to: ?
  6410+                          
  6411+                          	line	1373
  6412+                          ;main.c: 1373: new_note = 0x00;
  6413+ 000FCE  0101               	movlb	1	; () banked
  6414+ 000FD0  6F19               	movwf	(??_getNote+1+0)&0ffh
  6415+ 000FD2  0E00               	movlw	low(0)
  6416+ 000FD4  0101               	movlb	1	; () banked
  6417+ 000FD6  0101               	movlb	1	; () banked
  6418+ 000FD8  6F18               	movwf	((getNote@new_note))&0ffh
  6419+ 000FDA  0101               	movlb	1	; () banked
  6420+ 000FDC  5119               	movf	(??_getNote+1+0)&0ffh,w
  6421+                          	line	1374
  6422+                          	
  6423+ 000FDE                     i2l1295:		; BSR set to: ?
  6424+                          
  6425+                          	
  6426+ 000FDE                     i2l1293:		; BSR set to: ?
  6427+                          
  6428+                          	
  6429+ 000FDE                     i2l1291:		; BSR set to: ?
  6430+                          
  6431+                          	line	1376
  6432+                          ;main.c: 1374: }
  6433+                          ;main.c: 1376: } else if (hResult == 0x03) {
  6434+ 000FDE  EF5E  F008         	goto	i2l1280
  6435+                          	
  6436+ 000FE2                     i2l1289:		; BSR set to: ?
  6437+                          
  6438+ 000FE2  0101               	movlb	1	; () banked
  6439+ 000FE4  0101               	movlb	1	; () banked
  6440+ 000FE6  5116               	movf	((getNote@hResult))&0ffh,w
  6441+ 000FE8  0A03               	xorlw	3
  6442+                          
  6443+ 000FEA  A4D8               	btfss	status,2
  6444+ 000FEC  EFFA  F007         	goto	i2u8621
  6445+ 000FF0  EFFC  F007         	goto	i2u8620
  6446+ 000FF4                     i2u8621:
  6447+ 000FF4  EF5E  F008         	goto	i2l1280
  6448+ 000FF8                     i2u8620:
  6449+                          	line	1377
  6450+                          ;main.c: 1377: if (lResult >= 148 && lResult <= 
      +                          174) {
  6451+ 000FF8  0E93               	movlw	(094h-1)
  6452+ 000FFA  0101               	movlb	1	; () banked
  6453+ 000FFC  0101               	movlb	1	; () banked
  6454+ 000FFE  6517               	cpfsgt	((getNote@lResult))&0ffh
  6455+ 001000  EF04  F008         	goto	i2u8631
  6456+ 001004  EF06  F008         	goto	i2u8630
  6457+ 001008                     i2u8631:
  6458+ 001008  EF1A  F008         	goto	i2l1298
  6459+ 00100C                     i2u8630:
  6460+ 00100C  0EAF               	movlw	(0AFh)&0ffh
  6461+ 00100E  0101               	movlb	1	; () banked
  6462+ 001010  0101               	movlb	1	; () banked
  6463+ 001012  6117               	cpfslt	((getNote@lResult))&0ffh
  6464+ 001014  EF0E  F008         	goto	i2u8641
  6465+ 001018  EF10  F008         	goto	i2u8640
  6466+ 00101C                     i2u8641:
  6467+ 00101C  EF1A  F008         	goto	i2l1298
  6468+ 001020                     i2u8640:
  6469+                          	line	1379
  6470+                          ;main.c: 1379: new_note = 0x16;
  6471+ 001020  0101               	movlb	1	; () banked
  6472+ 001022  6F19               	movwf	(??_getNote+1+0)&0ffh
  6473+ 001024  0E16               	movlw	low(016h)
  6474+ 001026  0101               	movlb	1	; () banked
  6475+ 001028  0101               	movlb	1	; () banked
  6476+ 00102A  6F18               	movwf	((getNote@new_note))&0ffh
  6477+ 00102C  0101               	movlb	1	; () banked
  6478+ 00102E  5119               	movf	(??_getNote+1+0)&0ffh,w
  6479+                          	line	1380
  6480+                          ;main.c: 1380: } else if (lResult >= 89 && lResu
      +                          lt <= 120) {
  6481+ 001030  EF5E  F008         	goto	i2l1280
  6482+                          	
  6483+ 001034                     i2l1298:		; BSR set to: ?
  6484+                          
  6485+ 001034  0E58               	movlw	(059h-1)
  6486+ 001036  0101               	movlb	1	; () banked
  6487+ 001038  0101               	movlb	1	; () banked
  6488+ 00103A  6517               	cpfsgt	((getNote@lResult))&0ffh
  6489+ 00103C  EF22  F008         	goto	i2u8651
  6490+ 001040  EF24  F008         	goto	i2u8650
  6491+ 001044                     i2u8651:
  6492+ 001044  EF38  F008         	goto	i2l1300
  6493+ 001048                     i2u8650:
  6494+ 001048  0E79               	movlw	(079h)&0ffh
  6495+ 00104A  0101               	movlb	1	; () banked
  6496+ 00104C  0101               	movlb	1	; () banked
  6497+ 00104E  6117               	cpfslt	((getNote@lResult))&0ffh
  6498+ 001050  EF2C  F008         	goto	i2u8661
  6499+ 001054  EF2E  F008         	goto	i2u8660
  6500+ 001058                     i2u8661:
  6501+ 001058  EF38  F008         	goto	i2l1300
  6502+ 00105C                     i2u8660:
  6503+                          	line	1382
  6504+                          ;main.c: 1382: new_note = 0x06;
  6505+ 00105C  0101               	movlb	1	; () banked
  6506+ 00105E  6F19               	movwf	(??_getNote+1+0)&0ffh
  6507+ 001060  0E06               	movlw	low(06h)
  6508+ 001062  0101               	movlb	1	; () banked
  6509+ 001064  0101               	movlb	1	; () banked
  6510+ 001066  6F18               	movwf	((getNote@new_note))&0ffh
  6511+ 001068  0101               	movlb	1	; () banked
  6512+ 00106A  5119               	movf	(??_getNote+1+0)&0ffh,w
  6513+                          	line	1383
  6514+                          ;main.c: 1383: } else if (lResult >= 20 && lResu
      +                          lt <= 72) {
  6515+ 00106C  EF5E  F008         	goto	i2l1280
  6516+                          	
  6517+ 001070                     i2l1300:		; BSR set to: ?
  6518+                          
  6519+ 001070  0E13               	movlw	(014h-1)
  6520+ 001072  0101               	movlb	1	; () banked
  6521+ 001074  0101               	movlb	1	; () banked
  6522+ 001076  6517               	cpfsgt	((getNote@lResult))&0ffh
  6523+ 001078  EF40  F008         	goto	i2u8671
  6524+ 00107C  EF42  F008         	goto	i2u8670
  6525+ 001080                     i2u8671:
  6526+ 001080  EF56  F008         	goto	i2l1302
  6527+ 001084                     i2u8670:
  6528+ 001084  0E49               	movlw	(049h)&0ffh
  6529+ 001086  0101               	movlb	1	; () banked
  6530+ 001088  0101               	movlb	1	; () banked
  6531+ 00108A  6117               	cpfslt	((getNote@lResult))&0ffh
  6532+ 00108C  EF4A  F008         	goto	i2u8681
  6533+ 001090  EF4C  F008         	goto	i2u8680
  6534+ 001094                     i2u8681:
  6535+ 001094  EF56  F008         	goto	i2l1302
  6536+ 001098                     i2u8680:
  6537+                          	line	1385
  6538+                          ;main.c: 1385: new_note = 0x0e;
  6539+ 001098  0101               	movlb	1	; () banked
  6540+ 00109A  6F19               	movwf	(??_getNote+1+0)&0ffh
  6541+ 00109C  0E0E               	movlw	low(0Eh)
  6542+ 00109E  0101               	movlb	1	; () banked
  6543+ 0010A0  0101               	movlb	1	; () banked
  6544+ 0010A2  6F18               	movwf	((getNote@new_note))&0ffh
  6545+ 0010A4  0101               	movlb	1	; () banked
  6546+ 0010A6  5119               	movf	(??_getNote+1+0)&0ffh,w
  6547+                          	line	1386
  6548+                          ;main.c: 1386: } else {
  6549+ 0010A8  EF5E  F008         	goto	i2l1280
  6550+                          	
  6551+ 0010AC                     i2l1302:		; BSR set to: ?
  6552+                          
  6553+                          	line	1388
  6554+                          ;main.c: 1388: new_note = 0x00;
  6555+ 0010AC  0101               	movlb	1	; () banked
  6556+ 0010AE  6F19               	movwf	(??_getNote+1+0)&0ffh
  6557+ 0010B0  0E00               	movlw	low(0)
  6558+ 0010B2  0101               	movlb	1	; () banked
  6559  0010B4  0101               	movlb	1	; () banked
  6560  0010B6  6F18               	movwf	((getNote@new_note))&0ffh
  6561  0010B8  0101               	movlb	1	; () banked
  6562  0010BA  5119               	movf	(??_getNote+1+0)&0ffh,w
  6563                           	line	1389
  6564                           	
  6565  0010BC                     i2l1303:		; BSR set to: ?
  6566                           
  6567                           	
  6568  0010BC                     i2l1301:		; BSR set to: ?
  6569                           
  6570                           	
  6571  0010BC                     i2l1299:		; BSR set to: ?
  6572                           
  6573                           	line	1390
  6574                           	
  6575  0010BC                     i2l1297:		; BSR set to: ?
  6576                           
  6577                           	line	1392
  6578                           	
  6579  0010BC                     i2l1296:		; BSR set to: ?
  6580                           
  6581                           	
  6582  0010BC                     i2l1288:		; BSR set to: ?
  6583                           
  6584                           	
  6585  0010BC                     i2l1280:		; BSR set to: ?
  6586                           
  6587                           ;main.c: 1389: }
  6588                           ;main.c: 1390: }
  6589                           ;main.c: 1392: } else if (adc_num == 6) {
  6590  0010BC  EFC6  F009         	goto	i2l1169
  6591                           	
  6592  0010C0                     i2l1278:		; BSR set to: ?
  6593                           
  6594  0010C0  5000               	movf	((c:0)),c,w	;volatile
  6595  0010C2  0A06               	xorlw	6
  6596                           
  6597  0010C4  A4D8               	btfss	status,2
  6598  0010C6  EF67  F008         	goto	i2u8691
  6599  0010CA  EF69  F008         	goto	i2u8690
  6600  0010CE                     i2u8691:
  6601  0010CE  EFC6  F009         	goto	i2l1169
  6602  0010D2                     i2u8690:
  6603                           	line	1393
  6604                           ;main.c: 1393: if (hResult == 0x00) {
  6605  0010D2  0101               	movlb	1	; () banked
  6606  0010D4  0101               	movlb	1	; () banked
  6607  0010D6  6716               	tstfsz	((getNote@hResult))&0ffh
  6608  0010D8  EF70  F008         	goto	i2u8701
  6609  0010DC  EF72  F008         	goto	i2u8700
  6610  0010E0                     i2u8701:
  6611  0010E0  EF7C  F008         	goto	i2l1306
  6612  0010E4                     i2u8700:
  6613                           	line	1395
  6614                           ;main.c: 1395: new_note = 0x00;
  6615  0010E4  0101               	movlb	1	; () banked
  6616  0010E6  6F19               	movwf	(??_getNote+1+0)&0ffh
  6617  0010E8  0E00               	movlw	low(0)
  6618  0010EA  0101               	movlb	1	; () banked
  6619  0010EC  0101               	movlb	1	; () banked
  6620  0010EE  6F18               	movwf	((getNote@new_note))&0ffh
  6621  0010F0  0101               	movlb	1	; () banked
  6622  0010F2  5119               	movf	(??_getNote+1+0)&0ffh,w
  6623                           	line	1397
  6624                           ;main.c: 1397: } else if (hResult == 0x01) {
  6625  0010F4  EFC6  F009         	goto	i2l1169
  6626                           	
  6627  0010F8                     i2l1306:		; BSR set to: ?
  6628                           
  6629  0010F8  0101               	movlb	1	; () banked
  6630  0010FA  0101               	movlb	1	; () banked
  6631  0010FC  0516               	decf	((getNote@hResult))&0ffh,w
  6632                           
  6633  0010FE  A4D8               	btfss	status,2
  6634  001100  EF84  F008         	goto	i2u8711
  6635  001104  EF86  F008         	goto	i2u8710
  6636  001108                     i2u8711:
  6637  001108  EFEA  F008         	goto	i2l1308
  6638  00110C                     i2u8710:
  6639                           	line	1398
  6640                           ;main.c: 1398: if (lResult >= 87 && lResult <= 1
                                 60) {
  6641  00110C  0E56               	movlw	(057h-1)
  6642  00110E  0101               	movlb	1	; () banked
  6643  001110  0101               	movlb	1	; () banked
  6644  001112  6517               	cpfsgt	((getNote@lResult))&0ffh
  6645  001114  EF8E  F008         	goto	i2u8721
  6646  001118  EF90  F008         	goto	i2u8720
  6647  00111C                     i2u8721:
  6648  00111C  EFA4  F008         	goto	i2l1309
  6649  001120                     i2u8720:
  6650  001120  0EA1               	movlw	(0A1h)&0ffh
  6651  001122  0101               	movlb	1	; () banked
  6652  001124  0101               	movlb	1	; () banked
  6653  001126  6117               	cpfslt	((getNote@lResult))&0ffh
  6654  001128  EF98  F008         	goto	i2u8731
  6655  00112C  EF9A  F008         	goto	i2u8730
  6656  001130                     i2u8731:
  6657  001130  EFA4  F008         	goto	i2l1309
  6658  001134                     i2u8730:
  6659                           	line	1400
  6660                           ;main.c: 1400: new_note = 0x57;
  6661  001134  0101               	movlb	1	; () banked
  6662  001136  6F19               	movwf	(??_getNote+1+0)&0ffh
  6663  001138  0E57               	movlw	low(057h)
  6664  00113A  0101               	movlb	1	; () banked
  6665  00113C  0101               	movlb	1	; () banked
  6666  00113E  6F18               	movwf	((getNote@new_note))&0ffh
  6667  001140  0101               	movlb	1	; () banked
  6668  001142  5119               	movf	(??_getNote+1+0)&0ffh,w
  6669                           	line	1401
  6670                           ;main.c: 1401: } else if (lResult >= 175 && lRes
                                 ult <= 215) {
  6671  001144  EFE8  F008         	goto	i2l1310
  6672                           	
  6673  001148                     i2l1309:		; BSR set to: ?
  6674                           
  6675  001148  0EAE               	movlw	(0AFh-1)
  6676  00114A  0101               	movlb	1	; () banked
  6677  00114C  0101               	movlb	1	; () banked
  6678  00114E  6517               	cpfsgt	((getNote@lResult))&0ffh
  6679  001150  EFAC  F008         	goto	i2u8741
  6680  001154  EFAE  F008         	goto	i2u8740
  6681  001158                     i2u8741:
  6682  001158  EFC2  F008         	goto	i2l1311
  6683  00115C                     i2u8740:
  6684  00115C  0ED8               	movlw	(0D8h)&0ffh
  6685  00115E  0101               	movlb	1	; () banked
  6686  001160  0101               	movlb	1	; () banked
  6687  001162  6117               	cpfslt	((getNote@lResult))&0ffh
  6688  001164  EFB6  F008         	goto	i2u8751
  6689  001168  EFB8  F008         	goto	i2u8750
  6690  00116C                     i2u8751:
  6691  00116C  EFC2  F008         	goto	i2l1311
  6692  001170                     i2u8750:
  6693                           	line	1403
  6694                           ;main.c: 1403: new_note = 0x47;
  6695  001170  0101               	movlb	1	; () banked
  6696  001172  6F19               	movwf	(??_getNote+1+0)&0ffh
  6697  001174  0E47               	movlw	low(047h)
  6698  001176  0101               	movlb	1	; () banked
  6699  001178  0101               	movlb	1	; () banked
  6700  00117A  6F18               	movwf	((getNote@new_note))&0ffh
  6701  00117C  0101               	movlb	1	; () banked
  6702  00117E  5119               	movf	(??_getNote+1+0)&0ffh,w
  6703                           	line	1404
  6704                           ;main.c: 1404: } else if (lResult >= 224 && lRes
                                 ult <= 228) {
  6705  001180  EFE8  F008         	goto	i2l1310
  6706                           	
  6707  001184                     i2l1311:		; BSR set to: ?
  6708                           
  6709  001184  0EDF               	movlw	(0E0h-1)
  6710  001186  0101               	movlb	1	; () banked
  6711  001188  0101               	movlb	1	; () banked
  6712  00118A  6517               	cpfsgt	((getNote@lResult))&0ffh
  6713  00118C  EFCA  F008         	goto	i2u8761
  6714  001190  EFCC  F008         	goto	i2u8760
  6715  001194                     i2u8761:
  6716  001194  EFE0  F008         	goto	i2l1313
  6717  001198                     i2u8760:
  6718  001198  0EE5               	movlw	(0E5h)&0ffh
  6719  00119A  0101               	movlb	1	; () banked
  6720  00119C  0101               	movlb	1	; () banked
  6721  00119E  6117               	cpfslt	((getNote@lResult))&0ffh
  6722  0011A0  EFD4  F008         	goto	i2u8771
  6723  0011A4  EFD6  F008         	goto	i2u8770
  6724  0011A8                     i2u8771:
  6725  0011A8  EFE0  F008         	goto	i2l1313
  6726  0011AC                     i2u8770:
  6727                           	line	1406
  6728                           ;main.c: 1406: new_note = 0x4f;
  6729  0011AC  0101               	movlb	1	; () banked
  6730  0011AE  6F19               	movwf	(??_getNote+1+0)&0ffh
  6731  0011B0  0E4F               	movlw	low(04Fh)
  6732  0011B2  0101               	movlb	1	; () banked
  6733  0011B4  0101               	movlb	1	; () banked
  6734  0011B6  6F18               	movwf	((getNote@new_note))&0ffh
  6735  0011B8  0101               	movlb	1	; () banked
  6736  0011BA  5119               	movf	(??_getNote+1+0)&0ffh,w
  6737                           	line	1407
  6738                           ;main.c: 1407: } else {
  6739  0011BC  EFE8  F008         	goto	i2l1310
  6740                           	
  6741  0011C0                     i2l1313:		; BSR set to: ?
  6742                           
  6743                           	line	1409
  6744                           ;main.c: 1409: new_note = 0x00;
  6745  0011C0  0101               	movlb	1	; () banked
  6746  0011C2  6F19               	movwf	(??_getNote+1+0)&0ffh
  6747  0011C4  0E00               	movlw	low(0)
  6748  0011C6  0101               	movlb	1	; () banked
  6749  0011C8  0101               	movlb	1	; () banked
  6750  0011CA  6F18               	movwf	((getNote@new_note))&0ffh
  6751  0011CC  0101               	movlb	1	; () banked
  6752  0011CE  5119               	movf	(??_getNote+1+0)&0ffh,w
  6753                           	line	1410
  6754                           	
  6755  0011D0                     i2l1314:		; BSR set to: ?
  6756                           
  6757                           	
  6758  0011D0                     i2l1312:		; BSR set to: ?
  6759                           
  6760                           	
  6761  0011D0                     i2l1310:		; BSR set to: ?
  6762                           
  6763                           	line	1412
  6764                           ;main.c: 1410: }
  6765                           ;main.c: 1412: } else if (hResult == 0x02) {
  6766  0011D0  EFC6  F009         	goto	i2l1169
  6767                           	
  6768  0011D4                     i2l1308:		; BSR set to: ?
  6769                           
  6770  0011D4  0101               	movlb	1	; () banked
  6771  0011D6  0101               	movlb	1	; () banked
  6772  0011D8  5116               	movf	((getNote@hResult))&0ffh,w
  6773  0011DA  0A02               	xorlw	2
  6774                           
  6775  0011DC  A4D8               	btfss	status,2
  6776  0011DE  EFF3  F008         	goto	i2u8781
  6777  0011E2  EFF5  F008         	goto	i2u8780
  6778  0011E6                     i2u8781:
  6779  0011E6  EF59  F009         	goto	i2l1316
  6780  0011EA                     i2u8780:
  6781                           	line	1413
  6782                           ;main.c: 1413: if (lResult >= 200 && lResult <= 
                                 229) {
  6783  0011EA  0EC7               	movlw	(0C8h-1)
  6784  0011EC  0101               	movlb	1	; () banked
  6785  0011EE  0101               	movlb	1	; () banked
  6786  0011F0  6517               	cpfsgt	((getNote@lResult))&0ffh
  6787  0011F2  EFFD  F008         	goto	i2u8791
  6788  0011F6  EFFF  F008         	goto	i2u8790
  6789  0011FA                     i2u8791:
  6790  0011FA  EF13  F009         	goto	i2l1317
  6791  0011FE                     i2u8790:
  6792  0011FE  0EE6               	movlw	(0E6h)&0ffh
  6793  001200  0101               	movlb	1	; () banked
  6794  001202  0101               	movlb	1	; () banked
  6795  001204  6117               	cpfslt	((getNote@lResult))&0ffh
  6796  001206  EF07  F009         	goto	i2u8801
  6797  00120A  EF09  F009         	goto	i2u8800
  6798  00120E                     i2u8801:
  6799  00120E  EF13  F009         	goto	i2l1317
  6800  001212                     i2u8800:
  6801                           	line	1415
  6802                           ;main.c: 1415: new_note = 0x37;
  6803  001212  0101               	movlb	1	; () banked
  6804  001214  6F19               	movwf	(??_getNote+1+0)&0ffh
  6805  001216  0E37               	movlw	low(037h)
  6806  001218  0101               	movlb	1	; () banked
  6807  00121A  0101               	movlb	1	; () banked
  6808  00121C  6F18               	movwf	((getNote@new_note))&0ffh
  6809  00121E  0101               	movlb	1	; () banked
  6810  001220  5119               	movf	(??_getNote+1+0)&0ffh,w
  6811                           	line	1416
  6812                           ;main.c: 1416: } else if (lResult >= 139 && lRes
                                 ult <= 192) {
  6813  001222  EF57  F009         	goto	i2l1318
  6814                           	
  6815  001226                     i2l1317:		; BSR set to: ?
  6816                           
  6817  001226  0E8A               	movlw	(08Bh-1)
  6818  001228  0101               	movlb	1	; () banked
  6819  00122A  0101               	movlb	1	; () banked
  6820  00122C  6517               	cpfsgt	((getNote@lResult))&0ffh
  6821  00122E  EF1B  F009         	goto	i2u8811
  6822  001232  EF1D  F009         	goto	i2u8810
  6823  001236                     i2u8811:
  6824  001236  EF31  F009         	goto	i2l1319
  6825  00123A                     i2u8810:
  6826  00123A  0EC1               	movlw	(0C1h)&0ffh
  6827  00123C  0101               	movlb	1	; () banked
  6828  00123E  0101               	movlb	1	; () banked
  6829  001240  6117               	cpfslt	((getNote@lResult))&0ffh
  6830  001242  EF25  F009         	goto	i2u8821
  6831  001246  EF27  F009         	goto	i2u8820
  6832  00124A                     i2u8821:
  6833  00124A  EF31  F009         	goto	i2l1319
  6834  00124E                     i2u8820:
  6835                           	line	1418
  6836                           ;main.c: 1418: new_note = 0x27;
  6837  00124E  0101               	movlb	1	; () banked
  6838  001250  6F19               	movwf	(??_getNote+1+0)&0ffh
  6839  001252  0E27               	movlw	low(027h)
  6840  001254  0101               	movlb	1	; () banked
  6841  001256  0101               	movlb	1	; () banked
  6842  001258  6F18               	movwf	((getNote@new_note))&0ffh
  6843  00125A  0101               	movlb	1	; () banked
  6844  00125C  5119               	movf	(??_getNote+1+0)&0ffh,w
  6845                           	line	1419
  6846                           ;main.c: 1419: } else if (lResult >= 107 && lRes
                                 ult <= 140) {
  6847  00125E  EF57  F009         	goto	i2l1318
  6848                           	
  6849  001262                     i2l1319:		; BSR set to: ?
  6850                           
  6851  001262  0E6A               	movlw	(06Bh-1)
  6852  001264  0101               	movlb	1	; () banked
  6853  001266  0101               	movlb	1	; () banked
  6854  001268  6517               	cpfsgt	((getNote@lResult))&0ffh
  6855  00126A  EF39  F009         	goto	i2u8831
  6856  00126E  EF3B  F009         	goto	i2u8830
  6857  001272                     i2u8831:
  6858  001272  EF4F  F009         	goto	i2l1321
  6859  001276                     i2u8830:
  6860  001276  0E8D               	movlw	(08Dh)&0ffh
  6861  001278  0101               	movlb	1	; () banked
  6862  00127A  0101               	movlb	1	; () banked
  6863  00127C  6117               	cpfslt	((getNote@lResult))&0ffh
  6864  00127E  EF43  F009         	goto	i2u8841
  6865  001282  EF45  F009         	goto	i2u8840
  6866  001286                     i2u8841:
  6867  001286  EF4F  F009         	goto	i2l1321
  6868  00128A                     i2u8840:
  6869                           	line	1421
  6870                           ;main.c: 1421: new_note = 0x2f;
  6871  00128A  0101               	movlb	1	; () banked
  6872  00128C  6F19               	movwf	(??_getNote+1+0)&0ffh
  6873  00128E  0E2F               	movlw	low(02Fh)
  6874  001290  0101               	movlb	1	; () banked
  6875  001292  0101               	movlb	1	; () banked
  6876  001294  6F18               	movwf	((getNote@new_note))&0ffh
  6877  001296  0101               	movlb	1	; () banked
  6878  001298  5119               	movf	(??_getNote+1+0)&0ffh,w
  6879                           	line	1422
  6880                           ;main.c: 1422: } else {
  6881  00129A  EF57  F009         	goto	i2l1318
  6882                           	
  6883  00129E                     i2l1321:		; BSR set to: ?
  6884                           
  6885                           	line	1424
  6886                           ;main.c: 1424: new_note = 0x00;
  6887  00129E  0101               	movlb	1	; () banked
  6888  0012A0  6F19               	movwf	(??_getNote+1+0)&0ffh
  6889  0012A2  0E00               	movlw	low(0)
  6890  0012A4  0101               	movlb	1	; () banked
  6891  0012A6  0101               	movlb	1	; () banked
  6892  0012A8  6F18               	movwf	((getNote@new_note))&0ffh
  6893  0012AA  0101               	movlb	1	; () banked
  6894  0012AC  5119               	movf	(??_getNote+1+0)&0ffh,w
  6895                           	line	1425
  6896                           	
  6897  0012AE                     i2l1322:		; BSR set to: ?
  6898                           
  6899                           	
  6900  0012AE                     i2l1320:		; BSR set to: ?
  6901                           
  6902                           	
  6903  0012AE                     i2l1318:		; BSR set to: ?
  6904                           
  6905                           	line	1427
  6906                           ;main.c: 1425: }
  6907                           ;main.c: 1427: } else if (hResult == 0x03) {
  6908  0012AE  EFC6  F009         	goto	i2l1169
  6909                           	
  6910  0012B2                     i2l1316:		; BSR set to: ?
  6911                           
  6912  0012B2  0101               	movlb	1	; () banked
  6913  0012B4  0101               	movlb	1	; () banked
  6914  0012B6  5116               	movf	((getNote@hResult))&0ffh,w
  6915  0012B8  0A03               	xorlw	3
  6916                           
  6917  0012BA  A4D8               	btfss	status,2
  6918  0012BC  EF62  F009         	goto	i2u8851
  6919  0012C0  EF64  F009         	goto	i2u8850
  6920  0012C4                     i2u8851:
  6921  0012C4  EFC6  F009         	goto	i2l1169
  6922  0012C8                     i2u8850:
  6923                           	line	1428
  6924                           ;main.c: 1428: if (lResult >= 165 && lResult <= 
                                 190) {
  6925  0012C8  0EA4               	movlw	(0A5h-1)
  6926  0012CA  0101               	movlb	1	; () banked
  6927  0012CC  0101               	movlb	1	; () banked
  6928  0012CE  6517               	cpfsgt	((getNote@lResult))&0ffh
  6929  0012D0  EF6C  F009         	goto	i2u8861
  6930  0012D4  EF6E  F009         	goto	i2u8860
  6931  0012D8                     i2u8861:
  6932  0012D8  EF82  F009         	goto	i2l1325
  6933  0012DC                     i2u8860:
  6934  0012DC  0EBF               	movlw	(0BFh)&0ffh
  6935  0012DE  0101               	movlb	1	; () banked
  6936  0012E0  0101               	movlb	1	; () banked
  6937  0012E2  6117               	cpfslt	((getNote@lResult))&0ffh
  6938  0012E4  EF76  F009         	goto	i2u8871
  6939  0012E8  EF78  F009         	goto	i2u8870
  6940  0012EC                     i2u8871:
  6941  0012EC  EF82  F009         	goto	i2l1325
  6942  0012F0                     i2u8870:
  6943                           	line	1430
  6944                           ;main.c: 1430: new_note = 0x17;
  6945  0012F0  0101               	movlb	1	; () banked
  6946  0012F2  6F19               	movwf	(??_getNote+1+0)&0ffh
  6947  0012F4  0E17               	movlw	low(017h)
  6948  0012F6  0101               	movlb	1	; () banked
  6949  0012F8  0101               	movlb	1	; () banked
  6950  0012FA  6F18               	movwf	((getNote@new_note))&0ffh
  6951  0012FC  0101               	movlb	1	; () banked
  6952  0012FE  5119               	movf	(??_getNote+1+0)&0ffh,w
  6953                           	line	1431
  6954                           ;main.c: 1431: } else if (lResult >= 130 && lRes
                                 ult <= 160) {
  6955  001300  EFC6  F009         	goto	i2l1169
  6956                           	
  6957  001304                     i2l1325:		; BSR set to: ?
  6958                           
  6959  001304  0E81               	movlw	(082h-1)
  6960  001306  0101               	movlb	1	; () banked
  6961  001308  0101               	movlb	1	; () banked
  6962  00130A  6517               	cpfsgt	((getNote@lResult))&0ffh
  6963  00130C  EF8A  F009         	goto	i2u8881
  6964  001310  EF8C  F009         	goto	i2u8880
  6965  001314                     i2u8881:
  6966  001314  EFA0  F009         	goto	i2l1327
  6967  001318                     i2u8880:
  6968  001318  0EA1               	movlw	(0A1h)&0ffh
  6969+ 00131A  0101               	movlb	1	; () banked
  6970+ 00131C  0101               	movlb	1	; () banked
  6971+ 00131E  6117               	cpfslt	((getNote@lResult))&0ffh
  6972+ 001320  EF94  F009         	goto	i2u8891
  6973+ 001324  EF96  F009         	goto	i2u8890
  6974+ 001328                     i2u8891:
  6975+ 001328  EFA0  F009         	goto	i2l1327
  6976+ 00132C                     i2u8890:
  6977+                          	line	1433
  6978+                          ;main.c: 1433: new_note = 0x07;
  6979+ 00132C  0101               	movlb	1	; () banked
  6980+ 00132E  6F19               	movwf	(??_getNote+1+0)&0ffh
  6981+ 001330  0E07               	movlw	low(07h)
  6982+ 001332  0101               	movlb	1	; () banked
  6983+ 001334  0101               	movlb	1	; () banked
  6984+ 001336  6F18               	movwf	((getNote@new_note))&0ffh
  6985+ 001338  0101               	movlb	1	; () banked
  6986+ 00133A  5119               	movf	(??_getNote+1+0)&0ffh,w
  6987+                          	line	1434
  6988+                          ;main.c: 1434: } else if (lResult >= 107 && lRes
      +                          ult <= 125) {
  6989+ 00133C  EFC6  F009         	goto	i2l1169
  6990+                          	
  6991+ 001340                     i2l1327:		; BSR set to: ?
  6992+                          
  6993+ 001340  0E6A               	movlw	(06Bh-1)
  6994+ 001342  0101               	movlb	1	; () banked
  6995+ 001344  0101               	movlb	1	; () banked
  6996+ 001346  6517               	cpfsgt	((getNote@lResult))&0ffh
  6997+ 001348  EFA8  F009         	goto	i2u8901
  6998+ 00134C  EFAA  F009         	goto	i2u8900
  6999+ 001350                     i2u8901:
  7000+ 001350  EFBE  F009         	goto	i2l1329
  7001+ 001354                     i2u8900:
  7002+ 001354  0E7E               	movlw	(07Eh)&0ffh
  7003+ 001356  0101               	movlb	1	; () banked
  7004+ 001358  0101               	movlb	1	; () banked
  7005+ 00135A  6117               	cpfslt	((getNote@lResult))&0ffh
  7006+ 00135C  EFB2  F009         	goto	i2u8911
  7007+ 001360  EFB4  F009         	goto	i2u8910
  7008+ 001364                     i2u8911:
  7009+ 001364  EFBE  F009         	goto	i2l1329
  7010+ 001368                     i2u8910:
  7011+                          	line	1436
  7012+                          ;main.c: 1436: new_note = 0x0f;
  7013+ 001368  0101               	movlb	1	; () banked
  7014+ 00136A  6F19               	movwf	(??_getNote+1+0)&0ffh
  7015+ 00136C  0E0F               	movlw	low(0Fh)
  7016+ 00136E  0101               	movlb	1	; () banked
  7017+ 001370  0101               	movlb	1	; () banked
  7018+ 001372  6F18               	movwf	((getNote@new_note))&0ffh
  7019+ 001374  0101               	movlb	1	; () banked
  7020+ 001376  5119               	movf	(??_getNote+1+0)&0ffh,w
  7021+                          	line	1437
  7022+                          ;main.c: 1437: } else {
  7023+ 001378  EFC6  F009         	goto	i2l1169
  7024+                          	
  7025+ 00137C                     i2l1329:		; BSR set to: ?
  7026+                          
  7027+                          	line	1439
  7028+                          ;main.c: 1439: new_note = 0x00;
  7029+ 00137C  0101               	movlb	1	; () banked
  7030+ 00137E  6F19               	movwf	(??_getNote+1+0)&0ffh
  7031+ 001380  0E00               	movlw	low(0)
  7032+ 001382  0101               	movlb	1	; () banked
  7033+ 001384  0101               	movlb	1	; () banked
  7034+ 001386  6F18               	movwf	((getNote@new_note))&0ffh
  7035+ 001388  0101               	movlb	1	; () banked
  7036+ 00138A  5119               	movf	(??_getNote+1+0)&0ffh,w
  7037+                          	line	1440
  7038+                          	
  7039+ 00138C                     i2l1330:		; BSR set to: ?
  7040+                          
  7041+                          	
  7042+ 00138C                     i2l1328:		; BSR set to: ?
  7043+                          
  7044+                          	
  7045+ 00138C                     i2l1326:		; BSR set to: ?
  7046+                          
  7047+                          	line	1442
  7048+                          	
  7049+ 00138C                     i2l1324:		; BSR set to: ?
  7050+                          
  7051+                          	line	1444
  7052+                          	
  7053+ 00138C                     i2l1323:		; BSR set to: ?
  7054+                          
  7055+                          	
  7056+ 00138C                     i2l1315:		; BSR set to: ?
  7057+                          
  7058+                          	
  7059+ 00138C                     i2l1307:		; BSR set to: ?
  7060+                          
  7061+                          	
  7062+ 00138C                     i2l1305:		; BSR set to: ?
  7063+                          
  7064+                          	line	1445
  7065+                          	
  7066+ 00138C                     i2l1304:		; BSR set to: ?
  7067+                          
  7068+                          	
  7069+ 00138C                     i2l1277:		; BSR set to: ?
  7070+                          
  7071+                          	
  7072+ 00138C                     i2l1250:		; BSR set to: ?
  7073+                          
  7074+                          	
  7075+ 00138C                     i2l1223:		; BSR set to: ?
  7076+                          
  7077+                          	
  7078+ 00138C                     i2l1196:		; BSR set to: ?
  7079+                          
  7080+                          	
  7081+ 00138C                     i2l1169:		; BSR set to: ?
  7082+                          
  7083+                          ;main.c: 1440: }
  7084+                          ;main.c: 1442: }
  7085+                          ;main.c: 1444: }
  7086+                          ;main.c: 1445: return new_note;
  7087+ 00138C  0101               	movlb	1	; () banked
  7088+ 00138E  0101               	movlb	1	; () banked
  7089+ 001390  5118               	movf	((getNote@new_note))&0ffh,w
  7090+ 001392  EFCB  F009         	goto	i2l1142
  7091+                          	line	1446
  7092+                          ;main.c: 1446: }
  7093+ 001396                     i2l1142:
  7094+                          			; BSR set to: ?
  7095+                          
  7096+ 001396  0012               	return
  7097+                          	opt stack 0
  7098+                          GLOBAL __end_of_getNote
  7099+ 001398                     	__end_of_getNote:
  7100+                          	FNSIZE	_getNote,2,2
  7101+                          ; =============== function _getNote ends =======
      +                          =====
  7102+                          
  7103+                          	signat	_getNote,8313
  7104+                          	FNROOT	_main
  7105+                          	FNCALL	_my_isr,_adc_conversion
  7106+                          	FNCALL	_my_isr,_ToggleLeds
  7107+                          	FNCALL	_adc_conversion,_getNote
  7108+                          	FNCALL	intlevel2,_my_isr
  7109+                          	global	intlevel2
  7110+                          	FNROOT	intlevel2
  7111+                                  psect   const,class=CODE,space=0,reloc=2
  7112+                          	global	_led_array
  7113+                          	global	_led_array
  7114+ 000000                     _led_array  equ     26
  7115+                          
  7116+                          	DABS	1,26,26	;_led_array
  7117+                          	global	_cur_inputs
  7118+                          	global	_cur_inputs
  7119+ 000000                     _cur_inputs  equ     61
  7120+                          
  7121+                          	DABS	1,61,7	;_cur_inputs
  7122+                          	global	_prev_inputs
  7123+                          	global	_prev_inputs
  7124+ 000000                     _prev_inputs  equ     54
  7125+                          
  7126+                          	DABS	1,54,7	;_prev_inputs
  7127+                          	global	_chanA
  7128+                          	global	_chanA
  7129+ 000000                     _chanA  equ     16
  7130+                          
  7131+                          	DABS	1,16,3	;_chanA
  7132+                          	global	_chanB
  7133+                          	global	_chanB
  7134+ 000000                     _chanB  equ     19
  7135+                          
  7136+                          	DABS	1,19,3	;_chanB
  7137+                          	global	_chanC
  7138+                          	global	_chanC
  7139+ 000000                     _chanC  equ     22
  7140+                          
  7141+                          	DABS	1,22,3	;_chanC
  7142+                          	global	_chanD
  7143+                          	global	_chanD
  7144+ 000000                     _chanD  equ     7
  7145+                          
  7146+                          	DABS	1,7,3	;_chanD
  7147+                          	global	_chanE
  7148+                          	global	_chanE
  7149+ 000000                     _chanE  equ     4
  7150+                          
  7151+                          	DABS	1,4,3	;_chanE
  7152+                          	global	_chanF
  7153+                          	global	_chanF
  7154+ 000000                     _chanF  equ     13
  7155+                          
  7156+                          	DABS	1,13,3	;_chanF
  7157+                          	global	_chanG
  7158+                          	global	_chanG
  7159+ 000000                     _chanG  equ     10
  7160+                          
  7161+                          	DABS	1,10,3	;_chanG
  7162+                          	global	_conv_result
  7163+                          	global	_conv_result
  7164+ 000000                     _conv_result  equ     1
  7165+                          
  7166+                          	DABS	1,1,2	;_conv_result
  7167+                          	global	_index
  7168+                          	global	_index
  7169+ 000000                     _index  equ     68
  7170+                          
  7171+                          	DABS	1,68,2	;_index
  7172+                          	global	_USART_Status
  7173+                          	global	_USART_Status
  7174+ 000000                     _USART_Status  equ     25
  7175+                          
  7176+                          	DABS	1,25,1	;_USART_Status
  7177+                          	global	_mode
  7178+                          	global	_mode
  7179+ 000000                     _mode  equ     3
  7180+                          
  7181+                          	DABS	1,3,1	;_mode
  7182+                          	global	_new_note
  7183+                          	global	_new_note
  7184+ 000000                     _new_note  equ     53
  7185+                          
  7186+                          	DABS	1,53,1	;_new_note
  7187+                          	global	_uart_out
  7188+                          	global	_uart_out
  7189+ 000000                     _uart_out  equ     52
  7190+                          
  7191+                          	DABS	1,52,1	;_uart_out
  7192+                          	global	_ADCON0
  7193+ 000000                     _ADCON0	equ	0xFC2
  7194+                          	global	_ADCON1
  7195+ 000000                     _ADCON1	equ	0xFC1
  7196+                          	global	_ADCON2
  7197+ 000000                     _ADCON2	equ	0xFC0
  7198+                          	global	_ADRESH
  7199+ 000000                     _ADRESH	equ	0xFC4
  7200+                          	global	_ADRESL
  7201+ 000000                     _ADRESL	equ	0xFC3
  7202+                          	global	_BAUDCON
  7203+ 000000                     _BAUDCON	equ	0xFB8
  7204+                          	global	_INTCON
  7205+ 000000                     _INTCON	equ	0xFF2
  7206+                          	global	_LATA
  7207+ 000000                     _LATA	equ	0xF89
  7208+                          	global	_LATB
  7209+ 000000                     _LATB	equ	0xF8A
  7210+                          	global	_LATC
  7211+ 000000                     _LATC	equ	0xF8B
  7212+                          	global	_OSCCON
  7213+ 000000                     _OSCCON	equ	0xFD3
  7214+                          	global	_PIE1
  7215+ 000000                     _PIE1	equ	0xF9D
  7216+                          	global	_PIR1
  7217+ 000000                     _PIR1	equ	0xF9E
  7218+                          	global	_RCREG
  7219+ 000000                     _RCREG	equ	0xFAE
  7220+                          	global	_RCSTA
  7221+ 000000                     _RCSTA	equ	0xFAB
  7222+                          	global	_SPBRG
  7223+ 000000                     _SPBRG	equ	0xFAF
  7224+                          	global	_SPBRGH
  7225+ 000000                     _SPBRGH	equ	0xFB0
  7226+                          	global	_T0CON
  7227+ 000000                     _T0CON	equ	0xFD5
  7228+                          	global	_TRISA
  7229+ 000000                     _TRISA	equ	0xF92
  7230+                          	global	_TRISB
  7231+ 000000                     _TRISB	equ	0xF93
  7232+                          	global	_TRISC
  7233+ 000000                     _TRISC	equ	0xF94
  7234+                          	global	_TXREG
  7235+ 000000                     _TXREG	equ	0xFAD
  7236+                          	global	_TXSTA
  7237+ 000000                     _TXSTA	equ	0xFAC
  7238+                          	global	_adc_num
  7239+                          	global	_adc_num
  7240+ 000000                     _adc_num  equ     0
  7241+                          
  7242+                          	DABS	1,0,1	;_adc_num
  7243+                          	global	_ADON
  7244+ 000000                     _ADON	equ	0x7E10
  7245+                          	global	_BRGH_x
  7246+ 000000                     _BRGH_x	equ	0x7D62
  7247+                          	global	_CREN_x
  7248+ 000000                     _CREN_x	equ	0x7D5C
  7249+                          	global	_CSRC_x
  7250+ 000000                     _CSRC_x	equ	0x7D67
  7251+                          	global	_FERR
  7252+ 000000                     _FERR	equ	0x7D5A
  7253+                          	global	_GODONE
  7254+ 000000                     _GODONE	equ	0x7E11
  7255+                          	global	_OERR
  7256+ 000000                     _OERR	equ	0x7D59
  7257+                          	global	_RCIE_x
  7258+ 000000                     _RCIE_x	equ	0x7CED
  7259+                          	global	_RCIF
  7260+ 000000                     _RCIF	equ	0x7CF5
  7261+                          	global	_RX9D
  7262+ 000000                     _RX9D	equ	0x7D58
  7263+                          	global	_RX9_x
  7264+ 000000                     _RX9_x	equ	0x7D5E
  7265+                          	global	_SENDB_x
  7266+ 000000                     _SENDB_x	equ	0x7D63
  7267+                          	global	_SPEN_x
  7268+ 000000                     _SPEN_x	equ	0x7D5F
  7269+                          	global	_SREN_x
  7270+ 000000                     _SREN_x	equ	0x7D5D
  7271+                          	global	_SYNC_x
  7272+ 000000                     _SYNC_x	equ	0x7D64
  7273+                          	global	_TMR0IE
  7274+ 000000                     _TMR0IE	equ	0x7F95
  7275+                          	global	_TMR0IF
  7276+ 000000                     _TMR0IF	equ	0x7F92
  7277+                          	global	_TMR0IP
  7278+ 000000                     _TMR0IP	equ	0x7F8A
  7279+                          	global	_TRISC6
  7280+ 000000                     _TRISC6	equ	0x7CA6
  7281+                          	global	_TRISC7
  7282+ 000000                     _TRISC7	equ	0x7CA7
  7283+                          	global	_TRMT_x
  7284+ 000000                     _TRMT_x	equ	0x7D61
  7285+                          	global	_TX9D
  7286+ 000000                     _TX9D	equ	0x7D60
  7287+                          	global	_TX9_x
  7288+ 000000                     _TX9_x	equ	0x7D66
  7289+                          	global	_TXEN_x
  7290+ 000000                     _TXEN_x	equ	0x7D65
  7291+                          	global	_TXIE_x
  7292+ 000000                     _TXIE_x	equ	0x7CEC
  7293+                          	global	_TXIF
  7294+ 000000                     _TXIF	equ	0x7CF4
  7295+                          	psect	intsave_regs,class=BIGRAM,space=1
  7296+                          	PSECT	param1,class=BANK1,space=1
  7297+                          	GLOBAL	__Lparam1
  7298+                          	FNCONF	param1,??,?
  7299+                          	GLOBAL	__Labsbss0
  7300+ 000000                     __Labsbss0	EQU	0
  7301+                          	GLOBAL	__Habsbss0
  7302+ 000000                     __Habsbss0	EQU	70
  7303+                          GLOBAL	__Lparam, __Hparam
  7304+                          GLOBAL	__Lparam1, __Hparam1
  7305+ 000000                     __Lparam	EQU	__Lparam1
  7306+ 000000                     __Hparam	EQU	__Hparam1


HI-TECH Software PICC-18 Macro Assembler V9.66 build 8870 
Symbol Table                                           Mon May 07 22:55:27 2012

                    l871 22FC                      l880 2394  
                    l872 22E8                      l881 2358  
                    l890 2394                      l882 2342  
                    l874 22F8                      l875 2394  
                    l884 2354                      l876 2328  
                    l868 2394                      l885 2394  
                    l877 2314                      l869 228C  
                    l886 2388                      l887 2372  
                    l879 2324                      l889 2384  
                   _ADON 007E10                     _FERR 007D5A  
                   _LATA 000F89                     _LATB 000F8A  
                   _LATC 000F8B                     _PIE1 000F9D  
                   _RCIF 007CF5                     _PIR1 000F9E  
                   _OERR 007D59                     _RX9D 007D58  
                   _TX9D 007D60                     _TXIF 007CF4  
                   _main 228C                     _mode 000003  
                   fsr0h 000FEA                     fsr1h 000FE2  
                   fsr0l 000FE9                     fsr2h 000FDA  
                   fsr1l 000FE1                     fsr2l 000FD9  
                   pclat 000FFA                     prodh 000FF4  
                   prodl 000FF3                     start 0018  
                  ?_main 0100                    u10200 230C  
                  u10201 2308                    u10210 2324  
                  u10211 2320                    u10220 233A  
                  u10221 2336                    u10230 2354  
                  u10231 2350                    u10240 236A  
                  u10241 2366                    u10250 2384  
                  u10251 2380                    u10180 22E4  
                  u10181 22E0                    u10190 22F8  
                  u10191 22F4                    _T0CON 000FD5  
                  i2l901 2064                    i2l910 2236  
                  i2l902 206C                    i2l911 210A  
                  i2l903 2236                    i2l920 2138  
                  i2l904 20BE                    i2l913 20EC  
                  i2l930 219A                    i2l922 2146  
                  i2l906 20A0                    i2l931 2236  
                  i2l923 214E                    i2l915 20FA  
                  i2l924 2236                    i2l932 21EE  
                  i2l916 2102                    i2l908 20AE  
                  i2l917 2236                    i2l941 221C  
                  i2l925 21A2                    i2l909 20B6  
                  i2l950 1400                    i2l934 21D0  
                  i2l918 2156                    i2l951 1FCE  
                  i2l943 222A                    i2l927 2184  
                  i2l960 14F2                    i2l952 1432  
                  i2l944 2232                    i2l936 21DE  
                  i2l953 1FCE                    i2l961 1FCE  
                  i2l945 2250                    i2l937 21E6  
                  i2l929 2192                    i2l970 15F0  
                  i2l962 1526                    i2l954 1464  
                  i2l946 2250                    i2l938 2236  
                  i2l947 1FCE                    i2l955 1FCE  
                  i2l963 1FCE                    i2l971 1FCE  
                  i2l939 2236                    i2l980 16E8  
                  i2l972 161E                    i2l964 155A  
                  i2l956 1496                    i2l948 13CC  
                  i2l957 1FCE                    i2l965 1FCE  
                  i2l973 1FCE                    i2l981 1FCE  
                  i2l949 1FCE                    i2l990 17DE  
                  i2l982 171A                    i2l974 164E  
                  i2l966 158C                    i2l958 14C2  
                  i2l959 1FCE                    i2l967 1FCE  
                  i2l975 1FCE                    i2l983 1FCE  
                  i2l991 1FCE                    i2l895 2252  
                  i2l992 1812                    i2l984 174C  
                  i2l976 1682                    i2l968 15BE  
                  i2l896 223C                    i2l969 1FCE  
                  i2l977 1FCE                    i2l985 1FCE  
                  i2l993 1FCE                    i2l897 2074  
                  i2l994 1844                    i2l986 177A  
                  i2l978 16B6                    i2l979 1FCE  
                  i2l987 1FCE                    i2l995 1FCE  
                  i2l899 2056                    i2l996 1876  
                  i2l988 17AA                    i2l989 1FCE  
                  i2l997 1FCE                    i2l998 18A8  
                  i2l999 1FCE                    _RCREG 000FAE  
                  _RCSTA 000FAB                    _SPBRG 000FAF  
                  _TRISA 000F92                    _TRISB 000F93  
                  _TRISC 000F94                    _RX9_x 007D5E  
                  _TXREG 000FAD                    _TX9_x 007D66  
                  _TXSTA 000FAC          __end_of_getNote 1398  
                  _chanA 000010                    _chanB 000013  
                  _chanC 000016                    _chanD 000007  
                  _chanE 000004                    _chanF 00000D  
                  _chanG 00000A                    _index 000044  
                  tablat 000FF5                    status 000FD8  
           __end_of_main 239C                   ??_main 0104  
          __activetblptr 000000                   _ADCON0 000FC2  
                 _ADCON1 000FC1                   _ADCON2 000FC0  
                 _ADRESH 000FC4                   _ADRESL 000FC3  
                 _BRGH_x 007D62                   _GODONE 007E11  
                 _CREN_x 007D5C                   i2l1000 18D6  
                 i2l1001 1FCE                   i2l1010 19D2  
                 i2l1002 1906                   i2l1003 1FCE  
                 i2l1011 1FCE                   i2l1020 1ACA  
                 i2l1012 1A04                   i2l1004 193A  
                 i2l1005 1FCE                   i2l1013 1FCE  
                 i2l1021 1FCE                   i2l1030 1BBE  
                 i2l1022 1AFC                   i2l1014 1A32  
                 i2l1006 196E                   i2l1007 1FCE  
                 i2l1015 1FCE                   i2l1023 1FCE  
                 i2l1031 1FCE                   i2l1200 06D0  
                 i2l1040 1CBC                   i2l1032 1BF2  
                 i2l1024 1B2E                   i2l1016 1A62  
                 i2l1008 19A0                   i2l1201 0644  
                 i2l1009 1FCE                   i2l1017 1FCE  
                 i2l1025 1FCE                   i2l1033 1FCE  
                 i2l1041 1FCE                   _CSRC_x 007D67  
                 i2l1210 07AA                   i2l1202 06CC  
                 i2l1130 23E2                   i2l1050 1DB4  
                 i2l1042 1CEA                   i2l1034 1C26  
                 i2l1026 1B60                   i2l1018 1A96  
                 i2l1211 075E                   i2l1203 0680  
                 i2l1131 23AA                   i2l1019 1FCE  
                 i2l1027 1FCE                   i2l1035 1FCE  
                 i2l1043 1FCE                   i2l1051 1FCE  
                 i2l1300 1070                   i2l1220 0888  
                 i2l1212 07AA                   i2l1204 06CC  
                 i2l1140 241A                   i2l1132 23B2  
                 i2l1060 1EAA                   i2l1052 1DE6  
                 i2l1044 1D1A                   i2l1036 1C58  
                 i2l1028 1B8E                   i2l1301 10BC  
                 i2l1221 0878                   i2l1213 079A  
                 i2l1205 06BC                   i2l1141 2452  
                 i2l1133 23BA                   i2l1029 1FCE  
                 i2l1037 1FCE                   i2l1045 1FCE  
                 i2l1053 1FCE                   i2l1061 1FCE  
                 i2l1142 1396                   i2l1310 11D0  
                 i2l1302 10AC                   i2l1230 0950  
                 i2l1222 0888                   i2l1214 07AA  
                 i2l1206 06CC                   i2l1150 0142  
                 i2l1134 23C2                   i2l1070 1FA2  
                 i2l1062 1EDE                   i2l1054 1E18  
                 i2l1046 1D4E                   i2l1038 1C8A  
                 i2l1223 138C                   i2l1311 1184  
                 i2l1303 10BC                   i2l1231 099C  
                 i2l1207 0888                   i2l1215 0888  
                 i2l1151 0132                   i2l1143 0302  
                 i2l1135 23CA                   i2l1039 1FCE  
                 i2l1047 1FCE                   i2l1055 1FCE  
                 i2l1063 1FCE                   i2l1071 1FCE  
                 i2l1304 138C                   i2l1320 12AE  
                 i2l1312 11D0                   i2l1240 0A56  
                 i2l1232 098C                   i2l1224 0B48  
                 i2l1216 0888                   i2l1208 07AE  
                 i2l1160 0220                   i2l1152 0142  
                 i2l1144 006A                   i2l1128 2452  
                 i2l1136 23D2                   i2l1072 1FCE  
                 i2l1064 1F10                   i2l1056 1E46  
                 i2l1048 1D82                   i2l1305 138C  
                 i2l1321 129E                   i2l1313 11C0  
                 i2l1241 0A66                   i2l1233 099C  
                 i2l1225 08C4                   i2l1217 0800  
                 i2l1209 0722                   i2l1153 02FE  
                 i2l1161 02FE                   i2l1145 02FE  
                 i2l1137 23DA                   i2l1129 2404  
                 i2l1049 1FCE                   i2l1057 1FCE  
                 i2l1065 1FCE                   i2l1250 138C  
                 i2l1330 138C                   i2l1322 12AE  
                 i2l1314 11D0                   i2l1306 10F8  
                 i2l1234 0B44                   i2l1242 0B44  
                 i2l1226 0B44                   i2l1218 0888  
                 i2l1170 05BC                   i2l1162 02FE  
                 i2l1154 0224                   i2l1146 0146  
                 i2l1138 240C                   i2l1066 1F42  
                 i2l1058 1E76                   i2l1307 138C  
                 i2l1315 138C                   i2l1323 138C  
                 i2l1251 0E04                   i2l1243 0B44  
                 i2l1235 0A6A                   i2l1227 09A0  
                 i2l1219 083C                   i2l1171 0338  
                 i2l1163 0276                   i2l1155 0198  
                 i2l1147 00BA                   i2l1059 1FCE  
                 i2l1067 1FCE                   i2l1324 138C  
                 i2l1316 12B2                   i2l1308 11D4  
                 i2l1260 0C58                   i2l1252 0B80  
                 i2l1244 0ABC                   i2l1236 09DE  
                 i2l1228 0914                   i2l1180 05B8  
                 i2l1172 05B8                   i2l1164 02FE  
                 i2l1156 0220                   i2l1148 0142  
                 i2l1068 1F74                   i2l1325 1304  
                 i2l1317 1226                   i2l1309 1148  
                 i2l1261 0E00                   i2l1253 0E00  
                 i2l1245 0B44                   i2l1237 0A66  
                 i2l1229 099C                   i2l1181 04F2  
                 i2l1173 0414                   i2l1165 02B2  
                 i2l1157 01D4                   i2l1149 00F6  
                 i2l1069 1FCE                   i2l1326 138C  
                 i2l1318 12AE                   i2l1270 0E00  
                 i2l1262 0D26                   i2l1254 0C5C  
                 i2l1246 0AF8                   i2l1238 0A1A  
                 i2l1190 0530                   i2l1182 0466  
                 i2l1174 0388                   i2l1166 02FE  
                 i2l1158 0220                   i2l1327 1340  
                 i2l1319 1262                   i2l1271 0D78  
                 i2l1263 0C9A                   i2l1255 0BD0  
                 i2l1247 0B44                   i2l1239 0A66  
                 i2l1191 05B8                   i2l1183 04EE  
                 i2l1175 0410                   i2l1167 02EE  
                 i2l1159 0210                   i2l1328 138C  
                 i2l1280 10BC                   i2l1272 0E00  
                 i2l1264 0D22                   i2l1256 0C58  
                 i2l1248 0B34                   i2l1192 056C  
                 i2l1184 04A2                   i2l1176 03C4  
                 i2l1168 02FE                   i2l1329 137C  
                 i2l1281 0F18                   i2l1273 0DB4  
                 i2l1265 0CD6                   i2l1257 0C0C  
                 i2l1249 0B44                   i2l1193 05B8  
                 i2l1185 04EE                   i2l1177 0410  
                 i2l1169 138C                   i2l1290 0F56  
                 i2l1282 0E8C                   i2l1274 0E00  
                 i2l1266 0D22                   i2l1258 0C58  
                 i2l1194 05A8                   i2l1186 04DE  
                 i2l1178 0400                   i2l1291 0FDE  
                 i2l1283 0F14                   i2l1275 0DF0  
                 i2l1267 0D12                   i2l1259 0C48  
                 i2l1195 05B8                   i2l1187 04EE  
                 i2l1179 0410                   i2l1196 138C  
                 i2l1292 0F92                   i2l1284 0EC8  
                 i2l1276 0E00                   i2l1268 0D22  
                 i2l1188 05B8                   i2l1277 138C  
                 i2l1293 0FDE                   i2l1285 0F14  
                 i2l1269 0E00                   i2l1197 088C  
                 i2l1189 05B8                   i2l1294 0FCE  
                 i2l1286 0F04                   i2l1278 10C0  
                 i2l1198 05F4                   i2l1295 0FDE  
                 i2l1287 0F14                   i2l1279 0E3C  
                 i2l1199 0888                   i2l1288 10BC  
                 i2l1296 10BC                   i2l1297 10BC  
                 i2l1289 0FE2                   i2l1298 1034  
                 i2l1299 10BC                   _INTCON 000FF2  
                 _RCIE_x 007CED                   i2u7100 200C  
                 i2u7101 2008                   i2u7110 201A  
                 i2u7111 2016                   _OSCCON 000FD3  
                 i2u8000 0828                   i2u7200 20E4  
                 i2u7120 2028                   i2u8001 0824  
                 i2u7201 20E0                   i2u7121 2024  
                 i2u8010 0850                   i2u7210 20FA  
                 i2u7130 203A                   i2u8011 084C  
                 i2u7211 20F6                   i2u7131 2036  
                 i2u8100 0964                   i2u8020 0864  
                 i2u7300 21DE                   i2u7220 211C  
                 i2u7140 204E                   i2u8101 0960  
                 i2u8021 0860                   i2u7301 21DA  
                 i2u7221 2118                   i2u7141 204A  
                 i2u8110 0978                   i2u8030 089E  
                 i2u7310 2200                   i2u7230 2130  
                 i2u7150 2064                   i2u8111 0974  
                 i2u8031 089A                   i2u7311 21FC  
                 i2u7231 212C                   i2u7151 2060  
                 i2u8200 0AA8                   i2u8120 09B6  
                 i2u8040 08B0                   i2u7400 00CE  
                 i2u7080 241A                   i2u9000 1476  
                 i2u7320 2214                   i2u7240 2146  
                 i2u7160 2084                   i2u8201 0AA4  
                 i2u8121 09B2                   i2u8041 08AC  
                 i2u7401 00CA                   i2u7081 2416  
                 i2u9001 1472                   i2u7321 2210  
                 i2u7241 2142                   i2u7161 2080  
                 i2u8210 0AD0                   i2u8130 09CA  
                 i2u8050 08D8                   i2u7410 00E2  
                 i2u7090 244E                   i2u9010 1488  
                 i2u7330 222A                   i2u7250 2168  
                 i2u7170 2098                   i2u8211 0ACC  
                 i2u8131 09C6                   i2u8051 08D4  
                 i2u7411 00DE                   i2u7091 244A  
                 i2u9011 1484                   i2u7331 2226  
                 i2u7251 2164                   i2u7171 2094  
                 i2u8300 0BE4                   i2u8220 0AE4  
                 i2u8140 09F2                   i2u8060 08EC  
                 i2u7500 01FC                   i2u7420 010A  
                 i2u9100 156C                   i2u9020 14A4  
                 i2u7340 224A                   i2u7260 217C  
                 i2u7180 20AE                   i2u8301 0BE0  
                 i2u8221 0AE0                   i2u8141 09EE  
                 i2u8061 08E8                   i2u7501 01F8  
                 i2u7421 0106                   i2u9101 1568  
                 i2u9021 14A0                   i2u7341 2246  
                 i2u7261 2178                   i2u7181 20AA  
                 i2u8310 0BF8                   i2u8230 0B0C  
                 i2u8150 0A06                   i2u8070 0900  
                 i2u7510 023A                   i2u7430 011E  
                 i2u7350 0044                   i2u9110 157E  
                 i2u9030 14B4                   i2u7270 2192  
                 i2u7190 20D0                   i2u8311 0BF4  
                 i2u8231 0B08                   i2u8151 0A02  
                 i2u8071 08FC                   i2u7511 0236  
                 i2u7431 011A                   i2u7351 0040  
                 i2u9111 157A                   i2u9031 14B0  
                 i2u7271 218E                   i2u7191 20CC  
                 i2u8400 0D3C                   i2u8320 0C20  
                 i2u8240 0B20                   i2u8160 0A2E  
                 i2u8080 0928                   i2u7600 034C  
                 i2u7520 024E                   i2u7440 015C  
                 i2u7360 0056                   i2u9200 1660  
                 i2u9120 159E                   i2u9040 14D2  
                 i2u7280 21B4                   i2u8401 0D38  
                 i2u8321 0C1C                   i2u8241 0B1C  
                 i2u8161 0A2A                   i2u8081 0924  
                 i2u7601 0348                   i2u7521 024A  
                 i2u7441 0158                   i2u7361 0052  
                 i2u9201 165C                   i2u9121 159A  
                 i2u9041 14CE                   i2u7281 21B0  
                 i2u8410 0D50                   i2u8330 0C34  
                 i2u8250 0B5A                   i2u8170 0A42  
                 i2u8090 093C                   i2u7610 0360  
                 i2u7530 0262                   i2u7450 0170  
                 i2u7370 007E                   i2u9210 1672  
                 i2u9130 15B0                   i2u9050 14E4  
                 i2u7290 21C8                   i2u8411 0D4C  
                 i2u8331 0C30                   i2u8251 0B56  
                 i2u8171 0A3E                   i2u8091 0938  
                 i2u7611 035C                   i2u7531 025E  
                 i2u7451 016C                   i2u7371 007A  
                 i2u9211 166E                   i2u9131 15AC  
                 i2u9051 14E0                   i2u7291 21C4  
                 i2u8500 0E64                   i2u8420 0D64  
                 i2u8340 0C72                   i2u8260 0B6C  
                 i2u8180 0A80                   i2u7700 047A  
                 i2u7620 0374                   i2u7540 028A  
                 i2u7460 0184                   i2u7380 0092  
                 i2u9300 175A                   i2u9220 1694  
                 i2u9140 15D0                   i2u9060 1504  
                 i2u8501 0E60                   i2u8421 0D60  
                 i2u8341 0C6E                   i2u8261 0B68  
                 i2u8181 0A7C                   i2u7701 0476  
                 i2u7621 0370                   i2u7541 0286  
                 i2u7461 0180                   i2u7381 008E  
                 i2u9301 1756                   i2u9221 1690  
                 i2u9141 15CC                   i2u9061 1500  
                 i2u8510 0E78                   i2u8430 0D8C  
                 i2u8350 0C86                   i2u8270 0B94  
                 i2u8190 0A94                   i2u7710 048E  
                 i2u7630 039C                   i2u7550 029E  
                 i2u7470 01AC                   i2u7390 00A6  
                 i2u9310 176C                   i2u9230 16A6  
                 i2u9150 15E2                   i2u9070 1516  
                 i2u8511 0E74                   i2u8431 0D88  
                 i2u8351 0C82                   i2u8271 0B90  
                 i2u8191 0A90                   i2u7711 048A  
                 i2u7631 0398                   i2u7551 029A  
                 i2u7471 01A8                   i2u7391 00A2  
                 i2u9311 1768                   i2u9231 16A2  
                 i2u9151 15DE                   i2u9071 1512  
                 i2u8600 0FA6                   i2u8520 0EA0  
                 i2u8440 0DA0                   i2u8360 0CAE  
                 i2u8280 0BA8                   i2u7800 05CE  
                 i2u7720 04B6                   i2u7640 03B0  
                 i2u7560 02C6                   i2u7480 01C0  
                 i2u9400 1856                   i2u9320 178A  
                 i2u9240 16C8                   i2u9160 15FE  
                 i2u9080 1538                   i2u8601 0FA2  
                 i2u8521 0E9C                   i2u8441 0D9C  
                 i2u8361 0CAA                   i2u8281 0BA4  
                 i2u7801 05CA                   i2u7721 04B2  
                 i2u7641 03AC                   i2u7561 02C2  
                 i2u7481 01BC                   i2u9401 1852  
                 i2u9321 1786                   i2u9241 16C4  
                 i2u9161 15FA                   i2u9081 1534  
                 i2u8610 0FBA                   i2u8530 0EB4  
                 i2u8450 0DC8                   i2u8370 0CC2  
                 i2u8290 0BBC                   i2u7810 05E0  
                 i2u7730 04CA                   i2u7650 03D8  
                 i2u7570 02DA                   i2u7490 01E8  
                 i2u9410 1868                   i2u9330 179C  
                 i2u9250 16DA                   i2u9170 1610  
                 i2u9090 154A                   i2u8611 0FB6  
                 i2u8531 0EB0                   i2u8451 0DC4  
                 i2u8371 0CBE                   i2u8291 0BB8  
                 i2u7811 05DC                   i2u7731 04C6  
                 i2u7651 03D4                   i2u7571 02D6  
                 i2u7491 01E4                   i2u9411 1864  
                 i2u9331 1798                   i2u9251 16D6  
                 i2u9171 160C                   i2u9091 1546  
                 i2u8700 10E4                   i2u8620 0FF8  
                 i2u8540 0EDC                   i2u8460 0DDC  
                 i2u8380 0CEA                   i2u7900 06FA  
                 i2u7820 0608                   i2u7740 0508  
                 i2u7660 03EC                   i2u7580 0312  
                 i2u9500 194C                   i2u9420 1888  
                 i2u9340 17BC                   i2u9260 16FA  
                 i2u9180 162E                   i2u8701 10E0  
                 i2u8621 0FF4                   i2u8541 0ED8  
                 i2u8461 0DD8                   i2u8381 0CE6  
                 i2u7901 06F6                   i2u7821 0604  
                 i2u7741 0504                   i2u7661 03E8  
                 i2u7581 030E                   i2u9501 1948  
                 i2u9421 1884                   i2u9341 17B8  
                 i2u9261 16F6                   i2u9181 162A  
                 i2u8710 110C                   i2u8630 100C  
                 i2u8550 0EF0                   i2u8470 0E16  
                 i2u8390 0CFE                   i2u7910 070E  
                 i2u7830 061C                   i2u7750 051C  
                 i2u7670 042A                   i2u7590 0324  
                 i2u9510 195E                   i2u9430 189A  
                 i2u9350 17CE                   i2u9270 170C  
                 i2u9190 1640                   i2u8711 1108  
                 i2u8631 1008                   i2u8551 0EEC  
                 i2u8471 0E12                   i2u8391 0CFA  
                 i2u7911 070A                   i2u7831 0618  
                 i2u7751 0518                   i2u7671 0426  
                 i2u7591 0320                   i2u9511 195A  
                 i2u9431 1896                   i2u9351 17CA  
                 i2u9271 1708                   i2u9191 163C  
                 i2u8800 1212                   i2u8720 1120  
                 i2u8640 1020                   i2u8560 0F2E  
                 i2u8480 0E28                   i2u7920 0736  
                 i2u7840 0630                   i2u7760 0544  
                 i2u7680 043E                   i2u9600 1A42  
                 i2u9520 1980                   i2u9440 18B6  
                 i2u9360 17F0                   i2u9280 172C  
                 i2u8801 120E                   i2u8721 111C  
                 i2u8641 101C                   i2u8561 0F2A  
                 i2u8481 0E24                   i2u7921 0732  
                 i2u7841 062C                   i2u7761 0540  
                 i2u7681 043A                   i2u9601 1A3E  
                 i2u9521 197C                   i2u9441 18B2  
                 i2u9361 17EC                   i2u9281 1728  
                 i2u8810 123A                   i2u8730 1134  
                 i2u8650 1048                   i2u8570 0F42  
                 i2u8490 0E50                   i2u7930 074A  
                 i2u7850 0658                   i2u7770 0558  
                 i2u7690 0452                   i2u9610 1A54  
                 i2u9530 1992                   i2u9450 18C8  
                 i2u9370 1802                   i2u9290 173E  
                 i2u8811 1236                   i2u8731 1130  
                 i2u8651 1044                   i2u8571 0F3E  
                 i2u8491 0E4C                   i2u7931 0746  
                 i2u7851 0654                   i2u7771 0554  
                 i2u7691 044E                   i2u9611 1A50  
                 i2u9531 198E                   i2u9451 18C4  
                 i2u9371 17FE                   i2u9291 173A  
                 i2u8900 1354                   i2u8820 124E  
                 i2u8740 115C                   i2u8660 105C  
                 i2u8580 0F6A                   i2u7940 0772  
                 i2u7860 066C                   i2u7780 0580  
                 i2u9700 1B40                   i2u9620 1A74  
                 i2u9540 19B2                   i2u9460 18E6  
                 i2u9380 1824                   i2u8901 1350  
                 i2u8821 124A                   i2u8741 1158  
                 i2u8661 1058                   i2u8581 0F66  
                 i2u7941 076E                   i2u7861 0668  
                 i2u7781 057C                   i2u9701 1B3C  
                 i2u9621 1A70                   i2u9541 19AE  
                 i2u9461 18E2                   i2u9381 1820  
                 i2u8910 1368                   i2u8830 1276  
                 i2u8750 1170                   i2u8670 1084  
                 i2u8590 0F7E                   i2u7950 0786  
                 i2u7870 0694                   i2u7790 0594  
                 i2u9710 1B52                   i2u9630 1A86  
                 i2u9550 19C4                   i2u9470 18F8  
                 i2u9390 1836                   i2u8911 1364  
                 i2u8831 1272                   i2u8751 116C  
                 i2u8671 1080                   i2u8591 0F7A  
                 i2u7951 0782                   i2u7871 0690  
                 i2u7791 0590                   i2u9711 1B4E  
                 i2u9631 1A82                   i2u9551 19C0  
                 i2u9471 18F4                   i2u9391 1832  
                 i2u8840 128A                   i2u8760 1198  
                 i2u8680 1098                   i2u7960 07C4  
                 i2u7880 06A8                   i2u9800 1C38  
                 i2u9720 1B6E                   i2u9640 1AA8  
                 i2u9560 19E4                   i2u9480 1918  
                 i2u8920 13AA                   i2u8841 1286  
                 i2u8761 1194                   i2u8681 1094  
                 i2u7961 07C0                   i2u7881 06A4  
                 i2u9801 1C34                   i2u9721 1B6A  
                 i2u9641 1AA4                   i2u9561 19E0  
                 i2u9481 1914                   i2u8921 13A6  
                 i2u8850 12C8                   i2u8770 11AC  
                 i2u8690 10D2                   i2u7970 07D8  
                 i2u7890 06E6                   i2u9810 1C4A  
                 i2u9730 1B80                   i2u9650 1ABA  
                 i2u9570 19F6                   i2u9490 192A  
                 i2u8930 13BC                   i2u8851 12C4  
                 i2u8771 11A8                   i2u8691 10CE  
                 i2u7971 07D4                   i2u7891 06E2  
                 i2u9811 1C46                   i2u9731 1B7C  
                 i2u9651 1AB6                   i2u9571 19F2  
                 i2u9491 1926                   i2u8931 13B8  
                 i2u8860 12DC                   i2u8780 11EA  
                 i2u7980 07EC                   i2u9900 1D2C  
                 i2u9820 1C6A                   i2u9740 1B9E  
                 i2u9660 1ADC                   i2u9580 1A12  
                 i2u8940 13DE                   i2u8861 12D8  
                 i2u8781 11E6                   i2u7981 07E8  
                 i2u9901 1D28                   i2u9821 1C66  
                 i2u9741 1B9A                   i2u9661 1AD8  
                 i2u9581 1A0E                   i2u8941 13DA  
                 i2u8870 12F0                   i2u8790 11FE  
                 i2u7990 0814                   i2u9910 1D3E  
                 i2u9830 1C7C                   i2u9750 1BB0  
                 i2u9670 1AEE                   i2u9590 1A24  
                 i2u8950 13F0                   i2u8871 12EC  
                 i2u8791 11FA                   i2u7991 0810  
                 i2u9911 1D3A                   i2u9831 1C78  
                 i2u9751 1BAC                   i2u9671 1AEA  
                 i2u9591 1A20                   i2u8951 13EC  
                 i2u8880 1318                   i2u9920 1D60  
                 i2u9840 1C9C                   i2u9760 1BD0  
                 i2u9680 1B0E                   i2u8960 1412  
                 i2u8881 1314                   i2u9921 1D5C  
                 i2u9841 1C98                   i2u9761 1BCC  
                 i2u9681 1B0A                   i2u8961 140E  
                 i2u8890 132C                   i2u9930 1D72  
                 i2u9850 1CAE                   i2u9770 1BE2  
                 i2u9690 1B20                   i2u8970 1424  
                 i2u8891 1328                   i2u9931 1D6E  
                 i2u9851 1CAA                   i2u9771 1BDE  
                 i2u9691 1B1C                   i2u8971 1420  
                 i2u9940 1D94                   i2u9860 1CCA  
                 i2u9780 1C04                   i2u8980 1444  
                 i2u9941 1D90                   i2u9861 1CC6  
                 i2u9781 1C00                   i2u8981 1440  
                 i2u9950 1DA6                   i2u9870 1CDC  
                 i2u9790 1C16                   i2u8990 1456  
                 i2u9951 1DA2                   i2u9871 1CD8  
                 i2u9791 1C12                   i2u8991 1452  
                 i2u9960 1DC6                   i2u9880 1CFA  
                 i2u9961 1DC2                   i2u9881 1CF6  
                 i2u9970 1DD8                   i2u9890 1D0C  
                 i2u9971 1DD4                   i2u9891 1D08  
                 i2u9980 1DF8                   i2u9981 1DF4  
                 i2u9990 1E0A                   i2u9991 1E06  
                 _TMR0IE 007F95                   _TMR0IF 007F92  
                 _TMR0IP 007F8A                   _SPBRGH 000FB0  
                 _TRISC6 007CA6                   _TRISC7 007CA7  
                 _SPEN_x 007D5F                   _SREN_x 007D5D  
                 _TRMT_x 007D61                   _TXIE_x 007CEC  
                 _TXEN_x 007D65                   _SYNC_x 007D64  
                 __Ldata 000000                   _my_isr 1FD0  
              ??_getNote 0118               _ToggleLeds 1398  
           __mediumconst 0D00                   tblptrh 000FF7  
                 tblptrl 000FF6                   tblptru 000FF8  
             __accesstop 0060                  _BAUDCON 000FB8  
                ?_my_isr 0105              ?_ToggleLeds 0113  
                i2u10000 1E26                  i2u10001 1E22  
                i2u10010 1E38                  i2u10011 1E34  
                i2u10100 1F22                  i2u10020 1E56  
                i2u10101 1F1E                  i2u10021 1E52  
                i2u10110 1F34                  i2u10030 1E68  
                i2u10111 1F30                  i2u10031 1E64  
                i2u10120 1F54                  i2u10040 1E88  
                i2u10121 1F50                  i2u10041 1E84  
                i2u10130 1F66                  i2u10050 1E9A  
                i2u10131 1F62                  i2u10051 1E96  
                i2u10140 1F82                  i2u10060 1EBC  
                i2u10141 1F7E                  i2u10061 1EB8  
                i2u10150 1F94                  i2u10070 1ECE  
                i2u10151 1F90                  i2u10071 1ECA  
                i2u10160 1FB2                  i2u10080 1EF0  
                i2u10161 1FAE                  i2u10081 1EEC  
                i2u10170 1FC4                  i2u10090 1F02  
                i2u10171 1FC0                  i2u10091 1EFE  
                _SENDB_x 007D63           _adc_conversion 239C  
                __Hparam 011A               _cur_inputs 00003D  
                __Lparam 0100                  _adc_num 000000  
                __ramtop 0D00                  _getNote 0036  
 __end_of_adc_conversion 2454          getNote@new_note 0118  
          __Lmediumconst 0D00                  int_func 0008  
        ?_adc_conversion 0113           __end_of_my_isr 228C  
              __Habsbss0 000046                __Labsbss0 000000  
               ??_my_isr 0105             ??_ToggleLeds 0113  
     adc_conversion@note 0115       __end_of_ToggleLeds 1FD0  
               ?_getNote 0116                _led_array 00001A  
            __smallconst 0D00           getNote@hResult 0116  
         getNote@lResult 0117         ??_adc_conversion 0113  
            _conv_result 000001                 __Hparam1 011A  
               __Lparam1 0100             __Lsmallconst 0D00  
               __config1 00F0FF                 __config2 00FEFF  
               __config3 007FFF                 __config4 00FFFB  
               __config5 00FFFF                 __config6 00FFFF  
               __config7 00FFFF                 _new_note 000035  
               _uart_out 000034                 main@argc 0100  
               main@argv 0102                 intlevel2 2454  
            _prev_inputs 000036    adc_conversion@hResult 0113  
  adc_conversion@lResult 0114             _USART_Status 000019  
