

HI-TECH Software LITE Macro Assembler (PIC18) V9.66 build 8870 
                                                       Sun May 06 17:22:06 2012

HI-TECH Software Omniscient Code Generator build 8870
     1  000000                     opt subtitle "HI-TECH Software Omniscient Code G
                                 enerator build 8870"
     2                           
     3                           	processor	18F2682
     4  000000                     porta	equ	0F80h
     5  000000                     portb	equ	0F81h
     6  000000                     portc	equ	0F82h
     7  000000                     portd	equ	0F83h
     8  000000                     porte	equ	0F84h
     9  000000                     lata	equ	0F89h
    10  000000                     latb	equ	0F8Ah
    11  000000                     latc	equ	0F8Bh
    12  000000                     latd	equ	0F8Ch
    13  000000                     late	equ	0F8Dh
    14  000000                     trisa	equ	0F92h
    15  000000                     trisb	equ	0F93h
    16  000000                     trisc	equ	0F94h
    17  000000                     trisd	equ	0F95h
    18  000000                     trise	equ	0F96h
    19  000000                     pie1	equ	0F9Dh
    20  000000                     pir1	equ	0F9Eh
    21  000000                     ipr1	equ	0F9Fh
    22  000000                     pie2	equ	0FA0h
    23  000000                     pir2	equ	0FA1h
    24  000000                     ipr2	equ	0FA2h
    25  000000                     t3con	equ	0FB1h
    26  000000                     tmr3l	equ	0FB2h
    27  000000                     tmr3h	equ	0FB3h
    28  000000                     ccp1con	equ	0FBDh
    29  000000                     ccpr1l	equ	0FBEh
    30  000000                     ccpr1h	equ	0FBFh
    31  000000                     adcon1	equ	0FC1h
    32  000000                     adcon0	equ	0FC2h
    33  000000                     adresl	equ	0FC3h
    34  000000                     adresh	equ	0FC4h
    35  000000                     sspcon2	equ	0FC5h
    36  000000                     sspcon1	equ	0FC6h
    37  000000                     sspstat	equ	0FC7h
    38  000000                     sspadd	equ	0FC8h
    39  000000                     sspbuf	equ	0FC9h
    40  000000                     t2con	equ	0FCAh
    41  000000                     pr2	equ	0FCBh
    42  000000                     tmr2	equ	0FCCh
    43  000000                     t1con	equ	0FCDh
    44  000000                     tmr1l	equ	0FCEh
    45  000000                     tmr1h	equ	0FCFh
    46  000000                     rcon	equ	0FD0h
    47  000000                     wdtcon	equ	0FD1h
    48  000000                     lvdcon	equ	0FD2h
    49  000000                     osccon	equ	0FD3h
    50  000000                     t0con	equ	0FD5h
    51  000000                     tmr0l	equ	0FD6h
    52  000000                     tmr0h	equ	0FD7h
    53  000000                     status	equ	0FD8h
    54  000000                     fsr2	equ	0FD9h
    55  000000                     fsr2l	equ	0FD9h
    56  000000                     fsr2h	equ	0FDAh
    57  000000                     plusw2	equ	0FDBh
    58  000000                     preinc2	equ	0FDCh
    59  000000                     postdec2	equ	0FDDh
    60  000000                     postinc2	equ	0FDEh
    61  000000                     indf2	equ	0FDFh
    62  000000                     bsr	equ	0FE0h
    63  000000                     fsr1	equ	0FE1h
    64  000000                     fsr1l	equ	0FE1h
    65  000000                     fsr1h	equ	0FE2h
    66  000000                     plusw1	equ	0FE3h
    67  000000                     preinc1	equ	0FE4h
    68  000000                     postdec1	equ	0FE5h
    69  000000                     postinc1	equ	0FE6h
    70  000000                     indf1	equ	0FE7h
    71  000000                     wreg	equ	0FE8h
    72  000000                     fsr0	equ	0FE9h
    73  000000                     fsr0l	equ	0FE9h
    74  000000                     fsr0h	equ	0FEAh
    75  000000                     plusw0	equ	0FEBh
    76  000000                     preinc0	equ	0FECh
    77  000000                     postdec0	equ	0FEDh
    78  000000                     postinc0	equ	0FEEh
    79  000000                     indf0	equ	0FEFh
    80  000000                     intcon3	equ	0FF0h
    81  000000                     intcon2	equ	0FF1h
    82  000000                     intcon	equ	0FF2h
    83  000000                     prod	equ	0FF3h
    84  000000                     prodl	equ	0FF3h
    85  000000                     prodh	equ	0FF4h
    86  000000                     tablat	equ	0FF5h
    87  000000                     tblptr	equ	0FF6h
    88  000000                     tblptrl	equ	0FF6h
    89  000000                     tblptrh	equ	0FF7h
    90  000000                     tblptru	equ	0FF8h
    91  000000                     pcl	equ	0FF9h
    92  000000                     pclat	equ	0FFAh
    93  000000                     pclath	equ	0FFAh
    94  000000                     pclatu	equ	0FFBh
    95  000000                     stkptr	equ	0FFCh
    96  000000                     tosl	equ	0FFDh
    97  000000                     tosh	equ	0FFEh
    98  000000                     tosu	equ	0FFFh
    99                           	global	__ramtop
   100                           	global	__accesstop
   101                           # 20 "../code/main.c"
   102                           	global __config1 ;#
   103                           # 20 "../code/main.c"
   104  000000                     	__config1 equ 0xF0FF ;#
   105                           # 21 "../code/main.c"
   106                           	global __config2 ;#
   107                           # 21 "../code/main.c"
   108  000000                     	__config2 equ 0xFEFF ;#
   109                           # 22 "../code/main.c"
   110                           	global __config3 ;#
   111                           # 22 "../code/main.c"
   112  000000                     	__config3 equ 0x7FFF ;#
   113                           # 23 "../code/main.c"
   114                           	global __config4 ;#
   115                           # 23 "../code/main.c"
   116  000000                     	__config4 equ 0xFFFB & 0xFFFF ;#
   117                           # 24 "../code/main.c"
   118                           	global __config5 ;#
   119                           # 24 "../code/main.c"
   120  000000                     	__config5 equ 0xFFFF ;#
   121                           # 25 "../code/main.c"
   122                           	global __config6 ;#
   123                           # 25 "../code/main.c"
   124  000000                     	__config6 equ 0xFFFF ;#
   125                           # 26 "../code/main.c"
   126                           	global __config7 ;#
   127                           # 26 "../code/main.c"
   128  000000                     	__config7 equ 0xFFFF ;#
   129                           	GLOBAL	__activetblptr
   130  000000                     __activetblptr	EQU	0
   131                           	GLOBAL	__smallconst,__Lsmallconst
   132  000000                     __smallconst	EQU	__Lsmallconst
   133                           	GLOBAL	__mediumconst,__Lmediumconst
   134  000000                     __mediumconst	EQU	__Lmediumconst
   135                           	GLOBAL	__Ldata
   136  000000                     __Ldata	EQU	0
   137  000000                     main@count	equ	??_main+0
   138                           	global	main@count
   139  000000                     main@uout	equ	??_main+1
   140                           	global	main@uout
   141  000000                     main@channel	equ	??_main+2
   142                           	global	main@channel
   143  000000                     main@result	equ	??_main+3
   144                           	global	main@result
   145  000000                     main@argc	equ	?_main+0
   146                           	global	main@argc
   147  000000                     main@argv	equ	?_main+2
   148                           	global	main@argv
   149  000000                     DelayMs@i	equ	??_DelayMs+0
   150                           	global	DelayMs@i
   151  000000                     DelayMs@_dcnt	equ	??_DelayMs+1
   152                           	global	DelayMs@_dcnt
   153  000000                     DelayMs@cnt	equ	?_DelayMs+0
   154                           	global	DelayMs@cnt
   155                           ;Data sizes: Strings 0, constant 0, data 0, bss 
                                 0, persistent 0 stack 14
   156                           	global	_main
   157                           	global	??_main
   158                           	global	?_main
   159                           
   160                           ; *************** function _main ***************
                                 **
   161                           ; Defined at:
   162                           ;		line 163 in file "../code/main.c"
   163                           ; Parameters:
   164                           ;		argc           size:   2offs:   0	type: int 
   165                           ;		argv           size:   2offs:   2	type: PTR P
                                 TR unsigned char 
   166                           ; Auto variables:
   167                           ;		count       	       	type: unsigned char 
   168                           ;		uout        	       	type: unsigned char 
   169                           ;		channel     	       	type: unsigned char 
   170                           ;		result      	       	type: int 
   171                           ; Return value:
   172                           ;		type: int 
   173                           ;		size: 2
   174                           ; Registers used:
   175                           ;		wreg, fsr0l, fsr0h, status,2, status,0, cstac
                                 k
   176                           ; Tracked objects:
   177                           ;		On entry : 0/0
   178                           ;		On exit  : 0/0
   179                           ;		Unchanged: 0/0
   180                           ; Data sizes:
   181                           ;		Autos:    5
   182                           ;		Params:   4
   183                           ;		Temp:     1
   184                           ;		Total:   10
   185                           ; This function calls:
   186                           ;		_DelayMs
   187                           ;		_ToggleLeds
   188                           ; This function is called by:
   189                           ;		Startup code after reset
   190                           ; This function uses a non-reentrant model
   191                           ; 
   192                                   psect   text0,class=CODE,space=0,reloc=2
   193                           
   194                           	opt lm
   195                           	file	"../code/main.c"
   196                           	line	163
   197  000000                     	__size_of_main	equ	__end_of_main-_main
   198                                   psect   text0
   199                           ;main.c: 20: asm("\tglobal __config" "1"); asm("
                                 \t__config" "1" " equ " "0xF0FF");
   200                           ;main.c: 21: asm("\tglobal __config" "2"); asm("
                                 \t__config" "2" " equ " "0xFEFF");
   201                           ;main.c: 22: asm("\tglobal __config" "3"); asm("
                                 \t__config" "3" " equ " "0x7FFF");
   202                           ;main.c: 23: asm("\tglobal __config" "4"); asm("
                                 \t__config" "4" " equ " "0xFFFB & 0xFFFF");
   203                           ;main.c: 24: asm("\tglobal __config" "5"); asm("
                                 \t__config" "5" " equ " "0xFFFF");
   204                           ;main.c: 25: asm("\tglobal __config" "6"); asm("
                                 \t__config" "6" " equ " "0xFFFF");
   205                           ;main.c: 26: asm("\tglobal __config" "7"); asm("
                                 \t__config" "7" " equ " "0xFFFF");
   206                           	
   207  012F54                     _main:		; BSR set to: ?
   208                           
   209                           	opt stack 31
   210                           	line	166
   211  012F54  0E72               	movlw	(072h)&0ffh
   212  012F56  12D3               	iorwf	((c:4051)),c	;volatile
   213                           	line	169
   214                           ;main.c: 169: TRISA = 0b10101111;
   215  012F58  0EAF               	movlw	low(0AFh)
   216+ 012F5A  6E92               	movwf	((c:3986)),c	;volatile
   217+                          	line	170
   218+                          ;main.c: 170: TRISB = 0b00010010;
   219+ 012F5C  0E12               	movlw	low(012h)
   220  012F5E  6E93               	movwf	((c:3987)),c	;volatile
   221                           	line	171
   222                           ;main.c: 171: TRISC = 0b10000000;
   223  012F60  0E80               	movlw	low(080h)
   224  012F62  6E94               	movwf	((c:3988)),c	;volatile
   225                           	line	174
   226                           ;main.c: 174: ADCON0 = 0b00000000;
   227  012F64  0E00               	movlw	low(0)
   228  012F66  6EC2               	movwf	((c:4034)),c	;volatile
   229                           	line	175
   230                           ;main.c: 175: ADCON1 = 0b00000101;
   231  012F68  0E05               	movlw	low(05h)
   232  012F6A  6EC1               	movwf	((c:4033)),c	;volatile
   233                           	line	176
   234                           ;main.c: 176: ADCON2 = 0b10000000;
   235  012F6C  0E80               	movlw	low(080h)
   236  012F6E  6EC0               	movwf	((c:4032)),c	;volatile
   237                           	line	179
   238                           ;main.c: 179: ADCON2 = 0b00101010;
   239  012F70  0E2A               	movlw	low(02Ah)
   240  012F72  6EC0               	movwf	((c:4032)),c	;volatile
   241                           	line	180
   242                           ;main.c: 180: adc_num = 0;
   243  012F74  0E00               	movlw	low(0)
   244  012F76  6E2E               	movwf	((c:46)),c	;volatile
   245                           	line	206
   246                           ;main.c: 206: SPBRGH = (((8000000L/19200UL)/16) 
                                 - 1) >> 8;
   247  012F78  0E00               	movlw	low(0)
   248  012F7A  6EB0               	movwf	((c:4016)),c	;volatile
   249                           	line	207
   250                           ;main.c: 207: SPBRG = (((8000000L/19200UL)/16) -
                                  1);
   251  012F7C  0E19               	movlw	low(019h)
   252  012F7E  6EAF               	movwf	((c:4015)),c	;volatile
   253                           	line	208
   254                           ;main.c: 208: BAUDCON = 0b00001000;
   255  012F80  0E08               	movlw	low(08h)
   256  012F82  6EB8               	movwf	((c:4024)),c	;volatile
   257                           	line	209
   258                           ;main.c: 209: RCSTA = 0b10010000;
   259  012F84  0E90               	movlw	low(090h)
   260  012F86  6EAB               	movwf	((c:4011)),c	;volatile
   261                           	line	210
   262                           ;main.c: 210: TXSTA = 0b00100000;
   263  012F88  0E20               	movlw	low(020h)
   264  012F8A  6EAC               	movwf	((c:4012)),c	;volatile
   265                           	line	214
   266                           ;main.c: 214: LATA = 0b11111111;
   267  012F8C  6889               	setf	((c:3977)),c	;volatile
   268                           	line	216
   269                           ;main.c: 216: LATB = 0b10000000;
   270  012F8E  0E80               	movlw	low(080h)
   271  012F90  6E8A               	movwf	((c:3978)),c	;volatile
   272                           	line	218
   273                           ;main.c: 218: LATC = 0b00001111;
   274  012F92  0E0F               	movlw	low(0Fh)
   275  012F94  6E8B               	movwf	((c:3979)),c	;volatile
   276                           	line	233
   277                           ;main.c: 233: char count = 0x00;
   278  012F96  0101               	movlb	1	; () banked
   279  012F98  6F09               	movwf	(??_main+5+0)&0ffh
   280  012F9A  0E00               	movlw	low(0)
   281  012F9C  0101               	movlb	1	; () banked
   282  012F9E  0101               	movlb	1	; () banked
   283  012FA0  6F04               	movwf	((main@count))&0ffh
   284  012FA2  0101               	movlb	1	; () banked
   285  012FA4  5109               	movf	(??_main+5+0)&0ffh,w
   286                           	line	234
   287                           ;main.c: 234: while (1) {
   288                           	
   289  012FA6                     l869:		; BSR set to: ?
   290                           
   291                           	line	237
   292                           ;main.c: 235: char uout;
   293                           ;main.c: 237: uout = 0xee;
   294  012FA6  0101               	movlb	1	; () banked
   295  012FA8  6F09               	movwf	(??_main+5+0)&0ffh
   296  012FAA  0EEE               	movlw	low(0EEh)
   297  012FAC  0101               	movlb	1	; () banked
   298  012FAE  0101               	movlb	1	; () banked
   299  012FB0  6F05               	movwf	((main@uout))&0ffh
   300  012FB2  0101               	movlb	1	; () banked
   301  012FB4  5109               	movf	(??_main+5+0)&0ffh,w
   302                           	line	238
   303                           ;main.c: 238: TXREG = uout;
   304  012FB6  C105  FFAD         	movff	(main@uout),(c:4013)	;volatile
   305                           	line	239
   306                           ;main.c: 239: while((PIR1 & 0b00010000) == 0);
   307  012FBA  EFDF  F097         	goto	l871
   308                           	
   309  012FBE                     l871:		; BSR set to: ?
   310                           
   311                           	
   312  012FBE  A89E               	btfss	((c:3998)),c,(4)&7	;volatile
   313  012FC0  EFE4  F097         	goto	u5711
   314  012FC4  EFE6  F097         	goto	u5710
   315  012FC8                     u5711:
   316  012FC8  EFDF  F097         	goto	l871
   317  012FCC                     u5710:
   318                           	
   319  012FCC                     l873:		; BSR set to: ?
   320                           
   321                           	line	242
   322                           ;main.c: 242: ADON = 0;
   323  012FCC  90C2               	bcf	c:(32272/8),(32272)&7	;volatile
   324                           	line	244
   325                           ;main.c: 244: ADRESH = 0x00;
   326  012FCE  0E00               	movlw	low(0)
   327  012FD0  6EC4               	movwf	((c:4036)),c	;volatile
   328                           	line	245
   329                           ;main.c: 245: ADRESL = 0x00;
   330  012FD2  0E00               	movlw	low(0)
   331  012FD4  6EC3               	movwf	((c:4035)),c	;volatile
   332                           	line	246
   333                           ;main.c: 246: ADCON0 = 0b00100000;
   334  012FD6  0E20               	movlw	low(020h)
   335  012FD8  6EC2               	movwf	((c:4034)),c	;volatile
   336                           	line	248
   337                           ;main.c: 248: ADON = 1;
   338  012FDA  80C2               	bsf	c:(32272/8),(32272)&7	;volatile
   339                           	line	249
   340                           ;main.c: 249: GODONE = 1;
   341  012FDC  82C2               	bsf	c:(32273/8),(32273)&7	;volatile
   342                           	line	252
   343                           ;main.c: 252: while (GODONE);
   344  012FDE  EFF1  F097         	goto	l874
   345                           	
   346  012FE2                     l874:		; BSR set to: ?
   347                           
   348  012FE2  B2C2               	btfsc	c:(32273/8),(32273)&7	;volatile
   349  012FE4  EFF6  F097         	goto	u5721
   350  012FE8  EFF8  F097         	goto	u5720
   351  012FEC                     u5721:
   352  012FEC  EFF1  F097         	goto	l874
   353  012FF0                     u5720:
   354                           	
   355  012FF0                     l876:		; BSR set to: ?
   356                           
   357                           	line	254
   358                           ;main.c: 254: if (ADRESL < 50 ) {
   359  012FF0  0E32               	movlw	(032h)&0ffh
   360  012FF2  60C3               	cpfslt	((c:4035)),c	;volatile
   361  012FF4  EFFE  F097         	goto	u5731
   362  012FF8  EF00  F098         	goto	u5730
   363  012FFC                     u5731:
   364  012FFC  EF15  F098         	goto	l877
   365  013000                     u5730:
   366                           	line	255
   367                           ;main.c: 255: uout = 0x01;
   368  013000  0101               	movlb	1	; () banked
   369  013002  6F09               	movwf	(??_main+5+0)&0ffh
   370  013004  0E01               	movlw	low(01h)
   371  013006  0101               	movlb	1	; () banked
   372  013008  0101               	movlb	1	; () banked
   373  01300A  6F05               	movwf	((main@uout))&0ffh
   374  01300C  0101               	movlb	1	; () banked
   375  01300E  5109               	movf	(??_main+5+0)&0ffh,w
   376                           	line	256
   377                           ;main.c: 256: TXREG = uout;
   378  013010  C105  FFAD         	movff	(main@uout),(c:4013)	;volatile
   379                           	line	257
   380                           ;main.c: 257: while((PIR1 & 0b00010000) == 0);
   381  013014  EF0C  F098         	goto	l878
   382                           	
   383  013018                     l878:		; BSR set to: ?
   384                           
   385                           	
   386  013018  A89E               	btfss	((c:3998)),c,(4)&7	;volatile
   387  01301A  EF11  F098         	goto	u5741
   388  01301E  EF13  F098         	goto	u5740
   389  013022                     u5741:
   390  013022  EF0C  F098         	goto	l878
   391  013026                     u5740:
   392                           	
   393  013026                     l880:		; BSR set to: ?
   394                           
   395                           	line	258
   396                           ;main.c: 258: }
   397  013026  EF9A  F098         	goto	l881
   398                           	line	259
   399                           	
   400  01302A                     l877:		; BSR set to: ?
   401                           
   402                           ;main.c: 259: else if (ADRESL >= 50 && ADRESL <1
                                 60 ) {
   403  01302A  0E31               	movlw	(032h-1)
   404  01302C  64C3               	cpfsgt	((c:4035)),c	;volatile
   405  01302E  EF1B  F098         	goto	u5751
   406  013032  EF1D  F098         	goto	u5750
   407  013036                     u5751:
   408  013036  EF3A  F098         	goto	l882
   409  01303A                     u5750:
   410  01303A  0EA0               	movlw	(0A0h)&0ffh
   411  01303C  60C3               	cpfslt	((c:4035)),c	;volatile
   412  01303E  EF23  F098         	goto	u5761
   413  013042  EF25  F098         	goto	u5760
   414  013046                     u5761:
   415  013046  EF3A  F098         	goto	l882
   416  01304A                     u5760:
   417                           	line	260
   418                           ;main.c: 260: uout = 0x02;
   419  01304A  0101               	movlb	1	; () banked
   420  01304C  6F09               	movwf	(??_main+5+0)&0ffh
   421  01304E  0E02               	movlw	low(02h)
   422  013050  0101               	movlb	1	; () banked
   423  013052  0101               	movlb	1	; () banked
   424  013054  6F05               	movwf	((main@uout))&0ffh
   425  013056  0101               	movlb	1	; () banked
   426  013058  5109               	movf	(??_main+5+0)&0ffh,w
   427                           	line	261
   428                           ;main.c: 261: TXREG = uout;
   429  01305A  C105  FFAD         	movff	(main@uout),(c:4013)	;volatile
   430                           	line	262
   431                           ;main.c: 262: while((PIR1 & 0b00010000) == 0);
   432  01305E  EF31  F098         	goto	l883
   433                           	
   434  013062                     l883:		; BSR set to: ?
   435                           
   436                           	
   437  013062  A89E               	btfss	((c:3998)),c,(4)&7	;volatile
   438  013064  EF36  F098         	goto	u5771
   439  013068  EF38  F098         	goto	u5770
   440  01306C                     u5771:
   441  01306C  EF31  F098         	goto	l883
   442  013070                     u5770:
   443                           	
   444  013070                     l885:		; BSR set to: ?
   445                           
   446                           	line	263
   447                           ;main.c: 263: }
   448  013070  EF9A  F098         	goto	l881
   449                           	line	264
   450                           	
   451  013074                     l882:		; BSR set to: ?
   452                           
   453                           ;main.c: 264: else if (ADRESL >= 160 && ADRESL <
                                 250 ) {
   454  013074  0E9F               	movlw	(0A0h-1)
   455  013076  64C3               	cpfsgt	((c:4035)),c	;volatile
   456  013078  EF40  F098         	goto	u5781
   457  01307C  EF42  F098         	goto	u5780
   458  013080                     u5781:
   459  013080  EF5F  F098         	goto	l887
   460  013084                     u5780:
   461  013084  0EFA               	movlw	(0FAh)&0ffh
   462  013086  60C3               	cpfslt	((c:4035)),c	;volatile
   463  013088  EF48  F098         	goto	u5791
   464  01308C  EF4A  F098         	goto	u5790
   465  013090                     u5791:
   466  013090  EF5F  F098         	goto	l887
   467  013094                     u5790:
   468                           	line	265
   469                           ;main.c: 265: uout = 0x03;
   470  013094  0101               	movlb	1	; () banked
   471  013096  6F09               	movwf	(??_main+5+0)&0ffh
   472  013098  0E03               	movlw	low(03h)
   473  01309A  0101               	movlb	1	; () banked
   474  01309C  0101               	movlb	1	; () banked
   475  01309E  6F05               	movwf	((main@uout))&0ffh
   476  0130A0  0101               	movlb	1	; () banked
   477+ 0130A2  5109               	movf	(??_main+5+0)&0ffh,w
   478+                          	line	266
   479+                          ;main.c: 266: TXREG = uout;
   480+ 0130A4  C105  FFAD         	movff	(main@uout),(c:4013)	;volatile
   481                           	line	267
   482                           ;main.c: 267: while((PIR1 & 0b00010000) == 0);
   483  0130A8  EF56  F098         	goto	l888
   484                           	
   485  0130AC                     l888:		; BSR set to: ?
   486                           
   487                           	
   488  0130AC  A89E               	btfss	((c:3998)),c,(4)&7	;volatile
   489  0130AE  EF5B  F098         	goto	u5801
   490  0130B2  EF5D  F098         	goto	u5800
   491  0130B6                     u5801:
   492  0130B6  EF56  F098         	goto	l888
   493  0130BA                     u5800:
   494                           	
   495  0130BA                     l890:		; BSR set to: ?
   496                           
   497                           	line	268
   498                           ;main.c: 268: }
   499  0130BA  EF9A  F098         	goto	l881
   500                           	line	269
   501                           	
   502  0130BE                     l887:		; BSR set to: ?
   503                           
   504                           ;main.c: 269: else if (ADRESL >= 250 && ADRESL <
                                 350 ) {
   505  0130BE  0EF9               	movlw	(0FAh-1)
   506  0130C0  64C3               	cpfsgt	((c:4035)),c	;volatile
   507  0130C2  EF65  F098         	goto	u5811
   508  0130C6  EF67  F098         	goto	u5810
   509  0130CA                     u5811:
   510  0130CA  EF7C  F098         	goto	l892
   511  0130CE                     u5810:
   512                           	line	270
   513                           ;main.c: 270: uout = 0x04;
   514  0130CE  0101               	movlb	1	; () banked
   515  0130D0  6F09               	movwf	(??_main+5+0)&0ffh
   516  0130D2  0E04               	movlw	low(04h)
   517  0130D4  0101               	movlb	1	; () banked
   518  0130D6  0101               	movlb	1	; () banked
   519  0130D8  6F05               	movwf	((main@uout))&0ffh
   520  0130DA  0101               	movlb	1	; () banked
   521  0130DC  5109               	movf	(??_main+5+0)&0ffh,w
   522                           	line	271
   523                           ;main.c: 271: TXREG = uout;
   524  0130DE  C105  FFAD         	movff	(main@uout),(c:4013)	;volatile
   525                           	line	272
   526                           ;main.c: 272: while((PIR1 & 0b00010000) == 0);
   527  0130E2  EF73  F098         	goto	l893
   528                           	
   529  0130E6                     l893:		; BSR set to: ?
   530                           
   531                           	
   532  0130E6  A89E               	btfss	((c:3998)),c,(4)&7	;volatile
   533  0130E8  EF78  F098         	goto	u5821
   534  0130EC  EF7A  F098         	goto	u5820
   535  0130F0                     u5821:
   536  0130F0  EF73  F098         	goto	l893
   537  0130F4                     u5820:
   538                           	
   539  0130F4                     l895:		; BSR set to: ?
   540                           
   541                           	line	273
   542                           ;main.c: 273: }
   543  0130F4  EF9A  F098         	goto	l881
   544                           	line	274
   545                           	
   546  0130F8                     l892:		; BSR set to: ?
   547                           
   548  0130F8  EF7E  F098         	goto	l897
   549                           	line	279
   550                           	
   551  0130FC                     l897:		; BSR set to: ?
   552                           
   553  0130FC  EF80  F098         	goto	l902
   554                           	line	284
   555                           	
   556  013100                     l902:		; BSR set to: ?
   557                           
   558  013100  EF82  F098         	goto	l907
   559                           	line	289
   560                           	
   561  013104                     l907:		; BSR set to: ?
   562                           
   563  013104  EF84  F098         	goto	l912
   564                           	line	294
   565                           	
   566  013108                     l912:		; BSR set to: ?
   567                           
   568  013108  EF86  F098         	goto	l917
   569                           	line	299
   570                           	
   571  01310C                     l917:		; BSR set to: ?
   572                           
   573  01310C  EF88  F098         	goto	l922
   574                           	line	304
   575                           	
   576  013110                     l922:		; BSR set to: ?
   577                           
   578  013110  EF8A  F098         	goto	l927
   579                           	line	309
   580                           	
   581  013114                     l927:		; BSR set to: ?
   582                           
   583  013114  EF8C  F098         	goto	l932
   584                           	line	314
   585                           	
   586  013118                     l932:		; BSR set to: ?
   587                           
   588  013118  EF8E  F098         	goto	l937
   589                           	line	319
   590                           	
   591  01311C                     l937:		; BSR set to: ?
   592                           
   593  01311C  EF90  F098         	goto	l942
   594                           	line	324
   595                           	
   596  013120                     l942:		; BSR set to: ?
   597                           
   598  013120  EF92  F098         	goto	l947
   599                           	line	329
   600                           	
   601  013124                     l947:		; BSR set to: ?
   602                           
   603  013124  EF94  F098         	goto	l952
   604                           	line	334
   605                           	
   606  013128                     l952:		; BSR set to: ?
   607                           
   608  013128  EF96  F098         	goto	l957
   609                           	line	339
   610                           	
   611  01312C                     l957:		; BSR set to: ?
   612                           
   613  01312C  EF98  F098         	goto	l962
   614                           	line	344
   615                           	
   616  013130                     l962:		; BSR set to: ?
   617                           
   618  013130  EF9A  F098         	goto	l881
   619                           	line	364
   620                           	
   621  013134                     l881:		; BSR set to: ?
   622                           
   623                           ;main.c: 348: }
   624                           ;main.c: 364: DelayMs(5000);
   625  013134  0101               	movlb	1	; () banked
   626  013136  6F09               	movwf	(??_main+5+0)&0ffh
   627  013138  0E88               	movlw	low(088h)
   628  01313A  0101               	movlb	1	; () banked
   629  01313C  0101               	movlb	1	; () banked
   630  01313E  6F0A               	movwf	((?_DelayMs))&0ffh
   631  013140  0101               	movlb	1	; () banked
   632  013142  5109               	movf	(??_main+5+0)&0ffh,w
   633  013144  EC86  F097         	call	_DelayMs	;wreg free
   634                           	line	365
   635                           ;main.c: 365: DelayMs(5000);
   636  013148  0101               	movlb	1	; () banked
   637  01314A  6F09               	movwf	(??_main+5+0)&0ffh
   638  01314C  0E88               	movlw	low(088h)
   639  01314E  0101               	movlb	1	; () banked
   640  013150  0101               	movlb	1	; () banked
   641  013152  6F0A               	movwf	((?_DelayMs))&0ffh
   642  013154  0101               	movlb	1	; () banked
   643  013156  5109               	movf	(??_main+5+0)&0ffh,w
   644  013158  EC86  F097         	call	_DelayMs	;wreg free
   645                           	line	366
   646                           ;main.c: 366: DelayMs(5000);
   647  01315C  0101               	movlb	1	; () banked
   648  01315E  6F09               	movwf	(??_main+5+0)&0ffh
   649  013160  0E88               	movlw	low(088h)
   650  013162  0101               	movlb	1	; () banked
   651  013164  0101               	movlb	1	; () banked
   652  013166  6F0A               	movwf	((?_DelayMs))&0ffh
   653  013168  0101               	movlb	1	; () banked
   654  01316A  5109               	movf	(??_main+5+0)&0ffh,w
   655  01316C  EC86  F097         	call	_DelayMs	;wreg free
   656                           	line	367
   657                           ;main.c: 367: DelayMs(5000);
   658  013170  0101               	movlb	1	; () banked
   659  013172  6F09               	movwf	(??_main+5+0)&0ffh
   660  013174  0E88               	movlw	low(088h)
   661  013176  0101               	movlb	1	; () banked
   662  013178  0101               	movlb	1	; () banked
   663  01317A  6F0A               	movwf	((?_DelayMs))&0ffh
   664  01317C  0101               	movlb	1	; () banked
   665  01317E  5109               	movf	(??_main+5+0)&0ffh,w
   666  013180  EC86  F097         	call	_DelayMs	;wreg free
   667                           	line	368
   668                           ;main.c: 368: DelayMs(5000);
   669  013184  0101               	movlb	1	; () banked
   670  013186  6F09               	movwf	(??_main+5+0)&0ffh
   671  013188  0E88               	movlw	low(088h)
   672  01318A  0101               	movlb	1	; () banked
   673  01318C  0101               	movlb	1	; () banked
   674  01318E  6F0A               	movwf	((?_DelayMs))&0ffh
   675  013190  0101               	movlb	1	; () banked
   676  013192  5109               	movf	(??_main+5+0)&0ffh,w
   677  013194  EC86  F097         	call	_DelayMs	;wreg free
   678                           	line	369
   679                           ;main.c: 369: DelayMs(5000);
   680  013198  0101               	movlb	1	; () banked
   681  01319A  6F09               	movwf	(??_main+5+0)&0ffh
   682  01319C  0E88               	movlw	low(088h)
   683  01319E  0101               	movlb	1	; () banked
   684  0131A0  0101               	movlb	1	; () banked
   685  0131A2  6F0A               	movwf	((?_DelayMs))&0ffh
   686  0131A4  0101               	movlb	1	; () banked
   687  0131A6  5109               	movf	(??_main+5+0)&0ffh,w
   688  0131A8  EC86  F097         	call	_DelayMs	;wreg free
   689                           	line	370
   690                           ;main.c: 370: DelayMs(5000);
   691  0131AC  0101               	movlb	1	; () banked
   692  0131AE  6F09               	movwf	(??_main+5+0)&0ffh
   693  0131B0  0E88               	movlw	low(088h)
   694  0131B2  0101               	movlb	1	; () banked
   695  0131B4  0101               	movlb	1	; () banked
   696  0131B6  6F0A               	movwf	((?_DelayMs))&0ffh
   697  0131B8  0101               	movlb	1	; () banked
   698  0131BA  5109               	movf	(??_main+5+0)&0ffh,w
   699  0131BC  EC86  F097         	call	_DelayMs	;wreg free
   700                           	line	371
   701                           ;main.c: 371: DelayMs(5000);
   702  0131C0  0101               	movlb	1	; () banked
   703  0131C2  6F09               	movwf	(??_main+5+0)&0ffh
   704  0131C4  0E88               	movlw	low(088h)
   705  0131C6  0101               	movlb	1	; () banked
   706  0131C8  0101               	movlb	1	; () banked
   707  0131CA  6F0A               	movwf	((?_DelayMs))&0ffh
   708  0131CC  0101               	movlb	1	; () banked
   709  0131CE  5109               	movf	(??_main+5+0)&0ffh,w
   710  0131D0  EC86  F097         	call	_DelayMs	;wreg free
   711                           	line	374
   712                           	
   713  0131D4                     l868:		; BSR set to: ?
   714                           
   715                           	line	234
   716  0131D4  EFD3  F097         	goto	l869
   717                           	line	387
   718                           	
   719  0131D8                     l975:		; BSR set to: ?
   720                           
   721                           	line	389
   722                           ;main.c: 389: continue;
   723  0131D8  EFEE  F098         	goto	l974
   724                           	line	390
   725                           	
   726  0131DC                     l974:		; BSR set to: ?
   727                           
   728                           	line	387
   729  0131DC  502F               	movf	((c:47)),c,w
   730  0131DE  B4D8               	btfsc	status,2
   731  0131E0  EFF4  F098         	goto	u5981
   732  0131E4  EFF6  F098         	goto	u5980
   733  0131E8                     u5981:
   734  0131E8  EFEC  F098         	goto	l975
   735  0131EC                     u5980:
   736                           	
   737  0131EC                     l976:		; BSR set to: ?
   738                           
   739                           	line	391
   740                           ;main.c: 390: }
   741                           ;main.c: 391: int result = cur_inputs[index];
   742  0131EC  90D8               	bcf	status,0
   743  0131EE  3428               	rlcf	((c:40)),c,w
   744  0131F0  0101               	movlb	1	; () banked
   745  0131F2  6F09               	movwf	(??_main+5+0)&0ffh
   746  0131F4  0E1A               	movlw	low((c:26))
   747  0131F6  0101               	movlb	1	; () banked
   748  0131F8  2509               	addwf	(??_main+5+0)&0ffh,w
   749  0131FA  6EE9               	movwf	c:fsr0l
   750  0131FC  6AEA               	clrf	1+c:fsr0l
   751  0131FE  0E00               	movlw	high((c:26))
   752  013200  22EA               	addwfc	1+c:fsr0l
   753  013202  0101               	movlb	1	; () banked
   754  013204  CFEE F107          	movff	postinc0,(main@result)
   755  013208  0101               	movlb	1	; () banked
   756  01320A  CFED F108          	movff	postdec0,(main@result+1)
   757                           	line	392
   758                           ;main.c: 392: char channel = index;
   759  01320E  C028 F106          	movff	(c:40),(main@channel)
   760                           	line	395
   761                           	
   762  013212                     l971:		; BSR set to: ?
   763                           
   764                           	line	382
   765                           	
   766  013212                     l973:		; BSR set to: ?
   767                           
   768                           	line	404
   769                           ;main.c: 395: }
   770                           ;main.c: 404: }
   771  013212                     l867:
   772                           			; BSR set to: ?
   773                           
   774                           	global	start
   775  013212  EF00  F000         	goto	start
   776                           	opt stack 0
   777                           GLOBAL __end_of_main
   778  013216                     	__end_of_main:
   779                           	FNSIZE	_main,6,4
   780                           ; =============== function _main ends ==========
                                 ==
   781                           
   782                           	signat	_main,8314
   783                           	global	_ToggleLeds
   784                           	global	??_ToggleLeds
   785                           	global	?_ToggleLeds
   786                           
   787                           ; *************** function _ToggleLeds *********
                                 ********
   788                           ; Defined at:
   789                           ;		line 414 in file "../code/main.c"
   790                           ; Parameters:
   791                           ;		None
   792                           ; Auto variables:
   793                           ;		None
   794                           ; Return value:
   795                           ;		type: void 
   796                           ;		size: 0
   797                           ; Registers used:
   798                           ;		wreg, status,2, status,0
   799                           ; Tracked objects:
   800                           ;		On entry : 0/0
   801                           ;		On exit  : 0/0
   802                           ;		Unchanged: 0/0
   803                           ; Data sizes:
   804                           ;		Autos:    0
   805                           ;		Params:   0
   806                           ;		Temp:     0
   807                           ;		Total:    0
   808                           ; This function calls:
   809                           ;		Nothing
   810                           ; This function is called by:
   811                           ;		_main
   812                           ; This function uses a non-reentrant model
   813                           ; 
   814                                   psect   text1,class=CODE,space=0,reloc=2
   815                           
   816                           	opt lm
   817                           	file	"../code/main.c"
   818                           	line	414
   819  000000                     	__size_of_ToggleLeds	equ	__end_of_ToggleLeds-_T
                                 oggleLeds
   820                           ;main.c: 414: void ToggleLeds () {
   821                           	
   822  013216                     _ToggleLeds:		; BSR set to: ?
   823                           
   824                           	opt stack 30
   825                           	line	419
   826  013216  0408               	decf	(0+((c:0)+08h)),c,w
   827  013218  1009               	iorwf (1+((c:0)+08h)),c,w
   828                           
   829  01321A  A4D8               	btfss	status,2
   830  01321C  EF12  F099         	goto	u4241
   831  013220  EF14  F099         	goto	u4240
   832  013224                     u4241:
   833  013224  EF2E  F099         	goto	l978
   834  013228                     u4240:
   835  013228  040A               	decf	(0+((c:0)+0Ah)),c,w
   836  01322A  100B               	iorwf (1+((c:0)+0Ah)),c,w
   837                           
   838  01322C  A4D8               	btfss	status,2
   839  01322E  EF1B  F099         	goto	u4251
   840  013232  EF1D  F099         	goto	u4250
   841  013236                     u4251:
   842  013236  EF2E  F099         	goto	l978
   843  01323A                     u4250:
   844  01323A  040C               	decf	(0+((c:0)+0Ch)),c,w
   845  01323C  100D               	iorwf (1+((c:0)+0Ch)),c,w
   846                           
   847  01323E  A4D8               	btfss	status,2
   848  013240  EF24  F099         	goto	u4261
   849  013244  EF26  F099         	goto	u4260
   850  013248                     u4261:
   851  013248  EF2E  F099         	goto	l978
   852  01324C                     u4260:
   853                           	line	422
   854                           ;main.c: 422: LATA = 0b11101111;
   855  01324C  0EEF               	movlw	low(0EFh)
   856  01324E  6E89               	movwf	((c:3977)),c	;volatile
   857                           	line	424
   858                           ;main.c: 424: LATB = 0b11100000;
   859  013250  0EE0               	movlw	low(0E0h)
   860  013252  6E8A               	movwf	((c:3978)),c	;volatile
   861                           	line	426
   862                           ;main.c: 426: LATC = 0b00001111;
   863  013254  0E0F               	movlw	low(0Fh)
   864  013256  6E8B               	movwf	((c:3979)),c	;volatile
   865                           	line	427
   866                           ;main.c: 427: } else if (led_array[4] == 1 && le
                                 d_array[5] == 1 && led_array[7] == 1) {
   867  013258  EFFF  F09F         	goto	l979
   868                           	
   869  01325C                     l978:		; BSR set to: ?
   870                           
   871  01325C  0408               	decf	(0+((c:0)+08h)),c,w
   872  01325E  1009               	iorwf (1+((c:0)+08h)),c,w
   873                           
   874  013260  A4D8               	btfss	status,2
   875  013262  EF35  F099         	goto	u4271
   876  013266  EF37  F099         	goto	u4270
   877  01326A                     u4271:
   878  01326A  EF51  F099         	goto	l980
   879  01326E                     u4270:
   880  01326E  040A               	decf	(0+((c:0)+0Ah)),c,w
   881  013270  100B               	iorwf (1+((c:0)+0Ah)),c,w
   882                           
   883  013272  A4D8               	btfss	status,2
   884  013274  EF3E  F099         	goto	u4281
   885  013278  EF40  F099         	goto	u4280
   886  01327C                     u4281:
   887  01327C  EF51  F099         	goto	l980
   888  013280                     u4280:
   889  013280  040E               	decf	(0+((c:0)+0Eh)),c,w
   890  013282  100F               	iorwf (1+((c:0)+0Eh)),c,w
   891                           
   892  013284  A4D8               	btfss	status,2
   893  013286  EF47  F099         	goto	u4291
   894  01328A  EF49  F099         	goto	u4290
   895  01328E                     u4291:
   896  01328E  EF51  F099         	goto	l980
   897  013292                     u4290:
   898                           	line	430
   899                           ;main.c: 430: LATA = 0b10111111;
   900  013292  0EBF               	movlw	low(0BFh)
   901  013294  6E89               	movwf	((c:3977)),c	;volatile
   902                           	line	432
   903                           ;main.c: 432: LATB = 0b11100000;
   904  013296  0EE0               	movlw	low(0E0h)
   905  013298  6E8A               	movwf	((c:3978)),c	;volatile
   906                           	line	434
   907                           ;main.c: 434: LATC = 0b00001111;
   908  01329A  0E0F               	movlw	low(0Fh)
   909  01329C  6E8B               	movwf	((c:3979)),c	;volatile
   910                           	line	435
   911                           ;main.c: 435: } else if (led_array[4] == 1 && le
                                 d_array[5] == 1 && led_array[8] == 1) {
   912  01329E  EFFF  F09F         	goto	l979
   913                           	
   914  0132A2                     l980:		; BSR set to: ?
   915                           
   916  0132A2  0408               	decf	(0+((c:0)+08h)),c,w
   917  0132A4  1009               	iorwf (1+((c:0)+08h)),c,w
   918                           
   919  0132A6  A4D8               	btfss	status,2
   920  0132A8  EF58  F099         	goto	u4301
   921  0132AC  EF5A  F099         	goto	u4300
   922  0132B0                     u4301:
   923  0132B0  EF73  F099         	goto	l982
   924  0132B4                     u4300:
   925  0132B4  040A               	decf	(0+((c:0)+0Ah)),c,w
   926  0132B6  100B               	iorwf (1+((c:0)+0Ah)),c,w
   927                           
   928  0132B8  A4D8               	btfss	status,2
   929  0132BA  EF61  F099         	goto	u4311
   930  0132BE  EF63  F099         	goto	u4310
   931  0132C2                     u4311:
   932  0132C2  EF73  F099         	goto	l982
   933  0132C6                     u4310:
   934  0132C6  0410               	decf	(0+((c:0)+010h)),c,w
   935  0132C8  1011               	iorwf (1+((c:0)+010h)),c,w
   936                           
   937  0132CA  A4D8               	btfss	status,2
   938  0132CC  EF6A  F099         	goto	u4321
   939  0132D0  EF6C  F099         	goto	u4320
   940  0132D4                     u4321:
   941  0132D4  EF73  F099         	goto	l982
   942  0132D8                     u4320:
   943                           	line	438
   944                           ;main.c: 438: LATA = 0b11111111;
   945  0132D8  6889               	setf	((c:3977)),c	;volatile
   946                           	line	440
   947                           ;main.c: 440: LATB = 0b11100000;
   948  0132DA  0EE0               	movlw	low(0E0h)
   949  0132DC  6E8A               	movwf	((c:3978)),c	;volatile
   950                           	line	442
   951                           ;main.c: 442: LATC = 0b00001110;
   952  0132DE  0E0E               	movlw	low(0Eh)
   953  0132E0  6E8B               	movwf	((c:3979)),c	;volatile
   954                           	line	443
   955                           ;main.c: 443: } else if (led_array[4] == 1 && le
                                 d_array[5] == 1 && led_array[9] == 1) {
   956  0132E2  EFFF  F09F         	goto	l979
   957                           	
   958  0132E6                     l982:		; BSR set to: ?
   959                           
   960  0132E6  0408               	decf	(0+((c:0)+08h)),c,w
   961  0132E8  1009               	iorwf (1+((c:0)+08h)),c,w
   962                           
   963  0132EA  A4D8               	btfss	status,2
   964  0132EC  EF7A  F099         	goto	u4331
   965  0132F0  EF7C  F099         	goto	u4330
   966  0132F4                     u4331:
   967  0132F4  EF95  F099         	goto	l984
   968  0132F8                     u4330:
   969  0132F8  040A               	decf	(0+((c:0)+0Ah)),c,w
   970  0132FA  100B               	iorwf (1+((c:0)+0Ah)),c,w
   971                           
   972  0132FC  A4D8               	btfss	status,2
   973  0132FE  EF83  F099         	goto	u4341
   974  013302  EF85  F099         	goto	u4340
   975  013306                     u4341:
   976  013306  EF95  F099         	goto	l984
   977  01330A                     u4340:
   978  01330A  0412               	decf	(0+((c:0)+012h)),c,w
   979  01330C  1013               	iorwf (1+((c:0)+012h)),c,w
   980                           
   981  01330E  A4D8               	btfss	status,2
   982  013310  EF8C  F099         	goto	u4351
   983  013314  EF8E  F099         	goto	u4350
   984  013318                     u4351:
   985  013318  EF95  F099         	goto	l984
   986  01331C                     u4350:
   987                           	line	446
   988                           ;main.c: 446: LATA = 0b11111111;
   989  01331C  6889               	setf	((c:3977)),c	;volatile
   990                           	line	448
   991                           ;main.c: 448: LATB = 0b11100000;
   992  01331E  0EE0               	movlw	low(0E0h)
   993  013320  6E8A               	movwf	((c:3978)),c	;volatile
   994                           	line	450
   995                           ;main.c: 450: LATC = 0b00001101;
   996  013322  0E0D               	movlw	low(0Dh)
   997  013324  6E8B               	movwf	((c:3979)),c	;volatile
   998                           	line	451
   999                           ;main.c: 451: } else if (led_array[4] == 1 && le
                                 d_array[5] == 1 && led_array[10] == 1) {
  1000  013326  EFFF  F09F         	goto	l979
  1001                           	
  1002  01332A                     l984:		; BSR set to: ?
  1003                           
  1004  01332A  0408               	decf	(0+((c:0)+08h)),c,w
  1005  01332C  1009               	iorwf (1+((c:0)+08h)),c,w
  1006                           
  1007  01332E  A4D8               	btfss	status,2
  1008  013330  EF9C  F099         	goto	u4361
  1009  013334  EF9E  F099         	goto	u4360
  1010  013338                     u4361:
  1011  013338  EFB7  F099         	goto	l986
  1012  01333C                     u4360:
  1013  01333C  040A               	decf	(0+((c:0)+0Ah)),c,w
  1014  01333E  100B               	iorwf (1+((c:0)+0Ah)),c,w
  1015                           
  1016  013340  A4D8               	btfss	status,2
  1017  013342  EFA5  F099         	goto	u4371
  1018  013346  EFA7  F099         	goto	u4370
  1019  01334A                     u4371:
  1020  01334A  EFB7  F099         	goto	l986
  1021  01334E                     u4370:
  1022  01334E  0414               	decf	(0+((c:0)+014h)),c,w
  1023  013350  1015               	iorwf (1+((c:0)+014h)),c,w
  1024                           
  1025  013352  A4D8               	btfss	status,2
  1026  013354  EFAE  F099         	goto	u4381
  1027  013358  EFB0  F099         	goto	u4380
  1028  01335C                     u4381:
  1029  01335C  EFB7  F099         	goto	l986
  1030  013360                     u4380:
  1031                           	line	454
  1032                           ;main.c: 454: LATA = 0b11111111;
  1033  013360  6889               	setf	((c:3977)),c	;volatile
  1034                           	line	456
  1035                           ;main.c: 456: LATB = 0b01100000;
  1036  013362  0E60               	movlw	low(060h)
  1037  013364  6E8A               	movwf	((c:3978)),c	;volatile
  1038                           	line	458
  1039                           ;main.c: 458: LATC = 0b00001111;
  1040  013366  0E0F               	movlw	low(0Fh)
  1041  013368  6E8B               	movwf	((c:3979)),c	;volatile
  1042                           	line	459
  1043                           ;main.c: 459: } else if (led_array[4] == 1 && le
                                 d_array[5] == 1 && led_array[11] == 1) {
  1044  01336A  EFFF  F09F         	goto	l979
  1045                           	
  1046  01336E                     l986:		; BSR set to: ?
  1047                           
  1048  01336E  0408               	decf	(0+((c:0)+08h)),c,w
  1049  013370  1009               	iorwf (1+((c:0)+08h)),c,w
  1050                           
  1051  013372  A4D8               	btfss	status,2
  1052  013374  EFBE  F099         	goto	u4391
  1053  013378  EFC0  F099         	goto	u4390
  1054  01337C                     u4391:
  1055  01337C  EFD9  F099         	goto	l988
  1056  013380                     u4390:
  1057  013380  040A               	decf	(0+((c:0)+0Ah)),c,w
  1058  013382  100B               	iorwf (1+((c:0)+0Ah)),c,w
  1059                           
  1060  013384  A4D8               	btfss	status,2
  1061  013386  EFC7  F099         	goto	u4401
  1062  01338A  EFC9  F099         	goto	u4400
  1063  01338E                     u4401:
  1064  01338E  EFD9  F099         	goto	l988
  1065  013392                     u4400:
  1066  013392  0416               	decf	(0+((c:0)+016h)),c,w
  1067  013394  1017               	iorwf (1+((c:0)+016h)),c,w
  1068                           
  1069  013396  A4D8               	btfss	status,2
  1070  013398  EFD0  F099         	goto	u4411
  1071  01339C  EFD2  F099         	goto	u4410
  1072  0133A0                     u4411:
  1073  0133A0  EFD9  F099         	goto	l988
  1074  0133A4                     u4410:
  1075                           	line	462
  1076                           ;main.c: 462: LATA = 0b11111111;
  1077  0133A4  6889               	setf	((c:3977)),c	;volatile
  1078                           	line	464
  1079                           ;main.c: 464: LATB = 0b11100000;
  1080  0133A6  0EE0               	movlw	low(0E0h)
  1081  0133A8  6E8A               	movwf	((c:3978)),c	;volatile
  1082                           	line	466
  1083                           ;main.c: 466: LATC = 0b00001011;
  1084  0133AA  0E0B               	movlw	low(0Bh)
  1085  0133AC  6E8B               	movwf	((c:3979)),c	;volatile
  1086                           	line	467
  1087                           ;main.c: 467: } else if (led_array[4] == 1 && le
                                 d_array[5] == 1 && led_array[12] == 1) {
  1088  0133AE  EFFF  F09F         	goto	l979
  1089                           	
  1090  0133B2                     l988:		; BSR set to: ?
  1091                           
  1092  0133B2  0408               	decf	(0+((c:0)+08h)),c,w
  1093  0133B4  1009               	iorwf (1+((c:0)+08h)),c,w
  1094                           
  1095  0133B6  A4D8               	btfss	status,2
  1096  0133B8  EFE0  F099         	goto	u4421
  1097  0133BC  EFE2  F099         	goto	u4420
  1098  0133C0                     u4421:
  1099  0133C0  EFFB  F099         	goto	l990
  1100  0133C4                     u4420:
  1101  0133C4  040A               	decf	(0+((c:0)+0Ah)),c,w
  1102  0133C6  100B               	iorwf (1+((c:0)+0Ah)),c,w
  1103                           
  1104  0133C8  A4D8               	btfss	status,2
  1105  0133CA  EFE9  F099         	goto	u4431
  1106  0133CE  EFEB  F099         	goto	u4430
  1107  0133D2                     u4431:
  1108  0133D2  EFFB  F099         	goto	l990
  1109  0133D6                     u4430:
  1110  0133D6  0418               	decf	(0+((c:0)+018h)),c,w
  1111  0133D8  1019               	iorwf (1+((c:0)+018h)),c,w
  1112                           
  1113  0133DA  A4D8               	btfss	status,2
  1114  0133DC  EFF2  F099         	goto	u4441
  1115  0133E0  EFF4  F099         	goto	u4440
  1116  0133E4                     u4441:
  1117  0133E4  EFFB  F099         	goto	l990
  1118  0133E8                     u4440:
  1119                           	line	470
  1120                           ;main.c: 470: LATA = 0b11111111;
  1121  0133E8  6889               	setf	((c:3977)),c	;volatile
  1122                           	line	472
  1123                           ;main.c: 472: LATB = 0b11100000;
  1124  0133EA  0EE0               	movlw	low(0E0h)
  1125  0133EC  6E8A               	movwf	((c:3978)),c	;volatile
  1126                           	line	474
  1127                           ;main.c: 474: LATC = 0b00000111;
  1128  0133EE  0E07               	movlw	low(07h)
  1129  0133F0  6E8B               	movwf	((c:3979)),c	;volatile
  1130                           	line	476
  1131                           ;main.c: 476: } else if (led_array[4] == 1 && le
                                 d_array[6] == 1) {
  1132  0133F2  EFFF  F09F         	goto	l979
  1133                           	
  1134  0133F6                     l990:		; BSR set to: ?
  1135                           
  1136  0133F6  0408               	decf	(0+((c:0)+08h)),c,w
  1137  0133F8  1009               	iorwf (1+((c:0)+08h)),c,w
  1138                           
  1139  0133FA  A4D8               	btfss	status,2
  1140  0133FC  EF02  F09A         	goto	u4451
  1141  013400  EF04  F09A         	goto	u4450
  1142  013404                     u4451:
  1143  013404  EF15  F09A         	goto	l992
  1144  013408                     u4450:
  1145  013408  040C               	decf	(0+((c:0)+0Ch)),c,w
  1146  01340A  100D               	iorwf (1+((c:0)+0Ch)),c,w
  1147                           
  1148  01340C  A4D8               	btfss	status,2
  1149  01340E  EF0B  F09A         	goto	u4461
  1150  013412  EF0D  F09A         	goto	u4460
  1151  013416                     u4461:
  1152  013416  EF15  F09A         	goto	l992
  1153  01341A                     u4460:
  1154                           	line	479
  1155                           ;main.c: 479: LATA = 0b11101111;
  1156  01341A  0EEF               	movlw	low(0EFh)
  1157  01341C  6E89               	movwf	((c:3977)),c	;volatile
  1158                           	line	481
  1159                           ;main.c: 481: LATB = 0b11000000;
  1160  01341E  0EC0               	movlw	low(0C0h)
  1161  013420  6E8A               	movwf	((c:3978)),c	;volatile
  1162                           	line	483
  1163                           ;main.c: 483: LATC = 0b00001111;
  1164  013422  0E0F               	movlw	low(0Fh)
  1165  013424  6E8B               	movwf	((c:3979)),c	;volatile
  1166                           	line	484
  1167                           ;main.c: 484: } else if (led_array[4] == 1 && le
                                 d_array[7] == 1) {
  1168  013426  EFFF  F09F         	goto	l979
  1169                           	
  1170  01342A                     l992:		; BSR set to: ?
  1171                           
  1172  01342A  0408               	decf	(0+((c:0)+08h)),c,w
  1173  01342C  1009               	iorwf (1+((c:0)+08h)),c,w
  1174                           
  1175  01342E  A4D8               	btfss	status,2
  1176  013430  EF1C  F09A         	goto	u4471
  1177  013434  EF1E  F09A         	goto	u4470
  1178  013438                     u4471:
  1179  013438  EF2F  F09A         	goto	l994
  1180  01343C                     u4470:
  1181  01343C  040E               	decf	(0+((c:0)+0Eh)),c,w
  1182  01343E  100F               	iorwf (1+((c:0)+0Eh)),c,w
  1183                           
  1184  013440  A4D8               	btfss	status,2
  1185  013442  EF25  F09A         	goto	u4481
  1186  013446  EF27  F09A         	goto	u4480
  1187  01344A                     u4481:
  1188  01344A  EF2F  F09A         	goto	l994
  1189  01344E                     u4480:
  1190                           	line	487
  1191                           ;main.c: 487: LATA = 0b10111111;
  1192  01344E  0EBF               	movlw	low(0BFh)
  1193  013450  6E89               	movwf	((c:3977)),c	;volatile
  1194                           	line	489
  1195                           ;main.c: 489: LATB = 0b11000000;
  1196  013452  0EC0               	movlw	low(0C0h)
  1197  013454  6E8A               	movwf	((c:3978)),c	;volatile
  1198                           	line	491
  1199                           ;main.c: 491: LATC = 0b00001111;
  1200  013456  0E0F               	movlw	low(0Fh)
  1201  013458  6E8B               	movwf	((c:3979)),c	;volatile
  1202                           	line	492
  1203                           ;main.c: 492: } else if (led_array[4] == 1 && le
                                 d_array[8] == 1) {
  1204  01345A  EFFF  F09F         	goto	l979
  1205                           	
  1206  01345E                     l994:		; BSR set to: ?
  1207                           
  1208  01345E  0408               	decf	(0+((c:0)+08h)),c,w
  1209  013460  1009               	iorwf (1+((c:0)+08h)),c,w
  1210                           
  1211  013462  A4D8               	btfss	status,2
  1212  013464  EF36  F09A         	goto	u4491
  1213  013468  EF38  F09A         	goto	u4490
  1214  01346C                     u4491:
  1215  01346C  EF48  F09A         	goto	l996
  1216  013470                     u4490:
  1217  013470  0410               	decf	(0+((c:0)+010h)),c,w
  1218  013472  1011               	iorwf (1+((c:0)+010h)),c,w
  1219                           
  1220  013474  A4D8               	btfss	status,2
  1221  013476  EF3F  F09A         	goto	u4501
  1222  01347A  EF41  F09A         	goto	u4500
  1223  01347E                     u4501:
  1224  01347E  EF48  F09A         	goto	l996
  1225  013482                     u4500:
  1226                           	line	495
  1227                           ;main.c: 495: LATA = 0b11111111;
  1228  013482  6889               	setf	((c:3977)),c	;volatile
  1229                           	line	497
  1230                           ;main.c: 497: LATB = 0b11000000;
  1231  013484  0EC0               	movlw	low(0C0h)
  1232  013486  6E8A               	movwf	((c:3978)),c	;volatile
  1233                           	line	499
  1234                           ;main.c: 499: LATC = 0b00001110;
  1235  013488  0E0E               	movlw	low(0Eh)
  1236  01348A  6E8B               	movwf	((c:3979)),c	;volatile
  1237                           	line	500
  1238                           ;main.c: 500: } else if (led_array[4] == 1 && le
                                 d_array[9] == 1) {
  1239  01348C  EFFF  F09F         	goto	l979
  1240                           	
  1241  013490                     l996:		; BSR set to: ?
  1242                           
  1243  013490  0408               	decf	(0+((c:0)+08h)),c,w
  1244  013492  1009               	iorwf (1+((c:0)+08h)),c,w
  1245                           
  1246  013494  A4D8               	btfss	status,2
  1247  013496  EF4F  F09A         	goto	u4511
  1248  01349A  EF51  F09A         	goto	u4510
  1249  01349E                     u4511:
  1250  01349E  EF61  F09A         	goto	l998
  1251  0134A2                     u4510:
  1252  0134A2  0412               	decf	(0+((c:0)+012h)),c,w
  1253  0134A4  1013               	iorwf (1+((c:0)+012h)),c,w
  1254                           
  1255  0134A6  A4D8               	btfss	status,2
  1256  0134A8  EF58  F09A         	goto	u4521
  1257  0134AC  EF5A  F09A         	goto	u4520
  1258  0134B0                     u4521:
  1259  0134B0  EF61  F09A         	goto	l998
  1260  0134B4                     u4520:
  1261                           	line	503
  1262                           ;main.c: 503: LATA = 0b11111111;
  1263  0134B4  6889               	setf	((c:3977)),c	;volatile
  1264                           	line	505
  1265                           ;main.c: 505: LATB = 0b11000000;
  1266  0134B6  0EC0               	movlw	low(0C0h)
  1267  0134B8  6E8A               	movwf	((c:3978)),c	;volatile
  1268                           	line	507
  1269                           ;main.c: 507: LATC = 0b00001101;
  1270  0134BA  0E0D               	movlw	low(0Dh)
  1271  0134BC  6E8B               	movwf	((c:3979)),c	;volatile
  1272                           	line	509
  1273                           ;main.c: 509: } else if (led_array[4] == 1 && le
                                 d_array[10] == 1) {
  1274  0134BE  EFFF  F09F         	goto	l979
  1275                           	
  1276  0134C2                     l998:		; BSR set to: ?
  1277                           
  1278  0134C2  0408               	decf	(0+((c:0)+08h)),c,w
  1279  0134C4  1009               	iorwf (1+((c:0)+08h)),c,w
  1280                           
  1281  0134C6  A4D8               	btfss	status,2
  1282  0134C8  EF68  F09A         	goto	u4531
  1283  0134CC  EF6A  F09A         	goto	u4530
  1284  0134D0                     u4531:
  1285  0134D0  EF7A  F09A         	goto	l1000
  1286  0134D4                     u4530:
  1287  0134D4  0414               	decf	(0+((c:0)+014h)),c,w
  1288  0134D6  1015               	iorwf (1+((c:0)+014h)),c,w
  1289                           
  1290  0134D8  A4D8               	btfss	status,2
  1291  0134DA  EF71  F09A         	goto	u4541
  1292  0134DE  EF73  F09A         	goto	u4540
  1293  0134E2                     u4541:
  1294  0134E2  EF7A  F09A         	goto	l1000
  1295  0134E6                     u4540:
  1296                           	line	512
  1297                           ;main.c: 512: LATA = 0b11111111;
  1298  0134E6  6889               	setf	((c:3977)),c	;volatile
  1299                           	line	514
  1300                           ;main.c: 514: LATB = 0b01000000;
  1301  0134E8  0E40               	movlw	low(040h)
  1302  0134EA  6E8A               	movwf	((c:3978)),c	;volatile
  1303                           	line	516
  1304                           ;main.c: 516: LATC = 0b00001111;
  1305  0134EC  0E0F               	movlw	low(0Fh)
  1306  0134EE  6E8B               	movwf	((c:3979)),c	;volatile
  1307                           	line	518
  1308                           ;main.c: 518: } else if (led_array[4] == 1 && le
                                 d_array[11] == 1) {
  1309  0134F0  EFFF  F09F         	goto	l979
  1310                           	
  1311  0134F4                     l1000:		; BSR set to: ?
  1312                           
  1313  0134F4  0408               	decf	(0+((c:0)+08h)),c,w
  1314  0134F6  1009               	iorwf (1+((c:0)+08h)),c,w
  1315                           
  1316  0134F8  A4D8               	btfss	status,2
  1317  0134FA  EF81  F09A         	goto	u4551
  1318  0134FE  EF83  F09A         	goto	u4550
  1319  013502                     u4551:
  1320  013502  EF93  F09A         	goto	l1002
  1321  013506                     u4550:
  1322  013506  0416               	decf	(0+((c:0)+016h)),c,w
  1323  013508  1017               	iorwf (1+((c:0)+016h)),c,w
  1324                           
  1325  01350A  A4D8               	btfss	status,2
  1326  01350C  EF8A  F09A         	goto	u4561
  1327  013510  EF8C  F09A         	goto	u4560
  1328  013514                     u4561:
  1329  013514  EF93  F09A         	goto	l1002
  1330  013518                     u4560:
  1331                           	line	521
  1332                           ;main.c: 521: LATA = 0b11111111;
  1333  013518  6889               	setf	((c:3977)),c	;volatile
  1334                           	line	523
  1335                           ;main.c: 523: LATB = 0b11000000;
  1336  01351A  0EC0               	movlw	low(0C0h)
  1337  01351C  6E8A               	movwf	((c:3978)),c	;volatile
  1338                           	line	525
  1339                           ;main.c: 525: LATC = 0b00001011;
  1340  01351E  0E0B               	movlw	low(0Bh)
  1341  013520  6E8B               	movwf	((c:3979)),c	;volatile
  1342                           	line	527
  1343                           ;main.c: 527: } else if (led_array[4] == 1 && le
                                 d_array[12] == 1) {
  1344  013522  EFFF  F09F         	goto	l979
  1345                           	
  1346  013526                     l1002:		; BSR set to: ?
  1347                           
  1348  013526  0408               	decf	(0+((c:0)+08h)),c,w
  1349  013528  1009               	iorwf (1+((c:0)+08h)),c,w
  1350                           
  1351  01352A  A4D8               	btfss	status,2
  1352  01352C  EF9A  F09A         	goto	u4571
  1353  013530  EF9C  F09A         	goto	u4570
  1354  013534                     u4571:
  1355  013534  EFAC  F09A         	goto	l1004
  1356  013538                     u4570:
  1357  013538  0418               	decf	(0+((c:0)+018h)),c,w
  1358  01353A  1019               	iorwf (1+((c:0)+018h)),c,w
  1359                           
  1360  01353C  A4D8               	btfss	status,2
  1361  01353E  EFA3  F09A         	goto	u4581
  1362  013542  EFA5  F09A         	goto	u4580
  1363  013546                     u4581:
  1364  013546  EFAC  F09A         	goto	l1004
  1365  01354A                     u4580:
  1366                           	line	530
  1367                           ;main.c: 530: LATA = 0b11111111;
  1368  01354A  6889               	setf	((c:3977)),c	;volatile
  1369                           	line	532
  1370                           ;main.c: 532: LATB = 0b11000000;
  1371  01354C  0EC0               	movlw	low(0C0h)
  1372  01354E  6E8A               	movwf	((c:3978)),c	;volatile
  1373                           	line	534
  1374                           ;main.c: 534: LATC = 0b00000111;
  1375  013550  0E07               	movlw	low(07h)
  1376  013552  6E8B               	movwf	((c:3979)),c	;volatile
  1377                           	line	536
  1378                           ;main.c: 536: } else if (led_array[5] == 1 && le
                                 d_array[6] == 1) {
  1379  013554  EFFF  F09F         	goto	l979
  1380                           	
  1381  013558                     l1004:		; BSR set to: ?
  1382                           
  1383  013558  040A               	decf	(0+((c:0)+0Ah)),c,w
  1384  01355A  100B               	iorwf (1+((c:0)+0Ah)),c,w
  1385                           
  1386  01355C  A4D8               	btfss	status,2
  1387  01355E  EFB3  F09A         	goto	u4591
  1388  013562  EFB5  F09A         	goto	u4590
  1389  013566                     u4591:
  1390  013566  EFC6  F09A         	goto	l1006
  1391  01356A                     u4590:
  1392  01356A  040C               	decf	(0+((c:0)+0Ch)),c,w
  1393  01356C  100D               	iorwf (1+((c:0)+0Ch)),c,w
  1394                           
  1395  01356E  A4D8               	btfss	status,2
  1396  013570  EFBC  F09A         	goto	u4601
  1397  013574  EFBE  F09A         	goto	u4600
  1398  013578                     u4601:
  1399  013578  EFC6  F09A         	goto	l1006
  1400  01357C                     u4600:
  1401                           	line	539
  1402                           ;main.c: 539: LATA = 0b11101111;
  1403  01357C  0EEF               	movlw	low(0EFh)
  1404  01357E  6E89               	movwf	((c:3977)),c	;volatile
  1405                           	line	541
  1406                           ;main.c: 541: LATB = 0b10100000;
  1407  013580  0EA0               	movlw	low(0A0h)
  1408  013582  6E8A               	movwf	((c:3978)),c	;volatile
  1409                           	line	543
  1410                           ;main.c: 543: LATC = 0b00001111;
  1411  013584  0E0F               	movlw	low(0Fh)
  1412  013586  6E8B               	movwf	((c:3979)),c	;volatile
  1413                           	line	545
  1414                           ;main.c: 545: } else if (led_array[5] == 1 && le
                                 d_array[7] == 1) {
  1415  013588  EFFF  F09F         	goto	l979
  1416                           	
  1417  01358C                     l1006:		; BSR set to: ?
  1418                           
  1419  01358C  040A               	decf	(0+((c:0)+0Ah)),c,w
  1420  01358E  100B               	iorwf (1+((c:0)+0Ah)),c,w
  1421                           
  1422  013590  A4D8               	btfss	status,2
  1423  013592  EFCD  F09A         	goto	u4611
  1424  013596  EFCF  F09A         	goto	u4610
  1425  01359A                     u4611:
  1426  01359A  EFE0  F09A         	goto	l1008
  1427  01359E                     u4610:
  1428  01359E  040E               	decf	(0+((c:0)+0Eh)),c,w
  1429  0135A0  100F               	iorwf (1+((c:0)+0Eh)),c,w
  1430                           
  1431  0135A2  A4D8               	btfss	status,2
  1432  0135A4  EFD6  F09A         	goto	u4621
  1433  0135A8  EFD8  F09A         	goto	u4620
  1434  0135AC                     u4621:
  1435  0135AC  EFE0  F09A         	goto	l1008
  1436  0135B0                     u4620:
  1437                           	line	548
  1438                           ;main.c: 548: LATA = 0b10111111;
  1439  0135B0  0EBF               	movlw	low(0BFh)
  1440  0135B2  6E89               	movwf	((c:3977)),c	;volatile
  1441                           	line	550
  1442                           ;main.c: 550: LATB = 0b10100000;
  1443  0135B4  0EA0               	movlw	low(0A0h)
  1444  0135B6  6E8A               	movwf	((c:3978)),c	;volatile
  1445                           	line	552
  1446                           ;main.c: 552: LATC = 0b00001111;
  1447  0135B8  0E0F               	movlw	low(0Fh)
  1448  0135BA  6E8B               	movwf	((c:3979)),c	;volatile
  1449                           	line	554
  1450                           ;main.c: 554: } else if (led_array[5] == 1 && le
                                 d_array[8] == 1) {
  1451  0135BC  EFFF  F09F         	goto	l979
  1452                           	
  1453  0135C0                     l1008:		; BSR set to: ?
  1454                           
  1455  0135C0  040A               	decf	(0+((c:0)+0Ah)),c,w
  1456  0135C2  100B               	iorwf (1+((c:0)+0Ah)),c,w
  1457                           
  1458  0135C4  A4D8               	btfss	status,2
  1459  0135C6  EFE7  F09A         	goto	u4631
  1460  0135CA  EFE9  F09A         	goto	u4630
  1461  0135CE                     u4631:
  1462  0135CE  EFF9  F09A         	goto	l1010
  1463  0135D2                     u4630:
  1464  0135D2  0410               	decf	(0+((c:0)+010h)),c,w
  1465  0135D4  1011               	iorwf (1+((c:0)+010h)),c,w
  1466                           
  1467  0135D6  A4D8               	btfss	status,2
  1468  0135D8  EFF0  F09A         	goto	u4641
  1469  0135DC  EFF2  F09A         	goto	u4640
  1470  0135E0                     u4641:
  1471  0135E0  EFF9  F09A         	goto	l1010
  1472  0135E4                     u4640:
  1473                           	line	557
  1474                           ;main.c: 557: LATA = 0b11111111;
  1475  0135E4  6889               	setf	((c:3977)),c	;volatile
  1476                           	line	559
  1477                           ;main.c: 559: LATB = 0b10100000;
  1478  0135E6  0EA0               	movlw	low(0A0h)
  1479  0135E8  6E8A               	movwf	((c:3978)),c	;volatile
  1480                           	line	561
  1481                           ;main.c: 561: LATC = 0b00001110;
  1482  0135EA  0E0E               	movlw	low(0Eh)
  1483  0135EC  6E8B               	movwf	((c:3979)),c	;volatile
  1484                           	line	563
  1485                           ;main.c: 563: } else if (led_array[5] == 1 && le
                                 d_array[9] == 1) {
  1486  0135EE  EFFF  F09F         	goto	l979
  1487                           	
  1488  0135F2                     l1010:		; BSR set to: ?
  1489                           
  1490  0135F2  040A               	decf	(0+((c:0)+0Ah)),c,w
  1491  0135F4  100B               	iorwf (1+((c:0)+0Ah)),c,w
  1492                           
  1493  0135F6  A4D8               	btfss	status,2
  1494  0135F8  EF00  F09B         	goto	u4651
  1495  0135FC  EF02  F09B         	goto	u4650
  1496  013600                     u4651:
  1497  013600  EF12  F09B         	goto	l1012
  1498  013604                     u4650:
  1499  013604  0412               	decf	(0+((c:0)+012h)),c,w
  1500  013606  1013               	iorwf (1+((c:0)+012h)),c,w
  1501                           
  1502  013608  A4D8               	btfss	status,2
  1503  01360A  EF09  F09B         	goto	u4661
  1504  01360E  EF0B  F09B         	goto	u4660
  1505  013612                     u4661:
  1506  013612  EF12  F09B         	goto	l1012
  1507  013616                     u4660:
  1508                           	line	566
  1509                           ;main.c: 566: LATA = 0b11111111;
  1510  013616  6889               	setf	((c:3977)),c	;volatile
  1511                           	line	568
  1512                           ;main.c: 568: LATB = 0b10100000;
  1513  013618  0EA0               	movlw	low(0A0h)
  1514  01361A  6E8A               	movwf	((c:3978)),c	;volatile
  1515                           	line	570
  1516                           ;main.c: 570: LATC = 0b00001101;
  1517  01361C  0E0D               	movlw	low(0Dh)
  1518  01361E  6E8B               	movwf	((c:3979)),c	;volatile
  1519                           	line	572
  1520                           ;main.c: 572: } else if (led_array[5] == 1 && le
                                 d_array[10] == 1) {
  1521  013620  EFFF  F09F         	goto	l979
  1522                           	
  1523  013624                     l1012:		; BSR set to: ?
  1524                           
  1525  013624  040A               	decf	(0+((c:0)+0Ah)),c,w
  1526  013626  100B               	iorwf (1+((c:0)+0Ah)),c,w
  1527                           
  1528  013628  A4D8               	btfss	status,2
  1529  01362A  EF19  F09B         	goto	u4671
  1530  01362E  EF1B  F09B         	goto	u4670
  1531  013632                     u4671:
  1532  013632  EF2B  F09B         	goto	l1014
  1533  013636                     u4670:
  1534  013636  0414               	decf	(0+((c:0)+014h)),c,w
  1535  013638  1015               	iorwf (1+((c:0)+014h)),c,w
  1536                           
  1537  01363A  A4D8               	btfss	status,2
  1538  01363C  EF22  F09B         	goto	u4681
  1539  013640  EF24  F09B         	goto	u4680
  1540  013644                     u4681:
  1541  013644  EF2B  F09B         	goto	l1014
  1542  013648                     u4680:
  1543                           	line	575
  1544                           ;main.c: 575: LATA = 0b11111111;
  1545  013648  6889               	setf	((c:3977)),c	;volatile
  1546                           	line	577
  1547                           ;main.c: 577: LATB = 0b00100000;
  1548  01364A  0E20               	movlw	low(020h)
  1549  01364C  6E8A               	movwf	((c:3978)),c	;volatile
  1550                           	line	579
  1551                           ;main.c: 579: LATC = 0b00001111;
  1552  01364E  0E0F               	movlw	low(0Fh)
  1553  013650  6E8B               	movwf	((c:3979)),c	;volatile
  1554                           	line	581
  1555                           ;main.c: 581: } else if (led_array[5] == 1 && le
                                 d_array[11] == 1) {
  1556  013652  EFFF  F09F         	goto	l979
  1557                           	
  1558  013656                     l1014:		; BSR set to: ?
  1559                           
  1560  013656  040A               	decf	(0+((c:0)+0Ah)),c,w
  1561  013658  100B               	iorwf (1+((c:0)+0Ah)),c,w
  1562                           
  1563  01365A  A4D8               	btfss	status,2
  1564  01365C  EF32  F09B         	goto	u4691
  1565  013660  EF34  F09B         	goto	u4690
  1566  013664                     u4691:
  1567  013664  EF44  F09B         	goto	l1016
  1568  013668                     u4690:
  1569  013668  0416               	decf	(0+((c:0)+016h)),c,w
  1570  01366A  1017               	iorwf (1+((c:0)+016h)),c,w
  1571                           
  1572  01366C  A4D8               	btfss	status,2
  1573  01366E  EF3B  F09B         	goto	u4701
  1574  013672  EF3D  F09B         	goto	u4700
  1575  013676                     u4701:
  1576  013676  EF44  F09B         	goto	l1016
  1577  01367A                     u4700:
  1578                           	line	584
  1579                           ;main.c: 584: LATA = 0b11111111;
  1580  01367A  6889               	setf	((c:3977)),c	;volatile
  1581                           	line	586
  1582                           ;main.c: 586: LATB = 0b10100000;
  1583  01367C  0EA0               	movlw	low(0A0h)
  1584  01367E  6E8A               	movwf	((c:3978)),c	;volatile
  1585                           	line	588
  1586                           ;main.c: 588: LATC = 0b00001011;
  1587  013680  0E0B               	movlw	low(0Bh)
  1588  013682  6E8B               	movwf	((c:3979)),c	;volatile
  1589                           	line	590
  1590                           ;main.c: 590: } else if (led_array[5] == 1 && le
                                 d_array[12] == 1) {
  1591  013684  EFFF  F09F         	goto	l979
  1592                           	
  1593  013688                     l1016:		; BSR set to: ?
  1594                           
  1595  013688  040A               	decf	(0+((c:0)+0Ah)),c,w
  1596  01368A  100B               	iorwf (1+((c:0)+0Ah)),c,w
  1597                           
  1598  01368C  A4D8               	btfss	status,2
  1599  01368E  EF4B  F09B         	goto	u4711
  1600  013692  EF4D  F09B         	goto	u4710
  1601  013696                     u4711:
  1602  013696  EF5D  F09B         	goto	l1018
  1603  01369A                     u4710:
  1604  01369A  0418               	decf	(0+((c:0)+018h)),c,w
  1605  01369C  1019               	iorwf (1+((c:0)+018h)),c,w
  1606                           
  1607  01369E  A4D8               	btfss	status,2
  1608  0136A0  EF54  F09B         	goto	u4721
  1609  0136A4  EF56  F09B         	goto	u4720
  1610  0136A8                     u4721:
  1611  0136A8  EF5D  F09B         	goto	l1018
  1612  0136AC                     u4720:
  1613                           	line	593
  1614                           ;main.c: 593: LATA = 0b11111111;
  1615  0136AC  6889               	setf	((c:3977)),c	;volatile
  1616                           	line	595
  1617                           ;main.c: 595: LATB = 0b10100000;
  1618  0136AE  0EA0               	movlw	low(0A0h)
  1619  0136B0  6E8A               	movwf	((c:3978)),c	;volatile
  1620                           	line	597
  1621                           ;main.c: 597: LATC = 0b00000111;
  1622  0136B2  0E07               	movlw	low(07h)
  1623  0136B4  6E8B               	movwf	((c:3979)),c	;volatile
  1624                           	line	598
  1625                           ;main.c: 598: }
  1626  0136B6  EFFF  F09F         	goto	l979
  1627                           	line	601
  1628                           	
  1629  0136BA                     l1018:		; BSR set to: ?
  1630                           
  1631                           ;main.c: 601: else if (led_array[2] == 1 && led_
                                 array[3] == 1 && led_array[6] == 1) {
  1632  0136BA  0404               	decf	(0+((c:0)+04h)),c,w
  1633  0136BC  1005               	iorwf (1+((c:0)+04h)),c,w
  1634                           
  1635  0136BE  A4D8               	btfss	status,2
  1636  0136C0  EF64  F09B         	goto	u4731
  1637  0136C4  EF66  F09B         	goto	u4730
  1638  0136C8                     u4731:
  1639  0136C8  EF80  F09B         	goto	l1020
  1640  0136CC                     u4730:
  1641  0136CC  0406               	decf	(0+((c:0)+06h)),c,w
  1642  0136CE  1007               	iorwf (1+((c:0)+06h)),c,w
  1643                           
  1644  0136D0  A4D8               	btfss	status,2
  1645  0136D2  EF6D  F09B         	goto	u4741
  1646  0136D6  EF6F  F09B         	goto	u4740
  1647  0136DA                     u4741:
  1648  0136DA  EF80  F09B         	goto	l1020
  1649  0136DE                     u4740:
  1650  0136DE  040C               	decf	(0+((c:0)+0Ch)),c,w
  1651  0136E0  100D               	iorwf (1+((c:0)+0Ch)),c,w
  1652                           
  1653  0136E2  A4D8               	btfss	status,2
  1654  0136E4  EF76  F09B         	goto	u4751
  1655  0136E8  EF78  F09B         	goto	u4750
  1656  0136EC                     u4751:
  1657  0136EC  EF80  F09B         	goto	l1020
  1658  0136F0                     u4750:
  1659                           	line	604
  1660                           ;main.c: 604: LATA = 0b11101111;
  1661  0136F0  0EEF               	movlw	low(0EFh)
  1662  0136F2  6E89               	movwf	((c:3977)),c	;volatile
  1663                           	line	606
  1664                           ;main.c: 606: LATB = 0b10001100;
  1665  0136F4  0E8C               	movlw	low(08Ch)
  1666  0136F6  6E8A               	movwf	((c:3978)),c	;volatile
  1667                           	line	608
  1668                           ;main.c: 608: LATC = 0b00001111;
  1669  0136F8  0E0F               	movlw	low(0Fh)
  1670  0136FA  6E8B               	movwf	((c:3979)),c	;volatile
  1671                           	line	610
  1672                           ;main.c: 610: } else if (led_array[2] == 1 && le
                                 d_array[3] == 1 && led_array[7] == 1) {
  1673  0136FC  EFFF  F09F         	goto	l979
  1674                           	
  1675  013700                     l1020:		; BSR set to: ?
  1676                           
  1677  013700  0404               	decf	(0+((c:0)+04h)),c,w
  1678  013702  1005               	iorwf (1+((c:0)+04h)),c,w
  1679                           
  1680  013704  A4D8               	btfss	status,2
  1681  013706  EF87  F09B         	goto	u4761
  1682  01370A  EF89  F09B         	goto	u4760
  1683  01370E                     u4761:
  1684  01370E  EFA3  F09B         	goto	l1022
  1685  013712                     u4760:
  1686  013712  0406               	decf	(0+((c:0)+06h)),c,w
  1687  013714  1007               	iorwf (1+((c:0)+06h)),c,w
  1688                           
  1689  013716  A4D8               	btfss	status,2
  1690  013718  EF90  F09B         	goto	u4771
  1691  01371C  EF92  F09B         	goto	u4770
  1692  013720                     u4771:
  1693  013720  EFA3  F09B         	goto	l1022
  1694  013724                     u4770:
  1695  013724  040E               	decf	(0+((c:0)+0Eh)),c,w
  1696  013726  100F               	iorwf (1+((c:0)+0Eh)),c,w
  1697                           
  1698  013728  A4D8               	btfss	status,2
  1699  01372A  EF99  F09B         	goto	u4781
  1700  01372E  EF9B  F09B         	goto	u4780
  1701  013732                     u4781:
  1702  013732  EFA3  F09B         	goto	l1022
  1703  013736                     u4780:
  1704                           	line	613
  1705                           ;main.c: 613: LATA = 0b10111111;
  1706  013736  0EBF               	movlw	low(0BFh)
  1707  013738  6E89               	movwf	((c:3977)),c	;volatile
  1708                           	line	615
  1709                           ;main.c: 615: LATB = 0b10001100;
  1710  01373A  0E8C               	movlw	low(08Ch)
  1711  01373C  6E8A               	movwf	((c:3978)),c	;volatile
  1712                           	line	617
  1713                           ;main.c: 617: LATC = 0b00001111;
  1714  01373E  0E0F               	movlw	low(0Fh)
  1715  013740  6E8B               	movwf	((c:3979)),c	;volatile
  1716                           	line	619
  1717                           ;main.c: 619: } else if (led_array[2] == 1 && le
                                 d_array[3] == 1 && led_array[8] == 1) {
  1718  013742  EFFF  F09F         	goto	l979
  1719                           	
  1720  013746                     l1022:		; BSR set to: ?
  1721                           
  1722  013746  0404               	decf	(0+((c:0)+04h)),c,w
  1723  013748  1005               	iorwf (1+((c:0)+04h)),c,w
  1724                           
  1725  01374A  A4D8               	btfss	status,2
  1726  01374C  EFAA  F09B         	goto	u4791
  1727  013750  EFAC  F09B         	goto	u4790
  1728  013754                     u4791:
  1729  013754  EFC5  F09B         	goto	l1024
  1730  013758                     u4790:
  1731  013758  0406               	decf	(0+((c:0)+06h)),c,w
  1732  01375A  1007               	iorwf (1+((c:0)+06h)),c,w
  1733                           
  1734  01375C  A4D8               	btfss	status,2
  1735  01375E  EFB3  F09B         	goto	u4801
  1736  013762  EFB5  F09B         	goto	u4800
  1737  013766                     u4801:
  1738  013766  EFC5  F09B         	goto	l1024
  1739  01376A                     u4800:
  1740  01376A  0410               	decf	(0+((c:0)+010h)),c,w
  1741  01376C  1011               	iorwf (1+((c:0)+010h)),c,w
  1742                           
  1743  01376E  A4D8               	btfss	status,2
  1744  013770  EFBC  F09B         	goto	u4811
  1745  013774  EFBE  F09B         	goto	u4810
  1746  013778                     u4811:
  1747  013778  EFC5  F09B         	goto	l1024
  1748  01377C                     u4810:
  1749                           	line	622
  1750                           ;main.c: 622: LATA = 0b11111111;
  1751  01377C  6889               	setf	((c:3977)),c	;volatile
  1752                           	line	624
  1753                           ;main.c: 624: LATB = 0b10001100;
  1754  01377E  0E8C               	movlw	low(08Ch)
  1755  013780  6E8A               	movwf	((c:3978)),c	;volatile
  1756                           	line	626
  1757                           ;main.c: 626: LATC = 0b00001110;
  1758  013782  0E0E               	movlw	low(0Eh)
  1759  013784  6E8B               	movwf	((c:3979)),c	;volatile
  1760                           	line	628
  1761                           ;main.c: 628: } else if (led_array[2] == 1 && le
                                 d_array[3] == 1 && led_array[9] == 1) {
  1762  013786  EFFF  F09F         	goto	l979
  1763                           	
  1764  01378A                     l1024:		; BSR set to: ?
  1765                           
  1766  01378A  0404               	decf	(0+((c:0)+04h)),c,w
  1767  01378C  1005               	iorwf (1+((c:0)+04h)),c,w
  1768                           
  1769  01378E  A4D8               	btfss	status,2
  1770  013790  EFCC  F09B         	goto	u4821
  1771  013794  EFCE  F09B         	goto	u4820
  1772  013798                     u4821:
  1773  013798  EFE7  F09B         	goto	l1026
  1774  01379C                     u4820:
  1775  01379C  0406               	decf	(0+((c:0)+06h)),c,w
  1776  01379E  1007               	iorwf (1+((c:0)+06h)),c,w
  1777                           
  1778  0137A0  A4D8               	btfss	status,2
  1779  0137A2  EFD5  F09B         	goto	u4831
  1780  0137A6  EFD7  F09B         	goto	u4830
  1781  0137AA                     u4831:
  1782  0137AA  EFE7  F09B         	goto	l1026
  1783  0137AE                     u4830:
  1784  0137AE  0412               	decf	(0+((c:0)+012h)),c,w
  1785  0137B0  1013               	iorwf (1+((c:0)+012h)),c,w
  1786                           
  1787  0137B2  A4D8               	btfss	status,2
  1788  0137B4  EFDE  F09B         	goto	u4841
  1789  0137B8  EFE0  F09B         	goto	u4840
  1790  0137BC                     u4841:
  1791  0137BC  EFE7  F09B         	goto	l1026
  1792  0137C0                     u4840:
  1793                           	line	631
  1794                           ;main.c: 631: LATA = 0b11111111;
  1795  0137C0  6889               	setf	((c:3977)),c	;volatile
  1796                           	line	633
  1797                           ;main.c: 633: LATB = 0b10001100;
  1798  0137C2  0E8C               	movlw	low(08Ch)
  1799  0137C4  6E8A               	movwf	((c:3978)),c	;volatile
  1800                           	line	635
  1801                           ;main.c: 635: LATC = 0b00001101;
  1802  0137C6  0E0D               	movlw	low(0Dh)
  1803  0137C8  6E8B               	movwf	((c:3979)),c	;volatile
  1804                           	line	636
  1805                           ;main.c: 636: } else if (led_array[2] == 1 && le
                                 d_array[3] == 1 && led_array[10] == 1) {
  1806  0137CA  EFFF  F09F         	goto	l979
  1807                           	
  1808  0137CE                     l1026:		; BSR set to: ?
  1809                           
  1810  0137CE  0404               	decf	(0+((c:0)+04h)),c,w
  1811  0137D0  1005               	iorwf (1+((c:0)+04h)),c,w
  1812                           
  1813  0137D2  A4D8               	btfss	status,2
  1814  0137D4  EFEE  F09B         	goto	u4851
  1815  0137D8  EFF0  F09B         	goto	u4850
  1816  0137DC                     u4851:
  1817  0137DC  EF09  F09C         	goto	l1028
  1818  0137E0                     u4850:
  1819  0137E0  0406               	decf	(0+((c:0)+06h)),c,w
  1820  0137E2  1007               	iorwf (1+((c:0)+06h)),c,w
  1821                           
  1822  0137E4  A4D8               	btfss	status,2
  1823  0137E6  EFF7  F09B         	goto	u4861
  1824  0137EA  EFF9  F09B         	goto	u4860
  1825  0137EE                     u4861:
  1826  0137EE  EF09  F09C         	goto	l1028
  1827  0137F2                     u4860:
  1828  0137F2  0414               	decf	(0+((c:0)+014h)),c,w
  1829  0137F4  1015               	iorwf (1+((c:0)+014h)),c,w
  1830                           
  1831  0137F6  A4D8               	btfss	status,2
  1832  0137F8  EF00  F09C         	goto	u4871
  1833  0137FC  EF02  F09C         	goto	u4870
  1834  013800                     u4871:
  1835  013800  EF09  F09C         	goto	l1028
  1836  013804                     u4870:
  1837                           	line	639
  1838                           ;main.c: 639: LATA = 0b11111111;
  1839  013804  6889               	setf	((c:3977)),c	;volatile
  1840                           	line	641
  1841                           ;main.c: 641: LATB = 0b00001100;
  1842  013806  0E0C               	movlw	low(0Ch)
  1843  013808  6E8A               	movwf	((c:3978)),c	;volatile
  1844                           	line	643
  1845                           ;main.c: 643: LATC = 0b00001111;
  1846  01380A  0E0F               	movlw	low(0Fh)
  1847  01380C  6E8B               	movwf	((c:3979)),c	;volatile
  1848                           	line	644
  1849                           ;main.c: 644: } else if (led_array[2] == 1 && le
                                 d_array[3] == 1 && led_array[11] == 1) {
  1850  01380E  EFFF  F09F         	goto	l979
  1851                           	
  1852  013812                     l1028:		; BSR set to: ?
  1853                           
  1854  013812  0404               	decf	(0+((c:0)+04h)),c,w
  1855  013814  1005               	iorwf (1+((c:0)+04h)),c,w
  1856                           
  1857  013816  A4D8               	btfss	status,2
  1858  013818  EF10  F09C         	goto	u4881
  1859  01381C  EF12  F09C         	goto	u4880
  1860  013820                     u4881:
  1861  013820  EF2B  F09C         	goto	l1030
  1862  013824                     u4880:
  1863  013824  0406               	decf	(0+((c:0)+06h)),c,w
  1864  013826  1007               	iorwf (1+((c:0)+06h)),c,w
  1865                           
  1866  013828  A4D8               	btfss	status,2
  1867  01382A  EF19  F09C         	goto	u4891
  1868  01382E  EF1B  F09C         	goto	u4890
  1869  013832                     u4891:
  1870  013832  EF2B  F09C         	goto	l1030
  1871  013836                     u4890:
  1872  013836  0416               	decf	(0+((c:0)+016h)),c,w
  1873  013838  1017               	iorwf (1+((c:0)+016h)),c,w
  1874                           
  1875  01383A  A4D8               	btfss	status,2
  1876  01383C  EF22  F09C         	goto	u4901
  1877  013840  EF24  F09C         	goto	u4900
  1878  013844                     u4901:
  1879  013844  EF2B  F09C         	goto	l1030
  1880  013848                     u4900:
  1881                           	line	647
  1882                           ;main.c: 647: LATA = 0b11111111;
  1883  013848  6889               	setf	((c:3977)),c	;volatile
  1884                           	line	649
  1885                           ;main.c: 649: LATB = 0b10001100;
  1886  01384A  0E8C               	movlw	low(08Ch)
  1887  01384C  6E8A               	movwf	((c:3978)),c	;volatile
  1888                           	line	651
  1889                           ;main.c: 651: LATC = 0b00001011;
  1890  01384E  0E0B               	movlw	low(0Bh)
  1891  013850  6E8B               	movwf	((c:3979)),c	;volatile
  1892                           	line	652
  1893                           ;main.c: 652: } else if (led_array[2] == 1 && le
                                 d_array[3] == 1 && led_array[12] == 1) {
  1894  013852  EFFF  F09F         	goto	l979
  1895                           	
  1896  013856                     l1030:		; BSR set to: ?
  1897                           
  1898  013856  0404               	decf	(0+((c:0)+04h)),c,w
  1899  013858  1005               	iorwf (1+((c:0)+04h)),c,w
  1900                           
  1901  01385A  A4D8               	btfss	status,2
  1902  01385C  EF32  F09C         	goto	u4911
  1903  013860  EF34  F09C         	goto	u4910
  1904  013864                     u4911:
  1905  013864  EF4D  F09C         	goto	l1032
  1906  013868                     u4910:
  1907  013868  0406               	decf	(0+((c:0)+06h)),c,w
  1908  01386A  1007               	iorwf (1+((c:0)+06h)),c,w
  1909                           
  1910  01386C  A4D8               	btfss	status,2
  1911  01386E  EF3B  F09C         	goto	u4921
  1912  013872  EF3D  F09C         	goto	u4920
  1913  013876                     u4921:
  1914  013876  EF4D  F09C         	goto	l1032
  1915  01387A                     u4920:
  1916  01387A  0418               	decf	(0+((c:0)+018h)),c,w
  1917  01387C  1019               	iorwf (1+((c:0)+018h)),c,w
  1918                           
  1919  01387E  A4D8               	btfss	status,2
  1920  013880  EF44  F09C         	goto	u4931
  1921  013884  EF46  F09C         	goto	u4930
  1922  013888                     u4931:
  1923  013888  EF4D  F09C         	goto	l1032
  1924  01388C                     u4930:
  1925                           	line	655
  1926                           ;main.c: 655: LATA = 0b11111111;
  1927  01388C  6889               	setf	((c:3977)),c	;volatile
  1928                           	line	657
  1929                           ;main.c: 657: LATB = 0b10001100;
  1930  01388E  0E8C               	movlw	low(08Ch)
  1931  013890  6E8A               	movwf	((c:3978)),c	;volatile
  1932                           	line	659
  1933                           ;main.c: 659: LATC = 0b00000111;
  1934  013892  0E07               	movlw	low(07h)
  1935  013894  6E8B               	movwf	((c:3979)),c	;volatile
  1936                           	line	660
  1937                           ;main.c: 660: } else if (led_array[2] == 1 && le
                                 d_array[6] == 1) {
  1938  013896  EFFF  F09F         	goto	l979
  1939                           	
  1940  01389A                     l1032:		; BSR set to: ?
  1941                           
  1942  01389A  0404               	decf	(0+((c:0)+04h)),c,w
  1943  01389C  1005               	iorwf (1+((c:0)+04h)),c,w
  1944                           
  1945  01389E  A4D8               	btfss	status,2
  1946  0138A0  EF54  F09C         	goto	u4941
  1947  0138A4  EF56  F09C         	goto	u4940
  1948  0138A8                     u4941:
  1949  0138A8  EF67  F09C         	goto	l1034
  1950  0138AC                     u4940:
  1951  0138AC  040C               	decf	(0+((c:0)+0Ch)),c,w
  1952  0138AE  100D               	iorwf (1+((c:0)+0Ch)),c,w
  1953                           
  1954  0138B0  A4D8               	btfss	status,2
  1955  0138B2  EF5D  F09C         	goto	u4951
  1956  0138B6  EF5F  F09C         	goto	u4950
  1957  0138BA                     u4951:
  1958  0138BA  EF67  F09C         	goto	l1034
  1959  0138BE                     u4950:
  1960                           	line	663
  1961                           ;main.c: 663: LATA = 0b11101111;
  1962  0138BE  0EEF               	movlw	low(0EFh)
  1963  0138C0  6E89               	movwf	((c:3977)),c	;volatile
  1964                           	line	665
  1965                           ;main.c: 665: LATB = 0b10000100;
  1966  0138C2  0E84               	movlw	low(084h)
  1967  0138C4  6E8A               	movwf	((c:3978)),c	;volatile
  1968                           	line	667
  1969                           ;main.c: 667: LATC = 0b00001111;
  1970  0138C6  0E0F               	movlw	low(0Fh)
  1971  0138C8  6E8B               	movwf	((c:3979)),c	;volatile
  1972                           	line	669
  1973                           ;main.c: 669: } else if (led_array[2] == 1 && le
                                 d_array[7] == 1) {
  1974  0138CA  EFFF  F09F         	goto	l979
  1975                           	
  1976  0138CE                     l1034:		; BSR set to: ?
  1977                           
  1978  0138CE  0404               	decf	(0+((c:0)+04h)),c,w
  1979  0138D0  1005               	iorwf (1+((c:0)+04h)),c,w
  1980                           
  1981  0138D2  A4D8               	btfss	status,2
  1982  0138D4  EF6E  F09C         	goto	u4961
  1983  0138D8  EF70  F09C         	goto	u4960
  1984  0138DC                     u4961:
  1985  0138DC  EF81  F09C         	goto	l1036
  1986  0138E0                     u4960:
  1987  0138E0  040E               	decf	(0+((c:0)+0Eh)),c,w
  1988  0138E2  100F               	iorwf (1+((c:0)+0Eh)),c,w
  1989                           
  1990  0138E4  A4D8               	btfss	status,2
  1991  0138E6  EF77  F09C         	goto	u4971
  1992  0138EA  EF79  F09C         	goto	u4970
  1993  0138EE                     u4971:
  1994  0138EE  EF81  F09C         	goto	l1036
  1995  0138F2                     u4970:
  1996                           	line	672
  1997                           ;main.c: 672: LATA = 0b10111111;
  1998  0138F2  0EBF               	movlw	low(0BFh)
  1999  0138F4  6E89               	movwf	((c:3977)),c	;volatile
  2000                           	line	674
  2001                           ;main.c: 674: LATB = 0b10000100;
  2002  0138F6  0E84               	movlw	low(084h)
  2003  0138F8  6E8A               	movwf	((c:3978)),c	;volatile
  2004                           	line	676
  2005                           ;main.c: 676: LATC = 0b00001111;
  2006  0138FA  0E0F               	movlw	low(0Fh)
  2007  0138FC  6E8B               	movwf	((c:3979)),c	;volatile
  2008                           	line	678
  2009                           ;main.c: 678: } else if (led_array[2] == 1 && le
                                 d_array[8] == 1) {
  2010  0138FE  EFFF  F09F         	goto	l979
  2011                           	
  2012  013902                     l1036:		; BSR set to: ?
  2013                           
  2014  013902  0404               	decf	(0+((c:0)+04h)),c,w
  2015  013904  1005               	iorwf (1+((c:0)+04h)),c,w
  2016                           
  2017  013906  A4D8               	btfss	status,2
  2018  013908  EF88  F09C         	goto	u4981
  2019  01390C  EF8A  F09C         	goto	u4980
  2020  013910                     u4981:
  2021  013910  EF9A  F09C         	goto	l1038
  2022  013914                     u4980:
  2023  013914  0410               	decf	(0+((c:0)+010h)),c,w
  2024  013916  1011               	iorwf (1+((c:0)+010h)),c,w
  2025                           
  2026  013918  A4D8               	btfss	status,2
  2027  01391A  EF91  F09C         	goto	u4991
  2028  01391E  EF93  F09C         	goto	u4990
  2029  013922                     u4991:
  2030  013922  EF9A  F09C         	goto	l1038
  2031  013926                     u4990:
  2032                           	line	681
  2033                           ;main.c: 681: LATA = 0b11111111;
  2034  013926  6889               	setf	((c:3977)),c	;volatile
  2035                           	line	683
  2036                           ;main.c: 683: LATB = 0b10000100;
  2037  013928  0E84               	movlw	low(084h)
  2038  01392A  6E8A               	movwf	((c:3978)),c	;volatile
  2039                           	line	685
  2040                           ;main.c: 685: LATC = 0b00001110;
  2041  01392C  0E0E               	movlw	low(0Eh)
  2042  01392E  6E8B               	movwf	((c:3979)),c	;volatile
  2043                           	line	687
  2044                           ;main.c: 687: } else if (led_array[2] == 1 && le
                                 d_array[9] == 1) {
  2045  013930  EFFF  F09F         	goto	l979
  2046                           	
  2047  013934                     l1038:		; BSR set to: ?
  2048                           
  2049  013934  0404               	decf	(0+((c:0)+04h)),c,w
  2050  013936  1005               	iorwf (1+((c:0)+04h)),c,w
  2051                           
  2052  013938  A4D8               	btfss	status,2
  2053  01393A  EFA1  F09C         	goto	u5001
  2054  01393E  EFA3  F09C         	goto	u5000
  2055  013942                     u5001:
  2056  013942  EFB3  F09C         	goto	l1040
  2057  013946                     u5000:
  2058  013946  0412               	decf	(0+((c:0)+012h)),c,w
  2059  013948  1013               	iorwf (1+((c:0)+012h)),c,w
  2060                           
  2061  01394A  A4D8               	btfss	status,2
  2062  01394C  EFAA  F09C         	goto	u5011
  2063  013950  EFAC  F09C         	goto	u5010
  2064  013954                     u5011:
  2065  013954  EFB3  F09C         	goto	l1040
  2066  013958                     u5010:
  2067                           	line	690
  2068                           ;main.c: 690: LATA = 0b11111111;
  2069  013958  6889               	setf	((c:3977)),c	;volatile
  2070                           	line	692
  2071                           ;main.c: 692: LATB = 0b10000100;
  2072  01395A  0E84               	movlw	low(084h)
  2073  01395C  6E8A               	movwf	((c:3978)),c	;volatile
  2074                           	line	694
  2075                           ;main.c: 694: LATC = 0b00001101;
  2076  01395E  0E0D               	movlw	low(0Dh)
  2077  013960  6E8B               	movwf	((c:3979)),c	;volatile
  2078                           	line	696
  2079                           ;main.c: 696: } else if (led_array[2] == 1 && le
                                 d_array[10] == 1) {
  2080  013962  EFFF  F09F         	goto	l979
  2081                           	
  2082  013966                     l1040:		; BSR set to: ?
  2083                           
  2084  013966  0404               	decf	(0+((c:0)+04h)),c,w
  2085  013968  1005               	iorwf (1+((c:0)+04h)),c,w
  2086                           
  2087  01396A  A4D8               	btfss	status,2
  2088  01396C  EFBA  F09C         	goto	u5021
  2089  013970  EFBC  F09C         	goto	u5020
  2090  013974                     u5021:
  2091  013974  EFCC  F09C         	goto	l1042
  2092  013978                     u5020:
  2093  013978  0414               	decf	(0+((c:0)+014h)),c,w
  2094  01397A  1015               	iorwf (1+((c:0)+014h)),c,w
  2095                           
  2096  01397C  A4D8               	btfss	status,2
  2097  01397E  EFC3  F09C         	goto	u5031
  2098  013982  EFC5  F09C         	goto	u5030
  2099  013986                     u5031:
  2100  013986  EFCC  F09C         	goto	l1042
  2101  01398A                     u5030:
  2102                           	line	699
  2103                           ;main.c: 699: LATA = 0b11111111;
  2104  01398A  6889               	setf	((c:3977)),c	;volatile
  2105                           	line	701
  2106                           ;main.c: 701: LATB = 0b00000100;
  2107  01398C  0E04               	movlw	low(04h)
  2108  01398E  6E8A               	movwf	((c:3978)),c	;volatile
  2109                           	line	703
  2110                           ;main.c: 703: LATC = 0b00001111;
  2111  013990  0E0F               	movlw	low(0Fh)
  2112  013992  6E8B               	movwf	((c:3979)),c	;volatile
  2113                           	line	705
  2114                           ;main.c: 705: } else if (led_array[2] == 1 && le
                                 d_array[11] == 1) {
  2115  013994  EFFF  F09F         	goto	l979
  2116                           	
  2117  013998                     l1042:		; BSR set to: ?
  2118                           
  2119  013998  0404               	decf	(0+((c:0)+04h)),c,w
  2120  01399A  1005               	iorwf (1+((c:0)+04h)),c,w
  2121                           
  2122  01399C  A4D8               	btfss	status,2
  2123  01399E  EFD3  F09C         	goto	u5041
  2124  0139A2  EFD5  F09C         	goto	u5040
  2125  0139A6                     u5041:
  2126  0139A6  EFE5  F09C         	goto	l1044
  2127  0139AA                     u5040:
  2128  0139AA  0416               	decf	(0+((c:0)+016h)),c,w
  2129  0139AC  1017               	iorwf (1+((c:0)+016h)),c,w
  2130                           
  2131  0139AE  A4D8               	btfss	status,2
  2132  0139B0  EFDC  F09C         	goto	u5051
  2133  0139B4  EFDE  F09C         	goto	u5050
  2134  0139B8                     u5051:
  2135  0139B8  EFE5  F09C         	goto	l1044
  2136  0139BC                     u5050:
  2137                           	line	708
  2138                           ;main.c: 708: LATA = 0b11111111;
  2139  0139BC  6889               	setf	((c:3977)),c	;volatile
  2140                           	line	710
  2141                           ;main.c: 710: LATB = 0b10000100;
  2142  0139BE  0E84               	movlw	low(084h)
  2143  0139C0  6E8A               	movwf	((c:3978)),c	;volatile
  2144                           	line	712
  2145                           ;main.c: 712: LATC = 0b00001011;
  2146  0139C2  0E0B               	movlw	low(0Bh)
  2147  0139C4  6E8B               	movwf	((c:3979)),c	;volatile
  2148                           	line	714
  2149                           ;main.c: 714: } else if (led_array[2] == 1 && le
                                 d_array[12] == 1) {
  2150  0139C6  EFFF  F09F         	goto	l979
  2151                           	
  2152  0139CA                     l1044:		; BSR set to: ?
  2153                           
  2154  0139CA  0404               	decf	(0+((c:0)+04h)),c,w
  2155  0139CC  1005               	iorwf (1+((c:0)+04h)),c,w
  2156                           
  2157  0139CE  A4D8               	btfss	status,2
  2158  0139D0  EFEC  F09C         	goto	u5061
  2159  0139D4  EFEE  F09C         	goto	u5060
  2160  0139D8                     u5061:
  2161  0139D8  EFFE  F09C         	goto	l1046
  2162  0139DC                     u5060:
  2163  0139DC  0418               	decf	(0+((c:0)+018h)),c,w
  2164  0139DE  1019               	iorwf (1+((c:0)+018h)),c,w
  2165                           
  2166  0139E0  A4D8               	btfss	status,2
  2167  0139E2  EFF5  F09C         	goto	u5071
  2168  0139E6  EFF7  F09C         	goto	u5070
  2169  0139EA                     u5071:
  2170  0139EA  EFFE  F09C         	goto	l1046
  2171  0139EE                     u5070:
  2172                           	line	717
  2173                           ;main.c: 717: LATA = 0b11111111;
  2174  0139EE  6889               	setf	((c:3977)),c	;volatile
  2175                           	line	719
  2176                           ;main.c: 719: LATB = 0b10000100;
  2177  0139F0  0E84               	movlw	low(084h)
  2178  0139F2  6E8A               	movwf	((c:3978)),c	;volatile
  2179                           	line	721
  2180                           ;main.c: 721: LATC = 0b00000111;
  2181  0139F4  0E07               	movlw	low(07h)
  2182  0139F6  6E8B               	movwf	((c:3979)),c	;volatile
  2183                           	line	723
  2184                           ;main.c: 723: } else if (led_array[3] == 1 && le
                                 d_array[6] == 1) {
  2185  0139F8  EFFF  F09F         	goto	l979
  2186                           	
  2187  0139FC                     l1046:		; BSR set to: ?
  2188                           
  2189  0139FC  0406               	decf	(0+((c:0)+06h)),c,w
  2190  0139FE  1007               	iorwf (1+((c:0)+06h)),c,w
  2191                           
  2192  013A00  A4D8               	btfss	status,2
  2193  013A02  EF05  F09D         	goto	u5081
  2194  013A06  EF07  F09D         	goto	u5080
  2195  013A0A                     u5081:
  2196  013A0A  EF18  F09D         	goto	l1048
  2197  013A0E                     u5080:
  2198  013A0E  040C               	decf	(0+((c:0)+0Ch)),c,w
  2199  013A10  100D               	iorwf (1+((c:0)+0Ch)),c,w
  2200                           
  2201  013A12  A4D8               	btfss	status,2
  2202  013A14  EF0E  F09D         	goto	u5091
  2203  013A18  EF10  F09D         	goto	u5090
  2204  013A1C                     u5091:
  2205  013A1C  EF18  F09D         	goto	l1048
  2206  013A20                     u5090:
  2207                           	line	726
  2208                           ;main.c: 726: LATA = 0b11101111;
  2209  013A20  0EEF               	movlw	low(0EFh)
  2210  013A22  6E89               	movwf	((c:3977)),c	;volatile
  2211                           	line	728
  2212                           ;main.c: 728: LATB = 0b10001000;
  2213  013A24  0E88               	movlw	low(088h)
  2214  013A26  6E8A               	movwf	((c:3978)),c	;volatile
  2215                           	line	730
  2216                           ;main.c: 730: LATC = 0b00001111;
  2217  013A28  0E0F               	movlw	low(0Fh)
  2218  013A2A  6E8B               	movwf	((c:3979)),c	;volatile
  2219                           	line	732
  2220                           ;main.c: 732: } else if (led_array[3] == 1 && le
                                 d_array[7] == 1) {
  2221  013A2C  EFFF  F09F         	goto	l979
  2222                           	
  2223  013A30                     l1048:		; BSR set to: ?
  2224                           
  2225  013A30  0406               	decf	(0+((c:0)+06h)),c,w
  2226  013A32  1007               	iorwf (1+((c:0)+06h)),c,w
  2227                           
  2228  013A34  A4D8               	btfss	status,2
  2229  013A36  EF1F  F09D         	goto	u5101
  2230  013A3A  EF21  F09D         	goto	u5100
  2231  013A3E                     u5101:
  2232  013A3E  EF32  F09D         	goto	l1050
  2233  013A42                     u5100:
  2234  013A42  040E               	decf	(0+((c:0)+0Eh)),c,w
  2235  013A44  100F               	iorwf (1+((c:0)+0Eh)),c,w
  2236                           
  2237  013A46  A4D8               	btfss	status,2
  2238  013A48  EF28  F09D         	goto	u5111
  2239  013A4C  EF2A  F09D         	goto	u5110
  2240  013A50                     u5111:
  2241  013A50  EF32  F09D         	goto	l1050
  2242  013A54                     u5110:
  2243                           	line	735
  2244                           ;main.c: 735: LATA = 0b10111111;
  2245  013A54  0EBF               	movlw	low(0BFh)
  2246  013A56  6E89               	movwf	((c:3977)),c	;volatile
  2247                           	line	737
  2248                           ;main.c: 737: LATB = 0b10001000;
  2249  013A58  0E88               	movlw	low(088h)
  2250  013A5A  6E8A               	movwf	((c:3978)),c	;volatile
  2251                           	line	739
  2252                           ;main.c: 739: LATC = 0b00001111;
  2253  013A5C  0E0F               	movlw	low(0Fh)
  2254  013A5E  6E8B               	movwf	((c:3979)),c	;volatile
  2255                           	line	741
  2256                           ;main.c: 741: } else if (led_array[3] == 1 && le
                                 d_array[8] == 1) {
  2257  013A60  EFFF  F09F         	goto	l979
  2258                           	
  2259  013A64                     l1050:		; BSR set to: ?
  2260                           
  2261  013A64  0406               	decf	(0+((c:0)+06h)),c,w
  2262  013A66  1007               	iorwf (1+((c:0)+06h)),c,w
  2263                           
  2264  013A68  A4D8               	btfss	status,2
  2265  013A6A  EF39  F09D         	goto	u5121
  2266  013A6E  EF3B  F09D         	goto	u5120
  2267  013A72                     u5121:
  2268  013A72  EF4B  F09D         	goto	l1052
  2269  013A76                     u5120:
  2270  013A76  0410               	decf	(0+((c:0)+010h)),c,w
  2271  013A78  1011               	iorwf (1+((c:0)+010h)),c,w
  2272                           
  2273  013A7A  A4D8               	btfss	status,2
  2274  013A7C  EF42  F09D         	goto	u5131
  2275  013A80  EF44  F09D         	goto	u5130
  2276  013A84                     u5131:
  2277  013A84  EF4B  F09D         	goto	l1052
  2278  013A88                     u5130:
  2279                           	line	744
  2280                           ;main.c: 744: LATA = 0b11111111;
  2281  013A88  6889               	setf	((c:3977)),c	;volatile
  2282                           	line	746
  2283                           ;main.c: 746: LATB = 0b10001000;
  2284  013A8A  0E88               	movlw	low(088h)
  2285  013A8C  6E8A               	movwf	((c:3978)),c	;volatile
  2286                           	line	748
  2287                           ;main.c: 748: LATC = 0b00001110;
  2288  013A8E  0E0E               	movlw	low(0Eh)
  2289  013A90  6E8B               	movwf	((c:3979)),c	;volatile
  2290                           	line	750
  2291                           ;main.c: 750: } else if (led_array[3] == 1 && le
                                 d_array[9] == 1) {
  2292  013A92  EFFF  F09F         	goto	l979
  2293                           	
  2294  013A96                     l1052:		; BSR set to: ?
  2295                           
  2296  013A96  0406               	decf	(0+((c:0)+06h)),c,w
  2297  013A98  1007               	iorwf (1+((c:0)+06h)),c,w
  2298                           
  2299  013A9A  A4D8               	btfss	status,2
  2300  013A9C  EF52  F09D         	goto	u5141
  2301  013AA0  EF54  F09D         	goto	u5140
  2302  013AA4                     u5141:
  2303  013AA4  EF64  F09D         	goto	l1054
  2304  013AA8                     u5140:
  2305  013AA8  0412               	decf	(0+((c:0)+012h)),c,w
  2306  013AAA  1013               	iorwf (1+((c:0)+012h)),c,w
  2307                           
  2308  013AAC  A4D8               	btfss	status,2
  2309  013AAE  EF5B  F09D         	goto	u5151
  2310  013AB2  EF5D  F09D         	goto	u5150
  2311  013AB6                     u5151:
  2312  013AB6  EF64  F09D         	goto	l1054
  2313  013ABA                     u5150:
  2314                           	line	753
  2315                           ;main.c: 753: LATA = 0b11111111;
  2316  013ABA  6889               	setf	((c:3977)),c	;volatile
  2317                           	line	755
  2318                           ;main.c: 755: LATB = 0b10001000;
  2319  013ABC  0E88               	movlw	low(088h)
  2320  013ABE  6E8A               	movwf	((c:3978)),c	;volatile
  2321                           	line	757
  2322                           ;main.c: 757: LATC = 0b00001101;
  2323  013AC0  0E0D               	movlw	low(0Dh)
  2324  013AC2  6E8B               	movwf	((c:3979)),c	;volatile
  2325                           	line	759
  2326                           ;main.c: 759: } else if (led_array[3] == 1 && le
                                 d_array[10] == 1) {
  2327  013AC4  EFFF  F09F         	goto	l979
  2328                           	
  2329  013AC8                     l1054:		; BSR set to: ?
  2330                           
  2331  013AC8  0406               	decf	(0+((c:0)+06h)),c,w
  2332  013ACA  1007               	iorwf (1+((c:0)+06h)),c,w
  2333                           
  2334  013ACC  A4D8               	btfss	status,2
  2335  013ACE  EF6B  F09D         	goto	u5161
  2336  013AD2  EF6D  F09D         	goto	u5160
  2337  013AD6                     u5161:
  2338  013AD6  EF7D  F09D         	goto	l1056
  2339  013ADA                     u5160:
  2340  013ADA  0414               	decf	(0+((c:0)+014h)),c,w
  2341  013ADC  1015               	iorwf (1+((c:0)+014h)),c,w
  2342                           
  2343  013ADE  A4D8               	btfss	status,2
  2344  013AE0  EF74  F09D         	goto	u5171
  2345  013AE4  EF76  F09D         	goto	u5170
  2346  013AE8                     u5171:
  2347  013AE8  EF7D  F09D         	goto	l1056
  2348  013AEC                     u5170:
  2349                           	line	762
  2350                           ;main.c: 762: LATA = 0b11111111;
  2351  013AEC  6889               	setf	((c:3977)),c	;volatile
  2352                           	line	764
  2353                           ;main.c: 764: LATB = 0b00001000;
  2354  013AEE  0E08               	movlw	low(08h)
  2355  013AF0  6E8A               	movwf	((c:3978)),c	;volatile
  2356                           	line	766
  2357                           ;main.c: 766: LATC = 0b00001111;
  2358  013AF2  0E0F               	movlw	low(0Fh)
  2359  013AF4  6E8B               	movwf	((c:3979)),c	;volatile
  2360                           	line	768
  2361                           ;main.c: 768: } else if (led_array[3] == 1 && le
                                 d_array[11] == 1) {
  2362  013AF6  EFFF  F09F         	goto	l979
  2363                           	
  2364  013AFA                     l1056:		; BSR set to: ?
  2365                           
  2366  013AFA  0406               	decf	(0+((c:0)+06h)),c,w
  2367  013AFC  1007               	iorwf (1+((c:0)+06h)),c,w
  2368                           
  2369  013AFE  A4D8               	btfss	status,2
  2370  013B00  EF84  F09D         	goto	u5181
  2371  013B04  EF86  F09D         	goto	u5180
  2372  013B08                     u5181:
  2373  013B08  EF96  F09D         	goto	l1058
  2374  013B0C                     u5180:
  2375  013B0C  0416               	decf	(0+((c:0)+016h)),c,w
  2376  013B0E  1017               	iorwf (1+((c:0)+016h)),c,w
  2377                           
  2378  013B10  A4D8               	btfss	status,2
  2379  013B12  EF8D  F09D         	goto	u5191
  2380  013B16  EF8F  F09D         	goto	u5190
  2381  013B1A                     u5191:
  2382  013B1A  EF96  F09D         	goto	l1058
  2383  013B1E                     u5190:
  2384                           	line	771
  2385                           ;main.c: 771: LATA = 0b11111111;
  2386  013B1E  6889               	setf	((c:3977)),c	;volatile
  2387                           	line	773
  2388                           ;main.c: 773: LATB = 0b10001000;
  2389  013B20  0E88               	movlw	low(088h)
  2390  013B22  6E8A               	movwf	((c:3978)),c	;volatile
  2391                           	line	775
  2392                           ;main.c: 775: LATC = 0b00001011;
  2393  013B24  0E0B               	movlw	low(0Bh)
  2394  013B26  6E8B               	movwf	((c:3979)),c	;volatile
  2395                           	line	777
  2396                           ;main.c: 777: } else if (led_array[3] == 1 && le
                                 d_array[12] == 1) {
  2397  013B28  EFFF  F09F         	goto	l979
  2398                           	
  2399  013B2C                     l1058:		; BSR set to: ?
  2400                           
  2401  013B2C  0406               	decf	(0+((c:0)+06h)),c,w
  2402  013B2E  1007               	iorwf (1+((c:0)+06h)),c,w
  2403                           
  2404  013B30  A4D8               	btfss	status,2
  2405  013B32  EF9D  F09D         	goto	u5201
  2406  013B36  EF9F  F09D         	goto	u5200
  2407  013B3A                     u5201:
  2408  013B3A  EFAF  F09D         	goto	l1060
  2409  013B3E                     u5200:
  2410  013B3E  0418               	decf	(0+((c:0)+018h)),c,w
  2411  013B40  1019               	iorwf (1+((c:0)+018h)),c,w
  2412                           
  2413  013B42  A4D8               	btfss	status,2
  2414  013B44  EFA6  F09D         	goto	u5211
  2415  013B48  EFA8  F09D         	goto	u5210
  2416  013B4C                     u5211:
  2417  013B4C  EFAF  F09D         	goto	l1060
  2418  013B50                     u5210:
  2419                           	line	780
  2420                           ;main.c: 780: LATA = 0b11111111;
  2421  013B50  6889               	setf	((c:3977)),c	;volatile
  2422                           	line	782
  2423                           ;main.c: 782: LATB = 0b10001000;
  2424  013B52  0E88               	movlw	low(088h)
  2425  013B54  6E8A               	movwf	((c:3978)),c	;volatile
  2426                           	line	784
  2427                           ;main.c: 784: LATC = 0b00000111;
  2428  013B56  0E07               	movlw	low(07h)
  2429  013B58  6E8B               	movwf	((c:3979)),c	;volatile
  2430                           	line	785
  2431                           ;main.c: 785: }
  2432  013B5A  EFFF  F09F         	goto	l979
  2433                           	line	788
  2434                           	
  2435  013B5E                     l1060:		; BSR set to: ?
  2436                           
  2437                           ;main.c: 788: else if (led_array[0] == 1 && led_
                                 array[1] == 1 && led_array[6] == 1) {
  2438  013B5E  0400               	decf	((c:0)),c,w
  2439  013B60  1001               	iorwf ((c:0+1)),c,w
  2440                           
  2441  013B62  A4D8               	btfss	status,2
  2442  013B64  EFB6  F09D         	goto	u5221
  2443  013B68  EFB8  F09D         	goto	u5220
  2444  013B6C                     u5221:
  2445  013B6C  EFD2  F09D         	goto	l1062
  2446  013B70                     u5220:
  2447  013B70  0402               	decf	(0+((c:0)+02h)),c,w
  2448  013B72  1003               	iorwf (1+((c:0)+02h)),c,w
  2449                           
  2450  013B74  A4D8               	btfss	status,2
  2451  013B76  EFBF  F09D         	goto	u5231
  2452  013B7A  EFC1  F09D         	goto	u5230
  2453  013B7E                     u5231:
  2454  013B7E  EFD2  F09D         	goto	l1062
  2455  013B82                     u5230:
  2456  013B82  040C               	decf	(0+((c:0)+0Ch)),c,w
  2457  013B84  100D               	iorwf (1+((c:0)+0Ch)),c,w
  2458                           
  2459  013B86  A4D8               	btfss	status,2
  2460  013B88  EFC8  F09D         	goto	u5241
  2461  013B8C  EFCA  F09D         	goto	u5240
  2462  013B90                     u5241:
  2463  013B90  EFD2  F09D         	goto	l1062
  2464  013B94                     u5240:
  2465                           	line	791
  2466                           ;main.c: 791: LATA = 0b11101111;
  2467  013B94  0EEF               	movlw	low(0EFh)
  2468  013B96  6E89               	movwf	((c:3977)),c	;volatile
  2469                           	line	793
  2470                           ;main.c: 793: LATB = 0b10000000;
  2471  013B98  0E80               	movlw	low(080h)
  2472  013B9A  6E8A               	movwf	((c:3978)),c	;volatile
  2473                           	line	795
  2474                           ;main.c: 795: LATC = 0b00111111;
  2475  013B9C  0E3F               	movlw	low(03Fh)
  2476  013B9E  6E8B               	movwf	((c:3979)),c	;volatile
  2477                           	line	797
  2478                           ;main.c: 797: } else if (led_array[0] == 1 && le
                                 d_array[1] == 1 && led_array[7] == 1) {
  2479  013BA0  EFFF  F09F         	goto	l979
  2480                           	
  2481  013BA4                     l1062:		; BSR set to: ?
  2482                           
  2483  013BA4  0400               	decf	((c:0)),c,w
  2484  013BA6  1001               	iorwf ((c:0+1)),c,w
  2485                           
  2486  013BA8  A4D8               	btfss	status,2
  2487  013BAA  EFD9  F09D         	goto	u5251
  2488  013BAE  EFDB  F09D         	goto	u5250
  2489  013BB2                     u5251:
  2490  013BB2  EFF5  F09D         	goto	l1064
  2491  013BB6                     u5250:
  2492  013BB6  0402               	decf	(0+((c:0)+02h)),c,w
  2493  013BB8  1003               	iorwf (1+((c:0)+02h)),c,w
  2494                           
  2495  013BBA  A4D8               	btfss	status,2
  2496  013BBC  EFE2  F09D         	goto	u5261
  2497  013BC0  EFE4  F09D         	goto	u5260
  2498  013BC4                     u5261:
  2499  013BC4  EFF5  F09D         	goto	l1064
  2500  013BC8                     u5260:
  2501  013BC8  040E               	decf	(0+((c:0)+0Eh)),c,w
  2502  013BCA  100F               	iorwf (1+((c:0)+0Eh)),c,w
  2503                           
  2504  013BCC  A4D8               	btfss	status,2
  2505  013BCE  EFEB  F09D         	goto	u5271
  2506  013BD2  EFED  F09D         	goto	u5270
  2507  013BD6                     u5271:
  2508  013BD6  EFF5  F09D         	goto	l1064
  2509  013BDA                     u5270:
  2510                           	line	800
  2511                           ;main.c: 800: LATA = 0b10111111;
  2512  013BDA  0EBF               	movlw	low(0BFh)
  2513  013BDC  6E89               	movwf	((c:3977)),c	;volatile
  2514                           	line	802
  2515                           ;main.c: 802: LATB = 0b10000000;
  2516  013BDE  0E80               	movlw	low(080h)
  2517  013BE0  6E8A               	movwf	((c:3978)),c	;volatile
  2518                           	line	804
  2519                           ;main.c: 804: LATC = 0b00111111;
  2520  013BE2  0E3F               	movlw	low(03Fh)
  2521  013BE4  6E8B               	movwf	((c:3979)),c	;volatile
  2522                           	line	806
  2523                           ;main.c: 806: } else if (led_array[0] == 1 && le
                                 d_array[1] == 1 && led_array[8] == 1) {
  2524  013BE6  EFFF  F09F         	goto	l979
  2525                           	
  2526  013BEA                     l1064:		; BSR set to: ?
  2527                           
  2528  013BEA  0400               	decf	((c:0)),c,w
  2529  013BEC  1001               	iorwf ((c:0+1)),c,w
  2530                           
  2531  013BEE  A4D8               	btfss	status,2
  2532  013BF0  EFFC  F09D         	goto	u5281
  2533  013BF4  EFFE  F09D         	goto	u5280
  2534  013BF8                     u5281:
  2535  013BF8  EF17  F09E         	goto	l1066
  2536  013BFC                     u5280:
  2537  013BFC  0402               	decf	(0+((c:0)+02h)),c,w
  2538  013BFE  1003               	iorwf (1+((c:0)+02h)),c,w
  2539                           
  2540  013C00  A4D8               	btfss	status,2
  2541  013C02  EF05  F09E         	goto	u5291
  2542  013C06  EF07  F09E         	goto	u5290
  2543  013C0A                     u5291:
  2544  013C0A  EF17  F09E         	goto	l1066
  2545  013C0E                     u5290:
  2546  013C0E  0410               	decf	(0+((c:0)+010h)),c,w
  2547  013C10  1011               	iorwf (1+((c:0)+010h)),c,w
  2548                           
  2549  013C12  A4D8               	btfss	status,2
  2550  013C14  EF0E  F09E         	goto	u5301
  2551  013C18  EF10  F09E         	goto	u5300
  2552  013C1C                     u5301:
  2553  013C1C  EF17  F09E         	goto	l1066
  2554  013C20                     u5300:
  2555                           	line	809
  2556                           ;main.c: 809: LATA = 0b11111111;
  2557  013C20  6889               	setf	((c:3977)),c	;volatile
  2558                           	line	811
  2559                           ;main.c: 811: LATB = 0b10000000;
  2560  013C22  0E80               	movlw	low(080h)
  2561  013C24  6E8A               	movwf	((c:3978)),c	;volatile
  2562                           	line	813
  2563                           ;main.c: 813: LATC = 0b00111110;
  2564  013C26  0E3E               	movlw	low(03Eh)
  2565  013C28  6E8B               	movwf	((c:3979)),c	;volatile
  2566                           	line	815
  2567                           ;main.c: 815: } else if (led_array[0] == 1 && le
                                 d_array[1] == 1 && led_array[9] == 1) {
  2568  013C2A  EFFF  F09F         	goto	l979
  2569                           	
  2570  013C2E                     l1066:		; BSR set to: ?
  2571                           
  2572  013C2E  0400               	decf	((c:0)),c,w
  2573  013C30  1001               	iorwf ((c:0+1)),c,w
  2574                           
  2575  013C32  A4D8               	btfss	status,2
  2576  013C34  EF1E  F09E         	goto	u5311
  2577  013C38  EF20  F09E         	goto	u5310
  2578  013C3C                     u5311:
  2579  013C3C  EF39  F09E         	goto	l1068
  2580  013C40                     u5310:
  2581  013C40  0402               	decf	(0+((c:0)+02h)),c,w
  2582  013C42  1003               	iorwf (1+((c:0)+02h)),c,w
  2583                           
  2584  013C44  A4D8               	btfss	status,2
  2585  013C46  EF27  F09E         	goto	u5321
  2586  013C4A  EF29  F09E         	goto	u5320
  2587  013C4E                     u5321:
  2588  013C4E  EF39  F09E         	goto	l1068
  2589  013C52                     u5320:
  2590  013C52  0412               	decf	(0+((c:0)+012h)),c,w
  2591  013C54  1013               	iorwf (1+((c:0)+012h)),c,w
  2592                           
  2593  013C56  A4D8               	btfss	status,2
  2594  013C58  EF30  F09E         	goto	u5331
  2595  013C5C  EF32  F09E         	goto	u5330
  2596  013C60                     u5331:
  2597  013C60  EF39  F09E         	goto	l1068
  2598  013C64                     u5330:
  2599                           	line	818
  2600                           ;main.c: 818: LATA = 0b11111111;
  2601  013C64  6889               	setf	((c:3977)),c	;volatile
  2602                           	line	820
  2603                           ;main.c: 820: LATB = 0b10000000;
  2604  013C66  0E80               	movlw	low(080h)
  2605  013C68  6E8A               	movwf	((c:3978)),c	;volatile
  2606                           	line	822
  2607                           ;main.c: 822: LATC = 0b00111101;
  2608  013C6A  0E3D               	movlw	low(03Dh)
  2609  013C6C  6E8B               	movwf	((c:3979)),c	;volatile
  2610                           	line	823
  2611                           ;main.c: 823: } else if (led_array[0] == 1 && le
                                 d_array[1] == 1 && led_array[10] == 1) {
  2612  013C6E  EFFF  F09F         	goto	l979
  2613                           	
  2614  013C72                     l1068:		; BSR set to: ?
  2615                           
  2616  013C72  0400               	decf	((c:0)),c,w
  2617  013C74  1001               	iorwf ((c:0+1)),c,w
  2618                           
  2619  013C76  A4D8               	btfss	status,2
  2620  013C78  EF40  F09E         	goto	u5341
  2621  013C7C  EF42  F09E         	goto	u5340
  2622  013C80                     u5341:
  2623  013C80  EF5B  F09E         	goto	l1070
  2624  013C84                     u5340:
  2625  013C84  0402               	decf	(0+((c:0)+02h)),c,w
  2626  013C86  1003               	iorwf (1+((c:0)+02h)),c,w
  2627                           
  2628  013C88  A4D8               	btfss	status,2
  2629  013C8A  EF49  F09E         	goto	u5351
  2630  013C8E  EF4B  F09E         	goto	u5350
  2631  013C92                     u5351:
  2632  013C92  EF5B  F09E         	goto	l1070
  2633  013C96                     u5350:
  2634  013C96  0414               	decf	(0+((c:0)+014h)),c,w
  2635  013C98  1015               	iorwf (1+((c:0)+014h)),c,w
  2636                           
  2637  013C9A  A4D8               	btfss	status,2
  2638  013C9C  EF52  F09E         	goto	u5361
  2639  013CA0  EF54  F09E         	goto	u5360
  2640  013CA4                     u5361:
  2641  013CA4  EF5B  F09E         	goto	l1070
  2642  013CA8                     u5360:
  2643                           	line	826
  2644                           ;main.c: 826: LATA = 0b11111111;
  2645  013CA8  6889               	setf	((c:3977)),c	;volatile
  2646                           	line	828
  2647                           ;main.c: 828: LATB = 0b00000000;
  2648  013CAA  0E00               	movlw	low(0)
  2649  013CAC  6E8A               	movwf	((c:3978)),c	;volatile
  2650                           	line	830
  2651                           ;main.c: 830: LATC = 0b00111111;
  2652  013CAE  0E3F               	movlw	low(03Fh)
  2653  013CB0  6E8B               	movwf	((c:3979)),c	;volatile
  2654                           	line	831
  2655                           ;main.c: 831: } else if (led_array[0] == 1 && le
                                 d_array[1] == 1 && led_array[11] == 1) {
  2656  013CB2  EFFF  F09F         	goto	l979
  2657                           	
  2658  013CB6                     l1070:		; BSR set to: ?
  2659                           
  2660  013CB6  0400               	decf	((c:0)),c,w
  2661  013CB8  1001               	iorwf ((c:0+1)),c,w
  2662                           
  2663  013CBA  A4D8               	btfss	status,2
  2664  013CBC  EF62  F09E         	goto	u5371
  2665  013CC0  EF64  F09E         	goto	u5370
  2666  013CC4                     u5371:
  2667  013CC4  EF7D  F09E         	goto	l1072
  2668  013CC8                     u5370:
  2669  013CC8  0402               	decf	(0+((c:0)+02h)),c,w
  2670  013CCA  1003               	iorwf (1+((c:0)+02h)),c,w
  2671                           
  2672  013CCC  A4D8               	btfss	status,2
  2673  013CCE  EF6B  F09E         	goto	u5381
  2674  013CD2  EF6D  F09E         	goto	u5380
  2675  013CD6                     u5381:
  2676  013CD6  EF7D  F09E         	goto	l1072
  2677  013CDA                     u5380:
  2678  013CDA  0416               	decf	(0+((c:0)+016h)),c,w
  2679  013CDC  1017               	iorwf (1+((c:0)+016h)),c,w
  2680                           
  2681  013CDE  A4D8               	btfss	status,2
  2682  013CE0  EF74  F09E         	goto	u5391
  2683  013CE4  EF76  F09E         	goto	u5390
  2684  013CE8                     u5391:
  2685  013CE8  EF7D  F09E         	goto	l1072
  2686  013CEC                     u5390:
  2687                           	line	834
  2688                           ;main.c: 834: LATA = 0b11111111;
  2689  013CEC  6889               	setf	((c:3977)),c	;volatile
  2690                           	line	836
  2691                           ;main.c: 836: LATB = 0b10000000;
  2692  013CEE  0E80               	movlw	low(080h)
  2693  013CF0  6E8A               	movwf	((c:3978)),c	;volatile
  2694                           	line	838
  2695                           ;main.c: 838: LATC = 0b00111011;
  2696  013CF2  0E3B               	movlw	low(03Bh)
  2697  013CF4  6E8B               	movwf	((c:3979)),c	;volatile
  2698                           	line	839
  2699                           ;main.c: 839: } else if (led_array[0] == 1 && le
                                 d_array[1] == 1 && led_array[12] == 1) {
  2700  013CF6  EFFF  F09F         	goto	l979
  2701                           	
  2702  013CFA                     l1072:		; BSR set to: ?
  2703                           
  2704  013CFA  0400               	decf	((c:0)),c,w
  2705  013CFC  1001               	iorwf ((c:0+1)),c,w
  2706                           
  2707  013CFE  A4D8               	btfss	status,2
  2708  013D00  EF84  F09E         	goto	u5401
  2709  013D04  EF86  F09E         	goto	u5400
  2710  013D08                     u5401:
  2711  013D08  EF9F  F09E         	goto	l1074
  2712  013D0C                     u5400:
  2713  013D0C  0402               	decf	(0+((c:0)+02h)),c,w
  2714  013D0E  1003               	iorwf (1+((c:0)+02h)),c,w
  2715                           
  2716  013D10  A4D8               	btfss	status,2
  2717  013D12  EF8D  F09E         	goto	u5411
  2718  013D16  EF8F  F09E         	goto	u5410
  2719  013D1A                     u5411:
  2720  013D1A  EF9F  F09E         	goto	l1074
  2721  013D1E                     u5410:
  2722  013D1E  0418               	decf	(0+((c:0)+018h)),c,w
  2723  013D20  1019               	iorwf (1+((c:0)+018h)),c,w
  2724                           
  2725  013D22  A4D8               	btfss	status,2
  2726  013D24  EF96  F09E         	goto	u5421
  2727  013D28  EF98  F09E         	goto	u5420
  2728  013D2C                     u5421:
  2729  013D2C  EF9F  F09E         	goto	l1074
  2730  013D30                     u5420:
  2731                           	line	842
  2732                           ;main.c: 842: LATA = 0b11111111;
  2733  013D30  6889               	setf	((c:3977)),c	;volatile
  2734                           	line	844
  2735                           ;main.c: 844: LATB = 0b10000000;
  2736  013D32  0E80               	movlw	low(080h)
  2737  013D34  6E8A               	movwf	((c:3978)),c	;volatile
  2738                           	line	846
  2739                           ;main.c: 846: LATC = 0b00110111;
  2740  013D36  0E37               	movlw	low(037h)
  2741  013D38  6E8B               	movwf	((c:3979)),c	;volatile
  2742                           	line	848
  2743                           ;main.c: 848: } else if (led_array[0] == 1 && le
                                 d_array[6] == 1) {
  2744  013D3A  EFFF  F09F         	goto	l979
  2745                           	
  2746  013D3E                     l1074:		; BSR set to: ?
  2747                           
  2748  013D3E  0400               	decf	((c:0)),c,w
  2749  013D40  1001               	iorwf ((c:0+1)),c,w
  2750                           
  2751  013D42  A4D8               	btfss	status,2
  2752  013D44  EFA6  F09E         	goto	u5431
  2753  013D48  EFA8  F09E         	goto	u5430
  2754  013D4C                     u5431:
  2755  013D4C  EFB9  F09E         	goto	l1076
  2756  013D50                     u5430:
  2757  013D50  040C               	decf	(0+((c:0)+0Ch)),c,w
  2758  013D52  100D               	iorwf (1+((c:0)+0Ch)),c,w
  2759                           
  2760  013D54  A4D8               	btfss	status,2
  2761  013D56  EFAF  F09E         	goto	u5441
  2762  013D5A  EFB1  F09E         	goto	u5440
  2763  013D5E                     u5441:
  2764  013D5E  EFB9  F09E         	goto	l1076
  2765  013D62                     u5440:
  2766                           	line	851
  2767                           ;main.c: 851: LATA = 0b11101111;
  2768  013D62  0EEF               	movlw	low(0EFh)
  2769  013D64  6E89               	movwf	((c:3977)),c	;volatile
  2770                           	line	853
  2771                           ;main.c: 853: LATB = 0b10000000;
  2772  013D66  0E80               	movlw	low(080h)
  2773  013D68  6E8A               	movwf	((c:3978)),c	;volatile
  2774                           	line	855
  2775                           ;main.c: 855: LATC = 0b00011111;
  2776  013D6A  0E1F               	movlw	low(01Fh)
  2777  013D6C  6E8B               	movwf	((c:3979)),c	;volatile
  2778                           	line	857
  2779                           ;main.c: 857: } else if (led_array[0] == 1 && le
                                 d_array[7] == 1) {
  2780  013D6E  EFFF  F09F         	goto	l979
  2781                           	
  2782  013D72                     l1076:		; BSR set to: ?
  2783                           
  2784  013D72  0400               	decf	((c:0)),c,w
  2785  013D74  1001               	iorwf ((c:0+1)),c,w
  2786                           
  2787  013D76  A4D8               	btfss	status,2
  2788  013D78  EFC0  F09E         	goto	u5451
  2789  013D7C  EFC2  F09E         	goto	u5450
  2790  013D80                     u5451:
  2791  013D80  EFD3  F09E         	goto	l1078
  2792  013D84                     u5450:
  2793  013D84  040E               	decf	(0+((c:0)+0Eh)),c,w
  2794  013D86  100F               	iorwf (1+((c:0)+0Eh)),c,w
  2795                           
  2796  013D88  A4D8               	btfss	status,2
  2797  013D8A  EFC9  F09E         	goto	u5461
  2798  013D8E  EFCB  F09E         	goto	u5460
  2799  013D92                     u5461:
  2800  013D92  EFD3  F09E         	goto	l1078
  2801  013D96                     u5460:
  2802                           	line	860
  2803                           ;main.c: 860: LATA = 0b10111111;
  2804  013D96  0EBF               	movlw	low(0BFh)
  2805  013D98  6E89               	movwf	((c:3977)),c	;volatile
  2806                           	line	862
  2807                           ;main.c: 862: LATB = 0b10000000;
  2808  013D9A  0E80               	movlw	low(080h)
  2809  013D9C  6E8A               	movwf	((c:3978)),c	;volatile
  2810                           	line	864
  2811                           ;main.c: 864: LATC = 0b00011111;
  2812  013D9E  0E1F               	movlw	low(01Fh)
  2813  013DA0  6E8B               	movwf	((c:3979)),c	;volatile
  2814                           	line	866
  2815                           ;main.c: 866: } else if (led_array[0] == 1 && le
                                 d_array[8] == 1) {
  2816  013DA2  EFFF  F09F         	goto	l979
  2817                           	
  2818  013DA6                     l1078:		; BSR set to: ?
  2819                           
  2820  013DA6  0400               	decf	((c:0)),c,w
  2821  013DA8  1001               	iorwf ((c:0+1)),c,w
  2822                           
  2823  013DAA  A4D8               	btfss	status,2
  2824  013DAC  EFDA  F09E         	goto	u5471
  2825  013DB0  EFDC  F09E         	goto	u5470
  2826  013DB4                     u5471:
  2827  013DB4  EFEC  F09E         	goto	l1080
  2828  013DB8                     u5470:
  2829  013DB8  0410               	decf	(0+((c:0)+010h)),c,w
  2830  013DBA  1011               	iorwf (1+((c:0)+010h)),c,w
  2831                           
  2832  013DBC  A4D8               	btfss	status,2
  2833  013DBE  EFE3  F09E         	goto	u5481
  2834  013DC2  EFE5  F09E         	goto	u5480
  2835  013DC6                     u5481:
  2836  013DC6  EFEC  F09E         	goto	l1080
  2837  013DCA                     u5480:
  2838                           	line	869
  2839                           ;main.c: 869: LATA = 0b11111111;
  2840  013DCA  6889               	setf	((c:3977)),c	;volatile
  2841                           	line	871
  2842                           ;main.c: 871: LATB = 0b10000000;
  2843  013DCC  0E80               	movlw	low(080h)
  2844  013DCE  6E8A               	movwf	((c:3978)),c	;volatile
  2845                           	line	873
  2846                           ;main.c: 873: LATC = 0b00011110;
  2847  013DD0  0E1E               	movlw	low(01Eh)
  2848  013DD2  6E8B               	movwf	((c:3979)),c	;volatile
  2849                           	line	875
  2850                           ;main.c: 875: } else if (led_array[0] == 1 && le
                                 d_array[9] == 1) {
  2851  013DD4  EFFF  F09F         	goto	l979
  2852                           	
  2853  013DD8                     l1080:		; BSR set to: ?
  2854                           
  2855  013DD8  0400               	decf	((c:0)),c,w
  2856  013DDA  1001               	iorwf ((c:0+1)),c,w
  2857                           
  2858  013DDC  A4D8               	btfss	status,2
  2859  013DDE  EFF3  F09E         	goto	u5491
  2860  013DE2  EFF5  F09E         	goto	u5490
  2861  013DE6                     u5491:
  2862  013DE6  EF05  F09F         	goto	l1082
  2863  013DEA                     u5490:
  2864  013DEA  0412               	decf	(0+((c:0)+012h)),c,w
  2865  013DEC  1013               	iorwf (1+((c:0)+012h)),c,w
  2866                           
  2867  013DEE  A4D8               	btfss	status,2
  2868  013DF0  EFFC  F09E         	goto	u5501
  2869  013DF4  EFFE  F09E         	goto	u5500
  2870  013DF8                     u5501:
  2871  013DF8  EF05  F09F         	goto	l1082
  2872  013DFC                     u5500:
  2873                           	line	878
  2874                           ;main.c: 878: LATA = 0b11111111;
  2875  013DFC  6889               	setf	((c:3977)),c	;volatile
  2876                           	line	880
  2877                           ;main.c: 880: LATB = 0b10000000;
  2878  013DFE  0E80               	movlw	low(080h)
  2879  013E00  6E8A               	movwf	((c:3978)),c	;volatile
  2880                           	line	882
  2881                           ;main.c: 882: LATC = 0b00011101;
  2882  013E02  0E1D               	movlw	low(01Dh)
  2883  013E04  6E8B               	movwf	((c:3979)),c	;volatile
  2884                           	line	884
  2885                           ;main.c: 884: } else if (led_array[0] == 1 && le
                                 d_array[10] == 1) {
  2886  013E06  EFFF  F09F         	goto	l979
  2887                           	
  2888  013E0A                     l1082:		; BSR set to: ?
  2889                           
  2890  013E0A  0400               	decf	((c:0)),c,w
  2891  013E0C  1001               	iorwf ((c:0+1)),c,w
  2892                           
  2893  013E0E  A4D8               	btfss	status,2
  2894  013E10  EF0C  F09F         	goto	u5511
  2895  013E14  EF0E  F09F         	goto	u5510
  2896  013E18                     u5511:
  2897  013E18  EF1E  F09F         	goto	l1084
  2898  013E1C                     u5510:
  2899  013E1C  0414               	decf	(0+((c:0)+014h)),c,w
  2900  013E1E  1015               	iorwf (1+((c:0)+014h)),c,w
  2901                           
  2902  013E20  A4D8               	btfss	status,2
  2903  013E22  EF15  F09F         	goto	u5521
  2904  013E26  EF17  F09F         	goto	u5520
  2905  013E2A                     u5521:
  2906  013E2A  EF1E  F09F         	goto	l1084
  2907  013E2E                     u5520:
  2908                           	line	887
  2909                           ;main.c: 887: LATA = 0b11111111;
  2910  013E2E  6889               	setf	((c:3977)),c	;volatile
  2911                           	line	889
  2912                           ;main.c: 889: LATB = 0b00000000;
  2913  013E30  0E00               	movlw	low(0)
  2914  013E32  6E8A               	movwf	((c:3978)),c	;volatile
  2915                           	line	891
  2916                           ;main.c: 891: LATC = 0b00011111;
  2917  013E34  0E1F               	movlw	low(01Fh)
  2918  013E36  6E8B               	movwf	((c:3979)),c	;volatile
  2919                           	line	893
  2920                           ;main.c: 893: } else if (led_array[0] == 1 && le
                                 d_array[11] == 1) {
  2921  013E38  EFFF  F09F         	goto	l979
  2922                           	
  2923  013E3C                     l1084:		; BSR set to: ?
  2924                           
  2925  013E3C  0400               	decf	((c:0)),c,w
  2926  013E3E  1001               	iorwf ((c:0+1)),c,w
  2927                           
  2928  013E40  A4D8               	btfss	status,2
  2929  013E42  EF25  F09F         	goto	u5531
  2930  013E46  EF27  F09F         	goto	u5530
  2931  013E4A                     u5531:
  2932  013E4A  EF37  F09F         	goto	l1086
  2933  013E4E                     u5530:
  2934  013E4E  0416               	decf	(0+((c:0)+016h)),c,w
  2935  013E50  1017               	iorwf (1+((c:0)+016h)),c,w
  2936                           
  2937  013E52  A4D8               	btfss	status,2
  2938  013E54  EF2E  F09F         	goto	u5541
  2939  013E58  EF30  F09F         	goto	u5540
  2940  013E5C                     u5541:
  2941  013E5C  EF37  F09F         	goto	l1086
  2942  013E60                     u5540:
  2943                           	line	896
  2944                           ;main.c: 896: LATA = 0b11111111;
  2945  013E60  6889               	setf	((c:3977)),c	;volatile
  2946                           	line	898
  2947                           ;main.c: 898: LATB = 0b10000000;
  2948  013E62  0E80               	movlw	low(080h)
  2949  013E64  6E8A               	movwf	((c:3978)),c	;volatile
  2950                           	line	900
  2951                           ;main.c: 900: LATC = 0b00011011;
  2952  013E66  0E1B               	movlw	low(01Bh)
  2953  013E68  6E8B               	movwf	((c:3979)),c	;volatile
  2954                           	line	902
  2955                           ;main.c: 902: } else if (led_array[0] == 1 && le
                                 d_array[12] == 1) {
  2956  013E6A  EFFF  F09F         	goto	l979
  2957                           	
  2958  013E6E                     l1086:		; BSR set to: ?
  2959                           
  2960  013E6E  0400               	decf	((c:0)),c,w
  2961  013E70  1001               	iorwf ((c:0+1)),c,w
  2962                           
  2963  013E72  A4D8               	btfss	status,2
  2964  013E74  EF3E  F09F         	goto	u5551
  2965  013E78  EF40  F09F         	goto	u5550
  2966  013E7C                     u5551:
  2967  013E7C  EF50  F09F         	goto	l1088
  2968  013E80                     u5550:
  2969  013E80  0418               	decf	(0+((c:0)+018h)),c,w
  2970  013E82  1019               	iorwf (1+((c:0)+018h)),c,w
  2971                           
  2972  013E84  A4D8               	btfss	status,2
  2973  013E86  EF47  F09F         	goto	u5561
  2974  013E8A  EF49  F09F         	goto	u5560
  2975  013E8E                     u5561:
  2976  013E8E  EF50  F09F         	goto	l1088
  2977  013E92                     u5560:
  2978                           	line	905
  2979                           ;main.c: 905: LATA = 0b11111111;
  2980  013E92  6889               	setf	((c:3977)),c	;volatile
  2981                           	line	907
  2982                           ;main.c: 907: LATB = 0b10000000;
  2983  013E94  0E80               	movlw	low(080h)
  2984  013E96  6E8A               	movwf	((c:3978)),c	;volatile
  2985                           	line	909
  2986                           ;main.c: 909: LATC = 0b00010111;
  2987  013E98  0E17               	movlw	low(017h)
  2988  013E9A  6E8B               	movwf	((c:3979)),c	;volatile
  2989                           	line	911
  2990                           ;main.c: 911: } else if (led_array[1] == 1 && le
                                 d_array[6] == 1) {
  2991  013E9C  EFFF  F09F         	goto	l979
  2992                           	
  2993  013EA0                     l1088:		; BSR set to: ?
  2994                           
  2995  013EA0  0402               	decf	(0+((c:0)+02h)),c,w
  2996  013EA2  1003               	iorwf (1+((c:0)+02h)),c,w
  2997                           
  2998  013EA4  A4D8               	btfss	status,2
  2999  013EA6  EF57  F09F         	goto	u5571
  3000  013EAA  EF59  F09F         	goto	u5570
  3001  013EAE                     u5571:
  3002  013EAE  EF6A  F09F         	goto	l1090
  3003  013EB2                     u5570:
  3004  013EB2  040C               	decf	(0+((c:0)+0Ch)),c,w
  3005  013EB4  100D               	iorwf (1+((c:0)+0Ch)),c,w
  3006                           
  3007  013EB6  A4D8               	btfss	status,2
  3008  013EB8  EF60  F09F         	goto	u5581
  3009  013EBC  EF62  F09F         	goto	u5580
  3010  013EC0                     u5581:
  3011  013EC0  EF6A  F09F         	goto	l1090
  3012  013EC4                     u5580:
  3013                           	line	914
  3014                           ;main.c: 914: LATA = 0b11101111;
  3015  013EC4  0EEF               	movlw	low(0EFh)
  3016  013EC6  6E89               	movwf	((c:3977)),c	;volatile
  3017                           	line	916
  3018                           ;main.c: 916: LATB = 0b10000000;
  3019  013EC8  0E80               	movlw	low(080h)
  3020  013ECA  6E8A               	movwf	((c:3978)),c	;volatile
  3021                           	line	918
  3022                           ;main.c: 918: LATC = 0b00101111;
  3023  013ECC  0E2F               	movlw	low(02Fh)
  3024  013ECE  6E8B               	movwf	((c:3979)),c	;volatile
  3025                           	line	920
  3026                           ;main.c: 920: } else if (led_array[1] == 1 && le
                                 d_array[7] == 1) {
  3027  013ED0  EFFF  F09F         	goto	l979
  3028                           	
  3029  013ED4                     l1090:		; BSR set to: ?
  3030                           
  3031  013ED4  0402               	decf	(0+((c:0)+02h)),c,w
  3032  013ED6  1003               	iorwf (1+((c:0)+02h)),c,w
  3033                           
  3034  013ED8  A4D8               	btfss	status,2
  3035  013EDA  EF71  F09F         	goto	u5591
  3036  013EDE  EF73  F09F         	goto	u5590
  3037  013EE2                     u5591:
  3038  013EE2  EF84  F09F         	goto	l1092
  3039  013EE6                     u5590:
  3040  013EE6  040E               	decf	(0+((c:0)+0Eh)),c,w
  3041  013EE8  100F               	iorwf (1+((c:0)+0Eh)),c,w
  3042                           
  3043  013EEA  A4D8               	btfss	status,2
  3044  013EEC  EF7A  F09F         	goto	u5601
  3045  013EF0  EF7C  F09F         	goto	u5600
  3046  013EF4                     u5601:
  3047  013EF4  EF84  F09F         	goto	l1092
  3048  013EF8                     u5600:
  3049                           	line	923
  3050                           ;main.c: 923: LATA = 0b10111111;
  3051  013EF8  0EBF               	movlw	low(0BFh)
  3052  013EFA  6E89               	movwf	((c:3977)),c	;volatile
  3053                           	line	925
  3054                           ;main.c: 925: LATB = 0b10000000;
  3055  013EFC  0E80               	movlw	low(080h)
  3056  013EFE  6E8A               	movwf	((c:3978)),c	;volatile
  3057                           	line	927
  3058                           ;main.c: 927: LATC = 0b00101111;
  3059  013F00  0E2F               	movlw	low(02Fh)
  3060  013F02  6E8B               	movwf	((c:3979)),c	;volatile
  3061                           	line	929
  3062                           ;main.c: 929: } else if (led_array[1] == 1 && le
                                 d_array[8] == 1) {
  3063  013F04  EFFF  F09F         	goto	l979
  3064                           	
  3065  013F08                     l1092:		; BSR set to: ?
  3066                           
  3067  013F08  0402               	decf	(0+((c:0)+02h)),c,w
  3068  013F0A  1003               	iorwf (1+((c:0)+02h)),c,w
  3069                           
  3070  013F0C  A4D8               	btfss	status,2
  3071  013F0E  EF8B  F09F         	goto	u5611
  3072  013F12  EF8D  F09F         	goto	u5610
  3073  013F16                     u5611:
  3074  013F16  EF9D  F09F         	goto	l1094
  3075  013F1A                     u5610:
  3076  013F1A  0410               	decf	(0+((c:0)+010h)),c,w
  3077  013F1C  1011               	iorwf (1+((c:0)+010h)),c,w
  3078                           
  3079  013F1E  A4D8               	btfss	status,2
  3080  013F20  EF94  F09F         	goto	u5621
  3081  013F24  EF96  F09F         	goto	u5620
  3082  013F28                     u5621:
  3083  013F28  EF9D  F09F         	goto	l1094
  3084  013F2C                     u5620:
  3085                           	line	932
  3086                           ;main.c: 932: LATA = 0b11111111;
  3087  013F2C  6889               	setf	((c:3977)),c	;volatile
  3088                           	line	934
  3089                           ;main.c: 934: LATB = 0b10000000;
  3090  013F2E  0E80               	movlw	low(080h)
  3091  013F30  6E8A               	movwf	((c:3978)),c	;volatile
  3092                           	line	936
  3093                           ;main.c: 936: LATC = 0b00101110;
  3094  013F32  0E2E               	movlw	low(02Eh)
  3095  013F34  6E8B               	movwf	((c:3979)),c	;volatile
  3096                           	line	938
  3097                           ;main.c: 938: } else if (led_array[1] == 1 && le
                                 d_array[9] == 1) {
  3098  013F36  EFFF  F09F         	goto	l979
  3099                           	
  3100  013F3A                     l1094:		; BSR set to: ?
  3101                           
  3102  013F3A  0402               	decf	(0+((c:0)+02h)),c,w
  3103  013F3C  1003               	iorwf (1+((c:0)+02h)),c,w
  3104                           
  3105  013F3E  A4D8               	btfss	status,2
  3106  013F40  EFA4  F09F         	goto	u5631
  3107  013F44  EFA6  F09F         	goto	u5630
  3108  013F48                     u5631:
  3109  013F48  EFB6  F09F         	goto	l1096
  3110  013F4C                     u5630:
  3111  013F4C  0412               	decf	(0+((c:0)+012h)),c,w
  3112  013F4E  1013               	iorwf (1+((c:0)+012h)),c,w
  3113                           
  3114  013F50  A4D8               	btfss	status,2
  3115  013F52  EFAD  F09F         	goto	u5641
  3116  013F56  EFAF  F09F         	goto	u5640
  3117  013F5A                     u5641:
  3118  013F5A  EFB6  F09F         	goto	l1096
  3119  013F5E                     u5640:
  3120                           	line	941
  3121                           ;main.c: 941: LATA = 0b11111111;
  3122  013F5E  6889               	setf	((c:3977)),c	;volatile
  3123                           	line	943
  3124                           ;main.c: 943: LATB = 0b10000000;
  3125  013F60  0E80               	movlw	low(080h)
  3126  013F62  6E8A               	movwf	((c:3978)),c	;volatile
  3127                           	line	945
  3128                           ;main.c: 945: LATC = 0b00101101;
  3129  013F64  0E2D               	movlw	low(02Dh)
  3130  013F66  6E8B               	movwf	((c:3979)),c	;volatile
  3131                           	line	947
  3132                           ;main.c: 947: } else if (led_array[1] == 1 && le
                                 d_array[10] == 1) {
  3133  013F68  EFFF  F09F         	goto	l979
  3134                           	
  3135  013F6C                     l1096:		; BSR set to: ?
  3136                           
  3137  013F6C  0402               	decf	(0+((c:0)+02h)),c,w
  3138  013F6E  1003               	iorwf (1+((c:0)+02h)),c,w
  3139                           
  3140  013F70  A4D8               	btfss	status,2
  3141  013F72  EFBD  F09F         	goto	u5651
  3142  013F76  EFBF  F09F         	goto	u5650
  3143  013F7A                     u5651:
  3144  013F7A  EFCF  F09F         	goto	l1098
  3145  013F7E                     u5650:
  3146  013F7E  0414               	decf	(0+((c:0)+014h)),c,w
  3147  013F80  1015               	iorwf (1+((c:0)+014h)),c,w
  3148                           
  3149  013F82  A4D8               	btfss	status,2
  3150  013F84  EFC6  F09F         	goto	u5661
  3151  013F88  EFC8  F09F         	goto	u5660
  3152  013F8C                     u5661:
  3153  013F8C  EFCF  F09F         	goto	l1098
  3154  013F90                     u5660:
  3155                           	line	950
  3156                           ;main.c: 950: LATA = 0b11111111;
  3157  013F90  6889               	setf	((c:3977)),c	;volatile
  3158                           	line	952
  3159                           ;main.c: 952: LATB = 0b00000000;
  3160  013F92  0E00               	movlw	low(0)
  3161  013F94  6E8A               	movwf	((c:3978)),c	;volatile
  3162                           	line	954
  3163                           ;main.c: 954: LATC = 0b00101111;
  3164  013F96  0E2F               	movlw	low(02Fh)
  3165  013F98  6E8B               	movwf	((c:3979)),c	;volatile
  3166                           	line	956
  3167                           ;main.c: 956: } else if (led_array[1] == 1 && le
                                 d_array[11] == 1) {
  3168  013F9A  EFFF  F09F         	goto	l979
  3169                           	
  3170  013F9E                     l1098:		; BSR set to: ?
  3171                           
  3172  013F9E  0402               	decf	(0+((c:0)+02h)),c,w
  3173  013FA0  1003               	iorwf (1+((c:0)+02h)),c,w
  3174                           
  3175  013FA2  A4D8               	btfss	status,2
  3176  013FA4  EFD6  F09F         	goto	u5671
  3177  013FA8  EFD8  F09F         	goto	u5670
  3178  013FAC                     u5671:
  3179  013FAC  EFE8  F09F         	goto	l1100
  3180  013FB0                     u5670:
  3181  013FB0  0416               	decf	(0+((c:0)+016h)),c,w
  3182  013FB2  1017               	iorwf (1+((c:0)+016h)),c,w
  3183                           
  3184  013FB4  A4D8               	btfss	status,2
  3185  013FB6  EFDF  F09F         	goto	u5681
  3186  013FBA  EFE1  F09F         	goto	u5680
  3187  013FBE                     u5681:
  3188  013FBE  EFE8  F09F         	goto	l1100
  3189  013FC2                     u5680:
  3190                           	line	959
  3191                           ;main.c: 959: LATA = 0b11111111;
  3192  013FC2  6889               	setf	((c:3977)),c	;volatile
  3193                           	line	961
  3194                           ;main.c: 961: LATB = 0b10000000;
  3195  013FC4  0E80               	movlw	low(080h)
  3196  013FC6  6E8A               	movwf	((c:3978)),c	;volatile
  3197                           	line	963
  3198                           ;main.c: 963: LATC = 0b00101011;
  3199  013FC8  0E2B               	movlw	low(02Bh)
  3200  013FCA  6E8B               	movwf	((c:3979)),c	;volatile
  3201                           	line	965
  3202                           ;main.c: 965: } else if (led_array[1] == 1 && le
                                 d_array[12] == 1) {
  3203  013FCC  EFFF  F09F         	goto	l979
  3204                           	
  3205  013FD0                     l1100:		; BSR set to: ?
  3206                           
  3207  013FD0  0402               	decf	(0+((c:0)+02h)),c,w
  3208  013FD2  1003               	iorwf (1+((c:0)+02h)),c,w
  3209                           
  3210  013FD4  A4D8               	btfss	status,2
  3211  013FD6  EFEF  F09F         	goto	u5691
  3212  013FDA  EFF1  F09F         	goto	u5690
  3213  013FDE                     u5691:
  3214  013FDE  EFFF  F09F         	goto	l979
  3215  013FE2                     u5690:
  3216  013FE2  0418               	decf	(0+((c:0)+018h)),c,w
  3217  013FE4  1019               	iorwf (1+((c:0)+018h)),c,w
  3218                           
  3219  013FE6  A4D8               	btfss	status,2
  3220  013FE8  EFF8  F09F         	goto	u5701
  3221  013FEC  EFFA  F09F         	goto	u5700
  3222  013FF0                     u5701:
  3223  013FF0  EFFF  F09F         	goto	l979
  3224  013FF4                     u5700:
  3225                           	line	968
  3226                           ;main.c: 968: LATA = 0b11111111;
  3227  013FF4  6889               	setf	((c:3977)),c	;volatile
  3228                           	line	970
  3229                           ;main.c: 970: LATB = 0b10000000;
  3230  013FF6  0E80               	movlw	low(080h)
  3231  013FF8  6E8A               	movwf	((c:3978)),c	;volatile
  3232                           	line	972
  3233                           ;main.c: 972: LATC = 0b00100111;
  3234  013FFA  0E27               	movlw	low(027h)
  3235  013FFC  6E8B               	movwf	((c:3979)),c	;volatile
  3236                           	line	973
  3237                           	
  3238  013FFE                     l1102:		; BSR set to: ?
  3239                           
  3240                           	line	974
  3241                           	
  3242  013FFE                     l1101:		; BSR set to: ?
  3243                           
  3244                           	
  3245  013FFE                     l1099:		; BSR set to: ?
  3246                           
  3247                           	
  3248  013FFE                     l1097:		; BSR set to: ?
  3249                           
  3250                           	
  3251  013FFE                     l1095:		; BSR set to: ?
  3252                           
  3253                           	
  3254  013FFE                     l1093:		; BSR set to: ?
  3255                           
  3256                           	
  3257  013FFE                     l1091:		; BSR set to: ?
  3258                           
  3259                           	
  3260  013FFE                     l1089:		; BSR set to: ?
  3261                           
  3262                           	
  3263  013FFE                     l1087:		; BSR set to: ?
  3264                           
  3265                           	
  3266  013FFE                     l1085:		; BSR set to: ?
  3267                           
  3268                           	
  3269  013FFE                     l1083:		; BSR set to: ?
  3270                           
  3271                           	
  3272  013FFE                     l1081:		; BSR set to: ?
  3273                           
  3274                           	
  3275  013FFE                     l1079:		; BSR set to: ?
  3276                           
  3277                           	
  3278  013FFE                     l1077:		; BSR set to: ?
  3279                           
  3280                           	
  3281  013FFE                     l1075:		; BSR set to: ?
  3282                           
  3283                           	
  3284  013FFE                     l1073:		; BSR set to: ?
  3285                           
  3286                           	
  3287  013FFE                     l1071:		; BSR set to: ?
  3288                           
  3289                           	
  3290  013FFE                     l1069:		; BSR set to: ?
  3291                           
  3292                           	
  3293  013FFE                     l1067:		; BSR set to: ?
  3294                           
  3295                           	
  3296  013FFE                     l1065:		; BSR set to: ?
  3297                           
  3298                           	
  3299  013FFE                     l1063:		; BSR set to: ?
  3300                           
  3301                           	
  3302  013FFE                     l1061:		; BSR set to: ?
  3303                           
  3304                           	
  3305  013FFE                     l1059:		; BSR set to: ?
  3306                           
  3307                           	
  3308  013FFE                     l1057:		; BSR set to: ?
  3309                           
  3310                           	
  3311  013FFE                     l1055:		; BSR set to: ?
  3312                           
  3313                           	
  3314  013FFE                     l1053:		; BSR set to: ?
  3315                           
  3316                           	
  3317  013FFE                     l1051:		; BSR set to: ?
  3318                           
  3319                           	
  3320  013FFE                     l1049:		; BSR set to: ?
  3321                           
  3322                           	
  3323  013FFE                     l1047:		; BSR set to: ?
  3324                           
  3325                           	
  3326  013FFE                     l1045:		; BSR set to: ?
  3327                           
  3328                           	
  3329  013FFE                     l1043:		; BSR set to: ?
  3330                           
  3331                           	
  3332  013FFE                     l1041:		; BSR set to: ?
  3333                           
  3334                           	
  3335  013FFE                     l1039:		; BSR set to: ?
  3336                           
  3337                           	
  3338  013FFE                     l1037:		; BSR set to: ?
  3339                           
  3340                           	
  3341  013FFE                     l1035:		; BSR set to: ?
  3342                           
  3343                           	
  3344  013FFE                     l1033:		; BSR set to: ?
  3345                           
  3346                           	
  3347  013FFE                     l1031:		; BSR set to: ?
  3348                           
  3349                           	
  3350  013FFE                     l1029:		; BSR set to: ?
  3351                           
  3352                           	
  3353  013FFE                     l1027:		; BSR set to: ?
  3354                           
  3355                           	
  3356  013FFE                     l1025:		; BSR set to: ?
  3357                           
  3358                           	
  3359  013FFE                     l1023:		; BSR set to: ?
  3360                           
  3361                           	
  3362  013FFE                     l1021:		; BSR set to: ?
  3363                           
  3364                           	
  3365  013FFE                     l1019:		; BSR set to: ?
  3366                           
  3367                           	
  3368  013FFE                     l1017:		; BSR set to: ?
  3369                           
  3370                           	
  3371  013FFE                     l1015:		; BSR set to: ?
  3372                           
  3373                           	
  3374  013FFE                     l1013:		; BSR set to: ?
  3375                           
  3376                           	
  3377  013FFE                     l1011:		; BSR set to: ?
  3378                           
  3379                           	
  3380  013FFE                     l1009:		; BSR set to: ?
  3381                           
  3382                           	
  3383  013FFE                     l1007:		; BSR set to: ?
  3384                           
  3385                           	
  3386  013FFE                     l1005:		; BSR set to: ?
  3387                           
  3388                           	
  3389  013FFE                     l1003:		; BSR set to: ?
  3390                           
  3391                           	
  3392  013FFE                     l1001:		; BSR set to: ?
  3393                           
  3394                           	
  3395  013FFE                     l999:		; BSR set to: ?
  3396                           
  3397                           	
  3398  013FFE                     l997:		; BSR set to: ?
  3399                           
  3400                           	
  3401  013FFE                     l995:		; BSR set to: ?
  3402                           
  3403                           	
  3404  013FFE                     l993:		; BSR set to: ?
  3405                           
  3406                           	
  3407  013FFE                     l991:		; BSR set to: ?
  3408                           
  3409                           	
  3410  013FFE                     l989:		; BSR set to: ?
  3411                           
  3412                           	
  3413  013FFE                     l987:		; BSR set to: ?
  3414                           
  3415                           	
  3416  013FFE                     l985:		; BSR set to: ?
  3417                           
  3418                           	
  3419  013FFE                     l983:		; BSR set to: ?
  3420                           
  3421                           	
  3422  013FFE                     l981:		; BSR set to: ?
  3423                           
  3424                           	
  3425  013FFE                     l979:		; BSR set to: ?
  3426                           
  3427                           ;main.c: 973: }
  3428                           ;main.c: 974: }
  3429  013FFE                     l977:
  3430                           			; BSR set to: ?
  3431                           
  3432  013FFE  0012               	return
  3433                           	opt stack 0
  3434                           GLOBAL __end_of_ToggleLeds
  3435  014000                     	__end_of_ToggleLeds:
  3436                           	FNSIZE	_ToggleLeds,0,0
  3437                           ; =============== function _ToggleLeds ends ====
                                 ========
  3438                           
  3439                           	signat	_ToggleLeds,88
  3440                           	global	_DelayMs
  3441                           	global	??_DelayMs
  3442                           	global	?_DelayMs
  3443                           
  3444                           ; *************** function _DelayMs ************
                                 *****
  3445                           ; Defined at:
  3446                           ;		line 12 in file "delay.c"
  3447                           ; Parameters:
  3448                           ;		cnt            size:   1offs:   0	type: unsig
                                 ned char 
  3449                           ; Auto variables:
  3450                           ;		i           	       	type: unsigned char 
  3451                           ;		_dcnt       	       	type: unsigned char 
  3452                           ; Return value:
  3453                           ;		type: void 
  3454                           ;		size: 0
  3455                           ; Registers used:
  3456                           ;		status,2
  3457                           ; Tracked objects:
  3458                           ;		On entry : 0/0
  3459                           ;		On exit  : 0/0
  3460                           ;		Unchanged: 0/0
  3461                           ; Data sizes:
  3462                           ;		Autos:    2
  3463                           ;		Params:   1
  3464                           ;		Temp:     1
  3465                           ;		Total:    4
  3466                           ; This function calls:
  3467                           ;		Nothing
  3468                           ; This function is called by:
  3469                           ;		_main
  3470                           ; This function uses a non-reentrant model
  3471                           ; 
  3472                                   psect   text2,class=CODE,space=0,reloc=2
  3473                           
  3474                           	opt lm
  3475                           	file	"delay.c"
  3476                           	line	12
  3477  000000                     	__size_of_DelayMs	equ	__end_of_DelayMs-_DelayMs
  3478                           ;delay.c: 10: void
  3479                           ;delay.c: 11: DelayMs(unsigned char cnt)
  3480                           ;delay.c: 12: {
  3481                           	
  3482  012F0C                     _DelayMs:		; BSR set to: ?
  3483                           
  3484                           	opt stack 30
  3485                           	line	21
  3486                           	
  3487  012F0C                     l1178:		; BSR set to: ?
  3488                           
  3489                           	line	22
  3490                           ;delay.c: 22: i = 4;
  3491  012F0C  0101               	movlb	1	; () banked
  3492  012F0E  6F0D               	movwf	(??_DelayMs+2+0)&0ffh
  3493  012F10  0E04               	movlw	low(04h)
  3494  012F12  0101               	movlb	1	; () banked
  3495  012F14  0101               	movlb	1	; () banked
  3496  012F16  6F0B               	movwf	((DelayMs@i))&0ffh
  3497  012F18  0101               	movlb	1	; () banked
  3498  012F1A  510D               	movf	(??_DelayMs+2+0)&0ffh,w
  3499                           	line	23
  3500                           ;delay.c: 23: do {
  3501                           	
  3502  012F1C                     l1181:		; BSR set to: ?
  3503                           
  3504                           	line	24
  3505                           ;delay.c: 24: { unsigned char _dcnt; _dcnt = (25
                                 0)*((20*1000L)/(12*1000L)); while(--_dcnt != 0) 
                                 continue; };
  3506  012F1C  0101               	movlb	1	; () banked
  3507  012F1E  6F0D               	movwf	(??_DelayMs+2+0)&0ffh
  3508  012F20  0EFA               	movlw	low(0FAh)
  3509  012F22  0101               	movlb	1	; () banked
  3510  012F24  0101               	movlb	1	; () banked
  3511  012F26  6F0C               	movwf	((DelayMs@_dcnt))&0ffh
  3512  012F28  0101               	movlb	1	; () banked
  3513  012F2A  510D               	movf	(??_DelayMs+2+0)&0ffh,w
  3514  012F2C  EF9A  F097         	goto	l1182
  3515                           	
  3516  012F30                     l1183:		; BSR set to: ?
  3517                           
  3518  012F30  EF9A  F097         	goto	l1182
  3519                           	
  3520  012F34                     l1182:		; BSR set to: ?
  3521                           
  3522  012F34  0101               	movlb	1	; () banked
  3523  012F36  0101               	movlb	1	; () banked
  3524  012F38  2F0C               	decfsz	((DelayMs@_dcnt))&0ffh
  3525                           	
  3526  012F3A  EF98  F097         	goto	l1183
  3527                           	
  3528  012F3E                     l1184:		; BSR set to: ?
  3529                           
  3530                           	line	25
  3531                           ;delay.c: 25: } while(--i);
  3532  012F3E  0101               	movlb	1	; () banked
  3533  012F40  0101               	movlb	1	; () banked
  3534  012F42  2F0B               	decfsz	((DelayMs@i))&0ffh
  3535                           	
  3536  012F44  EF8E  F097         	goto	l1181
  3537                           	
  3538  012F48                     l1180:		; BSR set to: ?
  3539                           
  3540                           	line	26
  3541                           ;delay.c: 26: } while(--cnt);
  3542  012F48  0101               	movlb	1	; () banked
  3543  012F4A  0101               	movlb	1	; () banked
  3544  012F4C  2F0A               	decfsz	((DelayMs@cnt))&0ffh
  3545                           	
  3546  012F4E  EF86  F097         	goto	l1178
  3547                           	
  3548  012F52                     l1177:		; BSR set to: ?
  3549                           
  3550                           	line	28
  3551                           ;delay.c: 28: }
  3552  012F52                     l1175:
  3553                           			; BSR set to: ?
  3554                           
  3555  012F52  0012               	return
  3556                           	opt stack 0
  3557                           GLOBAL __end_of_DelayMs
  3558  012F54                     	__end_of_DelayMs:
  3559                           	FNSIZE	_DelayMs,3,1
  3560                           ; =============== function _DelayMs ends =======
                                 =====
  3561                           
  3562                           	signat	_DelayMs,4216
  3563                           	FNCALL	_main,_DelayMs
  3564                           	FNCALL	_main,_ToggleLeds
  3565                           	FNROOT	_main
  3566                                   psect   const,class=CODE,space=0,reloc=2
  3567                           	global	_led_array
  3568                           	global	_led_array
  3569  000000                     _led_array  equ     0
  3570                           
  3571                           	DABS	1,0,26	;_led_array
  3572                           	global	_cur_inputs
  3573                           	global	_cur_inputs
  3574  000000                     _cur_inputs  equ     26
  3575                           
  3576                           	DABS	1,26,14	;_cur_inputs
  3577                           	global	_prev_inputs
  3578                           	global	_prev_inputs
  3579  000000                     _prev_inputs  equ     51
  3580+                          
  3581+                          	DABS	1,51,14	;_prev_inputs
  3582+                          	global	_conv_result
  3583+                          	global	_conv_result
  3584+ 000000                     _conv_result  equ     42
  3585+                          
  3586+                          	DABS	1,42,4	;_conv_result
  3587+                          	global	_index
  3588+                          	global	_index
  3589+ 000000                     _index  equ     40
  3590+                          
  3591+                          	DABS	1,40,2	;_index
  3592+                          	global	_USART_Status
  3593+                          	global	_USART_Status
  3594+ 000000                     _USART_Status  equ     48
  3595+                          
  3596+                          	DABS	1,48,1	;_USART_Status
  3597+                          	global	_adc_num
  3598+                          	global	_adc_num
  3599+ 000000                     _adc_num  equ     46
  3600+                          
  3601+                          	DABS	1,46,1	;_adc_num
  3602+                          	global	_change_val
  3603+                          	global	_change_val
  3604+ 000000                     _change_val  equ     47
  3605+                          
  3606+                          	DABS	1,47,1	;_change_val
  3607+                          	global	_uart_in
  3608+                          	global	_uart_in
  3609+ 000000                     _uart_in  equ     50
  3610+                          
  3611+                          	DABS	1,50,1	;_uart_in
  3612+                          	global	_uart_out
  3613+                          	global	_uart_out
  3614+ 000000                     _uart_out  equ     49
  3615+                          
  3616+                          	DABS	1,49,1	;_uart_out
  3617+                          	global	_ADRES
  3618+ 000000                     _ADRES	equ	0xFC3
  3619+                          	global	_ADCON0
  3620+ 000000                     _ADCON0	equ	0xFC2
  3621+                          	global	_ADCON1
  3622+ 000000                     _ADCON1	equ	0xFC1
  3623+                          	global	_ADCON2
  3624+ 000000                     _ADCON2	equ	0xFC0
  3625+                          	global	_ADRESH
  3626+ 000000                     _ADRESH	equ	0xFC4
  3627+                          	global	_ADRESL
  3628+ 000000                     _ADRESL	equ	0xFC3
  3629+                          	global	_BAUDCON
  3630+ 000000                     _BAUDCON	equ	0xFB8
  3631+                          	global	_LATA
  3632+ 000000                     _LATA	equ	0xF89
  3633+                          	global	_LATB
  3634+ 000000                     _LATB	equ	0xF8A
  3635+                          	global	_LATC
  3636+ 000000                     _LATC	equ	0xF8B
  3637+                          	global	_OSCCON
  3638+ 000000                     _OSCCON	equ	0xFD3
  3639+                          	global	_PIR1
  3640+ 000000                     _PIR1	equ	0xF9E
  3641+                          	global	_RCREG
  3642+ 000000                     _RCREG	equ	0xFAE
  3643+                          	global	_RCSTA
  3644+ 000000                     _RCSTA	equ	0xFAB
  3645+                          	global	_SPBRG
  3646+ 000000                     _SPBRG	equ	0xFAF
  3647+                          	global	_SPBRGH
  3648+ 000000                     _SPBRGH	equ	0xFB0
  3649+                          	global	_TRISA
  3650+ 000000                     _TRISA	equ	0xF92
  3651+                          	global	_TRISB
  3652+ 000000                     _TRISB	equ	0xF93
  3653+                          	global	_TRISC
  3654+ 000000                     _TRISC	equ	0xF94
  3655+                          	global	_TXREG
  3656+ 000000                     _TXREG	equ	0xFAD
  3657+                          	global	_TXSTA
  3658+ 000000                     _TXSTA	equ	0xFAC
  3659+                          	global	_ADON
  3660+ 000000                     _ADON	equ	0x7E10
  3661+                          	global	_BRGH_x
  3662+ 000000                     _BRGH_x	equ	0x7D62
  3663+                          	global	_CREN_x
  3664+ 000000                     _CREN_x	equ	0x7D5C
  3665+                          	global	_CSRC_x
  3666+ 000000                     _CSRC_x	equ	0x7D67
  3667+                          	global	_FERR
  3668+ 000000                     _FERR	equ	0x7D5A
  3669+                          	global	_GODONE
  3670+ 000000                     _GODONE	equ	0x7E11
  3671+                          	global	_OERR
  3672+ 000000                     _OERR	equ	0x7D59
  3673+                          	global	_RCIE_x
  3674+ 000000                     _RCIE_x	equ	0x7CED
  3675+                          	global	_RCIF
  3676+ 000000                     _RCIF	equ	0x7CF5
  3677+                          	global	_RX9D
  3678+ 000000                     _RX9D	equ	0x7D58
  3679+                          	global	_RX9_x
  3680+ 000000                     _RX9_x	equ	0x7D5E
  3681+                          	global	_SENDB_x
  3682+ 000000                     _SENDB_x	equ	0x7D63
  3683+                          	global	_SPEN_x
  3684+ 000000                     _SPEN_x	equ	0x7D5F
  3685+                          	global	_SREN_x
  3686+ 000000                     _SREN_x	equ	0x7D5D
  3687+                          	global	_SYNC_x
  3688+ 000000                     _SYNC_x	equ	0x7D64
  3689+                          	global	_TRISC6
  3690+ 000000                     _TRISC6	equ	0x7CA6
  3691+                          	global	_TRISC7
  3692+ 000000                     _TRISC7	equ	0x7CA7
  3693+                          	global	_TRMT_x
  3694+ 000000                     _TRMT_x	equ	0x7D61
  3695+                          	global	_TX9D
  3696+ 000000                     _TX9D	equ	0x7D60
  3697+                          	global	_TX9_x
  3698+ 000000                     _TX9_x	equ	0x7D66
  3699+                          	global	_TXEN_x
  3700+ 000000                     _TXEN_x	equ	0x7D65
  3701+                          	global	_TXIE_x
  3702+ 000000                     _TXIE_x	equ	0x7CEC
  3703+                          	global	_TXIF
  3704+ 000000                     _TXIF	equ	0x7CF4
  3705+                          	psect	intsave_regs,class=BIGRAM,space=1
  3706+                          	PSECT	param1,class=BANK1,space=1
  3707+                          	GLOBAL	__Lparam1
  3708+                          	FNCONF	param1,??,?
  3709+                          	GLOBAL	__Labsbss0
  3710+ 000000                     __Labsbss0	EQU	0
  3711+                          	GLOBAL	__Habsbss0
  3712+ 000000                     __Habsbss0	EQU	65
  3713+                          GLOBAL	__Lparam, __Hparam
  3714+                          GLOBAL	__Lparam1, __Hparam1
  3715+ 000000                     __Lparam	EQU	__Lparam1
  3716+ 000000                     __Hparam	EQU	__Hparam1


HI-TECH Software PICC-18 Macro Assembler V9.66 build 8870 
Symbol Table                                           Sun May 06 17:22:06 2012

                l902 3100                  l912 3108  
                l922 3110                  l907 3104  
                l932 3118                  l917 310C  
                l942 3120                  l927 3114  
                l871 2FBE                  l952 3128  
                l880 3026                  l937 311C  
                l881 3134                  l873 2FCC  
                l962 3130                  l890 30BA  
                l882 3074                  l874 2FE2  
                l867 3212                  l971 3212  
                l947 3124                  l883 3062  
                l980 32A2                  l868 31D4  
                l892 30F8                  l876 2FF0  
                l981 3FFE                  l973 3212  
                l957 312C                  l893 30E6  
                l885 3070                  l877 302A  
                l869 2FA6                  l990 33F6  
                l982 32E6                  l974 31DC  
                l878 3018                  l983 3FFE  
                l991 3FFE                  l975 31D8  
                l895 30F4                  l887 30BE  
                l992 342A                  l984 332A  
                l976 31EC                  l888 30AC  
                l977 3FFE                  l985 3FFE  
                l993 3FFE                  l897 30FC  
                l994 345E                  l986 336E  
                l978 325C                  l987 3FFE  
                l995 3FFE                  l979 3FFE  
                l996 3490                  l988 33B2  
                l989 3FFE                  l997 3FFE  
                l998 34C2                  l999 3FFE  
        main@channel 0106                 l1000 34F4  
               l1001 3FFE                 l1010 35F2  
               l1002 3526                 l1003 3FFE  
               l1011 3FFE                 l1100 3FD0  
               l1020 3700                 l1012 3624  
               l1004 3558                 l1005 3FFE  
               l1013 3FFE                 l1021 3FFE  
               l1101 3FFE                 l1102 3FFE  
               l1030 3856                 l1022 3746  
               l1014 3656                 l1006 358C  
               l1007 3FFE                 l1015 3FFE  
               l1023 3FFE                 l1031 3FFE  
               l1040 3966                 l1032 389A  
               l1024 378A                 l1016 3688  
               l1008 35C0                 l1009 3FFE  
               l1017 3FFE                 l1025 3FFE  
               l1033 3FFE                 l1041 3FFE  
               l1050 3A64                 l1042 3998  
               l1034 38CE                 l1026 37CE  
               l1018 36BA                 l1019 3FFE  
               l1027 3FFE                 l1035 3FFE  
               l1043 3FFE                 l1051 3FFE  
               l1060 3B5E                 l1052 3A96  
               l1044 39CA                 l1036 3902  
               l1028 3812                 l1029 3FFE  
               l1037 3FFE                 l1045 3FFE  
               l1053 3FFE                 l1061 3FFE  
               l1070 3CB6                 l1062 3BA4  
               l1054 3AC8                 l1046 39FC  
               l1038 3934                 l1039 3FFE  
               l1047 3FFE                 l1055 3FFE  
               l1063 3FFE                 l1071 3FFE  
               l1080 3DD8                 l1072 3CFA  
               l1064 3BEA                 l1056 3AFA  
               l1048 3A30                 l1049 3FFE  
               l1057 3FFE                 l1065 3FFE  
               l1073 3FFE                 l1081 3FFE  
               l1090 3ED4                 l1082 3E0A  
               l1074 3D3E                 l1066 3C2E  
               l1058 3B2C                 l1059 3FFE  
               l1067 3FFE                 l1075 3FFE  
               l1083 3FFE                 l1091 3FFE  
               l1180 2F48                 l1092 3F08  
               l1084 3E3C                 l1076 3D72  
               l1068 3C72                 l1181 2F1C  
               l1069 3FFE                 l1077 3FFE  
               l1085 3FFE                 l1093 3FFE  
               l1182 2F34                 l1094 3F3A  
               l1086 3E6E                 l1078 3DA6  
               l1175 2F52                 l1183 2F30  
               l1079 3FFE                 l1087 3FFE  
               l1095 3FFE                 l1184 2F3E  
               l1096 3F6C                 l1088 3EA0  
               l1177 2F52                 l1089 3FFE  
               l1097 3FFE                 l1178 2F0C  
               l1098 3F9E                 l1099 3FFE  
               _ADON 007E10                 _FERR 007D5A  
               _LATA 000F89                 _LATB 000F8A  
               _LATC 000F8B                 u5000 3946  
               u5001 3942                 u5010 3958  
               u5011 3954                 u5100 3A42  
               u5020 3978                 u4300 32B4  
               u5101 3A3E                 u5021 3974  
               u4301 32B0                 u5110 3A54  
               u5030 398A                 u4310 32C6  
               u5111 3A50                 u5031 3986  
               u4311 32C2                 u5200 3B3E  
               u5120 3A76                 u5040 39AA  
               u4400 3392                 u4320 32D8  
               u4240 3228                 u5201 3B3A  
               u5121 3A72                 u5041 39A6  
               u4401 338E                 u4321 32D4  
               u4241 3224                 u5210 3B50  
               u5130 3A88                 u5050 39BC  
               u4410 33A4                 u4330 32F8  
               u4250 323A                 u5211 3B4C  
               u5131 3A84                 u5051 39B8  
               u4411 33A0                 u4331 32F4  
               u4251 3236                 u5300 3C20  
               u5220 3B70                 u5140 3AA8  
               u5060 39DC                 u4500 3482  
               u4420 33C4                 u4340 330A  
               u4260 324C                 u5301 3C1C  
               u5221 3B6C                 u5141 3AA4  
               u5061 39D8                 u4501 347E  
               u4421 33C0                 u4341 3306  
               u4261 3248                 u5310 3C40  
               u5230 3B82                 u5150 3ABA  
               u5070 39EE                 u4510 34A2  
               u4430 33D6                 u4350 331C  
               u4270 326E                 u5311 3C3C  
               u5231 3B7E                 u5151 3AB6  
               u5071 39EA                 u4511 349E  
               u4431 33D2                 u4351 3318  
               u4271 326A                 u5400 3D0C  
               u5320 3C52                 u5240 3B94  
               u5160 3ADA                 u5080 3A0E  
               u4600 357C                 u4520 34B4  
               u4440 33E8                 u4360 333C  
               u4280 3280                 u5401 3D08  
               u5321 3C4E                 u5241 3B90  
               u5161 3AD6                 u5081 3A0A  
               u4601 3578                 u4521 34B0  
               u4441 33E4                 u4361 3338  
               u4281 327C                 u5410 3D1E  
               u5330 3C64                 u5250 3BB6  
               u5170 3AEC                 u5090 3A20  
               u4610 359E                 u4530 34D4  
               u4450 3408                 u4370 334E  
               u4290 3292                 u5411 3D1A  
               u5331 3C60                 u5251 3BB2  
               u5171 3AE8                 u5091 3A1C  
               u4611 359A                 u4531 34D0  
               u4451 3404                 u4371 334A  
               u4291 328E                 u5500 3DFC  
               u5420 3D30                 u5340 3C84  
               u5260 3BC8                 u5180 3B0C  
               u4700 367A                 u4620 35B0  
               u4540 34E6                 u4460 341A  
               u4380 3360                 u5501 3DF8  
               u5421 3D2C                 u5341 3C80  
               u5261 3BC4                 u5181 3B08  
               u4701 3676                 u4621 35AC  
               u4541 34E2                 u4461 3416  
               u4381 335C                 u5510 3E1C  
               u5430 3D50                 u5350 3C96  
               u5270 3BDA                 u5190 3B1E  
               u4710 369A                 u4630 35D2  
               u4550 3506                 u4470 343C  
               u4390 3380                 u5511 3E18  
               u5431 3D4C                 u5351 3C92  
               u5271 3BD6                 u5191 3B1A  
               u4711 3696                 u4631 35CE  
               u4551 3502                 u4471 3438  
               u4391 337C                 u5600 3EF8  
               u5520 3E2E                 u5440 3D62  
               u5360 3CA8                 u5280 3BFC  
               u4800 376A                 u4720 36AC  
               u4640 35E4                 u4560 3518  
               u4480 344E                 u5601 3EF4  
               u5521 3E2A                 u5441 3D5E  
               u5361 3CA4                 u5281 3BF8  
               u4801 3766                 u4721 36A8  
               u4641 35E0                 u4561 3514  
               u4481 344A                 u5610 3F1A  
               u5530 3E4E                 u5450 3D84  
               u5370 3CC8                 u5290 3C0E  
               u4810 377C                 u4730 36CC  
               u4650 3604                 u4570 3538  
               u4490 3470                 u5611 3F16  
               u5531 3E4A                 u5451 3D80  
               u5371 3CC4                 u5291 3C0A  
               u4811 3778                 u4731 36C8  
               u4651 3600                 u4571 3534  
               u4491 346C                 _RCIF 007CF5  
               u5700 3FF4                 u5620 3F2C  
               u5540 3E60                 u5460 3D96  
               u5380 3CDA                 u4900 3848  
               u4820 379C                 u4740 36DE  
               u4660 3616                 u4580 354A  
               u5701 3FF0                 u5621 3F28  
               u5541 3E5C                 u5461 3D92  
               u5381 3CD6                 u4901 3844  
               u4821 3798                 u4741 36DA  
               u4661 3612                 u4581 3546  
               u5630 3F4C                 u5550 3E80  
               u5470 3DB8                 u5390 3CEC  
               u4910 3868                 u4830 37AE  
               u4750 36F0                 u4670 3636  
               u4590 356A                 u5710 2FCC  
               u5631 3F48                 u5551 3E7C  
               u5471 3DB4                 u5391 3CE8  
               u4911 3864                 u4831 37AA  
               u4751 36EC                 u4671 3632  
               u4591 3566                 u5711 2FC8  
               u5640 3F5E                 u5560 3E92  
               u5480 3DCA                 u4920 387A  
               u4840 37C0                 u4760 3712  
               u4680 3648                 u5800 30BA  
               u5720 2FF0                 _PIR1 000F9E  
               u5641 3F5A                 u5561 3E8E  
               u5481 3DC6                 u4921 3876  
               u4841 37BC                 u4761 370E  
               u4681 3644                 u5801 30B6  
               u5721 2FEC                 u5650 3F7E  
               u5570 3EB2                 u5490 3DEA  
               u4930 388C                 u4850 37E0  
               u4770 3724                 u4690 3668  
               u5810 30CE                 u5730 3000  
               u5651 3F7A                 u5571 3EAE  
               u5491 3DE6                 u4931 3888  
               u4851 37DC                 u4771 3720  
               u4691 3664                 u5811 30CA  
               u5731 2FFC                 u5660 3F90  
               u5580 3EC4                 u4940 38AC  
               u4860 37F2                 u4780 3736  
               u5820 30F4                 u5740 3026  
               u5661 3F8C                 u5581 3EC0  
               u4941 38A8                 u4861 37EE  
               u4781 3732                 u5821 30F0  
               u5741 3022                 u5670 3FB0  
               u5590 3EE6                 u4950 38BE  
               u4870 3804                 u4790 3758  
               u5750 303A                 u5671 3FAC  
               u5591 3EE2                 u4951 38BA  
               u4871 3800                 u4791 3754  
               u5751 3036                 u5680 3FC2  
               u4960 38E0                 u4880 3824  
               u5760 304A                 u5681 3FBE  
               u4961 38DC                 u4881 3820  
               u5761 3046                 _OERR 007D59  
               u5690 3FE2                 u4970 38F2  
               u4890 3836                 u5770 3070  
               u5691 3FDE                 u4971 38EE  
               u4891 3832                 u5771 306C  
               u4980 3914                 u5780 3084  
               u4981 3910                 u5781 3080  
               u4990 3926                 u5790 3094  
               u4991 3922                 u5791 3090  
               u5980 31EC                 u5981 31E8  
               _RX9D 007D58                 _TX9D 007D60  
               _TXIF 007CF4                 _main 2F54  
               fsr0l 000FE9                 start 0000  
    __end_of_DelayMs 2F54                ?_main 0100  
              _ADRES 000FC3                _RCREG 000FAE  
              _RCSTA 000FAB                _SPBRG 000FAF  
              _TRISA 000F92                _TRISB 000F93  
              _TRISC 000F94                _RX9_x 007D5E  
              _TXREG 000FAD                _TX9_x 007D66  
              _TXSTA 000FAC                _index 000028  
              status 000FD8         __end_of_main 3216  
             ??_main 0104        __activetblptr 000000  
             _ADCON0 000FC2               _ADCON1 000FC1  
             _ADCON2 000FC0               _ADRESH 000FC4  
             _ADRESL 000FC3               _BRGH_x 007D62  
             _GODONE 007E11               _CREN_x 007D5C  
             _CSRC_x 007D67            ??_DelayMs 010B  
             _RCIE_x 007CED               _OSCCON 000FD3  
             _SPBRGH 000FB0               _TRISC6 007CA6  
             _TRISC7 007CA7               _SPEN_x 007D5F  
             _SREN_x 007D5D               _TRMT_x 007D61  
             _TXIE_x 007CEC               _TXEN_x 007D65  
             _SYNC_x 007D64               __Ldata 000000  
         _ToggleLeds 3216         __mediumconst 0D00  
         __accesstop 0060           _change_val 00002F  
            _BAUDCON 000FB8          ?_ToggleLeds 010A  
            _SENDB_x 007D63              _DelayMs 2F0C  
            __Hparam 010E           _cur_inputs 00001A  
            __Lparam 0100              _adc_num 00002E  
            __ramtop 0D00              _uart_in 000032  
      __Lmediumconst 0D00              postdec0 000FED  
            postinc0 000FEE           main@result 0107  
       DelayMs@_dcnt 010C            __Habsbss0 000041  
          __Labsbss0 000000         ??_ToggleLeds 010A  
           ?_DelayMs 010A   __end_of_ToggleLeds 4000  
          _led_array 000000          __smallconst 0D00  
           DelayMs@i 010B            main@count 0104  
        _conv_result 00002A             __Hparam1 010E  
           __Lparam1 0100         __Lsmallconst 0D00  
           __config1 00F0FF             __config2 00FEFF  
           __config3 007FFF             __config4 00FFFB  
           __config5 00FFFF             __config6 00FFFF  
           __config7 00FFFF             _uart_out 000031  
           main@argc 0100             main@argv 0102  
           main@uout 0105           DelayMs@cnt 010A  
        _prev_inputs 000033         _USART_Status 000030  
