

HI-TECH Software LITE Macro Assembler (PIC18) V9.66 build 8870 
                                                       Mon May 07 14:39:46 2012

HI-TECH Software Omniscient Code Generator build 8870
     1  000000                     opt subtitle "HI-TECH Software Omniscient Code G
                                 enerator build 8870"
     2                           
     3                           	processor	18F2682
     4  000000                     porta	equ	0F80h
     5  000000                     portb	equ	0F81h
     6  000000                     portc	equ	0F82h
     7  000000                     portd	equ	0F83h
     8  000000                     porte	equ	0F84h
     9  000000                     lata	equ	0F89h
    10  000000                     latb	equ	0F8Ah
    11  000000                     latc	equ	0F8Bh
    12  000000                     latd	equ	0F8Ch
    13  000000                     late	equ	0F8Dh
    14  000000                     trisa	equ	0F92h
    15  000000                     trisb	equ	0F93h
    16  000000                     trisc	equ	0F94h
    17  000000                     trisd	equ	0F95h
    18  000000                     trise	equ	0F96h
    19  000000                     pie1	equ	0F9Dh
    20  000000                     pir1	equ	0F9Eh
    21  000000                     ipr1	equ	0F9Fh
    22  000000                     pie2	equ	0FA0h
    23  000000                     pir2	equ	0FA1h
    24  000000                     ipr2	equ	0FA2h
    25  000000                     t3con	equ	0FB1h
    26  000000                     tmr3l	equ	0FB2h
    27  000000                     tmr3h	equ	0FB3h
    28  000000                     ccp1con	equ	0FBDh
    29  000000                     ccpr1l	equ	0FBEh
    30  000000                     ccpr1h	equ	0FBFh
    31  000000                     adcon1	equ	0FC1h
    32  000000                     adcon0	equ	0FC2h
    33  000000                     adresl	equ	0FC3h
    34  000000                     adresh	equ	0FC4h
    35  000000                     sspcon2	equ	0FC5h
    36  000000                     sspcon1	equ	0FC6h
    37  000000                     sspstat	equ	0FC7h
    38  000000                     sspadd	equ	0FC8h
    39  000000                     sspbuf	equ	0FC9h
    40  000000                     t2con	equ	0FCAh
    41  000000                     pr2	equ	0FCBh
    42  000000                     tmr2	equ	0FCCh
    43  000000                     t1con	equ	0FCDh
    44  000000                     tmr1l	equ	0FCEh
    45  000000                     tmr1h	equ	0FCFh
    46  000000                     rcon	equ	0FD0h
    47  000000                     wdtcon	equ	0FD1h
    48  000000                     lvdcon	equ	0FD2h
    49  000000                     osccon	equ	0FD3h
    50  000000                     t0con	equ	0FD5h
    51  000000                     tmr0l	equ	0FD6h
    52  000000                     tmr0h	equ	0FD7h
    53  000000                     status	equ	0FD8h
    54  000000                     fsr2	equ	0FD9h
    55  000000                     fsr2l	equ	0FD9h
    56  000000                     fsr2h	equ	0FDAh
    57  000000                     plusw2	equ	0FDBh
    58  000000                     preinc2	equ	0FDCh
    59  000000                     postdec2	equ	0FDDh
    60  000000                     postinc2	equ	0FDEh
    61  000000                     indf2	equ	0FDFh
    62  000000                     bsr	equ	0FE0h
    63  000000                     fsr1	equ	0FE1h
    64  000000                     fsr1l	equ	0FE1h
    65  000000                     fsr1h	equ	0FE2h
    66  000000                     plusw1	equ	0FE3h
    67  000000                     preinc1	equ	0FE4h
    68  000000                     postdec1	equ	0FE5h
    69  000000                     postinc1	equ	0FE6h
    70  000000                     indf1	equ	0FE7h
    71  000000                     wreg	equ	0FE8h
    72  000000                     fsr0	equ	0FE9h
    73  000000                     fsr0l	equ	0FE9h
    74  000000                     fsr0h	equ	0FEAh
    75  000000                     plusw0	equ	0FEBh
    76  000000                     preinc0	equ	0FECh
    77  000000                     postdec0	equ	0FEDh
    78  000000                     postinc0	equ	0FEEh
    79  000000                     indf0	equ	0FEFh
    80  000000                     intcon3	equ	0FF0h
    81  000000                     intcon2	equ	0FF1h
    82  000000                     intcon	equ	0FF2h
    83  000000                     prod	equ	0FF3h
    84  000000                     prodl	equ	0FF3h
    85  000000                     prodh	equ	0FF4h
    86  000000                     tablat	equ	0FF5h
    87  000000                     tblptr	equ	0FF6h
    88  000000                     tblptrl	equ	0FF6h
    89  000000                     tblptrh	equ	0FF7h
    90  000000                     tblptru	equ	0FF8h
    91  000000                     pcl	equ	0FF9h
    92  000000                     pclat	equ	0FFAh
    93  000000                     pclath	equ	0FFAh
    94  000000                     pclatu	equ	0FFBh
    95  000000                     stkptr	equ	0FFCh
    96  000000                     tosl	equ	0FFDh
    97  000000                     tosh	equ	0FFEh
    98  000000                     tosu	equ	0FFFh
    99                           	global	__ramtop
   100                           	global	__accesstop
   101                           # 20 "../code/main.c"
   102                           	global __config1 ;#
   103                           # 20 "../code/main.c"
   104  000000                     	__config1 equ 0xF0FF ;#
   105                           # 21 "../code/main.c"
   106                           	global __config2 ;#
   107                           # 21 "../code/main.c"
   108  000000                     	__config2 equ 0xFEFF ;#
   109                           # 22 "../code/main.c"
   110                           	global __config3 ;#
   111                           # 22 "../code/main.c"
   112  000000                     	__config3 equ 0x7FFF ;#
   113                           # 23 "../code/main.c"
   114                           	global __config4 ;#
   115                           # 23 "../code/main.c"
   116  000000                     	__config4 equ 0xFFFB & 0xFFFF ;#
   117                           # 24 "../code/main.c"
   118                           	global __config5 ;#
   119                           # 24 "../code/main.c"
   120  000000                     	__config5 equ 0xFFFF ;#
   121                           # 25 "../code/main.c"
   122                           	global __config6 ;#
   123                           # 25 "../code/main.c"
   124  000000                     	__config6 equ 0xFFFF ;#
   125                           # 26 "../code/main.c"
   126                           	global __config7 ;#
   127                           # 26 "../code/main.c"
   128  000000                     	__config7 equ 0xFFFF ;#
   129                           	GLOBAL	__activetblptr
   130  000000                     __activetblptr	EQU	0
   131                           	GLOBAL	__smallconst,__Lsmallconst
   132  000000                     __smallconst	EQU	__Lsmallconst
   133                           	GLOBAL	__mediumconst,__Lmediumconst
   134  000000                     __mediumconst	EQU	__Lmediumconst
   135                           	GLOBAL	__Ldata
   136  000000                     __Ldata	EQU	0
   137  000000                     main@count	equ	??_main+0
   138                           	global	main@count
   139  000000                     main@hResult	equ	??_main+1
   140                           	global	main@hResult
   141  000000                     main@lResult	equ	??_main+2
   142                           	global	main@lResult
   143  000000                     main@uout	equ	??_main+3
   144                           	global	main@uout
   145  000000                     main@argc	equ	?_main+0
   146                           	global	main@argc
   147  000000                     main@argv	equ	?_main+2
   148                           	global	main@argv
   149  000000                     DelayMs@i	equ	??_DelayMs+0
   150                           	global	DelayMs@i
   151  000000                     DelayMs@_dcnt	equ	??_DelayMs+1
   152                           	global	DelayMs@_dcnt
   153  000000                     DelayMs@cnt	equ	?_DelayMs+0
   154                           	global	DelayMs@cnt
   155                           ;Data sizes: Strings 0, constant 0, data 0, bss 
                                 0, persistent 0 stack 13
   156                           	global	_main
   157                           	global	??_main
   158                           	global	?_main
   159                           
   160                           ; *************** function _main ***************
                                 **
   161                           ; Defined at:
   162                           ;		line 167 in file "../code/main.c"
   163                           ; Parameters:
   164                           ;		argc           size:   2offs:   0	type: int 
   165                           ;		argv           size:   2offs:   2	type: PTR P
                                 TR unsigned char 
   166                           ; Auto variables:
   167                           ;		count       	       	type: unsigned char 
   168                           ;		hResult     	       	type: unsigned char 
   169                           ;		lResult     	       	type: unsigned char 
   170                           ;		uout        	       	type: unsigned char 
   171                           ; Return value:
   172                           ;		type: int 
   173                           ;		size: 2
   174                           ; Registers used:
   175                           ;		wreg, fsr0l, fsr0h, status,2, status,0, cstac
                                 k
   176                           ; Tracked objects:
   177                           ;		On entry : 0/0
   178                           ;		On exit  : 0/0
   179                           ;		Unchanged: 0/0
   180                           ; Data sizes:
   181                           ;		Autos:    4
   182                           ;		Params:   4
   183                           ;		Temp:     1
   184                           ;		Total:    9
   185                           ; This function calls:
   186                           ;		_DelayMs
   187                           ;		_ToggleLeds
   188                           ; This function is called by:
   189                           ;		Startup code after reset
   190                           ; This function uses a non-reentrant model
   191                           ; 
   192                                   psect   text0,class=CODE,space=0,reloc=2
   193                           
   194                           	opt lm
   195                           	file	"../code/main.c"
   196                           	line	167
   197  000000                     	__size_of_main	equ	__end_of_main-_main
   198                                   psect   text0
   199                           ;stdio.h: 12: typedef int ptrdiff_t;
   200                           ;stdio.h: 13: typedef unsigned size_t;
   201                           ;stdio.h: 14: typedef unsigned short wchar_t;
   202                           ;stdarg.h: 36: typedef void * va_list[1];
   203                           ;stdarg.h: 39: extern void * __va_start(void);
   204                           ;stdarg.h: 42: extern void * __va_arg(void *);
   205                           ;stdio.h: 27: extern int errno;
   206                           ;stdio.h: 58: struct __prbuf
   207                           ;stdio.h: 59: {
   208                           ;stdio.h: 60: char * ptr;
   209                           ;stdio.h: 61: void (* func)(char);
   210                           ;stdio.h: 62: };
   211                           ;conio.h: 17: extern int errno;
   212                           ;conio.h: 20: extern void init_uart(void);
   213                           ;conio.h: 22: extern char getch(void);
   214                           	
   215  01304C                     _main:		; BSR set to: ?
   216                           
   217                           	opt stack 31
   218                           	line	169
   219  01304C  0E72               	movlw	(072h)&0ffh
   220  01304E  12D3               	iorwf	((c:4051)),c	;volatile
   221                           	line	172
   222                           ;main.c: 172: TRISA = 0b10101111;
   223  013050  0EAF               	movlw	low(0AFh)
   224+ 013052  6E92               	movwf	((c:3986)),c	;volatile
   225+                          	line	173
   226+                          ;main.c: 173: TRISB = 0b00010010;
   227+ 013054  0E12               	movlw	low(012h)
   228  013056  6E93               	movwf	((c:3987)),c	;volatile
   229                           	line	174
   230                           ;main.c: 174: TRISC = 0b10000000;
   231  013058  0E80               	movlw	low(080h)
   232  01305A  6E94               	movwf	((c:3988)),c	;volatile
   233                           	line	177
   234                           ;main.c: 177: ADCON0 = 0b00000000;
   235  01305C  0E00               	movlw	low(0)
   236  01305E  6EC2               	movwf	((c:4034)),c	;volatile
   237                           	line	178
   238                           ;main.c: 178: ADCON1 = 0b00000101;
   239  013060  0E05               	movlw	low(05h)
   240  013062  6EC1               	movwf	((c:4033)),c	;volatile
   241                           	line	179
   242                           ;main.c: 179: ADCON2 = 0b10001101;
   243  013064  0E8D               	movlw	low(08Dh)
   244  013066  6EC0               	movwf	((c:4032)),c	;volatile
   245                           	line	180
   246                           ;main.c: 180: adc_num = 0;
   247  013068  0E00               	movlw	low(0)
   248  01306A  6E1A               	movwf	((c:26)),c	;volatile
   249                           	line	193
   250                           ;main.c: 193: SPBRGH = (((8000000L/19200UL)/16) 
                                 - 1) >> 8;
   251  01306C  0E00               	movlw	low(0)
   252  01306E  6EB0               	movwf	((c:4016)),c	;volatile
   253                           	line	194
   254                           ;main.c: 194: SPBRG = (((8000000L/19200UL)/16) -
                                  1);
   255  013070  0E19               	movlw	low(019h)
   256  013072  6EAF               	movwf	((c:4015)),c	;volatile
   257                           	line	195
   258                           ;main.c: 195: BAUDCON = 0b00001000;
   259  013074  0E08               	movlw	low(08h)
   260  013076  6EB8               	movwf	((c:4024)),c	;volatile
   261                           	line	196
   262                           ;main.c: 196: RCSTA = 0b10010000;
   263  013078  0E90               	movlw	low(090h)
   264  01307A  6EAB               	movwf	((c:4011)),c	;volatile
   265                           	line	197
   266                           ;main.c: 197: TXSTA = 0b00100000;
   267  01307C  0E20               	movlw	low(020h)
   268  01307E  6EAC               	movwf	((c:4012)),c	;volatile
   269                           	line	200
   270                           ;main.c: 200: LATA = 0b11111111;
   271  013080  6889               	setf	((c:3977)),c	;volatile
   272                           	line	202
   273                           ;main.c: 202: LATB = 0b10000000;
   274  013082  0E80               	movlw	low(080h)
   275  013084  6E8A               	movwf	((c:3978)),c	;volatile
   276                           	line	204
   277                           ;main.c: 204: LATC = 0b00001111;
   278  013086  0E0F               	movlw	low(0Fh)
   279  013088  6E8B               	movwf	((c:3979)),c	;volatile
   280                           	line	221
   281                           ;main.c: 221: char count = 0x00;
   282  01308A  0101               	movlb	1	; () banked
   283  01308C  6F08               	movwf	(??_main+4+0)&0ffh
   284  01308E  0E00               	movlw	low(0)
   285  013090  0101               	movlb	1	; () banked
   286  013092  0101               	movlb	1	; () banked
   287  013094  6F04               	movwf	((main@count))&0ffh
   288  013096  0101               	movlb	1	; () banked
   289  013098  5108               	movf	(??_main+4+0)&0ffh,w
   290                           	line	222
   291                           ;main.c: 222: while (1) {
   292                           	
   293  01309A                     l869:		; BSR set to: ?
   294                           
   295                           	line	227
   296                           ;main.c: 223: char uout;
   297                           ;main.c: 224: char hResult;
   298                           ;main.c: 225: char lResult;
   299                           ;main.c: 227: uout = 0xee;
   300  01309A  0101               	movlb	1	; () banked
   301  01309C  6F08               	movwf	(??_main+4+0)&0ffh
   302  01309E  0EEE               	movlw	low(0EEh)
   303  0130A0  0101               	movlb	1	; () banked
   304  0130A2  0101               	movlb	1	; () banked
   305  0130A4  6F07               	movwf	((main@uout))&0ffh
   306  0130A6  0101               	movlb	1	; () banked
   307  0130A8  5108               	movf	(??_main+4+0)&0ffh,w
   308                           	line	228
   309                           ;main.c: 228: TXREG = uout;
   310  0130AA  C107  FFAD         	movff	(main@uout),(c:4013)	;volatile
   311                           	line	229
   312                           ;main.c: 229: while((PIR1 & 0b00010000) == 0);
   313  0130AE  EF59  F098         	goto	l871
   314                           	
   315  0130B2                     l871:		; BSR set to: ?
   316                           
   317                           	
   318  0130B2  A89E               	btfss	((c:3998)),c,(4)&7	;volatile
   319  0130B4  EF5E  F098         	goto	u6271
   320  0130B8  EF60  F098         	goto	u6270
   321  0130BC                     u6271:
   322  0130BC  EF59  F098         	goto	l871
   323  0130C0                     u6270:
   324                           	
   325  0130C0                     l873:		; BSR set to: ?
   326                           
   327                           	line	232
   328                           ;main.c: 232: ADON = 0;
   329  0130C0  90C2               	bcf	c:(32272/8),(32272)&7	;volatile
   330                           	line	234
   331                           ;main.c: 234: ADRESH = 0x00;
   332  0130C2  0E00               	movlw	low(0)
   333  0130C4  6EC4               	movwf	((c:4036)),c	;volatile
   334                           	line	235
   335                           ;main.c: 235: ADRESL = 0x00;
   336  0130C6  0E00               	movlw	low(0)
   337  0130C8  6EC3               	movwf	((c:4035)),c	;volatile
   338                           	line	236
   339                           ;main.c: 236: ADCON0 = 0b00000100;
   340  0130CA  0E04               	movlw	low(04h)
   341  0130CC  6EC2               	movwf	((c:4034)),c	;volatile
   342                           	line	238
   343                           ;main.c: 238: ADON = 1;
   344  0130CE  80C2               	bsf	c:(32272/8),(32272)&7	;volatile
   345                           	line	239
   346                           ;main.c: 239: GODONE = 1;
   347  0130D0  82C2               	bsf	c:(32273/8),(32273)&7	;volatile
   348                           	line	242
   349                           ;main.c: 242: while (GODONE);
   350  0130D2  EF6B  F098         	goto	l874
   351                           	
   352  0130D6                     l874:		; BSR set to: ?
   353                           
   354  0130D6  B2C2               	btfsc	c:(32273/8),(32273)&7	;volatile
   355  0130D8  EF70  F098         	goto	u6281
   356  0130DC  EF72  F098         	goto	u6280
   357  0130E0                     u6281:
   358  0130E0  EF6B  F098         	goto	l874
   359  0130E4                     u6280:
   360                           	
   361  0130E4                     l876:		; BSR set to: ?
   362                           
   363                           	line	243
   364                           ;main.c: 243: hResult = ADRESH;
   365  0130E4  CFC4 F105          	movff	(c:4036),(main@hResult)	;volatile
   366                           	line	244
   367                           ;main.c: 244: lResult = ADRESL;
   368  0130E8  CFC3 F106          	movff	(c:4035),(main@lResult)	;volatile
   369                           	line	246
   370                           ;main.c: 246: uout = hResult;
   371  0130EC  C105  F107         	movff	(main@hResult),(main@uout)
   372                           	line	247
   373                           ;main.c: 247: TXREG = uout;
   374  0130F0  C107  FFAD         	movff	(main@uout),(c:4013)	;volatile
   375                           	line	248
   376                           ;main.c: 248: while((PIR1 & 0b00010000) == 0);
   377  0130F4  EF7C  F098         	goto	l877
   378                           	
   379  0130F8                     l877:		; BSR set to: ?
   380                           
   381                           	
   382  0130F8  A89E               	btfss	((c:3998)),c,(4)&7	;volatile
   383  0130FA  EF81  F098         	goto	u6291
   384  0130FE  EF83  F098         	goto	u6290
   385  013102                     u6291:
   386  013102  EF7C  F098         	goto	l877
   387  013106                     u6290:
   388                           	
   389  013106                     l879:		; BSR set to: ?
   390                           
   391                           	line	249
   392                           ;main.c: 249: uout = lResult;
   393  013106  C106  F107         	movff	(main@lResult),(main@uout)
   394                           	line	250
   395                           ;main.c: 250: TXREG = uout;
   396  01310A  C107  FFAD         	movff	(main@uout),(c:4013)	;volatile
   397                           	line	251
   398                           ;main.c: 251: while((PIR1 & 0b00010000) == 0);
   399  01310E  EF89  F098         	goto	l880
   400                           	
   401  013112                     l880:		; BSR set to: ?
   402                           
   403                           	
   404  013112  A89E               	btfss	((c:3998)),c,(4)&7	;volatile
   405  013114  EF8E  F098         	goto	u6301
   406  013118  EF90  F098         	goto	u6300
   407  01311C                     u6301:
   408  01311C  EF89  F098         	goto	l880
   409  013120                     u6300:
   410                           	
   411  013120                     l882:		; BSR set to: ?
   412                           
   413                           	line	253
   414                           ;main.c: 253: DelayMs(5000);
   415  013120  0101               	movlb	1	; () banked
   416  013122  6F08               	movwf	(??_main+4+0)&0ffh
   417  013124  0E88               	movlw	low(088h)
   418  013126  0101               	movlb	1	; () banked
   419  013128  0101               	movlb	1	; () banked
   420  01312A  6F09               	movwf	((?_DelayMs))&0ffh
   421  01312C  0101               	movlb	1	; () banked
   422  01312E  5108               	movf	(??_main+4+0)&0ffh,w
   423  013130  EC02  F098         	call	_DelayMs	;wreg free
   424                           	line	254
   425                           ;main.c: 254: DelayMs(5000);
   426  013134  0101               	movlb	1	; () banked
   427  013136  6F08               	movwf	(??_main+4+0)&0ffh
   428  013138  0E88               	movlw	low(088h)
   429  01313A  0101               	movlb	1	; () banked
   430  01313C  0101               	movlb	1	; () banked
   431  01313E  6F09               	movwf	((?_DelayMs))&0ffh
   432  013140  0101               	movlb	1	; () banked
   433  013142  5108               	movf	(??_main+4+0)&0ffh,w
   434  013144  EC02  F098         	call	_DelayMs	;wreg free
   435                           	line	255
   436                           ;main.c: 255: DelayMs(5000);
   437  013148  0101               	movlb	1	; () banked
   438  01314A  6F08               	movwf	(??_main+4+0)&0ffh
   439  01314C  0E88               	movlw	low(088h)
   440  01314E  0101               	movlb	1	; () banked
   441  013150  0101               	movlb	1	; () banked
   442  013152  6F09               	movwf	((?_DelayMs))&0ffh
   443  013154  0101               	movlb	1	; () banked
   444  013156  5108               	movf	(??_main+4+0)&0ffh,w
   445  013158  EC02  F098         	call	_DelayMs	;wreg free
   446                           	line	256
   447                           ;main.c: 256: DelayMs(5000);
   448  01315C  0101               	movlb	1	; () banked
   449  01315E  6F08               	movwf	(??_main+4+0)&0ffh
   450  013160  0E88               	movlw	low(088h)
   451  013162  0101               	movlb	1	; () banked
   452  013164  0101               	movlb	1	; () banked
   453  013166  6F09               	movwf	((?_DelayMs))&0ffh
   454  013168  0101               	movlb	1	; () banked
   455  01316A  5108               	movf	(??_main+4+0)&0ffh,w
   456  01316C  EC02  F098         	call	_DelayMs	;wreg free
   457                           	line	257
   458                           ;main.c: 257: DelayMs(5000);
   459  013170  0101               	movlb	1	; () banked
   460  013172  6F08               	movwf	(??_main+4+0)&0ffh
   461  013174  0E88               	movlw	low(088h)
   462  013176  0101               	movlb	1	; () banked
   463  013178  0101               	movlb	1	; () banked
   464  01317A  6F09               	movwf	((?_DelayMs))&0ffh
   465  01317C  0101               	movlb	1	; () banked
   466  01317E  5108               	movf	(??_main+4+0)&0ffh,w
   467  013180  EC02  F098         	call	_DelayMs	;wreg free
   468                           	line	258
   469                           ;main.c: 258: DelayMs(5000);
   470  013184  0101               	movlb	1	; () banked
   471  013186  6F08               	movwf	(??_main+4+0)&0ffh
   472  013188  0E88               	movlw	low(088h)
   473  01318A  0101               	movlb	1	; () banked
   474  01318C  0101               	movlb	1	; () banked
   475  01318E  6F09               	movwf	((?_DelayMs))&0ffh
   476  013190  0101               	movlb	1	; () banked
   477  013192  5108               	movf	(??_main+4+0)&0ffh,w
   478  013194  EC02  F098         	call	_DelayMs	;wreg free
   479                           	line	259
   480                           ;main.c: 259: DelayMs(5000);
   481  013198  0101               	movlb	1	; () banked
   482  01319A  6F08               	movwf	(??_main+4+0)&0ffh
   483  01319C  0E88               	movlw	low(088h)
   484  01319E  0101               	movlb	1	; () banked
   485  0131A0  0101               	movlb	1	; () banked
   486  0131A2  6F09               	movwf	((?_DelayMs))&0ffh
   487+ 0131A4  0101               	movlb	1	; () banked
   488+ 0131A6  5108               	movf	(??_main+4+0)&0ffh,w
   489  0131A8  EC02  F098         	call	_DelayMs	;wreg free
   490                           	line	260
   491                           ;main.c: 260: DelayMs(5000);
   492  0131AC  0101               	movlb	1	; () banked
   493  0131AE  6F08               	movwf	(??_main+4+0)&0ffh
   494  0131B0  0E88               	movlw	low(088h)
   495  0131B2  0101               	movlb	1	; () banked
   496  0131B4  0101               	movlb	1	; () banked
   497  0131B6  6F09               	movwf	((?_DelayMs))&0ffh
   498  0131B8  0101               	movlb	1	; () banked
   499  0131BA  5108               	movf	(??_main+4+0)&0ffh,w
   500  0131BC  EC02  F098         	call	_DelayMs	;wreg free
   501                           	line	263
   502                           	
   503  0131C0                     l868:		; BSR set to: ?
   504                           
   505                           	line	222
   506  0131C0  EF4D  F098         	goto	l869
   507                           	line	271
   508                           	
   509  0131C4                     l884:		; BSR set to: ?
   510                           
   511                           	line	273
   512                           ;main.c: 273: while (change_val == 0) {
   513  0131C4  EFE4  F098         	goto	l886
   514                           	line	276
   515                           	
   516  0131C8                     l886:		; BSR set to: ?
   517                           
   518                           	line	273
   519  0131C8  5029               	movf	((c:41)),c,w
   520  0131CA  B4D8               	btfsc	status,2
   521  0131CC  EFEA  F098         	goto	u6311
   522  0131D0  EFEC  F098         	goto	u6310
   523  0131D4                     u6311:
   524  0131D4  EFE2  F098         	goto	l884
   525  0131D8                     u6310:
   526                           	
   527  0131D8                     l888:		; BSR set to: ?
   528                           
   529                           	line	279
   530                           ;main.c: 276: }
   531                           ;main.c: 279: uart_out = cur_inputs[index];
   532  0131D8  0E1B               	movlw	low((c:27))
   533  0131DA  2426               	addwf	((c:38)),c,w
   534  0131DC  6EE9               	movwf	c:fsr0l
   535  0131DE  6AEA               	clrf	1+c:fsr0l
   536  0131E0  0E00               	movlw	high((c:27))
   537  0131E2  22EA               	addwfc	1+c:fsr0l
   538  0131E4  50EF               	movf	indf0,w
   539  0131E6  6E28               	movwf	((c:40)),c
   540                           	line	280
   541                           ;main.c: 280: TXREG = uart_out;
   542  0131E8  C028 FFAD          	movff	(c:40),(c:4013)	;volatile
   543                           	line	281
   544                           ;main.c: 281: while((PIR1 & 0b00010000) == 0);
   545  0131EC  EFF8  F098         	goto	l889
   546                           	
   547  0131F0                     l889:		; BSR set to: ?
   548                           
   549                           	
   550  0131F0  A89E               	btfss	((c:3998)),c,(4)&7	;volatile
   551  0131F2  EFFD  F098         	goto	u6321
   552  0131F6  EFFF  F098         	goto	u6320
   553  0131FA                     u6321:
   554  0131FA  EFF8  F098         	goto	l889
   555  0131FE                     u6320:
   556                           	
   557  0131FE                     l891:		; BSR set to: ?
   558                           
   559                           	line	283
   560                           ;main.c: 283: ToggleLeds();
   561  0131FE  EC0B  F099         	call	_ToggleLeds	;wreg free
   562                           	line	286
   563                           ;main.c: 286: change_val = 0;
   564  013202  0101               	movlb	1	; () banked
   565  013204  6F08               	movwf	(??_main+4+0)&0ffh
   566  013206  0E00               	movlw	low(0)
   567  013208  6E29               	movwf	((c:41)),c
   568  01320A  0101               	movlb	1	; () banked
   569  01320C  5108               	movf	(??_main+4+0)&0ffh,w
   570                           	line	288
   571                           	
   572  01320E                     l883:		; BSR set to: ?
   573                           
   574                           	line	271
   575                           	
   576  01320E                     l885:		; BSR set to: ?
   577                           
   578                           	line	294
   579  01320E  EF09  F099         	goto	l867
   580                           	line	295
   581                           ;main.c: 295: }
   582  013212                     l867:
   583                           			; BSR set to: ?
   584                           
   585                           	global	start
   586  013212  EF00  F000         	goto	start
   587                           	opt stack 0
   588                           GLOBAL __end_of_main
   589  013216                     	__end_of_main:
   590                           	FNSIZE	_main,5,4
   591                           ; =============== function _main ends ==========
                                 ==
   592                           
   593                           	signat	_main,8314
   594                           	global	_ToggleLeds
   595                           	global	??_ToggleLeds
   596                           	global	?_ToggleLeds
   597                           
   598                           ; *************** function _ToggleLeds *********
                                 ********
   599                           ; Defined at:
   600                           ;		line 305 in file "../code/main.c"
   601                           ; Parameters:
   602                           ;		None
   603                           ; Auto variables:
   604                           ;		None
   605                           ; Return value:
   606                           ;		type: void 
   607                           ;		size: 0
   608                           ; Registers used:
   609                           ;		wreg, status,2, status,0
   610                           ; Tracked objects:
   611                           ;		On entry : 0/0
   612                           ;		On exit  : 0/0
   613                           ;		Unchanged: 0/0
   614                           ; Data sizes:
   615                           ;		Autos:    0
   616                           ;		Params:   0
   617                           ;		Temp:     0
   618                           ;		Total:    0
   619                           ; This function calls:
   620                           ;		Nothing
   621                           ; This function is called by:
   622                           ;		_main
   623                           ; This function uses a non-reentrant model
   624                           ; 
   625                                   psect   text1,class=CODE,space=0,reloc=2
   626                           
   627                           	opt lm
   628                           	file	"../code/main.c"
   629                           	line	305
   630  000000                     	__size_of_ToggleLeds	equ	__end_of_ToggleLeds-_T
                                 oggleLeds
   631                           ;main.c: 305: void ToggleLeds () {
   632                           	
   633  013216                     _ToggleLeds:		; BSR set to: ?
   634                           
   635                           	opt stack 30
   636                           	line	310
   637  013216  0408               	decf	(0+((c:0)+08h)),c,w
   638  013218  1009               	iorwf (1+((c:0)+08h)),c,w
   639                           
   640  01321A  A4D8               	btfss	status,2
   641  01321C  EF12  F099         	goto	u4801
   642  013220  EF14  F099         	goto	u4800
   643  013224                     u4801:
   644  013224  EF2E  F099         	goto	l893
   645  013228                     u4800:
   646  013228  040A               	decf	(0+((c:0)+0Ah)),c,w
   647  01322A  100B               	iorwf (1+((c:0)+0Ah)),c,w
   648                           
   649  01322C  A4D8               	btfss	status,2
   650  01322E  EF1B  F099         	goto	u4811
   651  013232  EF1D  F099         	goto	u4810
   652  013236                     u4811:
   653  013236  EF2E  F099         	goto	l893
   654  01323A                     u4810:
   655  01323A  040C               	decf	(0+((c:0)+0Ch)),c,w
   656  01323C  100D               	iorwf (1+((c:0)+0Ch)),c,w
   657                           
   658  01323E  A4D8               	btfss	status,2
   659  013240  EF24  F099         	goto	u4821
   660  013244  EF26  F099         	goto	u4820
   661  013248                     u4821:
   662  013248  EF2E  F099         	goto	l893
   663  01324C                     u4820:
   664                           	line	313
   665                           ;main.c: 313: LATA = 0b11101111;
   666  01324C  0EEF               	movlw	low(0EFh)
   667  01324E  6E89               	movwf	((c:3977)),c	;volatile
   668+                          	line	315
   669+                          ;main.c: 315: LATB = 0b11100000;
   670+ 013250  0EE0               	movlw	low(0E0h)
   671  013252  6E8A               	movwf	((c:3978)),c	;volatile
   672                           	line	317
   673                           ;main.c: 317: LATC = 0b00001111;
   674  013254  0E0F               	movlw	low(0Fh)
   675  013256  6E8B               	movwf	((c:3979)),c	;volatile
   676                           	line	318
   677                           ;main.c: 318: } else if (led_array[4] == 1 && le
                                 d_array[5] == 1 && led_array[7] == 1) {
   678  013258  EFFF  F09F         	goto	l894
   679                           	
   680  01325C                     l893:		; BSR set to: ?
   681                           
   682  01325C  0408               	decf	(0+((c:0)+08h)),c,w
   683  01325E  1009               	iorwf (1+((c:0)+08h)),c,w
   684                           
   685  013260  A4D8               	btfss	status,2
   686  013262  EF35  F099         	goto	u4831
   687  013266  EF37  F099         	goto	u4830
   688  01326A                     u4831:
   689  01326A  EF51  F099         	goto	l895
   690  01326E                     u4830:
   691  01326E  040A               	decf	(0+((c:0)+0Ah)),c,w
   692  013270  100B               	iorwf (1+((c:0)+0Ah)),c,w
   693                           
   694  013272  A4D8               	btfss	status,2
   695  013274  EF3E  F099         	goto	u4841
   696  013278  EF40  F099         	goto	u4840
   697  01327C                     u4841:
   698  01327C  EF51  F099         	goto	l895
   699  013280                     u4840:
   700  013280  040E               	decf	(0+((c:0)+0Eh)),c,w
   701  013282  100F               	iorwf (1+((c:0)+0Eh)),c,w
   702                           
   703  013284  A4D8               	btfss	status,2
   704  013286  EF47  F099         	goto	u4851
   705  01328A  EF49  F099         	goto	u4850
   706  01328E                     u4851:
   707  01328E  EF51  F099         	goto	l895
   708  013292                     u4850:
   709                           	line	321
   710                           ;main.c: 321: LATA = 0b10111111;
   711  013292  0EBF               	movlw	low(0BFh)
   712  013294  6E89               	movwf	((c:3977)),c	;volatile
   713                           	line	323
   714                           ;main.c: 323: LATB = 0b11100000;
   715  013296  0EE0               	movlw	low(0E0h)
   716  013298  6E8A               	movwf	((c:3978)),c	;volatile
   717                           	line	325
   718                           ;main.c: 325: LATC = 0b00001111;
   719  01329A  0E0F               	movlw	low(0Fh)
   720  01329C  6E8B               	movwf	((c:3979)),c	;volatile
   721                           	line	326
   722                           ;main.c: 326: } else if (led_array[4] == 1 && le
                                 d_array[5] == 1 && led_array[8] == 1) {
   723  01329E  EFFF  F09F         	goto	l894
   724                           	
   725  0132A2                     l895:		; BSR set to: ?
   726                           
   727  0132A2  0408               	decf	(0+((c:0)+08h)),c,w
   728  0132A4  1009               	iorwf (1+((c:0)+08h)),c,w
   729                           
   730  0132A6  A4D8               	btfss	status,2
   731  0132A8  EF58  F099         	goto	u4861
   732  0132AC  EF5A  F099         	goto	u4860
   733  0132B0                     u4861:
   734  0132B0  EF73  F099         	goto	l897
   735  0132B4                     u4860:
   736  0132B4  040A               	decf	(0+((c:0)+0Ah)),c,w
   737  0132B6  100B               	iorwf (1+((c:0)+0Ah)),c,w
   738                           
   739  0132B8  A4D8               	btfss	status,2
   740  0132BA  EF61  F099         	goto	u4871
   741  0132BE  EF63  F099         	goto	u4870
   742  0132C2                     u4871:
   743  0132C2  EF73  F099         	goto	l897
   744  0132C6                     u4870:
   745  0132C6  0410               	decf	(0+((c:0)+010h)),c,w
   746  0132C8  1011               	iorwf (1+((c:0)+010h)),c,w
   747                           
   748  0132CA  A4D8               	btfss	status,2
   749  0132CC  EF6A  F099         	goto	u4881
   750  0132D0  EF6C  F099         	goto	u4880
   751  0132D4                     u4881:
   752  0132D4  EF73  F099         	goto	l897
   753  0132D8                     u4880:
   754                           	line	329
   755                           ;main.c: 329: LATA = 0b11111111;
   756  0132D8  6889               	setf	((c:3977)),c	;volatile
   757                           	line	331
   758                           ;main.c: 331: LATB = 0b11100000;
   759  0132DA  0EE0               	movlw	low(0E0h)
   760  0132DC  6E8A               	movwf	((c:3978)),c	;volatile
   761                           	line	333
   762                           ;main.c: 333: LATC = 0b00001110;
   763  0132DE  0E0E               	movlw	low(0Eh)
   764  0132E0  6E8B               	movwf	((c:3979)),c	;volatile
   765                           	line	334
   766                           ;main.c: 334: } else if (led_array[4] == 1 && le
                                 d_array[5] == 1 && led_array[9] == 1) {
   767  0132E2  EFFF  F09F         	goto	l894
   768                           	
   769  0132E6                     l897:		; BSR set to: ?
   770                           
   771  0132E6  0408               	decf	(0+((c:0)+08h)),c,w
   772  0132E8  1009               	iorwf (1+((c:0)+08h)),c,w
   773                           
   774  0132EA  A4D8               	btfss	status,2
   775  0132EC  EF7A  F099         	goto	u4891
   776  0132F0  EF7C  F099         	goto	u4890
   777  0132F4                     u4891:
   778  0132F4  EF95  F099         	goto	l899
   779  0132F8                     u4890:
   780  0132F8  040A               	decf	(0+((c:0)+0Ah)),c,w
   781  0132FA  100B               	iorwf (1+((c:0)+0Ah)),c,w
   782                           
   783  0132FC  A4D8               	btfss	status,2
   784  0132FE  EF83  F099         	goto	u4901
   785  013302  EF85  F099         	goto	u4900
   786  013306                     u4901:
   787  013306  EF95  F099         	goto	l899
   788  01330A                     u4900:
   789  01330A  0412               	decf	(0+((c:0)+012h)),c,w
   790  01330C  1013               	iorwf (1+((c:0)+012h)),c,w
   791                           
   792  01330E  A4D8               	btfss	status,2
   793  013310  EF8C  F099         	goto	u4911
   794  013314  EF8E  F099         	goto	u4910
   795  013318                     u4911:
   796  013318  EF95  F099         	goto	l899
   797  01331C                     u4910:
   798                           	line	337
   799                           ;main.c: 337: LATA = 0b11111111;
   800  01331C  6889               	setf	((c:3977)),c	;volatile
   801                           	line	339
   802                           ;main.c: 339: LATB = 0b11100000;
   803  01331E  0EE0               	movlw	low(0E0h)
   804  013320  6E8A               	movwf	((c:3978)),c	;volatile
   805                           	line	341
   806                           ;main.c: 341: LATC = 0b00001101;
   807  013322  0E0D               	movlw	low(0Dh)
   808  013324  6E8B               	movwf	((c:3979)),c	;volatile
   809                           	line	342
   810                           ;main.c: 342: } else if (led_array[4] == 1 && le
                                 d_array[5] == 1 && led_array[10] == 1) {
   811  013326  EFFF  F09F         	goto	l894
   812                           	
   813  01332A                     l899:		; BSR set to: ?
   814                           
   815  01332A  0408               	decf	(0+((c:0)+08h)),c,w
   816  01332C  1009               	iorwf (1+((c:0)+08h)),c,w
   817                           
   818  01332E  A4D8               	btfss	status,2
   819  013330  EF9C  F099         	goto	u4921
   820  013334  EF9E  F099         	goto	u4920
   821  013338                     u4921:
   822  013338  EFB7  F099         	goto	l901
   823  01333C                     u4920:
   824  01333C  040A               	decf	(0+((c:0)+0Ah)),c,w
   825  01333E  100B               	iorwf (1+((c:0)+0Ah)),c,w
   826                           
   827  013340  A4D8               	btfss	status,2
   828  013342  EFA5  F099         	goto	u4931
   829  013346  EFA7  F099         	goto	u4930
   830  01334A                     u4931:
   831  01334A  EFB7  F099         	goto	l901
   832  01334E                     u4930:
   833  01334E  0414               	decf	(0+((c:0)+014h)),c,w
   834  013350  1015               	iorwf (1+((c:0)+014h)),c,w
   835                           
   836  013352  A4D8               	btfss	status,2
   837  013354  EFAE  F099         	goto	u4941
   838  013358  EFB0  F099         	goto	u4940
   839  01335C                     u4941:
   840  01335C  EFB7  F099         	goto	l901
   841  013360                     u4940:
   842                           	line	345
   843                           ;main.c: 345: LATA = 0b11111111;
   844  013360  6889               	setf	((c:3977)),c	;volatile
   845                           	line	347
   846                           ;main.c: 347: LATB = 0b01100000;
   847  013362  0E60               	movlw	low(060h)
   848  013364  6E8A               	movwf	((c:3978)),c	;volatile
   849                           	line	349
   850                           ;main.c: 349: LATC = 0b00001111;
   851  013366  0E0F               	movlw	low(0Fh)
   852  013368  6E8B               	movwf	((c:3979)),c	;volatile
   853                           	line	350
   854                           ;main.c: 350: } else if (led_array[4] == 1 && le
                                 d_array[5] == 1 && led_array[11] == 1) {
   855  01336A  EFFF  F09F         	goto	l894
   856                           	
   857  01336E                     l901:		; BSR set to: ?
   858                           
   859  01336E  0408               	decf	(0+((c:0)+08h)),c,w
   860  013370  1009               	iorwf (1+((c:0)+08h)),c,w
   861                           
   862  013372  A4D8               	btfss	status,2
   863  013374  EFBE  F099         	goto	u4951
   864  013378  EFC0  F099         	goto	u4950
   865  01337C                     u4951:
   866  01337C  EFD9  F099         	goto	l903
   867  013380                     u4950:
   868  013380  040A               	decf	(0+((c:0)+0Ah)),c,w
   869  013382  100B               	iorwf (1+((c:0)+0Ah)),c,w
   870                           
   871  013384  A4D8               	btfss	status,2
   872  013386  EFC7  F099         	goto	u4961
   873  01338A  EFC9  F099         	goto	u4960
   874  01338E                     u4961:
   875  01338E  EFD9  F099         	goto	l903
   876  013392                     u4960:
   877  013392  0416               	decf	(0+((c:0)+016h)),c,w
   878  013394  1017               	iorwf (1+((c:0)+016h)),c,w
   879                           
   880  013396  A4D8               	btfss	status,2
   881  013398  EFD0  F099         	goto	u4971
   882  01339C  EFD2  F099         	goto	u4970
   883  0133A0                     u4971:
   884  0133A0  EFD9  F099         	goto	l903
   885  0133A4                     u4970:
   886                           	line	353
   887                           ;main.c: 353: LATA = 0b11111111;
   888  0133A4  6889               	setf	((c:3977)),c	;volatile
   889                           	line	355
   890                           ;main.c: 355: LATB = 0b11100000;
   891  0133A6  0EE0               	movlw	low(0E0h)
   892  0133A8  6E8A               	movwf	((c:3978)),c	;volatile
   893                           	line	357
   894                           ;main.c: 357: LATC = 0b00001011;
   895  0133AA  0E0B               	movlw	low(0Bh)
   896  0133AC  6E8B               	movwf	((c:3979)),c	;volatile
   897                           	line	358
   898                           ;main.c: 358: } else if (led_array[4] == 1 && le
                                 d_array[5] == 1 && led_array[12] == 1) {
   899  0133AE  EFFF  F09F         	goto	l894
   900                           	
   901  0133B2                     l903:		; BSR set to: ?
   902                           
   903  0133B2  0408               	decf	(0+((c:0)+08h)),c,w
   904  0133B4  1009               	iorwf (1+((c:0)+08h)),c,w
   905                           
   906  0133B6  A4D8               	btfss	status,2
   907  0133B8  EFE0  F099         	goto	u4981
   908  0133BC  EFE2  F099         	goto	u4980
   909  0133C0                     u4981:
   910  0133C0  EFFB  F099         	goto	l905
   911  0133C4                     u4980:
   912  0133C4  040A               	decf	(0+((c:0)+0Ah)),c,w
   913  0133C6  100B               	iorwf (1+((c:0)+0Ah)),c,w
   914                           
   915  0133C8  A4D8               	btfss	status,2
   916  0133CA  EFE9  F099         	goto	u4991
   917  0133CE  EFEB  F099         	goto	u4990
   918  0133D2                     u4991:
   919  0133D2  EFFB  F099         	goto	l905
   920  0133D6                     u4990:
   921  0133D6  0418               	decf	(0+((c:0)+018h)),c,w
   922  0133D8  1019               	iorwf (1+((c:0)+018h)),c,w
   923                           
   924  0133DA  A4D8               	btfss	status,2
   925  0133DC  EFF2  F099         	goto	u5001
   926  0133E0  EFF4  F099         	goto	u5000
   927  0133E4                     u5001:
   928  0133E4  EFFB  F099         	goto	l905
   929  0133E8                     u5000:
   930                           	line	361
   931                           ;main.c: 361: LATA = 0b11111111;
   932  0133E8  6889               	setf	((c:3977)),c	;volatile
   933                           	line	363
   934                           ;main.c: 363: LATB = 0b11100000;
   935  0133EA  0EE0               	movlw	low(0E0h)
   936  0133EC  6E8A               	movwf	((c:3978)),c	;volatile
   937                           	line	365
   938                           ;main.c: 365: LATC = 0b00000111;
   939  0133EE  0E07               	movlw	low(07h)
   940  0133F0  6E8B               	movwf	((c:3979)),c	;volatile
   941                           	line	367
   942                           ;main.c: 367: } else if (led_array[4] == 1 && le
                                 d_array[6] == 1) {
   943  0133F2  EFFF  F09F         	goto	l894
   944                           	
   945  0133F6                     l905:		; BSR set to: ?
   946                           
   947  0133F6  0408               	decf	(0+((c:0)+08h)),c,w
   948  0133F8  1009               	iorwf (1+((c:0)+08h)),c,w
   949                           
   950  0133FA  A4D8               	btfss	status,2
   951  0133FC  EF02  F09A         	goto	u5011
   952  013400  EF04  F09A         	goto	u5010
   953  013404                     u5011:
   954  013404  EF15  F09A         	goto	l907
   955  013408                     u5010:
   956  013408  040C               	decf	(0+((c:0)+0Ch)),c,w
   957  01340A  100D               	iorwf (1+((c:0)+0Ch)),c,w
   958                           
   959  01340C  A4D8               	btfss	status,2
   960  01340E  EF0B  F09A         	goto	u5021
   961  013412  EF0D  F09A         	goto	u5020
   962  013416                     u5021:
   963  013416  EF15  F09A         	goto	l907
   964  01341A                     u5020:
   965                           	line	370
   966                           ;main.c: 370: LATA = 0b11101111;
   967  01341A  0EEF               	movlw	low(0EFh)
   968  01341C  6E89               	movwf	((c:3977)),c	;volatile
   969                           	line	372
   970                           ;main.c: 372: LATB = 0b11000000;
   971  01341E  0EC0               	movlw	low(0C0h)
   972  013420  6E8A               	movwf	((c:3978)),c	;volatile
   973                           	line	374
   974                           ;main.c: 374: LATC = 0b00001111;
   975  013422  0E0F               	movlw	low(0Fh)
   976  013424  6E8B               	movwf	((c:3979)),c	;volatile
   977                           	line	375
   978                           ;main.c: 375: } else if (led_array[4] == 1 && le
                                 d_array[7] == 1) {
   979  013426  EFFF  F09F         	goto	l894
   980                           	
   981  01342A                     l907:		; BSR set to: ?
   982                           
   983  01342A  0408               	decf	(0+((c:0)+08h)),c,w
   984  01342C  1009               	iorwf (1+((c:0)+08h)),c,w
   985                           
   986  01342E  A4D8               	btfss	status,2
   987  013430  EF1C  F09A         	goto	u5031
   988  013434  EF1E  F09A         	goto	u5030
   989  013438                     u5031:
   990  013438  EF2F  F09A         	goto	l909
   991  01343C                     u5030:
   992  01343C  040E               	decf	(0+((c:0)+0Eh)),c,w
   993  01343E  100F               	iorwf (1+((c:0)+0Eh)),c,w
   994                           
   995  013440  A4D8               	btfss	status,2
   996  013442  EF25  F09A         	goto	u5041
   997  013446  EF27  F09A         	goto	u5040
   998  01344A                     u5041:
   999  01344A  EF2F  F09A         	goto	l909
  1000  01344E                     u5040:
  1001                           	line	378
  1002                           ;main.c: 378: LATA = 0b10111111;
  1003  01344E  0EBF               	movlw	low(0BFh)
  1004  013450  6E89               	movwf	((c:3977)),c	;volatile
  1005                           	line	380
  1006                           ;main.c: 380: LATB = 0b11000000;
  1007  013452  0EC0               	movlw	low(0C0h)
  1008  013454  6E8A               	movwf	((c:3978)),c	;volatile
  1009                           	line	382
  1010                           ;main.c: 382: LATC = 0b00001111;
  1011  013456  0E0F               	movlw	low(0Fh)
  1012  013458  6E8B               	movwf	((c:3979)),c	;volatile
  1013                           	line	383
  1014                           ;main.c: 383: } else if (led_array[4] == 1 && le
                                 d_array[8] == 1) {
  1015  01345A  EFFF  F09F         	goto	l894
  1016                           	
  1017  01345E                     l909:		; BSR set to: ?
  1018                           
  1019  01345E  0408               	decf	(0+((c:0)+08h)),c,w
  1020  013460  1009               	iorwf (1+((c:0)+08h)),c,w
  1021                           
  1022  013462  A4D8               	btfss	status,2
  1023  013464  EF36  F09A         	goto	u5051
  1024  013468  EF38  F09A         	goto	u5050
  1025  01346C                     u5051:
  1026  01346C  EF48  F09A         	goto	l911
  1027  013470                     u5050:
  1028  013470  0410               	decf	(0+((c:0)+010h)),c,w
  1029  013472  1011               	iorwf (1+((c:0)+010h)),c,w
  1030                           
  1031  013474  A4D8               	btfss	status,2
  1032  013476  EF3F  F09A         	goto	u5061
  1033  01347A  EF41  F09A         	goto	u5060
  1034  01347E                     u5061:
  1035  01347E  EF48  F09A         	goto	l911
  1036  013482                     u5060:
  1037                           	line	386
  1038                           ;main.c: 386: LATA = 0b11111111;
  1039  013482  6889               	setf	((c:3977)),c	;volatile
  1040                           	line	388
  1041                           ;main.c: 388: LATB = 0b11000000;
  1042  013484  0EC0               	movlw	low(0C0h)
  1043  013486  6E8A               	movwf	((c:3978)),c	;volatile
  1044                           	line	390
  1045                           ;main.c: 390: LATC = 0b00001110;
  1046  013488  0E0E               	movlw	low(0Eh)
  1047  01348A  6E8B               	movwf	((c:3979)),c	;volatile
  1048                           	line	391
  1049                           ;main.c: 391: } else if (led_array[4] == 1 && le
                                 d_array[9] == 1) {
  1050  01348C  EFFF  F09F         	goto	l894
  1051                           	
  1052  013490                     l911:		; BSR set to: ?
  1053                           
  1054  013490  0408               	decf	(0+((c:0)+08h)),c,w
  1055  013492  1009               	iorwf (1+((c:0)+08h)),c,w
  1056                           
  1057  013494  A4D8               	btfss	status,2
  1058  013496  EF4F  F09A         	goto	u5071
  1059  01349A  EF51  F09A         	goto	u5070
  1060  01349E                     u5071:
  1061  01349E  EF61  F09A         	goto	l913
  1062  0134A2                     u5070:
  1063  0134A2  0412               	decf	(0+((c:0)+012h)),c,w
  1064  0134A4  1013               	iorwf (1+((c:0)+012h)),c,w
  1065                           
  1066  0134A6  A4D8               	btfss	status,2
  1067  0134A8  EF58  F09A         	goto	u5081
  1068  0134AC  EF5A  F09A         	goto	u5080
  1069  0134B0                     u5081:
  1070  0134B0  EF61  F09A         	goto	l913
  1071  0134B4                     u5080:
  1072                           	line	394
  1073                           ;main.c: 394: LATA = 0b11111111;
  1074  0134B4  6889               	setf	((c:3977)),c	;volatile
  1075                           	line	396
  1076                           ;main.c: 396: LATB = 0b11000000;
  1077  0134B6  0EC0               	movlw	low(0C0h)
  1078  0134B8  6E8A               	movwf	((c:3978)),c	;volatile
  1079                           	line	398
  1080                           ;main.c: 398: LATC = 0b00001101;
  1081  0134BA  0E0D               	movlw	low(0Dh)
  1082  0134BC  6E8B               	movwf	((c:3979)),c	;volatile
  1083                           	line	400
  1084                           ;main.c: 400: } else if (led_array[4] == 1 && le
                                 d_array[10] == 1) {
  1085  0134BE  EFFF  F09F         	goto	l894
  1086                           	
  1087  0134C2                     l913:		; BSR set to: ?
  1088                           
  1089  0134C2  0408               	decf	(0+((c:0)+08h)),c,w
  1090  0134C4  1009               	iorwf (1+((c:0)+08h)),c,w
  1091                           
  1092  0134C6  A4D8               	btfss	status,2
  1093  0134C8  EF68  F09A         	goto	u5091
  1094  0134CC  EF6A  F09A         	goto	u5090
  1095  0134D0                     u5091:
  1096  0134D0  EF7A  F09A         	goto	l915
  1097  0134D4                     u5090:
  1098  0134D4  0414               	decf	(0+((c:0)+014h)),c,w
  1099  0134D6  1015               	iorwf (1+((c:0)+014h)),c,w
  1100                           
  1101  0134D8  A4D8               	btfss	status,2
  1102  0134DA  EF71  F09A         	goto	u5101
  1103  0134DE  EF73  F09A         	goto	u5100
  1104  0134E2                     u5101:
  1105  0134E2  EF7A  F09A         	goto	l915
  1106  0134E6                     u5100:
  1107                           	line	403
  1108                           ;main.c: 403: LATA = 0b11111111;
  1109  0134E6  6889               	setf	((c:3977)),c	;volatile
  1110                           	line	405
  1111                           ;main.c: 405: LATB = 0b01000000;
  1112  0134E8  0E40               	movlw	low(040h)
  1113  0134EA  6E8A               	movwf	((c:3978)),c	;volatile
  1114                           	line	407
  1115                           ;main.c: 407: LATC = 0b00001111;
  1116  0134EC  0E0F               	movlw	low(0Fh)
  1117  0134EE  6E8B               	movwf	((c:3979)),c	;volatile
  1118                           	line	409
  1119                           ;main.c: 409: } else if (led_array[4] == 1 && le
                                 d_array[11] == 1) {
  1120  0134F0  EFFF  F09F         	goto	l894
  1121                           	
  1122  0134F4                     l915:		; BSR set to: ?
  1123                           
  1124  0134F4  0408               	decf	(0+((c:0)+08h)),c,w
  1125  0134F6  1009               	iorwf (1+((c:0)+08h)),c,w
  1126                           
  1127  0134F8  A4D8               	btfss	status,2
  1128  0134FA  EF81  F09A         	goto	u5111
  1129  0134FE  EF83  F09A         	goto	u5110
  1130  013502                     u5111:
  1131  013502  EF93  F09A         	goto	l917
  1132  013506                     u5110:
  1133  013506  0416               	decf	(0+((c:0)+016h)),c,w
  1134  013508  1017               	iorwf (1+((c:0)+016h)),c,w
  1135                           
  1136  01350A  A4D8               	btfss	status,2
  1137  01350C  EF8A  F09A         	goto	u5121
  1138  013510  EF8C  F09A         	goto	u5120
  1139  013514                     u5121:
  1140  013514  EF93  F09A         	goto	l917
  1141  013518                     u5120:
  1142                           	line	412
  1143                           ;main.c: 412: LATA = 0b11111111;
  1144  013518  6889               	setf	((c:3977)),c	;volatile
  1145                           	line	414
  1146                           ;main.c: 414: LATB = 0b11000000;
  1147  01351A  0EC0               	movlw	low(0C0h)
  1148  01351C  6E8A               	movwf	((c:3978)),c	;volatile
  1149                           	line	416
  1150                           ;main.c: 416: LATC = 0b00001011;
  1151  01351E  0E0B               	movlw	low(0Bh)
  1152  013520  6E8B               	movwf	((c:3979)),c	;volatile
  1153                           	line	418
  1154                           ;main.c: 418: } else if (led_array[4] == 1 && le
                                 d_array[12] == 1) {
  1155  013522  EFFF  F09F         	goto	l894
  1156                           	
  1157  013526                     l917:		; BSR set to: ?
  1158                           
  1159  013526  0408               	decf	(0+((c:0)+08h)),c,w
  1160  013528  1009               	iorwf (1+((c:0)+08h)),c,w
  1161                           
  1162  01352A  A4D8               	btfss	status,2
  1163  01352C  EF9A  F09A         	goto	u5131
  1164  013530  EF9C  F09A         	goto	u5130
  1165  013534                     u5131:
  1166  013534  EFAC  F09A         	goto	l919
  1167  013538                     u5130:
  1168  013538  0418               	decf	(0+((c:0)+018h)),c,w
  1169  01353A  1019               	iorwf (1+((c:0)+018h)),c,w
  1170                           
  1171  01353C  A4D8               	btfss	status,2
  1172  01353E  EFA3  F09A         	goto	u5141
  1173  013542  EFA5  F09A         	goto	u5140
  1174  013546                     u5141:
  1175  013546  EFAC  F09A         	goto	l919
  1176  01354A                     u5140:
  1177                           	line	421
  1178                           ;main.c: 421: LATA = 0b11111111;
  1179  01354A  6889               	setf	((c:3977)),c	;volatile
  1180                           	line	423
  1181                           ;main.c: 423: LATB = 0b11000000;
  1182  01354C  0EC0               	movlw	low(0C0h)
  1183  01354E  6E8A               	movwf	((c:3978)),c	;volatile
  1184                           	line	425
  1185                           ;main.c: 425: LATC = 0b00000111;
  1186  013550  0E07               	movlw	low(07h)
  1187  013552  6E8B               	movwf	((c:3979)),c	;volatile
  1188                           	line	427
  1189                           ;main.c: 427: } else if (led_array[5] == 1 && le
                                 d_array[6] == 1) {
  1190  013554  EFFF  F09F         	goto	l894
  1191                           	
  1192  013558                     l919:		; BSR set to: ?
  1193                           
  1194  013558  040A               	decf	(0+((c:0)+0Ah)),c,w
  1195  01355A  100B               	iorwf (1+((c:0)+0Ah)),c,w
  1196                           
  1197  01355C  A4D8               	btfss	status,2
  1198  01355E  EFB3  F09A         	goto	u5151
  1199  013562  EFB5  F09A         	goto	u5150
  1200  013566                     u5151:
  1201  013566  EFC6  F09A         	goto	l921
  1202  01356A                     u5150:
  1203  01356A  040C               	decf	(0+((c:0)+0Ch)),c,w
  1204  01356C  100D               	iorwf (1+((c:0)+0Ch)),c,w
  1205                           
  1206  01356E  A4D8               	btfss	status,2
  1207  013570  EFBC  F09A         	goto	u5161
  1208  013574  EFBE  F09A         	goto	u5160
  1209  013578                     u5161:
  1210  013578  EFC6  F09A         	goto	l921
  1211  01357C                     u5160:
  1212                           	line	430
  1213                           ;main.c: 430: LATA = 0b11101111;
  1214  01357C  0EEF               	movlw	low(0EFh)
  1215  01357E  6E89               	movwf	((c:3977)),c	;volatile
  1216                           	line	432
  1217                           ;main.c: 432: LATB = 0b10100000;
  1218  013580  0EA0               	movlw	low(0A0h)
  1219  013582  6E8A               	movwf	((c:3978)),c	;volatile
  1220                           	line	434
  1221                           ;main.c: 434: LATC = 0b00001111;
  1222  013584  0E0F               	movlw	low(0Fh)
  1223  013586  6E8B               	movwf	((c:3979)),c	;volatile
  1224                           	line	436
  1225                           ;main.c: 436: } else if (led_array[5] == 1 && le
                                 d_array[7] == 1) {
  1226  013588  EFFF  F09F         	goto	l894
  1227                           	
  1228  01358C                     l921:		; BSR set to: ?
  1229                           
  1230  01358C  040A               	decf	(0+((c:0)+0Ah)),c,w
  1231  01358E  100B               	iorwf (1+((c:0)+0Ah)),c,w
  1232                           
  1233  013590  A4D8               	btfss	status,2
  1234  013592  EFCD  F09A         	goto	u5171
  1235  013596  EFCF  F09A         	goto	u5170
  1236  01359A                     u5171:
  1237  01359A  EFE0  F09A         	goto	l923
  1238  01359E                     u5170:
  1239  01359E  040E               	decf	(0+((c:0)+0Eh)),c,w
  1240  0135A0  100F               	iorwf (1+((c:0)+0Eh)),c,w
  1241                           
  1242  0135A2  A4D8               	btfss	status,2
  1243  0135A4  EFD6  F09A         	goto	u5181
  1244  0135A8  EFD8  F09A         	goto	u5180
  1245  0135AC                     u5181:
  1246  0135AC  EFE0  F09A         	goto	l923
  1247  0135B0                     u5180:
  1248                           	line	439
  1249                           ;main.c: 439: LATA = 0b10111111;
  1250  0135B0  0EBF               	movlw	low(0BFh)
  1251  0135B2  6E89               	movwf	((c:3977)),c	;volatile
  1252                           	line	441
  1253                           ;main.c: 441: LATB = 0b10100000;
  1254  0135B4  0EA0               	movlw	low(0A0h)
  1255  0135B6  6E8A               	movwf	((c:3978)),c	;volatile
  1256                           	line	443
  1257                           ;main.c: 443: LATC = 0b00001111;
  1258  0135B8  0E0F               	movlw	low(0Fh)
  1259  0135BA  6E8B               	movwf	((c:3979)),c	;volatile
  1260                           	line	445
  1261                           ;main.c: 445: } else if (led_array[5] == 1 && le
                                 d_array[8] == 1) {
  1262  0135BC  EFFF  F09F         	goto	l894
  1263                           	
  1264  0135C0                     l923:		; BSR set to: ?
  1265                           
  1266  0135C0  040A               	decf	(0+((c:0)+0Ah)),c,w
  1267  0135C2  100B               	iorwf (1+((c:0)+0Ah)),c,w
  1268                           
  1269  0135C4  A4D8               	btfss	status,2
  1270  0135C6  EFE7  F09A         	goto	u5191
  1271  0135CA  EFE9  F09A         	goto	u5190
  1272  0135CE                     u5191:
  1273  0135CE  EFF9  F09A         	goto	l925
  1274  0135D2                     u5190:
  1275  0135D2  0410               	decf	(0+((c:0)+010h)),c,w
  1276  0135D4  1011               	iorwf (1+((c:0)+010h)),c,w
  1277                           
  1278  0135D6  A4D8               	btfss	status,2
  1279  0135D8  EFF0  F09A         	goto	u5201
  1280  0135DC  EFF2  F09A         	goto	u5200
  1281  0135E0                     u5201:
  1282  0135E0  EFF9  F09A         	goto	l925
  1283  0135E4                     u5200:
  1284                           	line	448
  1285                           ;main.c: 448: LATA = 0b11111111;
  1286  0135E4  6889               	setf	((c:3977)),c	;volatile
  1287                           	line	450
  1288                           ;main.c: 450: LATB = 0b10100000;
  1289  0135E6  0EA0               	movlw	low(0A0h)
  1290  0135E8  6E8A               	movwf	((c:3978)),c	;volatile
  1291                           	line	452
  1292                           ;main.c: 452: LATC = 0b00001110;
  1293  0135EA  0E0E               	movlw	low(0Eh)
  1294  0135EC  6E8B               	movwf	((c:3979)),c	;volatile
  1295                           	line	454
  1296                           ;main.c: 454: } else if (led_array[5] == 1 && le
                                 d_array[9] == 1) {
  1297  0135EE  EFFF  F09F         	goto	l894
  1298                           	
  1299  0135F2                     l925:		; BSR set to: ?
  1300                           
  1301  0135F2  040A               	decf	(0+((c:0)+0Ah)),c,w
  1302  0135F4  100B               	iorwf (1+((c:0)+0Ah)),c,w
  1303                           
  1304  0135F6  A4D8               	btfss	status,2
  1305  0135F8  EF00  F09B         	goto	u5211
  1306  0135FC  EF02  F09B         	goto	u5210
  1307  013600                     u5211:
  1308  013600  EF12  F09B         	goto	l927
  1309  013604                     u5210:
  1310  013604  0412               	decf	(0+((c:0)+012h)),c,w
  1311  013606  1013               	iorwf (1+((c:0)+012h)),c,w
  1312                           
  1313  013608  A4D8               	btfss	status,2
  1314  01360A  EF09  F09B         	goto	u5221
  1315  01360E  EF0B  F09B         	goto	u5220
  1316  013612                     u5221:
  1317  013612  EF12  F09B         	goto	l927
  1318  013616                     u5220:
  1319                           	line	457
  1320                           ;main.c: 457: LATA = 0b11111111;
  1321  013616  6889               	setf	((c:3977)),c	;volatile
  1322                           	line	459
  1323                           ;main.c: 459: LATB = 0b10100000;
  1324  013618  0EA0               	movlw	low(0A0h)
  1325  01361A  6E8A               	movwf	((c:3978)),c	;volatile
  1326                           	line	461
  1327                           ;main.c: 461: LATC = 0b00001101;
  1328  01361C  0E0D               	movlw	low(0Dh)
  1329  01361E  6E8B               	movwf	((c:3979)),c	;volatile
  1330                           	line	463
  1331                           ;main.c: 463: } else if (led_array[5] == 1 && le
                                 d_array[10] == 1) {
  1332  013620  EFFF  F09F         	goto	l894
  1333                           	
  1334  013624                     l927:		; BSR set to: ?
  1335                           
  1336  013624  040A               	decf	(0+((c:0)+0Ah)),c,w
  1337  013626  100B               	iorwf (1+((c:0)+0Ah)),c,w
  1338                           
  1339  013628  A4D8               	btfss	status,2
  1340  01362A  EF19  F09B         	goto	u5231
  1341  01362E  EF1B  F09B         	goto	u5230
  1342  013632                     u5231:
  1343  013632  EF2B  F09B         	goto	l929
  1344  013636                     u5230:
  1345  013636  0414               	decf	(0+((c:0)+014h)),c,w
  1346  013638  1015               	iorwf (1+((c:0)+014h)),c,w
  1347                           
  1348  01363A  A4D8               	btfss	status,2
  1349  01363C  EF22  F09B         	goto	u5241
  1350  013640  EF24  F09B         	goto	u5240
  1351  013644                     u5241:
  1352  013644  EF2B  F09B         	goto	l929
  1353  013648                     u5240:
  1354                           	line	466
  1355                           ;main.c: 466: LATA = 0b11111111;
  1356  013648  6889               	setf	((c:3977)),c	;volatile
  1357                           	line	468
  1358                           ;main.c: 468: LATB = 0b00100000;
  1359  01364A  0E20               	movlw	low(020h)
  1360  01364C  6E8A               	movwf	((c:3978)),c	;volatile
  1361                           	line	470
  1362                           ;main.c: 470: LATC = 0b00001111;
  1363  01364E  0E0F               	movlw	low(0Fh)
  1364  013650  6E8B               	movwf	((c:3979)),c	;volatile
  1365                           	line	472
  1366                           ;main.c: 472: } else if (led_array[5] == 1 && le
                                 d_array[11] == 1) {
  1367  013652  EFFF  F09F         	goto	l894
  1368                           	
  1369  013656                     l929:		; BSR set to: ?
  1370                           
  1371  013656  040A               	decf	(0+((c:0)+0Ah)),c,w
  1372  013658  100B               	iorwf (1+((c:0)+0Ah)),c,w
  1373                           
  1374  01365A  A4D8               	btfss	status,2
  1375  01365C  EF32  F09B         	goto	u5251
  1376  013660  EF34  F09B         	goto	u5250
  1377  013664                     u5251:
  1378  013664  EF44  F09B         	goto	l931
  1379  013668                     u5250:
  1380  013668  0416               	decf	(0+((c:0)+016h)),c,w
  1381  01366A  1017               	iorwf (1+((c:0)+016h)),c,w
  1382                           
  1383  01366C  A4D8               	btfss	status,2
  1384  01366E  EF3B  F09B         	goto	u5261
  1385  013672  EF3D  F09B         	goto	u5260
  1386  013676                     u5261:
  1387  013676  EF44  F09B         	goto	l931
  1388  01367A                     u5260:
  1389                           	line	475
  1390                           ;main.c: 475: LATA = 0b11111111;
  1391  01367A  6889               	setf	((c:3977)),c	;volatile
  1392                           	line	477
  1393                           ;main.c: 477: LATB = 0b10100000;
  1394  01367C  0EA0               	movlw	low(0A0h)
  1395  01367E  6E8A               	movwf	((c:3978)),c	;volatile
  1396                           	line	479
  1397                           ;main.c: 479: LATC = 0b00001011;
  1398  013680  0E0B               	movlw	low(0Bh)
  1399  013682  6E8B               	movwf	((c:3979)),c	;volatile
  1400                           	line	481
  1401                           ;main.c: 481: } else if (led_array[5] == 1 && le
                                 d_array[12] == 1) {
  1402  013684  EFFF  F09F         	goto	l894
  1403                           	
  1404  013688                     l931:		; BSR set to: ?
  1405                           
  1406  013688  040A               	decf	(0+((c:0)+0Ah)),c,w
  1407  01368A  100B               	iorwf (1+((c:0)+0Ah)),c,w
  1408                           
  1409  01368C  A4D8               	btfss	status,2
  1410  01368E  EF4B  F09B         	goto	u5271
  1411  013692  EF4D  F09B         	goto	u5270
  1412  013696                     u5271:
  1413  013696  EF5D  F09B         	goto	l933
  1414  01369A                     u5270:
  1415  01369A  0418               	decf	(0+((c:0)+018h)),c,w
  1416  01369C  1019               	iorwf (1+((c:0)+018h)),c,w
  1417                           
  1418  01369E  A4D8               	btfss	status,2
  1419  0136A0  EF54  F09B         	goto	u5281
  1420  0136A4  EF56  F09B         	goto	u5280
  1421  0136A8                     u5281:
  1422  0136A8  EF5D  F09B         	goto	l933
  1423  0136AC                     u5280:
  1424                           	line	484
  1425                           ;main.c: 484: LATA = 0b11111111;
  1426  0136AC  6889               	setf	((c:3977)),c	;volatile
  1427                           	line	486
  1428                           ;main.c: 486: LATB = 0b10100000;
  1429  0136AE  0EA0               	movlw	low(0A0h)
  1430  0136B0  6E8A               	movwf	((c:3978)),c	;volatile
  1431                           	line	488
  1432                           ;main.c: 488: LATC = 0b00000111;
  1433  0136B2  0E07               	movlw	low(07h)
  1434  0136B4  6E8B               	movwf	((c:3979)),c	;volatile
  1435                           	line	489
  1436                           ;main.c: 489: }
  1437  0136B6  EFFF  F09F         	goto	l894
  1438                           	line	492
  1439                           	
  1440  0136BA                     l933:		; BSR set to: ?
  1441                           
  1442                           ;main.c: 492: else if (led_array[2] == 1 && led_
                                 array[3] == 1 && led_array[6] == 1) {
  1443  0136BA  0404               	decf	(0+((c:0)+04h)),c,w
  1444  0136BC  1005               	iorwf (1+((c:0)+04h)),c,w
  1445                           
  1446  0136BE  A4D8               	btfss	status,2
  1447  0136C0  EF64  F09B         	goto	u5291
  1448  0136C4  EF66  F09B         	goto	u5290
  1449  0136C8                     u5291:
  1450  0136C8  EF80  F09B         	goto	l935
  1451  0136CC                     u5290:
  1452  0136CC  0406               	decf	(0+((c:0)+06h)),c,w
  1453  0136CE  1007               	iorwf (1+((c:0)+06h)),c,w
  1454                           
  1455  0136D0  A4D8               	btfss	status,2
  1456  0136D2  EF6D  F09B         	goto	u5301
  1457  0136D6  EF6F  F09B         	goto	u5300
  1458  0136DA                     u5301:
  1459  0136DA  EF80  F09B         	goto	l935
  1460  0136DE                     u5300:
  1461  0136DE  040C               	decf	(0+((c:0)+0Ch)),c,w
  1462  0136E0  100D               	iorwf (1+((c:0)+0Ch)),c,w
  1463                           
  1464  0136E2  A4D8               	btfss	status,2
  1465  0136E4  EF76  F09B         	goto	u5311
  1466  0136E8  EF78  F09B         	goto	u5310
  1467  0136EC                     u5311:
  1468  0136EC  EF80  F09B         	goto	l935
  1469  0136F0                     u5310:
  1470                           	line	495
  1471                           ;main.c: 495: LATA = 0b11101111;
  1472  0136F0  0EEF               	movlw	low(0EFh)
  1473  0136F2  6E89               	movwf	((c:3977)),c	;volatile
  1474                           	line	497
  1475                           ;main.c: 497: LATB = 0b10001100;
  1476  0136F4  0E8C               	movlw	low(08Ch)
  1477  0136F6  6E8A               	movwf	((c:3978)),c	;volatile
  1478                           	line	499
  1479                           ;main.c: 499: LATC = 0b00001111;
  1480  0136F8  0E0F               	movlw	low(0Fh)
  1481  0136FA  6E8B               	movwf	((c:3979)),c	;volatile
  1482                           	line	501
  1483                           ;main.c: 501: } else if (led_array[2] == 1 && le
                                 d_array[3] == 1 && led_array[7] == 1) {
  1484  0136FC  EFFF  F09F         	goto	l894
  1485                           	
  1486  013700                     l935:		; BSR set to: ?
  1487                           
  1488  013700  0404               	decf	(0+((c:0)+04h)),c,w
  1489  013702  1005               	iorwf (1+((c:0)+04h)),c,w
  1490                           
  1491  013704  A4D8               	btfss	status,2
  1492  013706  EF87  F09B         	goto	u5321
  1493  01370A  EF89  F09B         	goto	u5320
  1494  01370E                     u5321:
  1495  01370E  EFA3  F09B         	goto	l937
  1496  013712                     u5320:
  1497  013712  0406               	decf	(0+((c:0)+06h)),c,w
  1498  013714  1007               	iorwf (1+((c:0)+06h)),c,w
  1499                           
  1500  013716  A4D8               	btfss	status,2
  1501  013718  EF90  F09B         	goto	u5331
  1502  01371C  EF92  F09B         	goto	u5330
  1503  013720                     u5331:
  1504  013720  EFA3  F09B         	goto	l937
  1505  013724                     u5330:
  1506  013724  040E               	decf	(0+((c:0)+0Eh)),c,w
  1507  013726  100F               	iorwf (1+((c:0)+0Eh)),c,w
  1508                           
  1509  013728  A4D8               	btfss	status,2
  1510  01372A  EF99  F09B         	goto	u5341
  1511  01372E  EF9B  F09B         	goto	u5340
  1512  013732                     u5341:
  1513  013732  EFA3  F09B         	goto	l937
  1514  013736                     u5340:
  1515                           	line	504
  1516                           ;main.c: 504: LATA = 0b10111111;
  1517  013736  0EBF               	movlw	low(0BFh)
  1518  013738  6E89               	movwf	((c:3977)),c	;volatile
  1519                           	line	506
  1520                           ;main.c: 506: LATB = 0b10001100;
  1521  01373A  0E8C               	movlw	low(08Ch)
  1522  01373C  6E8A               	movwf	((c:3978)),c	;volatile
  1523                           	line	508
  1524                           ;main.c: 508: LATC = 0b00001111;
  1525  01373E  0E0F               	movlw	low(0Fh)
  1526  013740  6E8B               	movwf	((c:3979)),c	;volatile
  1527                           	line	510
  1528                           ;main.c: 510: } else if (led_array[2] == 1 && le
                                 d_array[3] == 1 && led_array[8] == 1) {
  1529  013742  EFFF  F09F         	goto	l894
  1530                           	
  1531  013746                     l937:		; BSR set to: ?
  1532                           
  1533  013746  0404               	decf	(0+((c:0)+04h)),c,w
  1534  013748  1005               	iorwf (1+((c:0)+04h)),c,w
  1535                           
  1536  01374A  A4D8               	btfss	status,2
  1537  01374C  EFAA  F09B         	goto	u5351
  1538  013750  EFAC  F09B         	goto	u5350
  1539  013754                     u5351:
  1540  013754  EFC5  F09B         	goto	l939
  1541  013758                     u5350:
  1542  013758  0406               	decf	(0+((c:0)+06h)),c,w
  1543  01375A  1007               	iorwf (1+((c:0)+06h)),c,w
  1544                           
  1545  01375C  A4D8               	btfss	status,2
  1546  01375E  EFB3  F09B         	goto	u5361
  1547  013762  EFB5  F09B         	goto	u5360
  1548  013766                     u5361:
  1549  013766  EFC5  F09B         	goto	l939
  1550  01376A                     u5360:
  1551  01376A  0410               	decf	(0+((c:0)+010h)),c,w
  1552  01376C  1011               	iorwf (1+((c:0)+010h)),c,w
  1553                           
  1554  01376E  A4D8               	btfss	status,2
  1555  013770  EFBC  F09B         	goto	u5371
  1556  013774  EFBE  F09B         	goto	u5370
  1557  013778                     u5371:
  1558  013778  EFC5  F09B         	goto	l939
  1559  01377C                     u5370:
  1560                           	line	513
  1561                           ;main.c: 513: LATA = 0b11111111;
  1562  01377C  6889               	setf	((c:3977)),c	;volatile
  1563                           	line	515
  1564                           ;main.c: 515: LATB = 0b10001100;
  1565  01377E  0E8C               	movlw	low(08Ch)
  1566  013780  6E8A               	movwf	((c:3978)),c	;volatile
  1567                           	line	517
  1568                           ;main.c: 517: LATC = 0b00001110;
  1569  013782  0E0E               	movlw	low(0Eh)
  1570  013784  6E8B               	movwf	((c:3979)),c	;volatile
  1571                           	line	519
  1572                           ;main.c: 519: } else if (led_array[2] == 1 && le
                                 d_array[3] == 1 && led_array[9] == 1) {
  1573  013786  EFFF  F09F         	goto	l894
  1574                           	
  1575  01378A                     l939:		; BSR set to: ?
  1576                           
  1577  01378A  0404               	decf	(0+((c:0)+04h)),c,w
  1578  01378C  1005               	iorwf (1+((c:0)+04h)),c,w
  1579                           
  1580  01378E  A4D8               	btfss	status,2
  1581  013790  EFCC  F09B         	goto	u5381
  1582  013794  EFCE  F09B         	goto	u5380
  1583  013798                     u5381:
  1584  013798  EFE7  F09B         	goto	l941
  1585  01379C                     u5380:
  1586  01379C  0406               	decf	(0+((c:0)+06h)),c,w
  1587  01379E  1007               	iorwf (1+((c:0)+06h)),c,w
  1588                           
  1589  0137A0  A4D8               	btfss	status,2
  1590  0137A2  EFD5  F09B         	goto	u5391
  1591  0137A6  EFD7  F09B         	goto	u5390
  1592  0137AA                     u5391:
  1593  0137AA  EFE7  F09B         	goto	l941
  1594  0137AE                     u5390:
  1595  0137AE  0412               	decf	(0+((c:0)+012h)),c,w
  1596  0137B0  1013               	iorwf (1+((c:0)+012h)),c,w
  1597                           
  1598  0137B2  A4D8               	btfss	status,2
  1599  0137B4  EFDE  F09B         	goto	u5401
  1600  0137B8  EFE0  F09B         	goto	u5400
  1601  0137BC                     u5401:
  1602  0137BC  EFE7  F09B         	goto	l941
  1603  0137C0                     u5400:
  1604                           	line	522
  1605                           ;main.c: 522: LATA = 0b11111111;
  1606  0137C0  6889               	setf	((c:3977)),c	;volatile
  1607                           	line	524
  1608                           ;main.c: 524: LATB = 0b10001100;
  1609  0137C2  0E8C               	movlw	low(08Ch)
  1610  0137C4  6E8A               	movwf	((c:3978)),c	;volatile
  1611                           	line	526
  1612                           ;main.c: 526: LATC = 0b00001101;
  1613  0137C6  0E0D               	movlw	low(0Dh)
  1614  0137C8  6E8B               	movwf	((c:3979)),c	;volatile
  1615                           	line	527
  1616                           ;main.c: 527: } else if (led_array[2] == 1 && le
                                 d_array[3] == 1 && led_array[10] == 1) {
  1617  0137CA  EFFF  F09F         	goto	l894
  1618                           	
  1619  0137CE                     l941:		; BSR set to: ?
  1620                           
  1621  0137CE  0404               	decf	(0+((c:0)+04h)),c,w
  1622  0137D0  1005               	iorwf (1+((c:0)+04h)),c,w
  1623                           
  1624  0137D2  A4D8               	btfss	status,2
  1625  0137D4  EFEE  F09B         	goto	u5411
  1626  0137D8  EFF0  F09B         	goto	u5410
  1627  0137DC                     u5411:
  1628  0137DC  EF09  F09C         	goto	l943
  1629  0137E0                     u5410:
  1630  0137E0  0406               	decf	(0+((c:0)+06h)),c,w
  1631  0137E2  1007               	iorwf (1+((c:0)+06h)),c,w
  1632                           
  1633  0137E4  A4D8               	btfss	status,2
  1634  0137E6  EFF7  F09B         	goto	u5421
  1635  0137EA  EFF9  F09B         	goto	u5420
  1636  0137EE                     u5421:
  1637  0137EE  EF09  F09C         	goto	l943
  1638  0137F2                     u5420:
  1639  0137F2  0414               	decf	(0+((c:0)+014h)),c,w
  1640  0137F4  1015               	iorwf (1+((c:0)+014h)),c,w
  1641                           
  1642  0137F6  A4D8               	btfss	status,2
  1643  0137F8  EF00  F09C         	goto	u5431
  1644  0137FC  EF02  F09C         	goto	u5430
  1645  013800                     u5431:
  1646  013800  EF09  F09C         	goto	l943
  1647  013804                     u5430:
  1648                           	line	530
  1649                           ;main.c: 530: LATA = 0b11111111;
  1650  013804  6889               	setf	((c:3977)),c	;volatile
  1651                           	line	532
  1652                           ;main.c: 532: LATB = 0b00001100;
  1653  013806  0E0C               	movlw	low(0Ch)
  1654  013808  6E8A               	movwf	((c:3978)),c	;volatile
  1655                           	line	534
  1656                           ;main.c: 534: LATC = 0b00001111;
  1657  01380A  0E0F               	movlw	low(0Fh)
  1658  01380C  6E8B               	movwf	((c:3979)),c	;volatile
  1659                           	line	535
  1660                           ;main.c: 535: } else if (led_array[2] == 1 && le
                                 d_array[3] == 1 && led_array[11] == 1) {
  1661  01380E  EFFF  F09F         	goto	l894
  1662                           	
  1663  013812                     l943:		; BSR set to: ?
  1664                           
  1665  013812  0404               	decf	(0+((c:0)+04h)),c,w
  1666  013814  1005               	iorwf (1+((c:0)+04h)),c,w
  1667                           
  1668  013816  A4D8               	btfss	status,2
  1669  013818  EF10  F09C         	goto	u5441
  1670  01381C  EF12  F09C         	goto	u5440
  1671  013820                     u5441:
  1672  013820  EF2B  F09C         	goto	l945
  1673  013824                     u5440:
  1674  013824  0406               	decf	(0+((c:0)+06h)),c,w
  1675  013826  1007               	iorwf (1+((c:0)+06h)),c,w
  1676                           
  1677  013828  A4D8               	btfss	status,2
  1678  01382A  EF19  F09C         	goto	u5451
  1679  01382E  EF1B  F09C         	goto	u5450
  1680  013832                     u5451:
  1681  013832  EF2B  F09C         	goto	l945
  1682  013836                     u5450:
  1683  013836  0416               	decf	(0+((c:0)+016h)),c,w
  1684  013838  1017               	iorwf (1+((c:0)+016h)),c,w
  1685                           
  1686  01383A  A4D8               	btfss	status,2
  1687  01383C  EF22  F09C         	goto	u5461
  1688  013840  EF24  F09C         	goto	u5460
  1689  013844                     u5461:
  1690  013844  EF2B  F09C         	goto	l945
  1691  013848                     u5460:
  1692                           	line	538
  1693                           ;main.c: 538: LATA = 0b11111111;
  1694  013848  6889               	setf	((c:3977)),c	;volatile
  1695                           	line	540
  1696                           ;main.c: 540: LATB = 0b10001100;
  1697  01384A  0E8C               	movlw	low(08Ch)
  1698  01384C  6E8A               	movwf	((c:3978)),c	;volatile
  1699                           	line	542
  1700                           ;main.c: 542: LATC = 0b00001011;
  1701  01384E  0E0B               	movlw	low(0Bh)
  1702  013850  6E8B               	movwf	((c:3979)),c	;volatile
  1703                           	line	543
  1704                           ;main.c: 543: } else if (led_array[2] == 1 && le
                                 d_array[3] == 1 && led_array[12] == 1) {
  1705  013852  EFFF  F09F         	goto	l894
  1706                           	
  1707  013856                     l945:		; BSR set to: ?
  1708                           
  1709  013856  0404               	decf	(0+((c:0)+04h)),c,w
  1710  013858  1005               	iorwf (1+((c:0)+04h)),c,w
  1711                           
  1712  01385A  A4D8               	btfss	status,2
  1713  01385C  EF32  F09C         	goto	u5471
  1714  013860  EF34  F09C         	goto	u5470
  1715  013864                     u5471:
  1716  013864  EF4D  F09C         	goto	l947
  1717  013868                     u5470:
  1718  013868  0406               	decf	(0+((c:0)+06h)),c,w
  1719  01386A  1007               	iorwf (1+((c:0)+06h)),c,w
  1720                           
  1721  01386C  A4D8               	btfss	status,2
  1722  01386E  EF3B  F09C         	goto	u5481
  1723  013872  EF3D  F09C         	goto	u5480
  1724  013876                     u5481:
  1725  013876  EF4D  F09C         	goto	l947
  1726  01387A                     u5480:
  1727  01387A  0418               	decf	(0+((c:0)+018h)),c,w
  1728  01387C  1019               	iorwf (1+((c:0)+018h)),c,w
  1729                           
  1730  01387E  A4D8               	btfss	status,2
  1731  013880  EF44  F09C         	goto	u5491
  1732  013884  EF46  F09C         	goto	u5490
  1733  013888                     u5491:
  1734  013888  EF4D  F09C         	goto	l947
  1735  01388C                     u5490:
  1736                           	line	546
  1737                           ;main.c: 546: LATA = 0b11111111;
  1738  01388C  6889               	setf	((c:3977)),c	;volatile
  1739                           	line	548
  1740                           ;main.c: 548: LATB = 0b10001100;
  1741  01388E  0E8C               	movlw	low(08Ch)
  1742  013890  6E8A               	movwf	((c:3978)),c	;volatile
  1743                           	line	550
  1744                           ;main.c: 550: LATC = 0b00000111;
  1745  013892  0E07               	movlw	low(07h)
  1746  013894  6E8B               	movwf	((c:3979)),c	;volatile
  1747                           	line	551
  1748                           ;main.c: 551: } else if (led_array[2] == 1 && le
                                 d_array[6] == 1) {
  1749  013896  EFFF  F09F         	goto	l894
  1750                           	
  1751  01389A                     l947:		; BSR set to: ?
  1752                           
  1753  01389A  0404               	decf	(0+((c:0)+04h)),c,w
  1754  01389C  1005               	iorwf (1+((c:0)+04h)),c,w
  1755                           
  1756  01389E  A4D8               	btfss	status,2
  1757  0138A0  EF54  F09C         	goto	u5501
  1758  0138A4  EF56  F09C         	goto	u5500
  1759  0138A8                     u5501:
  1760  0138A8  EF67  F09C         	goto	l949
  1761  0138AC                     u5500:
  1762  0138AC  040C               	decf	(0+((c:0)+0Ch)),c,w
  1763  0138AE  100D               	iorwf (1+((c:0)+0Ch)),c,w
  1764                           
  1765  0138B0  A4D8               	btfss	status,2
  1766  0138B2  EF5D  F09C         	goto	u5511
  1767  0138B6  EF5F  F09C         	goto	u5510
  1768  0138BA                     u5511:
  1769  0138BA  EF67  F09C         	goto	l949
  1770  0138BE                     u5510:
  1771                           	line	554
  1772                           ;main.c: 554: LATA = 0b11101111;
  1773  0138BE  0EEF               	movlw	low(0EFh)
  1774  0138C0  6E89               	movwf	((c:3977)),c	;volatile
  1775                           	line	556
  1776                           ;main.c: 556: LATB = 0b10000100;
  1777  0138C2  0E84               	movlw	low(084h)
  1778  0138C4  6E8A               	movwf	((c:3978)),c	;volatile
  1779                           	line	558
  1780                           ;main.c: 558: LATC = 0b00001111;
  1781  0138C6  0E0F               	movlw	low(0Fh)
  1782  0138C8  6E8B               	movwf	((c:3979)),c	;volatile
  1783                           	line	560
  1784                           ;main.c: 560: } else if (led_array[2] == 1 && le
                                 d_array[7] == 1) {
  1785  0138CA  EFFF  F09F         	goto	l894
  1786                           	
  1787  0138CE                     l949:		; BSR set to: ?
  1788                           
  1789  0138CE  0404               	decf	(0+((c:0)+04h)),c,w
  1790  0138D0  1005               	iorwf (1+((c:0)+04h)),c,w
  1791                           
  1792  0138D2  A4D8               	btfss	status,2
  1793  0138D4  EF6E  F09C         	goto	u5521
  1794  0138D8  EF70  F09C         	goto	u5520
  1795  0138DC                     u5521:
  1796  0138DC  EF81  F09C         	goto	l951
  1797  0138E0                     u5520:
  1798  0138E0  040E               	decf	(0+((c:0)+0Eh)),c,w
  1799  0138E2  100F               	iorwf (1+((c:0)+0Eh)),c,w
  1800                           
  1801  0138E4  A4D8               	btfss	status,2
  1802  0138E6  EF77  F09C         	goto	u5531
  1803  0138EA  EF79  F09C         	goto	u5530
  1804  0138EE                     u5531:
  1805  0138EE  EF81  F09C         	goto	l951
  1806  0138F2                     u5530:
  1807                           	line	563
  1808                           ;main.c: 563: LATA = 0b10111111;
  1809  0138F2  0EBF               	movlw	low(0BFh)
  1810  0138F4  6E89               	movwf	((c:3977)),c	;volatile
  1811                           	line	565
  1812                           ;main.c: 565: LATB = 0b10000100;
  1813  0138F6  0E84               	movlw	low(084h)
  1814  0138F8  6E8A               	movwf	((c:3978)),c	;volatile
  1815                           	line	567
  1816                           ;main.c: 567: LATC = 0b00001111;
  1817  0138FA  0E0F               	movlw	low(0Fh)
  1818  0138FC  6E8B               	movwf	((c:3979)),c	;volatile
  1819                           	line	569
  1820                           ;main.c: 569: } else if (led_array[2] == 1 && le
                                 d_array[8] == 1) {
  1821  0138FE  EFFF  F09F         	goto	l894
  1822                           	
  1823  013902                     l951:		; BSR set to: ?
  1824                           
  1825  013902  0404               	decf	(0+((c:0)+04h)),c,w
  1826  013904  1005               	iorwf (1+((c:0)+04h)),c,w
  1827                           
  1828  013906  A4D8               	btfss	status,2
  1829  013908  EF88  F09C         	goto	u5541
  1830  01390C  EF8A  F09C         	goto	u5540
  1831  013910                     u5541:
  1832  013910  EF9A  F09C         	goto	l953
  1833  013914                     u5540:
  1834  013914  0410               	decf	(0+((c:0)+010h)),c,w
  1835  013916  1011               	iorwf (1+((c:0)+010h)),c,w
  1836                           
  1837  013918  A4D8               	btfss	status,2
  1838  01391A  EF91  F09C         	goto	u5551
  1839  01391E  EF93  F09C         	goto	u5550
  1840  013922                     u5551:
  1841  013922  EF9A  F09C         	goto	l953
  1842  013926                     u5550:
  1843                           	line	572
  1844                           ;main.c: 572: LATA = 0b11111111;
  1845  013926  6889               	setf	((c:3977)),c	;volatile
  1846                           	line	574
  1847                           ;main.c: 574: LATB = 0b10000100;
  1848  013928  0E84               	movlw	low(084h)
  1849  01392A  6E8A               	movwf	((c:3978)),c	;volatile
  1850                           	line	576
  1851                           ;main.c: 576: LATC = 0b00001110;
  1852  01392C  0E0E               	movlw	low(0Eh)
  1853  01392E  6E8B               	movwf	((c:3979)),c	;volatile
  1854                           	line	578
  1855                           ;main.c: 578: } else if (led_array[2] == 1 && le
                                 d_array[9] == 1) {
  1856  013930  EFFF  F09F         	goto	l894
  1857                           	
  1858  013934                     l953:		; BSR set to: ?
  1859                           
  1860  013934  0404               	decf	(0+((c:0)+04h)),c,w
  1861  013936  1005               	iorwf (1+((c:0)+04h)),c,w
  1862                           
  1863  013938  A4D8               	btfss	status,2
  1864  01393A  EFA1  F09C         	goto	u5561
  1865  01393E  EFA3  F09C         	goto	u5560
  1866  013942                     u5561:
  1867  013942  EFB3  F09C         	goto	l955
  1868  013946                     u5560:
  1869  013946  0412               	decf	(0+((c:0)+012h)),c,w
  1870  013948  1013               	iorwf (1+((c:0)+012h)),c,w
  1871                           
  1872  01394A  A4D8               	btfss	status,2
  1873  01394C  EFAA  F09C         	goto	u5571
  1874  013950  EFAC  F09C         	goto	u5570
  1875  013954                     u5571:
  1876  013954  EFB3  F09C         	goto	l955
  1877  013958                     u5570:
  1878                           	line	581
  1879                           ;main.c: 581: LATA = 0b11111111;
  1880  013958  6889               	setf	((c:3977)),c	;volatile
  1881                           	line	583
  1882                           ;main.c: 583: LATB = 0b10000100;
  1883  01395A  0E84               	movlw	low(084h)
  1884  01395C  6E8A               	movwf	((c:3978)),c	;volatile
  1885                           	line	585
  1886                           ;main.c: 585: LATC = 0b00001101;
  1887  01395E  0E0D               	movlw	low(0Dh)
  1888  013960  6E8B               	movwf	((c:3979)),c	;volatile
  1889                           	line	587
  1890                           ;main.c: 587: } else if (led_array[2] == 1 && le
                                 d_array[10] == 1) {
  1891  013962  EFFF  F09F         	goto	l894
  1892                           	
  1893  013966                     l955:		; BSR set to: ?
  1894                           
  1895  013966  0404               	decf	(0+((c:0)+04h)),c,w
  1896  013968  1005               	iorwf (1+((c:0)+04h)),c,w
  1897                           
  1898  01396A  A4D8               	btfss	status,2
  1899  01396C  EFBA  F09C         	goto	u5581
  1900  013970  EFBC  F09C         	goto	u5580
  1901  013974                     u5581:
  1902  013974  EFCC  F09C         	goto	l957
  1903  013978                     u5580:
  1904  013978  0414               	decf	(0+((c:0)+014h)),c,w
  1905  01397A  1015               	iorwf (1+((c:0)+014h)),c,w
  1906                           
  1907  01397C  A4D8               	btfss	status,2
  1908  01397E  EFC3  F09C         	goto	u5591
  1909  013982  EFC5  F09C         	goto	u5590
  1910  013986                     u5591:
  1911  013986  EFCC  F09C         	goto	l957
  1912  01398A                     u5590:
  1913                           	line	590
  1914                           ;main.c: 590: LATA = 0b11111111;
  1915  01398A  6889               	setf	((c:3977)),c	;volatile
  1916                           	line	592
  1917                           ;main.c: 592: LATB = 0b00000100;
  1918  01398C  0E04               	movlw	low(04h)
  1919  01398E  6E8A               	movwf	((c:3978)),c	;volatile
  1920                           	line	594
  1921                           ;main.c: 594: LATC = 0b00001111;
  1922  013990  0E0F               	movlw	low(0Fh)
  1923  013992  6E8B               	movwf	((c:3979)),c	;volatile
  1924                           	line	596
  1925                           ;main.c: 596: } else if (led_array[2] == 1 && le
                                 d_array[11] == 1) {
  1926  013994  EFFF  F09F         	goto	l894
  1927                           	
  1928  013998                     l957:		; BSR set to: ?
  1929                           
  1930  013998  0404               	decf	(0+((c:0)+04h)),c,w
  1931  01399A  1005               	iorwf (1+((c:0)+04h)),c,w
  1932                           
  1933  01399C  A4D8               	btfss	status,2
  1934  01399E  EFD3  F09C         	goto	u5601
  1935  0139A2  EFD5  F09C         	goto	u5600
  1936  0139A6                     u5601:
  1937  0139A6  EFE5  F09C         	goto	l959
  1938  0139AA                     u5600:
  1939  0139AA  0416               	decf	(0+((c:0)+016h)),c,w
  1940  0139AC  1017               	iorwf (1+((c:0)+016h)),c,w
  1941                           
  1942  0139AE  A4D8               	btfss	status,2
  1943  0139B0  EFDC  F09C         	goto	u5611
  1944  0139B4  EFDE  F09C         	goto	u5610
  1945  0139B8                     u5611:
  1946  0139B8  EFE5  F09C         	goto	l959
  1947  0139BC                     u5610:
  1948                           	line	599
  1949                           ;main.c: 599: LATA = 0b11111111;
  1950  0139BC  6889               	setf	((c:3977)),c	;volatile
  1951                           	line	601
  1952                           ;main.c: 601: LATB = 0b10000100;
  1953  0139BE  0E84               	movlw	low(084h)
  1954  0139C0  6E8A               	movwf	((c:3978)),c	;volatile
  1955                           	line	603
  1956                           ;main.c: 603: LATC = 0b00001011;
  1957  0139C2  0E0B               	movlw	low(0Bh)
  1958  0139C4  6E8B               	movwf	((c:3979)),c	;volatile
  1959                           	line	605
  1960                           ;main.c: 605: } else if (led_array[2] == 1 && le
                                 d_array[12] == 1) {
  1961  0139C6  EFFF  F09F         	goto	l894
  1962                           	
  1963  0139CA                     l959:		; BSR set to: ?
  1964                           
  1965  0139CA  0404               	decf	(0+((c:0)+04h)),c,w
  1966  0139CC  1005               	iorwf (1+((c:0)+04h)),c,w
  1967                           
  1968  0139CE  A4D8               	btfss	status,2
  1969  0139D0  EFEC  F09C         	goto	u5621
  1970  0139D4  EFEE  F09C         	goto	u5620
  1971  0139D8                     u5621:
  1972  0139D8  EFFE  F09C         	goto	l961
  1973  0139DC                     u5620:
  1974  0139DC  0418               	decf	(0+((c:0)+018h)),c,w
  1975  0139DE  1019               	iorwf (1+((c:0)+018h)),c,w
  1976                           
  1977  0139E0  A4D8               	btfss	status,2
  1978  0139E2  EFF5  F09C         	goto	u5631
  1979  0139E6  EFF7  F09C         	goto	u5630
  1980  0139EA                     u5631:
  1981  0139EA  EFFE  F09C         	goto	l961
  1982  0139EE                     u5630:
  1983                           	line	608
  1984                           ;main.c: 608: LATA = 0b11111111;
  1985  0139EE  6889               	setf	((c:3977)),c	;volatile
  1986                           	line	610
  1987                           ;main.c: 610: LATB = 0b10000100;
  1988  0139F0  0E84               	movlw	low(084h)
  1989  0139F2  6E8A               	movwf	((c:3978)),c	;volatile
  1990                           	line	612
  1991                           ;main.c: 612: LATC = 0b00000111;
  1992  0139F4  0E07               	movlw	low(07h)
  1993  0139F6  6E8B               	movwf	((c:3979)),c	;volatile
  1994                           	line	614
  1995                           ;main.c: 614: } else if (led_array[3] == 1 && le
                                 d_array[6] == 1) {
  1996  0139F8  EFFF  F09F         	goto	l894
  1997                           	
  1998  0139FC                     l961:		; BSR set to: ?
  1999                           
  2000  0139FC  0406               	decf	(0+((c:0)+06h)),c,w
  2001  0139FE  1007               	iorwf (1+((c:0)+06h)),c,w
  2002                           
  2003  013A00  A4D8               	btfss	status,2
  2004  013A02  EF05  F09D         	goto	u5641
  2005  013A06  EF07  F09D         	goto	u5640
  2006  013A0A                     u5641:
  2007  013A0A  EF18  F09D         	goto	l963
  2008  013A0E                     u5640:
  2009  013A0E  040C               	decf	(0+((c:0)+0Ch)),c,w
  2010  013A10  100D               	iorwf (1+((c:0)+0Ch)),c,w
  2011                           
  2012  013A12  A4D8               	btfss	status,2
  2013  013A14  EF0E  F09D         	goto	u5651
  2014  013A18  EF10  F09D         	goto	u5650
  2015  013A1C                     u5651:
  2016  013A1C  EF18  F09D         	goto	l963
  2017  013A20                     u5650:
  2018                           	line	617
  2019                           ;main.c: 617: LATA = 0b11101111;
  2020  013A20  0EEF               	movlw	low(0EFh)
  2021  013A22  6E89               	movwf	((c:3977)),c	;volatile
  2022                           	line	619
  2023                           ;main.c: 619: LATB = 0b10001000;
  2024  013A24  0E88               	movlw	low(088h)
  2025  013A26  6E8A               	movwf	((c:3978)),c	;volatile
  2026                           	line	621
  2027                           ;main.c: 621: LATC = 0b00001111;
  2028  013A28  0E0F               	movlw	low(0Fh)
  2029  013A2A  6E8B               	movwf	((c:3979)),c	;volatile
  2030                           	line	623
  2031                           ;main.c: 623: } else if (led_array[3] == 1 && le
                                 d_array[7] == 1) {
  2032  013A2C  EFFF  F09F         	goto	l894
  2033                           	
  2034  013A30                     l963:		; BSR set to: ?
  2035                           
  2036  013A30  0406               	decf	(0+((c:0)+06h)),c,w
  2037  013A32  1007               	iorwf (1+((c:0)+06h)),c,w
  2038                           
  2039  013A34  A4D8               	btfss	status,2
  2040  013A36  EF1F  F09D         	goto	u5661
  2041  013A3A  EF21  F09D         	goto	u5660
  2042  013A3E                     u5661:
  2043  013A3E  EF32  F09D         	goto	l965
  2044  013A42                     u5660:
  2045  013A42  040E               	decf	(0+((c:0)+0Eh)),c,w
  2046  013A44  100F               	iorwf (1+((c:0)+0Eh)),c,w
  2047                           
  2048  013A46  A4D8               	btfss	status,2
  2049  013A48  EF28  F09D         	goto	u5671
  2050  013A4C  EF2A  F09D         	goto	u5670
  2051  013A50                     u5671:
  2052  013A50  EF32  F09D         	goto	l965
  2053  013A54                     u5670:
  2054                           	line	626
  2055                           ;main.c: 626: LATA = 0b10111111;
  2056  013A54  0EBF               	movlw	low(0BFh)
  2057  013A56  6E89               	movwf	((c:3977)),c	;volatile
  2058                           	line	628
  2059                           ;main.c: 628: LATB = 0b10001000;
  2060  013A58  0E88               	movlw	low(088h)
  2061  013A5A  6E8A               	movwf	((c:3978)),c	;volatile
  2062                           	line	630
  2063                           ;main.c: 630: LATC = 0b00001111;
  2064  013A5C  0E0F               	movlw	low(0Fh)
  2065  013A5E  6E8B               	movwf	((c:3979)),c	;volatile
  2066                           	line	632
  2067                           ;main.c: 632: } else if (led_array[3] == 1 && le
                                 d_array[8] == 1) {
  2068  013A60  EFFF  F09F         	goto	l894
  2069                           	
  2070  013A64                     l965:		; BSR set to: ?
  2071                           
  2072  013A64  0406               	decf	(0+((c:0)+06h)),c,w
  2073  013A66  1007               	iorwf (1+((c:0)+06h)),c,w
  2074                           
  2075  013A68  A4D8               	btfss	status,2
  2076  013A6A  EF39  F09D         	goto	u5681
  2077  013A6E  EF3B  F09D         	goto	u5680
  2078  013A72                     u5681:
  2079  013A72  EF4B  F09D         	goto	l967
  2080  013A76                     u5680:
  2081  013A76  0410               	decf	(0+((c:0)+010h)),c,w
  2082  013A78  1011               	iorwf (1+((c:0)+010h)),c,w
  2083                           
  2084  013A7A  A4D8               	btfss	status,2
  2085  013A7C  EF42  F09D         	goto	u5691
  2086  013A80  EF44  F09D         	goto	u5690
  2087  013A84                     u5691:
  2088  013A84  EF4B  F09D         	goto	l967
  2089  013A88                     u5690:
  2090                           	line	635
  2091                           ;main.c: 635: LATA = 0b11111111;
  2092  013A88  6889               	setf	((c:3977)),c	;volatile
  2093                           	line	637
  2094                           ;main.c: 637: LATB = 0b10001000;
  2095  013A8A  0E88               	movlw	low(088h)
  2096  013A8C  6E8A               	movwf	((c:3978)),c	;volatile
  2097                           	line	639
  2098                           ;main.c: 639: LATC = 0b00001110;
  2099  013A8E  0E0E               	movlw	low(0Eh)
  2100  013A90  6E8B               	movwf	((c:3979)),c	;volatile
  2101                           	line	641
  2102                           ;main.c: 641: } else if (led_array[3] == 1 && le
                                 d_array[9] == 1) {
  2103  013A92  EFFF  F09F         	goto	l894
  2104                           	
  2105  013A96                     l967:		; BSR set to: ?
  2106                           
  2107  013A96  0406               	decf	(0+((c:0)+06h)),c,w
  2108  013A98  1007               	iorwf (1+((c:0)+06h)),c,w
  2109                           
  2110  013A9A  A4D8               	btfss	status,2
  2111  013A9C  EF52  F09D         	goto	u5701
  2112  013AA0  EF54  F09D         	goto	u5700
  2113  013AA4                     u5701:
  2114  013AA4  EF64  F09D         	goto	l969
  2115  013AA8                     u5700:
  2116  013AA8  0412               	decf	(0+((c:0)+012h)),c,w
  2117  013AAA  1013               	iorwf (1+((c:0)+012h)),c,w
  2118                           
  2119  013AAC  A4D8               	btfss	status,2
  2120  013AAE  EF5B  F09D         	goto	u5711
  2121  013AB2  EF5D  F09D         	goto	u5710
  2122  013AB6                     u5711:
  2123  013AB6  EF64  F09D         	goto	l969
  2124  013ABA                     u5710:
  2125                           	line	644
  2126                           ;main.c: 644: LATA = 0b11111111;
  2127  013ABA  6889               	setf	((c:3977)),c	;volatile
  2128                           	line	646
  2129                           ;main.c: 646: LATB = 0b10001000;
  2130  013ABC  0E88               	movlw	low(088h)
  2131  013ABE  6E8A               	movwf	((c:3978)),c	;volatile
  2132                           	line	648
  2133                           ;main.c: 648: LATC = 0b00001101;
  2134  013AC0  0E0D               	movlw	low(0Dh)
  2135  013AC2  6E8B               	movwf	((c:3979)),c	;volatile
  2136                           	line	650
  2137                           ;main.c: 650: } else if (led_array[3] == 1 && le
                                 d_array[10] == 1) {
  2138  013AC4  EFFF  F09F         	goto	l894
  2139                           	
  2140  013AC8                     l969:		; BSR set to: ?
  2141                           
  2142  013AC8  0406               	decf	(0+((c:0)+06h)),c,w
  2143  013ACA  1007               	iorwf (1+((c:0)+06h)),c,w
  2144                           
  2145  013ACC  A4D8               	btfss	status,2
  2146  013ACE  EF6B  F09D         	goto	u5721
  2147  013AD2  EF6D  F09D         	goto	u5720
  2148  013AD6                     u5721:
  2149  013AD6  EF7D  F09D         	goto	l971
  2150  013ADA                     u5720:
  2151  013ADA  0414               	decf	(0+((c:0)+014h)),c,w
  2152  013ADC  1015               	iorwf (1+((c:0)+014h)),c,w
  2153                           
  2154  013ADE  A4D8               	btfss	status,2
  2155  013AE0  EF74  F09D         	goto	u5731
  2156  013AE4  EF76  F09D         	goto	u5730
  2157  013AE8                     u5731:
  2158  013AE8  EF7D  F09D         	goto	l971
  2159  013AEC                     u5730:
  2160                           	line	653
  2161                           ;main.c: 653: LATA = 0b11111111;
  2162  013AEC  6889               	setf	((c:3977)),c	;volatile
  2163                           	line	655
  2164                           ;main.c: 655: LATB = 0b00001000;
  2165  013AEE  0E08               	movlw	low(08h)
  2166  013AF0  6E8A               	movwf	((c:3978)),c	;volatile
  2167                           	line	657
  2168                           ;main.c: 657: LATC = 0b00001111;
  2169  013AF2  0E0F               	movlw	low(0Fh)
  2170  013AF4  6E8B               	movwf	((c:3979)),c	;volatile
  2171                           	line	659
  2172                           ;main.c: 659: } else if (led_array[3] == 1 && le
                                 d_array[11] == 1) {
  2173  013AF6  EFFF  F09F         	goto	l894
  2174                           	
  2175  013AFA                     l971:		; BSR set to: ?
  2176                           
  2177  013AFA  0406               	decf	(0+((c:0)+06h)),c,w
  2178  013AFC  1007               	iorwf (1+((c:0)+06h)),c,w
  2179                           
  2180  013AFE  A4D8               	btfss	status,2
  2181  013B00  EF84  F09D         	goto	u5741
  2182  013B04  EF86  F09D         	goto	u5740
  2183  013B08                     u5741:
  2184  013B08  EF96  F09D         	goto	l973
  2185  013B0C                     u5740:
  2186  013B0C  0416               	decf	(0+((c:0)+016h)),c,w
  2187  013B0E  1017               	iorwf (1+((c:0)+016h)),c,w
  2188                           
  2189  013B10  A4D8               	btfss	status,2
  2190  013B12  EF8D  F09D         	goto	u5751
  2191  013B16  EF8F  F09D         	goto	u5750
  2192  013B1A                     u5751:
  2193  013B1A  EF96  F09D         	goto	l973
  2194  013B1E                     u5750:
  2195                           	line	662
  2196                           ;main.c: 662: LATA = 0b11111111;
  2197  013B1E  6889               	setf	((c:3977)),c	;volatile
  2198                           	line	664
  2199                           ;main.c: 664: LATB = 0b10001000;
  2200  013B20  0E88               	movlw	low(088h)
  2201  013B22  6E8A               	movwf	((c:3978)),c	;volatile
  2202                           	line	666
  2203                           ;main.c: 666: LATC = 0b00001011;
  2204  013B24  0E0B               	movlw	low(0Bh)
  2205  013B26  6E8B               	movwf	((c:3979)),c	;volatile
  2206                           	line	668
  2207                           ;main.c: 668: } else if (led_array[3] == 1 && le
                                 d_array[12] == 1) {
  2208  013B28  EFFF  F09F         	goto	l894
  2209                           	
  2210  013B2C                     l973:		; BSR set to: ?
  2211                           
  2212  013B2C  0406               	decf	(0+((c:0)+06h)),c,w
  2213  013B2E  1007               	iorwf (1+((c:0)+06h)),c,w
  2214                           
  2215  013B30  A4D8               	btfss	status,2
  2216  013B32  EF9D  F09D         	goto	u5761
  2217  013B36  EF9F  F09D         	goto	u5760
  2218  013B3A                     u5761:
  2219  013B3A  EFAF  F09D         	goto	l975
  2220  013B3E                     u5760:
  2221  013B3E  0418               	decf	(0+((c:0)+018h)),c,w
  2222  013B40  1019               	iorwf (1+((c:0)+018h)),c,w
  2223                           
  2224  013B42  A4D8               	btfss	status,2
  2225  013B44  EFA6  F09D         	goto	u5771
  2226  013B48  EFA8  F09D         	goto	u5770
  2227  013B4C                     u5771:
  2228  013B4C  EFAF  F09D         	goto	l975
  2229  013B50                     u5770:
  2230                           	line	671
  2231                           ;main.c: 671: LATA = 0b11111111;
  2232  013B50  6889               	setf	((c:3977)),c	;volatile
  2233                           	line	673
  2234                           ;main.c: 673: LATB = 0b10001000;
  2235  013B52  0E88               	movlw	low(088h)
  2236  013B54  6E8A               	movwf	((c:3978)),c	;volatile
  2237                           	line	675
  2238                           ;main.c: 675: LATC = 0b00000111;
  2239  013B56  0E07               	movlw	low(07h)
  2240  013B58  6E8B               	movwf	((c:3979)),c	;volatile
  2241                           	line	676
  2242                           ;main.c: 676: }
  2243  013B5A  EFFF  F09F         	goto	l894
  2244                           	line	679
  2245                           	
  2246  013B5E                     l975:		; BSR set to: ?
  2247                           
  2248                           ;main.c: 679: else if (led_array[0] == 1 && led_
                                 array[1] == 1 && led_array[6] == 1) {
  2249  013B5E  0400               	decf	((c:0)),c,w
  2250  013B60  1001               	iorwf ((c:0+1)),c,w
  2251                           
  2252  013B62  A4D8               	btfss	status,2
  2253  013B64  EFB6  F09D         	goto	u5781
  2254  013B68  EFB8  F09D         	goto	u5780
  2255  013B6C                     u5781:
  2256  013B6C  EFD2  F09D         	goto	l977
  2257  013B70                     u5780:
  2258  013B70  0402               	decf	(0+((c:0)+02h)),c,w
  2259  013B72  1003               	iorwf (1+((c:0)+02h)),c,w
  2260                           
  2261  013B74  A4D8               	btfss	status,2
  2262  013B76  EFBF  F09D         	goto	u5791
  2263  013B7A  EFC1  F09D         	goto	u5790
  2264  013B7E                     u5791:
  2265  013B7E  EFD2  F09D         	goto	l977
  2266  013B82                     u5790:
  2267  013B82  040C               	decf	(0+((c:0)+0Ch)),c,w
  2268  013B84  100D               	iorwf (1+((c:0)+0Ch)),c,w
  2269                           
  2270  013B86  A4D8               	btfss	status,2
  2271  013B88  EFC8  F09D         	goto	u5801
  2272  013B8C  EFCA  F09D         	goto	u5800
  2273  013B90                     u5801:
  2274  013B90  EFD2  F09D         	goto	l977
  2275  013B94                     u5800:
  2276                           	line	682
  2277                           ;main.c: 682: LATA = 0b11101111;
  2278  013B94  0EEF               	movlw	low(0EFh)
  2279  013B96  6E89               	movwf	((c:3977)),c	;volatile
  2280                           	line	684
  2281                           ;main.c: 684: LATB = 0b10000000;
  2282  013B98  0E80               	movlw	low(080h)
  2283  013B9A  6E8A               	movwf	((c:3978)),c	;volatile
  2284                           	line	686
  2285                           ;main.c: 686: LATC = 0b00111111;
  2286  013B9C  0E3F               	movlw	low(03Fh)
  2287  013B9E  6E8B               	movwf	((c:3979)),c	;volatile
  2288                           	line	688
  2289                           ;main.c: 688: } else if (led_array[0] == 1 && le
                                 d_array[1] == 1 && led_array[7] == 1) {
  2290  013BA0  EFFF  F09F         	goto	l894
  2291                           	
  2292  013BA4                     l977:		; BSR set to: ?
  2293                           
  2294  013BA4  0400               	decf	((c:0)),c,w
  2295  013BA6  1001               	iorwf ((c:0+1)),c,w
  2296                           
  2297  013BA8  A4D8               	btfss	status,2
  2298  013BAA  EFD9  F09D         	goto	u5811
  2299  013BAE  EFDB  F09D         	goto	u5810
  2300  013BB2                     u5811:
  2301  013BB2  EFF5  F09D         	goto	l979
  2302  013BB6                     u5810:
  2303  013BB6  0402               	decf	(0+((c:0)+02h)),c,w
  2304  013BB8  1003               	iorwf (1+((c:0)+02h)),c,w
  2305                           
  2306  013BBA  A4D8               	btfss	status,2
  2307  013BBC  EFE2  F09D         	goto	u5821
  2308  013BC0  EFE4  F09D         	goto	u5820
  2309  013BC4                     u5821:
  2310  013BC4  EFF5  F09D         	goto	l979
  2311  013BC8                     u5820:
  2312  013BC8  040E               	decf	(0+((c:0)+0Eh)),c,w
  2313  013BCA  100F               	iorwf (1+((c:0)+0Eh)),c,w
  2314                           
  2315  013BCC  A4D8               	btfss	status,2
  2316  013BCE  EFEB  F09D         	goto	u5831
  2317  013BD2  EFED  F09D         	goto	u5830
  2318  013BD6                     u5831:
  2319  013BD6  EFF5  F09D         	goto	l979
  2320  013BDA                     u5830:
  2321                           	line	691
  2322                           ;main.c: 691: LATA = 0b10111111;
  2323  013BDA  0EBF               	movlw	low(0BFh)
  2324  013BDC  6E89               	movwf	((c:3977)),c	;volatile
  2325                           	line	693
  2326                           ;main.c: 693: LATB = 0b10000000;
  2327  013BDE  0E80               	movlw	low(080h)
  2328  013BE0  6E8A               	movwf	((c:3978)),c	;volatile
  2329                           	line	695
  2330                           ;main.c: 695: LATC = 0b00111111;
  2331  013BE2  0E3F               	movlw	low(03Fh)
  2332  013BE4  6E8B               	movwf	((c:3979)),c	;volatile
  2333                           	line	697
  2334                           ;main.c: 697: } else if (led_array[0] == 1 && le
                                 d_array[1] == 1 && led_array[8] == 1) {
  2335  013BE6  EFFF  F09F         	goto	l894
  2336                           	
  2337  013BEA                     l979:		; BSR set to: ?
  2338                           
  2339  013BEA  0400               	decf	((c:0)),c,w
  2340  013BEC  1001               	iorwf ((c:0+1)),c,w
  2341                           
  2342  013BEE  A4D8               	btfss	status,2
  2343  013BF0  EFFC  F09D         	goto	u5841
  2344  013BF4  EFFE  F09D         	goto	u5840
  2345  013BF8                     u5841:
  2346  013BF8  EF17  F09E         	goto	l981
  2347  013BFC                     u5840:
  2348  013BFC  0402               	decf	(0+((c:0)+02h)),c,w
  2349  013BFE  1003               	iorwf (1+((c:0)+02h)),c,w
  2350                           
  2351  013C00  A4D8               	btfss	status,2
  2352  013C02  EF05  F09E         	goto	u5851
  2353  013C06  EF07  F09E         	goto	u5850
  2354  013C0A                     u5851:
  2355  013C0A  EF17  F09E         	goto	l981
  2356  013C0E                     u5850:
  2357  013C0E  0410               	decf	(0+((c:0)+010h)),c,w
  2358  013C10  1011               	iorwf (1+((c:0)+010h)),c,w
  2359                           
  2360  013C12  A4D8               	btfss	status,2
  2361  013C14  EF0E  F09E         	goto	u5861
  2362  013C18  EF10  F09E         	goto	u5860
  2363  013C1C                     u5861:
  2364  013C1C  EF17  F09E         	goto	l981
  2365  013C20                     u5860:
  2366                           	line	700
  2367                           ;main.c: 700: LATA = 0b11111111;
  2368  013C20  6889               	setf	((c:3977)),c	;volatile
  2369                           	line	702
  2370                           ;main.c: 702: LATB = 0b10000000;
  2371  013C22  0E80               	movlw	low(080h)
  2372  013C24  6E8A               	movwf	((c:3978)),c	;volatile
  2373                           	line	704
  2374                           ;main.c: 704: LATC = 0b00111110;
  2375  013C26  0E3E               	movlw	low(03Eh)
  2376  013C28  6E8B               	movwf	((c:3979)),c	;volatile
  2377                           	line	706
  2378                           ;main.c: 706: } else if (led_array[0] == 1 && le
                                 d_array[1] == 1 && led_array[9] == 1) {
  2379  013C2A  EFFF  F09F         	goto	l894
  2380                           	
  2381  013C2E                     l981:		; BSR set to: ?
  2382                           
  2383  013C2E  0400               	decf	((c:0)),c,w
  2384  013C30  1001               	iorwf ((c:0+1)),c,w
  2385                           
  2386  013C32  A4D8               	btfss	status,2
  2387  013C34  EF1E  F09E         	goto	u5871
  2388  013C38  EF20  F09E         	goto	u5870
  2389  013C3C                     u5871:
  2390  013C3C  EF39  F09E         	goto	l983
  2391  013C40                     u5870:
  2392  013C40  0402               	decf	(0+((c:0)+02h)),c,w
  2393  013C42  1003               	iorwf (1+((c:0)+02h)),c,w
  2394                           
  2395  013C44  A4D8               	btfss	status,2
  2396  013C46  EF27  F09E         	goto	u5881
  2397  013C4A  EF29  F09E         	goto	u5880
  2398  013C4E                     u5881:
  2399  013C4E  EF39  F09E         	goto	l983
  2400  013C52                     u5880:
  2401  013C52  0412               	decf	(0+((c:0)+012h)),c,w
  2402  013C54  1013               	iorwf (1+((c:0)+012h)),c,w
  2403                           
  2404  013C56  A4D8               	btfss	status,2
  2405  013C58  EF30  F09E         	goto	u5891
  2406  013C5C  EF32  F09E         	goto	u5890
  2407  013C60                     u5891:
  2408  013C60  EF39  F09E         	goto	l983
  2409  013C64                     u5890:
  2410                           	line	709
  2411                           ;main.c: 709: LATA = 0b11111111;
  2412  013C64  6889               	setf	((c:3977)),c	;volatile
  2413                           	line	711
  2414                           ;main.c: 711: LATB = 0b10000000;
  2415  013C66  0E80               	movlw	low(080h)
  2416  013C68  6E8A               	movwf	((c:3978)),c	;volatile
  2417                           	line	713
  2418                           ;main.c: 713: LATC = 0b00111101;
  2419  013C6A  0E3D               	movlw	low(03Dh)
  2420  013C6C  6E8B               	movwf	((c:3979)),c	;volatile
  2421                           	line	714
  2422                           ;main.c: 714: } else if (led_array[0] == 1 && le
                                 d_array[1] == 1 && led_array[10] == 1) {
  2423  013C6E  EFFF  F09F         	goto	l894
  2424                           	
  2425  013C72                     l983:		; BSR set to: ?
  2426                           
  2427  013C72  0400               	decf	((c:0)),c,w
  2428  013C74  1001               	iorwf ((c:0+1)),c,w
  2429                           
  2430  013C76  A4D8               	btfss	status,2
  2431  013C78  EF40  F09E         	goto	u5901
  2432  013C7C  EF42  F09E         	goto	u5900
  2433  013C80                     u5901:
  2434  013C80  EF5B  F09E         	goto	l985
  2435  013C84                     u5900:
  2436  013C84  0402               	decf	(0+((c:0)+02h)),c,w
  2437  013C86  1003               	iorwf (1+((c:0)+02h)),c,w
  2438                           
  2439  013C88  A4D8               	btfss	status,2
  2440  013C8A  EF49  F09E         	goto	u5911
  2441  013C8E  EF4B  F09E         	goto	u5910
  2442  013C92                     u5911:
  2443  013C92  EF5B  F09E         	goto	l985
  2444  013C96                     u5910:
  2445  013C96  0414               	decf	(0+((c:0)+014h)),c,w
  2446  013C98  1015               	iorwf (1+((c:0)+014h)),c,w
  2447                           
  2448  013C9A  A4D8               	btfss	status,2
  2449  013C9C  EF52  F09E         	goto	u5921
  2450  013CA0  EF54  F09E         	goto	u5920
  2451  013CA4                     u5921:
  2452  013CA4  EF5B  F09E         	goto	l985
  2453  013CA8                     u5920:
  2454                           	line	717
  2455                           ;main.c: 717: LATA = 0b11111111;
  2456  013CA8  6889               	setf	((c:3977)),c	;volatile
  2457                           	line	719
  2458                           ;main.c: 719: LATB = 0b00000000;
  2459  013CAA  0E00               	movlw	low(0)
  2460  013CAC  6E8A               	movwf	((c:3978)),c	;volatile
  2461                           	line	721
  2462                           ;main.c: 721: LATC = 0b00111111;
  2463  013CAE  0E3F               	movlw	low(03Fh)
  2464  013CB0  6E8B               	movwf	((c:3979)),c	;volatile
  2465                           	line	722
  2466                           ;main.c: 722: } else if (led_array[0] == 1 && le
                                 d_array[1] == 1 && led_array[11] == 1) {
  2467  013CB2  EFFF  F09F         	goto	l894
  2468                           	
  2469  013CB6                     l985:		; BSR set to: ?
  2470                           
  2471  013CB6  0400               	decf	((c:0)),c,w
  2472  013CB8  1001               	iorwf ((c:0+1)),c,w
  2473                           
  2474  013CBA  A4D8               	btfss	status,2
  2475  013CBC  EF62  F09E         	goto	u5931
  2476  013CC0  EF64  F09E         	goto	u5930
  2477  013CC4                     u5931:
  2478  013CC4  EF7D  F09E         	goto	l987
  2479  013CC8                     u5930:
  2480  013CC8  0402               	decf	(0+((c:0)+02h)),c,w
  2481  013CCA  1003               	iorwf (1+((c:0)+02h)),c,w
  2482                           
  2483  013CCC  A4D8               	btfss	status,2
  2484  013CCE  EF6B  F09E         	goto	u5941
  2485  013CD2  EF6D  F09E         	goto	u5940
  2486  013CD6                     u5941:
  2487  013CD6  EF7D  F09E         	goto	l987
  2488  013CDA                     u5940:
  2489  013CDA  0416               	decf	(0+((c:0)+016h)),c,w
  2490+ 013CDC  1017               	iorwf (1+((c:0)+016h)),c,w
  2491+                          
  2492+ 013CDE  A4D8               	btfss	status,2
  2493+ 013CE0  EF74  F09E         	goto	u5951
  2494+ 013CE4  EF76  F09E         	goto	u5950
  2495+ 013CE8                     u5951:
  2496+ 013CE8  EF7D  F09E         	goto	l987
  2497+ 013CEC                     u5950:
  2498+                          	line	725
  2499+                          ;main.c: 725: LATA = 0b11111111;
  2500+ 013CEC  6889               	setf	((c:3977)),c	;volatile
  2501+                          	line	727
  2502+                          ;main.c: 727: LATB = 0b10000000;
  2503+ 013CEE  0E80               	movlw	low(080h)
  2504+ 013CF0  6E8A               	movwf	((c:3978)),c	;volatile
  2505+                          	line	729
  2506+                          ;main.c: 729: LATC = 0b00111011;
  2507+ 013CF2  0E3B               	movlw	low(03Bh)
  2508+ 013CF4  6E8B               	movwf	((c:3979)),c	;volatile
  2509+                          	line	730
  2510+                          ;main.c: 730: } else if (led_array[0] == 1 && le
      +                          d_array[1] == 1 && led_array[12] == 1) {
  2511+ 013CF6  EFFF  F09F         	goto	l894
  2512+                          	
  2513+ 013CFA                     l987:		; BSR set to: ?
  2514+                          
  2515+ 013CFA  0400               	decf	((c:0)),c,w
  2516+ 013CFC  1001               	iorwf ((c:0+1)),c,w
  2517+                          
  2518+ 013CFE  A4D8               	btfss	status,2
  2519+ 013D00  EF84  F09E         	goto	u5961
  2520+ 013D04  EF86  F09E         	goto	u5960
  2521+ 013D08                     u5961:
  2522+ 013D08  EF9F  F09E         	goto	l989
  2523+ 013D0C                     u5960:
  2524+ 013D0C  0402               	decf	(0+((c:0)+02h)),c,w
  2525+ 013D0E  1003               	iorwf (1+((c:0)+02h)),c,w
  2526+                          
  2527+ 013D10  A4D8               	btfss	status,2
  2528+ 013D12  EF8D  F09E         	goto	u5971
  2529+ 013D16  EF8F  F09E         	goto	u5970
  2530+ 013D1A                     u5971:
  2531+ 013D1A  EF9F  F09E         	goto	l989
  2532+ 013D1E                     u5970:
  2533+ 013D1E  0418               	decf	(0+((c:0)+018h)),c,w
  2534+ 013D20  1019               	iorwf (1+((c:0)+018h)),c,w
  2535+                          
  2536+ 013D22  A4D8               	btfss	status,2
  2537+ 013D24  EF96  F09E         	goto	u5981
  2538+ 013D28  EF98  F09E         	goto	u5980
  2539+ 013D2C                     u5981:
  2540+ 013D2C  EF9F  F09E         	goto	l989
  2541+ 013D30                     u5980:
  2542+                          	line	733
  2543+                          ;main.c: 733: LATA = 0b11111111;
  2544+ 013D30  6889               	setf	((c:3977)),c	;volatile
  2545+                          	line	735
  2546+                          ;main.c: 735: LATB = 0b10000000;
  2547+ 013D32  0E80               	movlw	low(080h)
  2548+ 013D34  6E8A               	movwf	((c:3978)),c	;volatile
  2549+                          	line	737
  2550+                          ;main.c: 737: LATC = 0b00110111;
  2551+ 013D36  0E37               	movlw	low(037h)
  2552+ 013D38  6E8B               	movwf	((c:3979)),c	;volatile
  2553+                          	line	739
  2554+                          ;main.c: 739: } else if (led_array[0] == 1 && le
      +                          d_array[6] == 1) {
  2555+ 013D3A  EFFF  F09F         	goto	l894
  2556+                          	
  2557+ 013D3E                     l989:		; BSR set to: ?
  2558+                          
  2559+ 013D3E  0400               	decf	((c:0)),c,w
  2560+ 013D40  1001               	iorwf ((c:0+1)),c,w
  2561+                          
  2562+ 013D42  A4D8               	btfss	status,2
  2563+ 013D44  EFA6  F09E         	goto	u5991
  2564+ 013D48  EFA8  F09E         	goto	u5990
  2565+ 013D4C                     u5991:
  2566+ 013D4C  EFB9  F09E         	goto	l991
  2567+ 013D50                     u5990:
  2568+ 013D50  040C               	decf	(0+((c:0)+0Ch)),c,w
  2569+ 013D52  100D               	iorwf (1+((c:0)+0Ch)),c,w
  2570+                          
  2571+ 013D54  A4D8               	btfss	status,2
  2572+ 013D56  EFAF  F09E         	goto	u6001
  2573+ 013D5A  EFB1  F09E         	goto	u6000
  2574+ 013D5E                     u6001:
  2575+ 013D5E  EFB9  F09E         	goto	l991
  2576+ 013D62                     u6000:
  2577+                          	line	742
  2578+                          ;main.c: 742: LATA = 0b11101111;
  2579+ 013D62  0EEF               	movlw	low(0EFh)
  2580+ 013D64  6E89               	movwf	((c:3977)),c	;volatile
  2581+                          	line	744
  2582+                          ;main.c: 744: LATB = 0b10000000;
  2583+ 013D66  0E80               	movlw	low(080h)
  2584+ 013D68  6E8A               	movwf	((c:3978)),c	;volatile
  2585+                          	line	746
  2586+                          ;main.c: 746: LATC = 0b00011111;
  2587+ 013D6A  0E1F               	movlw	low(01Fh)
  2588+ 013D6C  6E8B               	movwf	((c:3979)),c	;volatile
  2589+                          	line	748
  2590+                          ;main.c: 748: } else if (led_array[0] == 1 && le
      +                          d_array[7] == 1) {
  2591+ 013D6E  EFFF  F09F         	goto	l894
  2592+                          	
  2593+ 013D72                     l991:		; BSR set to: ?
  2594+                          
  2595+ 013D72  0400               	decf	((c:0)),c,w
  2596+ 013D74  1001               	iorwf ((c:0+1)),c,w
  2597+                          
  2598+ 013D76  A4D8               	btfss	status,2
  2599+ 013D78  EFC0  F09E         	goto	u6011
  2600+ 013D7C  EFC2  F09E         	goto	u6010
  2601+ 013D80                     u6011:
  2602+ 013D80  EFD3  F09E         	goto	l993
  2603+ 013D84                     u6010:
  2604+ 013D84  040E               	decf	(0+((c:0)+0Eh)),c,w
  2605+ 013D86  100F               	iorwf (1+((c:0)+0Eh)),c,w
  2606+                          
  2607+ 013D88  A4D8               	btfss	status,2
  2608+ 013D8A  EFC9  F09E         	goto	u6021
  2609+ 013D8E  EFCB  F09E         	goto	u6020
  2610+ 013D92                     u6021:
  2611+ 013D92  EFD3  F09E         	goto	l993
  2612+ 013D96                     u6020:
  2613+                          	line	751
  2614+                          ;main.c: 751: LATA = 0b10111111;
  2615+ 013D96  0EBF               	movlw	low(0BFh)
  2616+ 013D98  6E89               	movwf	((c:3977)),c	;volatile
  2617+                          	line	753
  2618+                          ;main.c: 753: LATB = 0b10000000;
  2619+ 013D9A  0E80               	movlw	low(080h)
  2620+ 013D9C  6E8A               	movwf	((c:3978)),c	;volatile
  2621+                          	line	755
  2622+                          ;main.c: 755: LATC = 0b00011111;
  2623+ 013D9E  0E1F               	movlw	low(01Fh)
  2624+ 013DA0  6E8B               	movwf	((c:3979)),c	;volatile
  2625+                          	line	757
  2626+                          ;main.c: 757: } else if (led_array[0] == 1 && le
      +                          d_array[8] == 1) {
  2627+ 013DA2  EFFF  F09F         	goto	l894
  2628+                          	
  2629+ 013DA6                     l993:		; BSR set to: ?
  2630+                          
  2631+ 013DA6  0400               	decf	((c:0)),c,w
  2632+ 013DA8  1001               	iorwf ((c:0+1)),c,w
  2633+                          
  2634+ 013DAA  A4D8               	btfss	status,2
  2635+ 013DAC  EFDA  F09E         	goto	u6031
  2636+ 013DB0  EFDC  F09E         	goto	u6030
  2637+ 013DB4                     u6031:
  2638+ 013DB4  EFEC  F09E         	goto	l995
  2639  013DB8                     u6030:
  2640  013DB8  0410               	decf	(0+((c:0)+010h)),c,w
  2641  013DBA  1011               	iorwf (1+((c:0)+010h)),c,w
  2642                           
  2643  013DBC  A4D8               	btfss	status,2
  2644  013DBE  EFE3  F09E         	goto	u6041
  2645  013DC2  EFE5  F09E         	goto	u6040
  2646  013DC6                     u6041:
  2647  013DC6  EFEC  F09E         	goto	l995
  2648  013DCA                     u6040:
  2649                           	line	760
  2650                           ;main.c: 760: LATA = 0b11111111;
  2651  013DCA  6889               	setf	((c:3977)),c	;volatile
  2652                           	line	762
  2653                           ;main.c: 762: LATB = 0b10000000;
  2654  013DCC  0E80               	movlw	low(080h)
  2655  013DCE  6E8A               	movwf	((c:3978)),c	;volatile
  2656                           	line	764
  2657                           ;main.c: 764: LATC = 0b00011110;
  2658  013DD0  0E1E               	movlw	low(01Eh)
  2659  013DD2  6E8B               	movwf	((c:3979)),c	;volatile
  2660                           	line	766
  2661                           ;main.c: 766: } else if (led_array[0] == 1 && le
                                 d_array[9] == 1) {
  2662  013DD4  EFFF  F09F         	goto	l894
  2663                           	
  2664  013DD8                     l995:		; BSR set to: ?
  2665                           
  2666  013DD8  0400               	decf	((c:0)),c,w
  2667  013DDA  1001               	iorwf ((c:0+1)),c,w
  2668                           
  2669  013DDC  A4D8               	btfss	status,2
  2670  013DDE  EFF3  F09E         	goto	u6051
  2671  013DE2  EFF5  F09E         	goto	u6050
  2672  013DE6                     u6051:
  2673  013DE6  EF05  F09F         	goto	l997
  2674  013DEA                     u6050:
  2675  013DEA  0412               	decf	(0+((c:0)+012h)),c,w
  2676  013DEC  1013               	iorwf (1+((c:0)+012h)),c,w
  2677                           
  2678  013DEE  A4D8               	btfss	status,2
  2679  013DF0  EFFC  F09E         	goto	u6061
  2680  013DF4  EFFE  F09E         	goto	u6060
  2681  013DF8                     u6061:
  2682  013DF8  EF05  F09F         	goto	l997
  2683  013DFC                     u6060:
  2684                           	line	769
  2685                           ;main.c: 769: LATA = 0b11111111;
  2686  013DFC  6889               	setf	((c:3977)),c	;volatile
  2687                           	line	771
  2688                           ;main.c: 771: LATB = 0b10000000;
  2689  013DFE  0E80               	movlw	low(080h)
  2690  013E00  6E8A               	movwf	((c:3978)),c	;volatile
  2691                           	line	773
  2692                           ;main.c: 773: LATC = 0b00011101;
  2693  013E02  0E1D               	movlw	low(01Dh)
  2694  013E04  6E8B               	movwf	((c:3979)),c	;volatile
  2695                           	line	775
  2696                           ;main.c: 775: } else if (led_array[0] == 1 && le
                                 d_array[10] == 1) {
  2697  013E06  EFFF  F09F         	goto	l894
  2698                           	
  2699  013E0A                     l997:		; BSR set to: ?
  2700                           
  2701  013E0A  0400               	decf	((c:0)),c,w
  2702  013E0C  1001               	iorwf ((c:0+1)),c,w
  2703                           
  2704  013E0E  A4D8               	btfss	status,2
  2705  013E10  EF0C  F09F         	goto	u6071
  2706  013E14  EF0E  F09F         	goto	u6070
  2707  013E18                     u6071:
  2708  013E18  EF1E  F09F         	goto	l999
  2709  013E1C                     u6070:
  2710  013E1C  0414               	decf	(0+((c:0)+014h)),c,w
  2711  013E1E  1015               	iorwf (1+((c:0)+014h)),c,w
  2712                           
  2713  013E20  A4D8               	btfss	status,2
  2714  013E22  EF15  F09F         	goto	u6081
  2715  013E26  EF17  F09F         	goto	u6080
  2716  013E2A                     u6081:
  2717  013E2A  EF1E  F09F         	goto	l999
  2718  013E2E                     u6080:
  2719                           	line	778
  2720                           ;main.c: 778: LATA = 0b11111111;
  2721  013E2E  6889               	setf	((c:3977)),c	;volatile
  2722                           	line	780
  2723                           ;main.c: 780: LATB = 0b00000000;
  2724  013E30  0E00               	movlw	low(0)
  2725  013E32  6E8A               	movwf	((c:3978)),c	;volatile
  2726                           	line	782
  2727                           ;main.c: 782: LATC = 0b00011111;
  2728  013E34  0E1F               	movlw	low(01Fh)
  2729  013E36  6E8B               	movwf	((c:3979)),c	;volatile
  2730                           	line	784
  2731                           ;main.c: 784: } else if (led_array[0] == 1 && le
                                 d_array[11] == 1) {
  2732  013E38  EFFF  F09F         	goto	l894
  2733                           	
  2734  013E3C                     l999:		; BSR set to: ?
  2735                           
  2736  013E3C  0400               	decf	((c:0)),c,w
  2737  013E3E  1001               	iorwf ((c:0+1)),c,w
  2738                           
  2739  013E40  A4D8               	btfss	status,2
  2740  013E42  EF25  F09F         	goto	u6091
  2741  013E46  EF27  F09F         	goto	u6090
  2742  013E4A                     u6091:
  2743  013E4A  EF37  F09F         	goto	l1001
  2744  013E4E                     u6090:
  2745  013E4E  0416               	decf	(0+((c:0)+016h)),c,w
  2746  013E50  1017               	iorwf (1+((c:0)+016h)),c,w
  2747                           
  2748  013E52  A4D8               	btfss	status,2
  2749  013E54  EF2E  F09F         	goto	u6101
  2750  013E58  EF30  F09F         	goto	u6100
  2751  013E5C                     u6101:
  2752  013E5C  EF37  F09F         	goto	l1001
  2753  013E60                     u6100:
  2754                           	line	787
  2755                           ;main.c: 787: LATA = 0b11111111;
  2756  013E60  6889               	setf	((c:3977)),c	;volatile
  2757                           	line	789
  2758                           ;main.c: 789: LATB = 0b10000000;
  2759  013E62  0E80               	movlw	low(080h)
  2760  013E64  6E8A               	movwf	((c:3978)),c	;volatile
  2761                           	line	791
  2762                           ;main.c: 791: LATC = 0b00011011;
  2763  013E66  0E1B               	movlw	low(01Bh)
  2764  013E68  6E8B               	movwf	((c:3979)),c	;volatile
  2765                           	line	793
  2766                           ;main.c: 793: } else if (led_array[0] == 1 && le
                                 d_array[12] == 1) {
  2767  013E6A  EFFF  F09F         	goto	l894
  2768                           	
  2769  013E6E                     l1001:		; BSR set to: ?
  2770                           
  2771  013E6E  0400               	decf	((c:0)),c,w
  2772  013E70  1001               	iorwf ((c:0+1)),c,w
  2773                           
  2774  013E72  A4D8               	btfss	status,2
  2775  013E74  EF3E  F09F         	goto	u6111
  2776  013E78  EF40  F09F         	goto	u6110
  2777  013E7C                     u6111:
  2778  013E7C  EF50  F09F         	goto	l1003
  2779  013E80                     u6110:
  2780  013E80  0418               	decf	(0+((c:0)+018h)),c,w
  2781  013E82  1019               	iorwf (1+((c:0)+018h)),c,w
  2782                           
  2783  013E84  A4D8               	btfss	status,2
  2784  013E86  EF47  F09F         	goto	u6121
  2785  013E8A  EF49  F09F         	goto	u6120
  2786  013E8E                     u6121:
  2787  013E8E  EF50  F09F         	goto	l1003
  2788  013E92                     u6120:
  2789                           	line	796
  2790                           ;main.c: 796: LATA = 0b11111111;
  2791  013E92  6889               	setf	((c:3977)),c	;volatile
  2792                           	line	798
  2793                           ;main.c: 798: LATB = 0b10000000;
  2794  013E94  0E80               	movlw	low(080h)
  2795  013E96  6E8A               	movwf	((c:3978)),c	;volatile
  2796                           	line	800
  2797                           ;main.c: 800: LATC = 0b00010111;
  2798  013E98  0E17               	movlw	low(017h)
  2799  013E9A  6E8B               	movwf	((c:3979)),c	;volatile
  2800                           	line	802
  2801                           ;main.c: 802: } else if (led_array[1] == 1 && le
                                 d_array[6] == 1) {
  2802  013E9C  EFFF  F09F         	goto	l894
  2803                           	
  2804  013EA0                     l1003:		; BSR set to: ?
  2805                           
  2806  013EA0  0402               	decf	(0+((c:0)+02h)),c,w
  2807  013EA2  1003               	iorwf (1+((c:0)+02h)),c,w
  2808                           
  2809  013EA4  A4D8               	btfss	status,2
  2810  013EA6  EF57  F09F         	goto	u6131
  2811  013EAA  EF59  F09F         	goto	u6130
  2812  013EAE                     u6131:
  2813  013EAE  EF6A  F09F         	goto	l1005
  2814  013EB2                     u6130:
  2815  013EB2  040C               	decf	(0+((c:0)+0Ch)),c,w
  2816  013EB4  100D               	iorwf (1+((c:0)+0Ch)),c,w
  2817                           
  2818  013EB6  A4D8               	btfss	status,2
  2819  013EB8  EF60  F09F         	goto	u6141
  2820  013EBC  EF62  F09F         	goto	u6140
  2821  013EC0                     u6141:
  2822  013EC0  EF6A  F09F         	goto	l1005
  2823  013EC4                     u6140:
  2824                           	line	805
  2825                           ;main.c: 805: LATA = 0b11101111;
  2826  013EC4  0EEF               	movlw	low(0EFh)
  2827  013EC6  6E89               	movwf	((c:3977)),c	;volatile
  2828                           	line	807
  2829                           ;main.c: 807: LATB = 0b10000000;
  2830  013EC8  0E80               	movlw	low(080h)
  2831  013ECA  6E8A               	movwf	((c:3978)),c	;volatile
  2832                           	line	809
  2833                           ;main.c: 809: LATC = 0b00101111;
  2834  013ECC  0E2F               	movlw	low(02Fh)
  2835  013ECE  6E8B               	movwf	((c:3979)),c	;volatile
  2836                           	line	811
  2837                           ;main.c: 811: } else if (led_array[1] == 1 && le
                                 d_array[7] == 1) {
  2838  013ED0  EFFF  F09F         	goto	l894
  2839                           	
  2840  013ED4                     l1005:		; BSR set to: ?
  2841                           
  2842  013ED4  0402               	decf	(0+((c:0)+02h)),c,w
  2843  013ED6  1003               	iorwf (1+((c:0)+02h)),c,w
  2844                           
  2845  013ED8  A4D8               	btfss	status,2
  2846  013EDA  EF71  F09F         	goto	u6151
  2847  013EDE  EF73  F09F         	goto	u6150
  2848  013EE2                     u6151:
  2849  013EE2  EF84  F09F         	goto	l1007
  2850  013EE6                     u6150:
  2851  013EE6  040E               	decf	(0+((c:0)+0Eh)),c,w
  2852  013EE8  100F               	iorwf (1+((c:0)+0Eh)),c,w
  2853                           
  2854  013EEA  A4D8               	btfss	status,2
  2855  013EEC  EF7A  F09F         	goto	u6161
  2856  013EF0  EF7C  F09F         	goto	u6160
  2857  013EF4                     u6161:
  2858  013EF4  EF84  F09F         	goto	l1007
  2859  013EF8                     u6160:
  2860                           	line	814
  2861                           ;main.c: 814: LATA = 0b10111111;
  2862  013EF8  0EBF               	movlw	low(0BFh)
  2863  013EFA  6E89               	movwf	((c:3977)),c	;volatile
  2864                           	line	816
  2865                           ;main.c: 816: LATB = 0b10000000;
  2866  013EFC  0E80               	movlw	low(080h)
  2867  013EFE  6E8A               	movwf	((c:3978)),c	;volatile
  2868                           	line	818
  2869                           ;main.c: 818: LATC = 0b00101111;
  2870  013F00  0E2F               	movlw	low(02Fh)
  2871  013F02  6E8B               	movwf	((c:3979)),c	;volatile
  2872                           	line	820
  2873                           ;main.c: 820: } else if (led_array[1] == 1 && le
                                 d_array[8] == 1) {
  2874  013F04  EFFF  F09F         	goto	l894
  2875                           	
  2876  013F08                     l1007:		; BSR set to: ?
  2877                           
  2878  013F08  0402               	decf	(0+((c:0)+02h)),c,w
  2879  013F0A  1003               	iorwf (1+((c:0)+02h)),c,w
  2880                           
  2881  013F0C  A4D8               	btfss	status,2
  2882  013F0E  EF8B  F09F         	goto	u6171
  2883  013F12  EF8D  F09F         	goto	u6170
  2884  013F16                     u6171:
  2885  013F16  EF9D  F09F         	goto	l1009
  2886  013F1A                     u6170:
  2887  013F1A  0410               	decf	(0+((c:0)+010h)),c,w
  2888  013F1C  1011               	iorwf (1+((c:0)+010h)),c,w
  2889                           
  2890  013F1E  A4D8               	btfss	status,2
  2891  013F20  EF94  F09F         	goto	u6181
  2892  013F24  EF96  F09F         	goto	u6180
  2893  013F28                     u6181:
  2894  013F28  EF9D  F09F         	goto	l1009
  2895  013F2C                     u6180:
  2896                           	line	823
  2897                           ;main.c: 823: LATA = 0b11111111;
  2898  013F2C  6889               	setf	((c:3977)),c	;volatile
  2899                           	line	825
  2900                           ;main.c: 825: LATB = 0b10000000;
  2901  013F2E  0E80               	movlw	low(080h)
  2902  013F30  6E8A               	movwf	((c:3978)),c	;volatile
  2903                           	line	827
  2904                           ;main.c: 827: LATC = 0b00101110;
  2905  013F32  0E2E               	movlw	low(02Eh)
  2906  013F34  6E8B               	movwf	((c:3979)),c	;volatile
  2907                           	line	829
  2908                           ;main.c: 829: } else if (led_array[1] == 1 && le
                                 d_array[9] == 1) {
  2909  013F36  EFFF  F09F         	goto	l894
  2910                           	
  2911  013F3A                     l1009:		; BSR set to: ?
  2912                           
  2913  013F3A  0402               	decf	(0+((c:0)+02h)),c,w
  2914  013F3C  1003               	iorwf (1+((c:0)+02h)),c,w
  2915                           
  2916  013F3E  A4D8               	btfss	status,2
  2917  013F40  EFA4  F09F         	goto	u6191
  2918  013F44  EFA6  F09F         	goto	u6190
  2919  013F48                     u6191:
  2920  013F48  EFB6  F09F         	goto	l1011
  2921  013F4C                     u6190:
  2922  013F4C  0412               	decf	(0+((c:0)+012h)),c,w
  2923  013F4E  1013               	iorwf (1+((c:0)+012h)),c,w
  2924                           
  2925  013F50  A4D8               	btfss	status,2
  2926  013F52  EFAD  F09F         	goto	u6201
  2927  013F56  EFAF  F09F         	goto	u6200
  2928  013F5A                     u6201:
  2929  013F5A  EFB6  F09F         	goto	l1011
  2930  013F5E                     u6200:
  2931                           	line	832
  2932                           ;main.c: 832: LATA = 0b11111111;
  2933  013F5E  6889               	setf	((c:3977)),c	;volatile
  2934                           	line	834
  2935                           ;main.c: 834: LATB = 0b10000000;
  2936  013F60  0E80               	movlw	low(080h)
  2937  013F62  6E8A               	movwf	((c:3978)),c	;volatile
  2938                           	line	836
  2939                           ;main.c: 836: LATC = 0b00101101;
  2940  013F64  0E2D               	movlw	low(02Dh)
  2941  013F66  6E8B               	movwf	((c:3979)),c	;volatile
  2942                           	line	838
  2943                           ;main.c: 838: } else if (led_array[1] == 1 && le
                                 d_array[10] == 1) {
  2944  013F68  EFFF  F09F         	goto	l894
  2945                           	
  2946  013F6C                     l1011:		; BSR set to: ?
  2947                           
  2948  013F6C  0402               	decf	(0+((c:0)+02h)),c,w
  2949  013F6E  1003               	iorwf (1+((c:0)+02h)),c,w
  2950                           
  2951  013F70  A4D8               	btfss	status,2
  2952  013F72  EFBD  F09F         	goto	u6211
  2953  013F76  EFBF  F09F         	goto	u6210
  2954  013F7A                     u6211:
  2955  013F7A  EFCF  F09F         	goto	l1013
  2956  013F7E                     u6210:
  2957  013F7E  0414               	decf	(0+((c:0)+014h)),c,w
  2958  013F80  1015               	iorwf (1+((c:0)+014h)),c,w
  2959                           
  2960  013F82  A4D8               	btfss	status,2
  2961  013F84  EFC6  F09F         	goto	u6221
  2962  013F88  EFC8  F09F         	goto	u6220
  2963  013F8C                     u6221:
  2964  013F8C  EFCF  F09F         	goto	l1013
  2965  013F90                     u6220:
  2966                           	line	841
  2967                           ;main.c: 841: LATA = 0b11111111;
  2968  013F90  6889               	setf	((c:3977)),c	;volatile
  2969                           	line	843
  2970                           ;main.c: 843: LATB = 0b00000000;
  2971  013F92  0E00               	movlw	low(0)
  2972  013F94  6E8A               	movwf	((c:3978)),c	;volatile
  2973                           	line	845
  2974                           ;main.c: 845: LATC = 0b00101111;
  2975  013F96  0E2F               	movlw	low(02Fh)
  2976  013F98  6E8B               	movwf	((c:3979)),c	;volatile
  2977                           	line	847
  2978                           ;main.c: 847: } else if (led_array[1] == 1 && le
                                 d_array[11] == 1) {
  2979  013F9A  EFFF  F09F         	goto	l894
  2980                           	
  2981  013F9E                     l1013:		; BSR set to: ?
  2982                           
  2983  013F9E  0402               	decf	(0+((c:0)+02h)),c,w
  2984  013FA0  1003               	iorwf (1+((c:0)+02h)),c,w
  2985                           
  2986  013FA2  A4D8               	btfss	status,2
  2987  013FA4  EFD6  F09F         	goto	u6231
  2988  013FA8  EFD8  F09F         	goto	u6230
  2989  013FAC                     u6231:
  2990  013FAC  EFE8  F09F         	goto	l1015
  2991  013FB0                     u6230:
  2992  013FB0  0416               	decf	(0+((c:0)+016h)),c,w
  2993  013FB2  1017               	iorwf (1+((c:0)+016h)),c,w
  2994                           
  2995  013FB4  A4D8               	btfss	status,2
  2996  013FB6  EFDF  F09F         	goto	u6241
  2997  013FBA  EFE1  F09F         	goto	u6240
  2998  013FBE                     u6241:
  2999  013FBE  EFE8  F09F         	goto	l1015
  3000  013FC2                     u6240:
  3001                           	line	850
  3002                           ;main.c: 850: LATA = 0b11111111;
  3003  013FC2  6889               	setf	((c:3977)),c	;volatile
  3004                           	line	852
  3005                           ;main.c: 852: LATB = 0b10000000;
  3006  013FC4  0E80               	movlw	low(080h)
  3007  013FC6  6E8A               	movwf	((c:3978)),c	;volatile
  3008                           	line	854
  3009                           ;main.c: 854: LATC = 0b00101011;
  3010  013FC8  0E2B               	movlw	low(02Bh)
  3011  013FCA  6E8B               	movwf	((c:3979)),c	;volatile
  3012                           	line	856
  3013                           ;main.c: 856: } else if (led_array[1] == 1 && le
                                 d_array[12] == 1) {
  3014  013FCC  EFFF  F09F         	goto	l894
  3015                           	
  3016  013FD0                     l1015:		; BSR set to: ?
  3017                           
  3018  013FD0  0402               	decf	(0+((c:0)+02h)),c,w
  3019  013FD2  1003               	iorwf (1+((c:0)+02h)),c,w
  3020                           
  3021  013FD4  A4D8               	btfss	status,2
  3022  013FD6  EFEF  F09F         	goto	u6251
  3023  013FDA  EFF1  F09F         	goto	u6250
  3024  013FDE                     u6251:
  3025  013FDE  EFFF  F09F         	goto	l894
  3026  013FE2                     u6250:
  3027  013FE2  0418               	decf	(0+((c:0)+018h)),c,w
  3028  013FE4  1019               	iorwf (1+((c:0)+018h)),c,w
  3029                           
  3030  013FE6  A4D8               	btfss	status,2
  3031  013FE8  EFF8  F09F         	goto	u6261
  3032  013FEC  EFFA  F09F         	goto	u6260
  3033  013FF0                     u6261:
  3034  013FF0  EFFF  F09F         	goto	l894
  3035  013FF4                     u6260:
  3036                           	line	859
  3037                           ;main.c: 859: LATA = 0b11111111;
  3038  013FF4  6889               	setf	((c:3977)),c	;volatile
  3039                           	line	861
  3040                           ;main.c: 861: LATB = 0b10000000;
  3041  013FF6  0E80               	movlw	low(080h)
  3042  013FF8  6E8A               	movwf	((c:3978)),c	;volatile
  3043                           	line	863
  3044                           ;main.c: 863: LATC = 0b00100111;
  3045  013FFA  0E27               	movlw	low(027h)
  3046  013FFC  6E8B               	movwf	((c:3979)),c	;volatile
  3047                           	line	864
  3048                           	
  3049  013FFE                     l1017:		; BSR set to: ?
  3050                           
  3051                           	line	865
  3052                           	
  3053  013FFE                     l1016:		; BSR set to: ?
  3054                           
  3055                           	
  3056  013FFE                     l1014:		; BSR set to: ?
  3057                           
  3058                           	
  3059  013FFE                     l1012:		; BSR set to: ?
  3060                           
  3061                           	
  3062  013FFE                     l1010:		; BSR set to: ?
  3063                           
  3064                           	
  3065  013FFE                     l1008:		; BSR set to: ?
  3066                           
  3067                           	
  3068  013FFE                     l1006:		; BSR set to: ?
  3069                           
  3070                           	
  3071  013FFE                     l1004:		; BSR set to: ?
  3072                           
  3073                           	
  3074  013FFE                     l1002:		; BSR set to: ?
  3075                           
  3076                           	
  3077  013FFE                     l1000:		; BSR set to: ?
  3078                           
  3079                           	
  3080  013FFE                     l998:		; BSR set to: ?
  3081                           
  3082                           	
  3083  013FFE                     l996:		; BSR set to: ?
  3084                           
  3085                           	
  3086  013FFE                     l994:		; BSR set to: ?
  3087                           
  3088                           	
  3089  013FFE                     l992:		; BSR set to: ?
  3090                           
  3091                           	
  3092  013FFE                     l990:		; BSR set to: ?
  3093                           
  3094                           	
  3095  013FFE                     l988:		; BSR set to: ?
  3096                           
  3097                           	
  3098  013FFE                     l986:		; BSR set to: ?
  3099                           
  3100                           	
  3101  013FFE                     l984:		; BSR set to: ?
  3102                           
  3103                           	
  3104  013FFE                     l982:		; BSR set to: ?
  3105                           
  3106                           	
  3107  013FFE                     l980:		; BSR set to: ?
  3108                           
  3109                           	
  3110  013FFE                     l978:		; BSR set to: ?
  3111                           
  3112                           	
  3113  013FFE                     l976:		; BSR set to: ?
  3114                           
  3115                           	
  3116  013FFE                     l974:		; BSR set to: ?
  3117                           
  3118                           	
  3119  013FFE                     l972:		; BSR set to: ?
  3120                           
  3121                           	
  3122  013FFE                     l970:		; BSR set to: ?
  3123                           
  3124                           	
  3125  013FFE                     l968:		; BSR set to: ?
  3126                           
  3127                           	
  3128  013FFE                     l966:		; BSR set to: ?
  3129                           
  3130                           	
  3131  013FFE                     l964:		; BSR set to: ?
  3132                           
  3133                           	
  3134  013FFE                     l962:		; BSR set to: ?
  3135                           
  3136                           	
  3137  013FFE                     l960:		; BSR set to: ?
  3138                           
  3139                           	
  3140  013FFE                     l958:		; BSR set to: ?
  3141                           
  3142                           	
  3143  013FFE                     l956:		; BSR set to: ?
  3144                           
  3145                           	
  3146  013FFE                     l954:		; BSR set to: ?
  3147                           
  3148                           	
  3149  013FFE                     l952:		; BSR set to: ?
  3150                           
  3151                           	
  3152  013FFE                     l950:		; BSR set to: ?
  3153                           
  3154                           	
  3155  013FFE                     l948:		; BSR set to: ?
  3156                           
  3157                           	
  3158  013FFE                     l946:		; BSR set to: ?
  3159                           
  3160                           	
  3161  013FFE                     l944:		; BSR set to: ?
  3162                           
  3163                           	
  3164  013FFE                     l942:		; BSR set to: ?
  3165                           
  3166                           	
  3167  013FFE                     l940:		; BSR set to: ?
  3168                           
  3169                           	
  3170  013FFE                     l938:		; BSR set to: ?
  3171                           
  3172                           	
  3173  013FFE                     l936:		; BSR set to: ?
  3174                           
  3175                           	
  3176  013FFE                     l934:		; BSR set to: ?
  3177                           
  3178                           	
  3179  013FFE                     l932:		; BSR set to: ?
  3180                           
  3181                           	
  3182  013FFE                     l930:		; BSR set to: ?
  3183                           
  3184                           	
  3185  013FFE                     l928:		; BSR set to: ?
  3186                           
  3187                           	
  3188  013FFE                     l926:		; BSR set to: ?
  3189                           
  3190                           	
  3191  013FFE                     l924:		; BSR set to: ?
  3192                           
  3193                           	
  3194  013FFE                     l922:		; BSR set to: ?
  3195                           
  3196                           	
  3197  013FFE                     l920:		; BSR set to: ?
  3198                           
  3199                           	
  3200  013FFE                     l918:		; BSR set to: ?
  3201                           
  3202                           	
  3203  013FFE                     l916:		; BSR set to: ?
  3204                           
  3205                           	
  3206  013FFE                     l914:		; BSR set to: ?
  3207                           
  3208                           	
  3209  013FFE                     l912:		; BSR set to: ?
  3210                           
  3211                           	
  3212  013FFE                     l910:		; BSR set to: ?
  3213                           
  3214                           	
  3215  013FFE                     l908:		; BSR set to: ?
  3216                           
  3217                           	
  3218  013FFE                     l906:		; BSR set to: ?
  3219                           
  3220                           	
  3221  013FFE                     l904:		; BSR set to: ?
  3222                           
  3223                           	
  3224  013FFE                     l902:		; BSR set to: ?
  3225                           
  3226                           	
  3227  013FFE                     l900:		; BSR set to: ?
  3228                           
  3229                           	
  3230  013FFE                     l898:		; BSR set to: ?
  3231                           
  3232                           	
  3233  013FFE                     l896:		; BSR set to: ?
  3234                           
  3235                           	
  3236  013FFE                     l894:		; BSR set to: ?
  3237                           
  3238                           ;main.c: 864: }
  3239                           ;main.c: 865: }
  3240  013FFE                     l892:
  3241                           			; BSR set to: ?
  3242                           
  3243  013FFE  0012               	return
  3244                           	opt stack 0
  3245                           GLOBAL __end_of_ToggleLeds
  3246  014000                     	__end_of_ToggleLeds:
  3247                           	FNSIZE	_ToggleLeds,0,0
  3248                           ; =============== function _ToggleLeds ends ====
                                 ========
  3249                           
  3250                           	signat	_ToggleLeds,88
  3251                           	global	_DelayMs
  3252                           	global	??_DelayMs
  3253                           	global	?_DelayMs
  3254                           
  3255                           ; *************** function _DelayMs ************
                                 *****
  3256                           ; Defined at:
  3257                           ;		line 12 in file "delay.c"
  3258                           ; Parameters:
  3259                           ;		cnt            size:   1offs:   0	type: unsig
                                 ned char 
  3260                           ; Auto variables:
  3261                           ;		i           	       	type: unsigned char 
  3262                           ;		_dcnt       	       	type: unsigned char 
  3263                           ; Return value:
  3264                           ;		type: void 
  3265                           ;		size: 0
  3266                           ; Registers used:
  3267                           ;		status,2
  3268                           ; Tracked objects:
  3269                           ;		On entry : 0/0
  3270                           ;		On exit  : 0/0
  3271                           ;		Unchanged: 0/0
  3272                           ; Data sizes:
  3273                           ;		Autos:    2
  3274                           ;		Params:   1
  3275                           ;		Temp:     1
  3276                           ;		Total:    4
  3277                           ; This function calls:
  3278                           ;		Nothing
  3279                           ; This function is called by:
  3280                           ;		_main
  3281                           ; This function uses a non-reentrant model
  3282                           ; 
  3283                                   psect   text2,class=CODE,space=0,reloc=2
  3284                           
  3285                           	opt lm
  3286                           	file	"delay.c"
  3287                           	line	12
  3288  000000                     	__size_of_DelayMs	equ	__end_of_DelayMs-_DelayMs
  3289                           ;delay.c: 10: void
  3290                           ;delay.c: 11: DelayMs(unsigned char cnt)
  3291                           ;delay.c: 12: {
  3292                           	
  3293  013004                     _DelayMs:		; BSR set to: ?
  3294                           
  3295                           	opt stack 30
  3296                           	line	21
  3297                           	
  3298  013004                     l1285:		; BSR set to: ?
  3299                           
  3300                           	line	22
  3301                           ;delay.c: 22: i = 4;
  3302  013004  0101               	movlb	1	; () banked
  3303  013006  6F0C               	movwf	(??_DelayMs+2+0)&0ffh
  3304  013008  0E04               	movlw	low(04h)
  3305  01300A  0101               	movlb	1	; () banked
  3306  01300C  0101               	movlb	1	; () banked
  3307  01300E  6F0A               	movwf	((DelayMs@i))&0ffh
  3308  013010  0101               	movlb	1	; () banked
  3309  013012  510C               	movf	(??_DelayMs+2+0)&0ffh,w
  3310                           	line	23
  3311                           ;delay.c: 23: do {
  3312                           	
  3313  013014                     l1288:		; BSR set to: ?
  3314                           
  3315                           	line	24
  3316                           ;delay.c: 24: { unsigned char _dcnt; _dcnt = (25
                                 0)*((20*1000L)/(12*1000L)); while(--_dcnt != 0) 
                                 continue; };
  3317  013014  0101               	movlb	1	; () banked
  3318  013016  6F0C               	movwf	(??_DelayMs+2+0)&0ffh
  3319  013018  0EFA               	movlw	low(0FAh)
  3320  01301A  0101               	movlb	1	; () banked
  3321  01301C  0101               	movlb	1	; () banked
  3322  01301E  6F0B               	movwf	((DelayMs@_dcnt))&0ffh
  3323  013020  0101               	movlb	1	; () banked
  3324  013022  510C               	movf	(??_DelayMs+2+0)&0ffh,w
  3325  013024  EF16  F098         	goto	l1289
  3326                           	
  3327  013028                     l1290:		; BSR set to: ?
  3328                           
  3329  013028  EF16  F098         	goto	l1289
  3330                           	
  3331  01302C                     l1289:		; BSR set to: ?
  3332                           
  3333  01302C  0101               	movlb	1	; () banked
  3334  01302E  0101               	movlb	1	; () banked
  3335  013030  2F0B               	decfsz	((DelayMs@_dcnt))&0ffh
  3336                           	
  3337  013032  EF14  F098         	goto	l1290
  3338                           	
  3339  013036                     l1291:		; BSR set to: ?
  3340                           
  3341                           	line	25
  3342                           ;delay.c: 25: } while(--i);
  3343  013036  0101               	movlb	1	; () banked
  3344  013038  0101               	movlb	1	; () banked
  3345  01303A  2F0A               	decfsz	((DelayMs@i))&0ffh
  3346                           	
  3347  01303C  EF0A  F098         	goto	l1288
  3348                           	
  3349  013040                     l1287:		; BSR set to: ?
  3350                           
  3351                           	line	26
  3352                           ;delay.c: 26: } while(--cnt);
  3353  013040  0101               	movlb	1	; () banked
  3354  013042  0101               	movlb	1	; () banked
  3355  013044  2F09               	decfsz	((DelayMs@cnt))&0ffh
  3356                           	
  3357  013046  EF02  F098         	goto	l1285
  3358                           	
  3359  01304A                     l1284:		; BSR set to: ?
  3360                           
  3361                           	line	28
  3362                           ;delay.c: 28: }
  3363  01304A                     l1282:
  3364                           			; BSR set to: ?
  3365                           
  3366  01304A  0012               	return
  3367                           	opt stack 0
  3368                           GLOBAL __end_of_DelayMs
  3369  01304C                     	__end_of_DelayMs:
  3370                           	FNSIZE	_DelayMs,3,1
  3371                           ; =============== function _DelayMs ends =======
                                 =====
  3372                           
  3373                           	signat	_DelayMs,4216
  3374                           	FNCALL	_main,_DelayMs
  3375                           	FNCALL	_main,_ToggleLeds
  3376                           	FNROOT	_main
  3377                                   psect   const,class=CODE,space=0,reloc=2
  3378                           	global	_led_array
  3379                           	global	_led_array
  3380  000000                     _led_array  equ     0
  3381                           
  3382                           	DABS	1,0,26	;_led_array
  3383                           	global	_cur_inputs
  3384                           	global	_cur_inputs
  3385  000000                     _cur_inputs  equ     27
  3386                           
  3387                           	DABS	1,27,7	;_cur_inputs
  3388                           	global	_prev_inputs
  3389                           	global	_prev_inputs
  3390  000000                     _prev_inputs  equ     43
  3391                           
  3392                           	DABS	1,43,7	;_prev_inputs
  3393                           	global	_conv_result
  3394                           	global	_conv_result
  3395  000000                     _conv_result  equ     34
  3396                           
  3397                           	DABS	1,34,4	;_conv_result
  3398                           	global	_index
  3399                           	global	_index
  3400  000000                     _index  equ     38
  3401                           
  3402                           	DABS	1,38,2	;_index
  3403                           	global	_USART_Status
  3404                           	global	_USART_Status
  3405  000000                     _USART_Status  equ     42
  3406                           
  3407                           	DABS	1,42,1	;_USART_Status
  3408                           	global	_adc_num
  3409                           	global	_adc_num
  3410  000000                     _adc_num  equ     26
  3411                           
  3412                           	DABS	1,26,1	;_adc_num
  3413                           	global	_change_val
  3414                           	global	_change_val
  3415  000000                     _change_val  equ     41
  3416                           
  3417                           	DABS	1,41,1	;_change_val
  3418                           	global	_new_note
  3419                           	global	_new_note
  3420  000000                     _new_note  equ     51
  3421                           
  3422                           	DABS	1,51,1	;_new_note
  3423                           	global	_old_ntoe
  3424                           	global	_old_ntoe
  3425  000000                     _old_ntoe  equ     50
  3426                           
  3427                           	DABS	1,50,1	;_old_ntoe
  3428                           	global	_uart_out
  3429                           	global	_uart_out
  3430  000000                     _uart_out  equ     40
  3431                           
  3432                           	DABS	1,40,1	;_uart_out
  3433                           	global	_ADCON0
  3434  000000                     _ADCON0	equ	0xFC2
  3435                           	global	_ADCON1
  3436  000000                     _ADCON1	equ	0xFC1
  3437                           	global	_ADCON2
  3438  000000                     _ADCON2	equ	0xFC0
  3439                           	global	_ADRESH
  3440  000000                     _ADRESH	equ	0xFC4
  3441                           	global	_ADRESL
  3442  000000                     _ADRESL	equ	0xFC3
  3443                           	global	_BAUDCON
  3444  000000                     _BAUDCON	equ	0xFB8
  3445                           	global	_LATA
  3446  000000                     _LATA	equ	0xF89
  3447                           	global	_LATB
  3448  000000                     _LATB	equ	0xF8A
  3449                           	global	_LATC
  3450  000000                     _LATC	equ	0xF8B
  3451                           	global	_OSCCON
  3452  000000                     _OSCCON	equ	0xFD3
  3453                           	global	_PIR1
  3454  000000                     _PIR1	equ	0xF9E
  3455                           	global	_RCREG
  3456  000000                     _RCREG	equ	0xFAE
  3457                           	global	_RCSTA
  3458  000000                     _RCSTA	equ	0xFAB
  3459                           	global	_SPBRG
  3460  000000                     _SPBRG	equ	0xFAF
  3461                           	global	_SPBRGH
  3462  000000                     _SPBRGH	equ	0xFB0
  3463                           	global	_TRISA
  3464  000000                     _TRISA	equ	0xF92
  3465                           	global	_TRISB
  3466  000000                     _TRISB	equ	0xF93
  3467                           	global	_TRISC
  3468  000000                     _TRISC	equ	0xF94
  3469                           	global	_TXREG
  3470  000000                     _TXREG	equ	0xFAD
  3471                           	global	_TXSTA
  3472  000000                     _TXSTA	equ	0xFAC
  3473                           	global	_ADON
  3474  000000                     _ADON	equ	0x7E10
  3475                           	global	_BRGH_x
  3476  000000                     _BRGH_x	equ	0x7D62
  3477                           	global	_CREN_x
  3478  000000                     _CREN_x	equ	0x7D5C
  3479                           	global	_CSRC_x
  3480  000000                     _CSRC_x	equ	0x7D67
  3481                           	global	_FERR
  3482  000000                     _FERR	equ	0x7D5A
  3483                           	global	_GODONE
  3484  000000                     _GODONE	equ	0x7E11
  3485                           	global	_OERR
  3486  000000                     _OERR	equ	0x7D59
  3487                           	global	_RCIE_x
  3488  000000                     _RCIE_x	equ	0x7CED
  3489                           	global	_RCIF
  3490  000000                     _RCIF	equ	0x7CF5
  3491                           	global	_RX9D
  3492  000000                     _RX9D	equ	0x7D58
  3493                           	global	_RX9_x
  3494  000000                     _RX9_x	equ	0x7D5E
  3495                           	global	_SENDB_x
  3496  000000                     _SENDB_x	equ	0x7D63
  3497                           	global	_SPEN_x
  3498  000000                     _SPEN_x	equ	0x7D5F
  3499                           	global	_SREN_x
  3500  000000                     _SREN_x	equ	0x7D5D
  3501                           	global	_SYNC_x
  3502  000000                     _SYNC_x	equ	0x7D64
  3503                           	global	_TRISC6
  3504  000000                     _TRISC6	equ	0x7CA6
  3505                           	global	_TRISC7
  3506  000000                     _TRISC7	equ	0x7CA7
  3507                           	global	_TRMT_x
  3508  000000                     _TRMT_x	equ	0x7D61
  3509                           	global	_TX9D
  3510  000000                     _TX9D	equ	0x7D60
  3511                           	global	_TX9_x
  3512  000000                     _TX9_x	equ	0x7D66
  3513                           	global	_TXEN_x
  3514  000000                     _TXEN_x	equ	0x7D65
  3515                           	global	_TXIE_x
  3516  000000                     _TXIE_x	equ	0x7CEC
  3517                           	global	_TXIF
  3518  000000                     _TXIF	equ	0x7CF4
  3519                           	psect	intsave_regs,class=BIGRAM,space=1
  3520                           	PSECT	param1,class=BANK1,space=1
  3521                           	GLOBAL	__Lparam1
  3522                           	FNCONF	param1,??,?
  3523                           	GLOBAL	__Labsbss0
  3524  000000                     __Labsbss0	EQU	0
  3525                           	GLOBAL	__Habsbss0
  3526  000000                     __Habsbss0	EQU	52
  3527                           GLOBAL	__Lparam, __Hparam
  3528                           GLOBAL	__Lparam1, __Hparam1
  3529  000000                     __Lparam	EQU	__Lparam1
  3530  000000                     __Hparam	EQU	__Hparam1


HI-TECH Software PICC-18 Macro Assembler V9.66 build 8870 
Symbol Table                                           Mon May 07 14:39:46 2012

                l900 3FFE                  l901 336E  
                l902 3FFE                  l910 3FFE  
                l911 3490                  l903 33B2  
                l904 3FFE                  l912 3FFE  
                l920 3FFE                  l921 358C  
                l913 34C2                  l905 33F6  
                l906 3FFE                  l914 3FFE  
                l922 3FFE                  l930 3FFE  
                l931 3688                  l923 35C0  
                l915 34F4                  l907 342A  
                l908 3FFE                  l916 3FFE  
                l924 3FFE                  l932 3FFE  
                l940 3FFE                  l941 37CE  
                l933 36BA                  l925 35F2  
                l917 3526                  l909 345E  
                l918 3FFE                  l926 3FFE  
                l934 3FFE                  l942 3FFE  
                l950 3FFE                  l951 3902  
                l943 3812                  l935 3700  
                l927 3624                  l919 3558  
                l871 30B2                  l928 3FFE  
                l936 3FFE                  l944 3FFE  
                l952 3FFE                  l960 3FFE  
                l880 3112                  l961 39FC  
                l953 3934                  l945 3856  
                l937 3746                  l929 3656  
                l873 30C0                  l938 3FFE  
                l946 3FFE                  l954 3FFE  
                l962 3FFE                  l970 3FFE  
                l882 3120                  l874 30D6  
                l971 3AFA                  l963 3A30  
                l955 3966                  l947 389A  
                l939 378A                  l867 3212  
                l883 320E                  l891 31FE  
                l892 3FFE                  l948 3FFE  
                l956 3FFE                  l964 3FFE  
                l972 3FFE                  l980 3FFE  
                l884 31C4                  l868 31C0  
                l876 30E4                  l981 3C2E  
                l973 3B2C                  l965 3A64  
                l957 3998                  l949 38CE  
                l893 325C                  l885 320E  
                l877 30F8                  l869 309A  
                l958 3FFE                  l966 3FFE  
                l974 3FFE                  l982 3FFE  
                l990 3FFE                  l894 3FFE  
                l886 31C8                  l991 3D72  
                l983 3C72                  l975 3B5E  
                l967 3A96                  l959 39CA  
                l895 32A2                  l879 3106  
                l896 3FFE                  l968 3FFE  
                l976 3FFE                  l984 3FFE  
                l992 3FFE                  l888 31D8  
                l993 3DA6                  l985 3CB6  
                l977 3BA4                  l969 3AC8  
                l897 32E6                  l889 31F0  
                l898 3FFE                  l978 3FFE  
                l986 3FFE                  l994 3FFE  
                l995 3DD8                  l987 3CFA  
                l979 3BEA                  l899 332A  
                l988 3FFE                  l996 3FFE  
                l997 3E0A                  l989 3D3E  
                l998 3FFE                  l999 3E3C  
        main@hResult 0105          main@lResult 0106  
               l1000 3FFE                 l1001 3E6E  
               l1002 3FFE                 l1010 3FFE  
               l1011 3F6C                 l1003 3EA0  
               l1004 3FFE                 l1012 3FFE  
               l1013 3F9E                 l1005 3ED4  
               l1006 3FFE                 l1014 3FFE  
               l1015 3FD0                 l1007 3F08  
               l1008 3FFE                 l1016 3FFE  
               l1017 3FFE                 l1009 3F3A  
               l1282 304A                 l1290 3028  
               l1291 3036                 l1284 304A  
               l1285 3004                 l1287 3040  
               l1288 3014                 l1289 302C  
               _ADON 007E10                 _FERR 007D5A  
               _LATA 000F89                 _LATB 000F8A  
               _LATC 000F8B                 u5000 33E8  
               u5001 33E4                 u5010 3408  
               u5011 3404                 u5100 34E6  
               u5020 341A                 u5101 34E2  
               u5021 3416                 u5110 3506  
               u5030 343C                 u5111 3502  
               u5031 3438                 u6000 3D62  
               u5200 35E4                 u5120 3518  
               u5040 344E                 u6001 3D5E  
               u5201 35E0                 u5121 3514  
               u5041 344A                 u6010 3D84  
               u5210 3604                 u5130 3538  
               u5050 3470                 u6011 3D80  
               u5211 3600                 u5131 3534  
               u5051 346C                 u6100 3E60  
               u6020 3D96                 u5300 36DE  
               u5220 3616                 u5140 354A  
               u5060 3482                 u6101 3E5C  
               u6021 3D92                 u5301 36DA  
               u5221 3612                 u5141 3546  
               u5061 347E                 u6110 3E80  
               u6030 3DB8                 u5310 36F0  
               u5230 3636                 u5150 356A  
               u5070 34A2                 u6111 3E7C  
               u6031 3DB4                 u5311 36EC  
               u5231 3632                 u5151 3566  
               u5071 349E                 u6200 3F5E  
               u6120 3E92                 u6040 3DCA  
               u5400 37C0                 u5320 3712  
               u5240 3648                 u5160 357C  
               u5080 34B4                 u6201 3F5A  
               u6121 3E8E                 u6041 3DC6  
               u5401 37BC                 u5321 370E  
               u5241 3644                 u5161 3578  
               u5081 34B0                 u6210 3F7E  
               u6130 3EB2                 u6050 3DEA  
               u5410 37E0                 u5330 3724  
               u5250 3668                 u5170 359E  
               u5090 34D4                 u6211 3F7A  
               u6131 3EAE                 u6051 3DE6  
               u5411 37DC                 u5331 3720  
               u5251 3664                 u5171 359A  
               u5091 34D0                 u6220 3F90  
               u6140 3EC4                 u6060 3DFC  
               u5500 38AC                 u5420 37F2  
               u5340 3736                 u5260 367A  
               u5180 35B0                 u6300 3120  
               u6221 3F8C                 u6141 3EC0  
               u6061 3DF8                 u5501 38A8  
               u5421 37EE                 u5341 3732  
               u5261 3676                 u5181 35AC  
               u6301 311C                 u6230 3FB0  
               u6150 3EE6                 u6070 3E1C  
               u5510 38BE                 u5430 3804  
               u5350 3758                 u5270 369A  
               u5190 35D2                 u6310 31D8  
               u6231 3FAC                 u6151 3EE2  
               u6071 3E18                 u5511 38BA  
               u5431 3800                 u5351 3754  
               u5271 3696                 u5191 35CE  
               u6311 31D4                 u6240 3FC2  
               u6160 3EF8                 u6080 3E2E  
               u5600 39AA                 u5520 38E0  
               u5440 3824                 u5360 376A  
               u5280 36AC                 u4800 3228  
               u6320 31FE                 u6241 3FBE  
               u6161 3EF4                 u6081 3E2A  
               u5601 39A6                 u5521 38DC  
               u5441 3820                 u5361 3766  
               u5281 36A8                 u4801 3224  
               u6321 31FA                 u6250 3FE2  
               u6170 3F1A                 u6090 3E4E  
               u5610 39BC                 u5530 38F2  
               u5450 3836                 u5370 377C  
               u5290 36CC                 u4810 323A  
               u6251 3FDE                 u6171 3F16  
               u6091 3E4A                 u5611 39B8  
               u5531 38EE                 u5451 3832  
               u5371 3778                 u5291 36C8  
               u4811 3236                 _RCIF 007CF5  
               u6260 3FF4                 u6180 3F2C  
               u5700 3AA8                 u5620 39DC  
               u5540 3914                 u5460 3848  
               u5380 379C                 u4900 330A  
               u4820 324C                 u6261 3FF0  
               u6181 3F28                 u5701 3AA4  
               u5621 39D8                 u5541 3910  
               u5461 3844                 u5381 3798  
               u4901 3306                 u4821 3248  
               u6190 3F4C                 u5710 3ABA  
               u5630 39EE                 u5550 3926  
               u5470 3868                 u5390 37AE  
               u4910 331C                 u4830 326E  
               u6270 30C0                 u6191 3F48  
               u5711 3AB6                 u5631 39EA  
               u5551 3922                 u5471 3864  
               u5391 37AA                 u4911 3318  
               u4831 326A                 u6271 30BC  
               u5800 3B94                 u5720 3ADA  
               u5640 3A0E                 u5560 3946  
               u5480 387A                 u4920 333C  
               u4840 3280                 u6280 30E4  
               _PIR1 000F9E                 u5801 3B90  
               u5721 3AD6                 u5641 3A0A  
               u5561 3942                 u5481 3876  
               u4921 3338                 u4841 327C  
               u6281 30E0                 u5810 3BB6  
               u5730 3AEC                 u5650 3A20  
               u5570 3958                 u5490 388C  
               u4930 334E                 u4850 3292  
               u6290 3106                 u5811 3BB2  
               u5731 3AE8                 u5651 3A1C  
               u5571 3954                 u5491 3888  
               u4931 334A                 u4851 328E  
               u6291 3102                 u5900 3C84  
               u5820 3BC8                 u5740 3B0C  
               u5660 3A42                 u5580 3978  
               u4940 3360                 u4860 32B4  
               u5901 3C80                 u5821 3BC4  
               u5741 3B08                 u5661 3A3E  
               u5581 3974                 u4941 335C  
               u4861 32B0                 u5910 3C96  
               u5830 3BDA                 u5750 3B1E  
               u5670 3A54                 u5590 398A  
               u4950 3380                 u4870 32C6  
               u5911 3C92                 u5831 3BD6  
               u5751 3B1A                 u5671 3A50  
               u5591 3986                 u4951 337C  
               u4871 32C2                 u5920 3CA8  
               u5840 3BFC                 u5760 3B3E  
               u5680 3A76                 u4960 3392  
               u4880 32D8                 u5921 3CA4  
               u5841 3BF8                 u5761 3B3A  
               u5681 3A72                 u4961 338E  
               u4881 32D4                 _OERR 007D59  
               u5930 3CC8                 u5850 3C0E  
               u5770 3B50                 u5690 3A88  
               u4970 33A4                 u4890 32F8  
               u5931 3CC4                 u5851 3C0A  
               u5771 3B4C                 u5691 3A84  
               u4971 33A0                 u4891 32F4  
               u5940 3CDA                 u5860 3C20  
               u5780 3B70                 u4980 33C4  
               u5941 3CD6                 u5861 3C1C  
               u5781 3B6C                 u4981 33C0  
               u5950 3CEC                 u5870 3C40  
               u5790 3B82                 u4990 33D6  
               u5951 3CE8                 u5871 3C3C  
               u5791 3B7E                 u4991 33D2  
               u5960 3D0C                 u5880 3C52  
               u5961 3D08                 u5881 3C4E  
               u5970 3D1E                 u5890 3C64  
               u5971 3D1A                 u5891 3C60  
               u5980 3D30                 u5981 3D2C  
               u5990 3D50                 u5991 3D4C  
               _RX9D 007D58                 _TX9D 007D60  
               _TXIF 007CF4                 _main 304C  
               indf0 000FEF                 fsr0l 000FE9  
               start 0000      __end_of_DelayMs 304C  
              ?_main 0100                _RCREG 000FAE  
              _RCSTA 000FAB                _SPBRG 000FAF  
              _TRISA 000F92                _TRISB 000F93  
              _TRISC 000F94                _RX9_x 007D5E  
              _TXREG 000FAD                _TX9_x 007D66  
              _TXSTA 000FAC                _index 000026  
              status 000FD8         __end_of_main 3216  
             ??_main 0104        __activetblptr 000000  
             _ADCON0 000FC2               _ADCON1 000FC1  
             _ADCON2 000FC0               _ADRESH 000FC4  
             _ADRESL 000FC3               _BRGH_x 007D62  
             _GODONE 007E11               _CREN_x 007D5C  
             _CSRC_x 007D67            ??_DelayMs 010A  
             _RCIE_x 007CED               _OSCCON 000FD3  
             _SPBRGH 000FB0               _TRISC6 007CA6  
             _TRISC7 007CA7               _SPEN_x 007D5F  
             _SREN_x 007D5D               _TRMT_x 007D61  
             _TXIE_x 007CEC               _TXEN_x 007D65  
             _SYNC_x 007D64               __Ldata 000000  
         _ToggleLeds 3216         __mediumconst 0D00  
         __accesstop 0060           _change_val 000029  
            _BAUDCON 000FB8          ?_ToggleLeds 0109  
            _SENDB_x 007D63              _DelayMs 3004  
            __Hparam 010D           _cur_inputs 00001B  
            __Lparam 0100              _adc_num 00001A  
            __ramtop 0D00        __Lmediumconst 0D00  
       DelayMs@_dcnt 010B            __Habsbss0 000034  
          __Labsbss0 000000         ??_ToggleLeds 0109  
           ?_DelayMs 0109   __end_of_ToggleLeds 4000  
          _led_array 000000          __smallconst 0D00  
           DelayMs@i 010A            main@count 0104  
        _conv_result 000022             __Hparam1 010D  
           __Lparam1 0100         __Lsmallconst 0D00  
           __config1 00F0FF             __config2 00FEFF  
           __config3 007FFF             __config4 00FFFB  
           __config5 00FFFF             __config6 00FFFF  
           __config7 00FFFF             _old_ntoe 000032  
           _new_note 000033             _uart_out 000028  
           main@argc 0100             main@argv 0102  
           main@uout 0107           DelayMs@cnt 0109  
        _prev_inputs 00002B         _USART_Status 00002A  
